ARM GAS  /tmp/ccsUcftD.s 			page 1


   1              		.syntax unified
   2              		.cpu cortex-m4
   3              		.eabi_attribute 27, 3
   4              		.eabi_attribute 28, 1
   5              		.fpu fpv4-sp-d16
   6              		.eabi_attribute 20, 1
   7              		.eabi_attribute 21, 1
   8              		.eabi_attribute 23, 3
   9              		.eabi_attribute 24, 1
  10              		.eabi_attribute 25, 1
  11              		.eabi_attribute 26, 1
  12              		.eabi_attribute 30, 6
  13              		.eabi_attribute 34, 1
  14              		.eabi_attribute 18, 4
  15              		.thumb
  16              		.file	"adc.c"
  17              		.text
  18              	.Ltext0:
  19              		.cfi_sections	.debug_frame
  20              		.section	.text.adcInit,"ax",%progbits
  21              		.align	2
  22              		.p2align 4,,15
  23              		.global	adcInit
  24              		.thumb
  25              		.thumb_func
  26              		.type	adcInit, %function
  27              	adcInit:
  28              	.LFB118:
  29              		.file 1 "/home/dave/r2p-sdk/core/ChibiOS/os/hal/src/adc.c"
  30              		.loc 1 68 0
  31              		.cfi_startproc
  32              		@ args = 0, pretend = 0, frame = 0
  33              		@ frame_needed = 0, uses_anonymous_args = 0
  34 0000 08B5     		push	{r3, lr}
  35              		.cfi_def_cfa_offset 8
  36              		.cfi_offset 3, -8
  37              		.cfi_offset 14, -4
  38              		.loc 1 70 0
  39 0002 FFF7FEFF 		bl	adc_lld_init
  40              		.loc 1 71 0
  41 0006 08BD     		pop	{r3, pc}
  42              		.cfi_endproc
  43              	.LFE118:
  44              		.size	adcInit, .-adcInit
  45 0008 AFF30080 		.section	.text.adcObjectInit,"ax",%progbits
  45      AFF30080 
  46              		.align	2
  47              		.p2align 4,,15
  48              		.global	adcObjectInit
  49              		.thumb
  50              		.thumb_func
  51              		.type	adcObjectInit, %function
  52              	adcObjectInit:
  53              	.LFB119:
  54              		.loc 1 80 0
  55              		.cfi_startproc
  56              		@ args = 0, pretend = 0, frame = 8
ARM GAS  /tmp/ccsUcftD.s 			page 2


  57              		@ frame_needed = 0, uses_anonymous_args = 0
  58 0000 00B5     		push	{lr}
  59              		.cfi_def_cfa_offset 4
  60              		.cfi_offset 14, -4
  61 0002 83B0     		sub	sp, sp, #12
  62              		.cfi_def_cfa_offset 16
  63 0004 0190     		str	r0, [sp, #4]
  64              		.loc 1 82 0
  65 0006 019B     		ldr	r3, [sp, #4]
  66 0008 0122     		movs	r2, #1
  67 000a 1A70     		strb	r2, [r3]
  68              		.loc 1 83 0
  69 000c 019B     		ldr	r3, [sp, #4]
  70 000e 0022     		movs	r2, #0
  71 0010 5A60     		str	r2, [r3, #4]
  72              		.loc 1 84 0
  73 0012 019B     		ldr	r3, [sp, #4]
  74 0014 0022     		movs	r2, #0
  75 0016 9A60     		str	r2, [r3, #8]
  76              		.loc 1 85 0
  77 0018 019B     		ldr	r3, [sp, #4]
  78 001a 0022     		movs	r2, #0
  79 001c DA60     		str	r2, [r3, #12]
  80              		.loc 1 86 0
  81 001e 019B     		ldr	r3, [sp, #4]
  82 0020 0022     		movs	r2, #0
  83 0022 1A61     		str	r2, [r3, #16]
  84              		.loc 1 88 0
  85 0024 019B     		ldr	r3, [sp, #4]
  86 0026 0022     		movs	r2, #0
  87 0028 5A61     		str	r2, [r3, #20]
  88              		.loc 1 92 0
  89 002a 019B     		ldr	r3, [sp, #4]
  90 002c 1833     		adds	r3, r3, #24
  91 002e 1846     		mov	r0, r3
  92 0030 FFF7FEFF 		bl	chMtxInit
  93              		.loc 1 100 0
  94 0034 03B0     		add	sp, sp, #12
  95              		@ sp needed
  96 0036 5DF804FB 		ldr	pc, [sp], #4
  97              		.cfi_endproc
  98              	.LFE119:
  99              		.size	adcObjectInit, .-adcObjectInit
 100              		.section	.rodata
 101              		.align	2
 102              	.LC0:
 103 0000 22616463 		.ascii	"\"adcStart\"()\000"
 103      53746172 
 103      74222829 
 103      00
 104 000d 000000   		.align	2
 105              	.LC1:
 106 0010 61646353 		.ascii	"adcStart(), #1\000"
 106      74617274 
 106      28292C20 
 106      233100
 107              		.section	.text.adcStart,"ax",%progbits
ARM GAS  /tmp/ccsUcftD.s 			page 3


 108              		.align	2
 109              		.p2align 4,,15
 110              		.global	adcStart
 111              		.thumb
 112              		.thumb_func
 113              		.type	adcStart, %function
 114              	adcStart:
 115              	.LFB120:
 116              		.loc 1 111 0
 117              		.cfi_startproc
 118              		@ args = 0, pretend = 0, frame = 8
 119              		@ frame_needed = 0, uses_anonymous_args = 0
 120 0000 00B5     		push	{lr}
 121              		.cfi_def_cfa_offset 4
 122              		.cfi_offset 14, -4
 123 0002 83B0     		sub	sp, sp, #12
 124              		.cfi_def_cfa_offset 16
 125 0004 0190     		str	r0, [sp, #4]
 126 0006 0091     		str	r1, [sp]
 127              		.loc 1 113 0
 128 0008 019B     		ldr	r3, [sp, #4]
 129 000a 002B     		cmp	r3, #0
 130 000c 02D1     		bne	.L4
 131              		.loc 1 113 0 is_stmt 0 discriminator 1
 132 000e 1248     		ldr	r0, .L6
 133 0010 FFF7FEFF 		bl	chDbgPanic
 134              	.L4:
 135              	.LBB2:
 136              		.loc 1 115 0 is_stmt 1
 137 0014 2023     		movs	r3, #32
 138              	@ 115 "/home/dave/r2p-sdk/core/ChibiOS/os/hal/src/adc.c" 1
 139 0016 83F31188 		msr     BASEPRI, r3
 140              	@ 0 "" 2
 141              		.thumb
 142              	.LBE2:
 143 001a FFF7FEFF 		bl	dbg_check_lock
 144              		.loc 1 116 0
 145 001e 019B     		ldr	r3, [sp, #4]
 146 0020 1B78     		ldrb	r3, [r3]	@ zero_extendqisi2
 147 0022 012B     		cmp	r3, #1
 148 0024 06D0     		beq	.L5
 149              		.loc 1 116 0 is_stmt 0 discriminator 1
 150 0026 019B     		ldr	r3, [sp, #4]
 151 0028 1B78     		ldrb	r3, [r3]	@ zero_extendqisi2
 152 002a 022B     		cmp	r3, #2
 153 002c 02D0     		beq	.L5
 154 002e 0B48     		ldr	r0, .L6+4
 155 0030 FFF7FEFF 		bl	chDbgPanic
 156              	.L5:
 157              		.loc 1 118 0 is_stmt 1
 158 0034 019B     		ldr	r3, [sp, #4]
 159 0036 009A     		ldr	r2, [sp]
 160 0038 5A60     		str	r2, [r3, #4]
 161              		.loc 1 119 0
 162 003a 0198     		ldr	r0, [sp, #4]
 163 003c FFF7FEFF 		bl	adc_lld_start
 164              		.loc 1 120 0
ARM GAS  /tmp/ccsUcftD.s 			page 4


 165 0040 019B     		ldr	r3, [sp, #4]
 166 0042 0222     		movs	r2, #2
 167 0044 1A70     		strb	r2, [r3]
 168              		.loc 1 121 0
 169 0046 FFF7FEFF 		bl	dbg_check_unlock
 170              	.LBB3:
 171 004a 0023     		movs	r3, #0
 172              	@ 121 "/home/dave/r2p-sdk/core/ChibiOS/os/hal/src/adc.c" 1
 173 004c 83F31188 		msr     BASEPRI, r3
 174              	@ 0 "" 2
 175              		.thumb
 176              	.LBE3:
 177              		.loc 1 122 0
 178 0050 03B0     		add	sp, sp, #12
 179              		@ sp needed
 180 0052 5DF804FB 		ldr	pc, [sp], #4
 181              	.L7:
 182 0056 00BF     		.align	2
 183              	.L6:
 184 0058 00000000 		.word	.LC0
 185 005c 10000000 		.word	.LC1
 186              		.cfi_endproc
 187              	.LFE120:
 188              		.size	adcStart, .-adcStart
 189              		.section	.rodata
 190 001f 00       		.align	2
 191              	.LC2:
 192 0020 22616463 		.ascii	"\"adcStop\"()\000"
 192      53746F70 
 192      22282900 
 193              		.align	2
 194              	.LC3:
 195 002c 61646353 		.ascii	"adcStop(), #1\000"
 195      746F7028 
 195      292C2023 
 195      3100
 196              		.section	.text.adcStop,"ax",%progbits
 197              		.align	2
 198              		.p2align 4,,15
 199              		.global	adcStop
 200              		.thumb
 201              		.thumb_func
 202              		.type	adcStop, %function
 203              	adcStop:
 204              	.LFB121:
 205              		.loc 1 131 0
 206              		.cfi_startproc
 207              		@ args = 0, pretend = 0, frame = 8
 208              		@ frame_needed = 0, uses_anonymous_args = 0
 209 0000 00B5     		push	{lr}
 210              		.cfi_def_cfa_offset 4
 211              		.cfi_offset 14, -4
 212 0002 83B0     		sub	sp, sp, #12
 213              		.cfi_def_cfa_offset 16
 214 0004 0190     		str	r0, [sp, #4]
 215              		.loc 1 133 0
 216 0006 019B     		ldr	r3, [sp, #4]
ARM GAS  /tmp/ccsUcftD.s 			page 5


 217 0008 002B     		cmp	r3, #0
 218 000a 02D1     		bne	.L9
 219              		.loc 1 133 0 is_stmt 0 discriminator 1
 220 000c 1048     		ldr	r0, .L11
 221 000e FFF7FEFF 		bl	chDbgPanic
 222              	.L9:
 223              	.LBB4:
 224              		.loc 1 135 0 is_stmt 1
 225 0012 2023     		movs	r3, #32
 226              	@ 135 "/home/dave/r2p-sdk/core/ChibiOS/os/hal/src/adc.c" 1
 227 0014 83F31188 		msr     BASEPRI, r3
 228              	@ 0 "" 2
 229              		.thumb
 230              	.LBE4:
 231 0018 FFF7FEFF 		bl	dbg_check_lock
 232              		.loc 1 136 0
 233 001c 019B     		ldr	r3, [sp, #4]
 234 001e 1B78     		ldrb	r3, [r3]	@ zero_extendqisi2
 235 0020 012B     		cmp	r3, #1
 236 0022 06D0     		beq	.L10
 237              		.loc 1 136 0 is_stmt 0 discriminator 1
 238 0024 019B     		ldr	r3, [sp, #4]
 239 0026 1B78     		ldrb	r3, [r3]	@ zero_extendqisi2
 240 0028 022B     		cmp	r3, #2
 241 002a 02D0     		beq	.L10
 242 002c 0948     		ldr	r0, .L11+4
 243 002e FFF7FEFF 		bl	chDbgPanic
 244              	.L10:
 245              		.loc 1 138 0 is_stmt 1
 246 0032 0198     		ldr	r0, [sp, #4]
 247 0034 FFF7FEFF 		bl	adc_lld_stop
 248              		.loc 1 139 0
 249 0038 019B     		ldr	r3, [sp, #4]
 250 003a 0122     		movs	r2, #1
 251 003c 1A70     		strb	r2, [r3]
 252              		.loc 1 140 0
 253 003e FFF7FEFF 		bl	dbg_check_unlock
 254              	.LBB5:
 255 0042 0023     		movs	r3, #0
 256              	@ 140 "/home/dave/r2p-sdk/core/ChibiOS/os/hal/src/adc.c" 1
 257 0044 83F31188 		msr     BASEPRI, r3
 258              	@ 0 "" 2
 259              		.thumb
 260              	.LBE5:
 261              		.loc 1 141 0
 262 0048 03B0     		add	sp, sp, #12
 263              		@ sp needed
 264 004a 5DF804FB 		ldr	pc, [sp], #4
 265              	.L12:
 266 004e 00BF     		.align	2
 267              	.L11:
 268 0050 20000000 		.word	.LC2
 269 0054 2C000000 		.word	.LC3
 270              		.cfi_endproc
 271              	.LFE121:
 272              		.size	adcStop, .-adcStop
 273 0058 AFF30080 		.section	.text.adcStartConversion,"ax",%progbits
ARM GAS  /tmp/ccsUcftD.s 			page 6


 273      AFF30080 
 274              		.align	2
 275              		.p2align 4,,15
 276              		.global	adcStartConversion
 277              		.thumb
 278              		.thumb_func
 279              		.type	adcStartConversion, %function
 280              	adcStartConversion:
 281              	.LFB122:
 282              		.loc 1 162 0
 283              		.cfi_startproc
 284              		@ args = 0, pretend = 0, frame = 16
 285              		@ frame_needed = 0, uses_anonymous_args = 0
 286 0000 00B5     		push	{lr}
 287              		.cfi_def_cfa_offset 4
 288              		.cfi_offset 14, -4
 289 0002 85B0     		sub	sp, sp, #20
 290              		.cfi_def_cfa_offset 24
 291 0004 0390     		str	r0, [sp, #12]
 292 0006 0291     		str	r1, [sp, #8]
 293 0008 0192     		str	r2, [sp, #4]
 294 000a 0093     		str	r3, [sp]
 295              	.LBB6:
 296              		.loc 1 164 0
 297 000c 2023     		movs	r3, #32
 298              	@ 164 "/home/dave/r2p-sdk/core/ChibiOS/os/hal/src/adc.c" 1
 299 000e 83F31188 		msr     BASEPRI, r3
 300              	@ 0 "" 2
 301              		.thumb
 302              	.LBE6:
 303 0012 FFF7FEFF 		bl	dbg_check_lock
 304              		.loc 1 165 0
 305 0016 0398     		ldr	r0, [sp, #12]
 306 0018 0299     		ldr	r1, [sp, #8]
 307 001a 019A     		ldr	r2, [sp, #4]
 308 001c 009B     		ldr	r3, [sp]
 309 001e FFF7FEFF 		bl	adcStartConversionI
 310              		.loc 1 166 0
 311 0022 FFF7FEFF 		bl	dbg_check_unlock
 312              	.LBB7:
 313 0026 0023     		movs	r3, #0
 314              	@ 166 "/home/dave/r2p-sdk/core/ChibiOS/os/hal/src/adc.c" 1
 315 0028 83F31188 		msr     BASEPRI, r3
 316              	@ 0 "" 2
 317              		.thumb
 318              	.LBE7:
 319              		.loc 1 167 0
 320 002c 05B0     		add	sp, sp, #20
 321              		@ sp needed
 322 002e 5DF804FB 		ldr	pc, [sp], #4
 323              		.cfi_endproc
 324              	.LFE122:
 325              		.size	adcStartConversion, .-adcStartConversion
 326 0032 00BFAFF3 		.section	.rodata
 326      0080AFF3 
 326      0080AFF3 
 326      0080
ARM GAS  /tmp/ccsUcftD.s 			page 7


 327 003a 0000     		.align	2
 328              	.LC4:
 329 003c 22616463 		.ascii	"\"adcStartConversionI\"()\000"
 329      53746172 
 329      74436F6E 
 329      76657273 
 329      696F6E49 
 330              		.align	2
 331              	.LC5:
 332 0054 61646353 		.ascii	"adcStartConversionI(), #1\000"
 332      74617274 
 332      436F6E76 
 332      65727369 
 332      6F6E4928 
 333              		.section	.text.adcStartConversionI,"ax",%progbits
 334              		.align	2
 335              		.p2align 4,,15
 336              		.global	adcStartConversionI
 337              		.thumb
 338              		.thumb_func
 339              		.type	adcStartConversionI, %function
 340              	adcStartConversionI:
 341              	.LFB123:
 342              		.loc 1 190 0
 343              		.cfi_startproc
 344              		@ args = 0, pretend = 0, frame = 16
 345              		@ frame_needed = 0, uses_anonymous_args = 0
 346 0000 00B5     		push	{lr}
 347              		.cfi_def_cfa_offset 4
 348              		.cfi_offset 14, -4
 349 0002 85B0     		sub	sp, sp, #20
 350              		.cfi_def_cfa_offset 24
 351 0004 0390     		str	r0, [sp, #12]
 352 0006 0291     		str	r1, [sp, #8]
 353 0008 0192     		str	r2, [sp, #4]
 354 000a 0093     		str	r3, [sp]
 355              		.loc 1 192 0
 356 000c FFF7FEFF 		bl	chDbgCheckClassI
 357              		.loc 1 193 0
 358 0010 039B     		ldr	r3, [sp, #12]
 359 0012 002B     		cmp	r3, #0
 360 0014 0DD0     		beq	.L15
 361              		.loc 1 193 0 is_stmt 0 discriminator 2
 362 0016 029B     		ldr	r3, [sp, #8]
 363 0018 002B     		cmp	r3, #0
 364 001a 0AD0     		beq	.L15
 365              		.loc 1 193 0 discriminator 1
 366 001c 019B     		ldr	r3, [sp, #4]
 367 001e 002B     		cmp	r3, #0
 368 0020 07D0     		beq	.L15
 369 0022 009B     		ldr	r3, [sp]
 370 0024 012B     		cmp	r3, #1
 371 0026 07D0     		beq	.L16
 372 0028 009B     		ldr	r3, [sp]
 373 002a 03F00103 		and	r3, r3, #1
 374 002e 002B     		cmp	r3, #0
 375 0030 02D0     		beq	.L16
ARM GAS  /tmp/ccsUcftD.s 			page 8


 376              	.L15:
 377 0032 1248     		ldr	r0, .L18
 378 0034 FFF7FEFF 		bl	chDbgPanic
 379              	.L16:
 380              		.loc 1 196 0 is_stmt 1
 381 0038 039B     		ldr	r3, [sp, #12]
 382 003a 1B78     		ldrb	r3, [r3]	@ zero_extendqisi2
 383 003c 022B     		cmp	r3, #2
 384 003e 0AD0     		beq	.L17
 385              		.loc 1 196 0 is_stmt 0 discriminator 1
 386 0040 039B     		ldr	r3, [sp, #12]
 387 0042 1B78     		ldrb	r3, [r3]	@ zero_extendqisi2
 388 0044 042B     		cmp	r3, #4
 389 0046 06D0     		beq	.L17
 390 0048 039B     		ldr	r3, [sp, #12]
 391 004a 1B78     		ldrb	r3, [r3]	@ zero_extendqisi2
 392 004c 052B     		cmp	r3, #5
 393 004e 02D0     		beq	.L17
 394 0050 0B48     		ldr	r0, .L18+4
 395 0052 FFF7FEFF 		bl	chDbgPanic
 396              	.L17:
 397              		.loc 1 201 0 is_stmt 1
 398 0056 039B     		ldr	r3, [sp, #12]
 399 0058 019A     		ldr	r2, [sp, #4]
 400 005a 9A60     		str	r2, [r3, #8]
 401              		.loc 1 202 0
 402 005c 039B     		ldr	r3, [sp, #12]
 403 005e 009A     		ldr	r2, [sp]
 404 0060 DA60     		str	r2, [r3, #12]
 405              		.loc 1 203 0
 406 0062 039B     		ldr	r3, [sp, #12]
 407 0064 029A     		ldr	r2, [sp, #8]
 408 0066 1A61     		str	r2, [r3, #16]
 409              		.loc 1 204 0
 410 0068 039B     		ldr	r3, [sp, #12]
 411 006a 0322     		movs	r2, #3
 412 006c 1A70     		strb	r2, [r3]
 413              		.loc 1 205 0
 414 006e 0398     		ldr	r0, [sp, #12]
 415 0070 FFF7FEFF 		bl	adc_lld_start_conversion
 416              		.loc 1 206 0
 417 0074 05B0     		add	sp, sp, #20
 418              		@ sp needed
 419 0076 5DF804FB 		ldr	pc, [sp], #4
 420              	.L19:
 421 007a 00BF     		.align	2
 422              	.L18:
 423 007c 3C000000 		.word	.LC4
 424 0080 54000000 		.word	.LC5
 425              		.cfi_endproc
 426              	.LFE123:
 427              		.size	adcStartConversionI, .-adcStartConversionI
 428 0084 AFF30080 		.section	.rodata
 428      AFF30080 
 428      AFF30080 
 429 006e 0000     		.align	2
 430              	.LC6:
ARM GAS  /tmp/ccsUcftD.s 			page 9


 431 0070 22616463 		.ascii	"\"adcStopConversion\"()\000"
 431      53746F70 
 431      436F6E76 
 431      65727369 
 431      6F6E2228 
 432 0086 0000     		.align	2
 433              	.LC7:
 434 0088 61646353 		.ascii	"adcStopConversion(), #1\000"
 434      746F7043 
 434      6F6E7665 
 434      7273696F 
 434      6E28292C 
 435              		.section	.text.adcStopConversion,"ax",%progbits
 436              		.align	2
 437              		.p2align 4,,15
 438              		.global	adcStopConversion
 439              		.thumb
 440              		.thumb_func
 441              		.type	adcStopConversion, %function
 442              	adcStopConversion:
 443              	.LFB124:
 444              		.loc 1 218 0
 445              		.cfi_startproc
 446              		@ args = 0, pretend = 0, frame = 16
 447              		@ frame_needed = 0, uses_anonymous_args = 0
 448 0000 00B5     		push	{lr}
 449              		.cfi_def_cfa_offset 4
 450              		.cfi_offset 14, -4
 451 0002 85B0     		sub	sp, sp, #20
 452              		.cfi_def_cfa_offset 24
 453 0004 0190     		str	r0, [sp, #4]
 454              		.loc 1 220 0
 455 0006 019B     		ldr	r3, [sp, #4]
 456 0008 002B     		cmp	r3, #0
 457 000a 02D1     		bne	.L21
 458              		.loc 1 220 0 is_stmt 0 discriminator 1
 459 000c 1B48     		ldr	r0, .L24
 460 000e FFF7FEFF 		bl	chDbgPanic
 461              	.L21:
 462              	.LBB8:
 463              		.loc 1 222 0 is_stmt 1
 464 0012 2023     		movs	r3, #32
 465              	@ 222 "/home/dave/r2p-sdk/core/ChibiOS/os/hal/src/adc.c" 1
 466 0014 83F31188 		msr     BASEPRI, r3
 467              	@ 0 "" 2
 468              		.thumb
 469              	.LBE8:
 470 0018 FFF7FEFF 		bl	dbg_check_lock
 471              		.loc 1 223 0
 472 001c 019B     		ldr	r3, [sp, #4]
 473 001e 1B78     		ldrb	r3, [r3]	@ zero_extendqisi2
 474 0020 022B     		cmp	r3, #2
 475 0022 06D0     		beq	.L22
 476              		.loc 1 223 0 is_stmt 0 discriminator 1
 477 0024 019B     		ldr	r3, [sp, #4]
 478 0026 1B78     		ldrb	r3, [r3]	@ zero_extendqisi2
 479 0028 032B     		cmp	r3, #3
ARM GAS  /tmp/ccsUcftD.s 			page 10


 480 002a 02D0     		beq	.L22
 481 002c 1448     		ldr	r0, .L24+4
 482 002e FFF7FEFF 		bl	chDbgPanic
 483              	.L22:
 484              		.loc 1 226 0 is_stmt 1
 485 0032 019B     		ldr	r3, [sp, #4]
 486 0034 1B78     		ldrb	r3, [r3]	@ zero_extendqisi2
 487 0036 022B     		cmp	r3, #2
 488 0038 17D0     		beq	.L23
 489              		.loc 1 227 0
 490 003a 0198     		ldr	r0, [sp, #4]
 491 003c FFF7FEFF 		bl	adc_lld_stop_conversion
 492              		.loc 1 228 0
 493 0040 019B     		ldr	r3, [sp, #4]
 494 0042 0022     		movs	r2, #0
 495 0044 1A61     		str	r2, [r3, #16]
 496              		.loc 1 229 0
 497 0046 019B     		ldr	r3, [sp, #4]
 498 0048 0222     		movs	r2, #2
 499 004a 1A70     		strb	r2, [r3]
 500              		.loc 1 230 0
 501 004c 019B     		ldr	r3, [sp, #4]
 502 004e 5B69     		ldr	r3, [r3, #20]
 503 0050 002B     		cmp	r3, #0
 504 0052 0AD0     		beq	.L23
 505              	.LBB9:
 506              		.loc 1 230 0 is_stmt 0 discriminator 1
 507 0054 019B     		ldr	r3, [sp, #4]
 508 0056 5B69     		ldr	r3, [r3, #20]
 509 0058 0393     		str	r3, [sp, #12]
 510 005a 019B     		ldr	r3, [sp, #4]
 511 005c 0022     		movs	r2, #0
 512 005e 5A61     		str	r2, [r3, #20]
 513 0060 0398     		ldr	r0, [sp, #12]
 514 0062 6FF00101 		mvn	r1, #1
 515 0066 FFF7FEFF 		bl	chSchWakeupS
 516              	.L23:
 517              	.LBE9:
 518              		.loc 1 232 0 is_stmt 1
 519 006a FFF7FEFF 		bl	dbg_check_unlock
 520              	.LBB10:
 521 006e 0023     		movs	r3, #0
 522              	@ 232 "/home/dave/r2p-sdk/core/ChibiOS/os/hal/src/adc.c" 1
 523 0070 83F31188 		msr     BASEPRI, r3
 524              	@ 0 "" 2
 525              		.thumb
 526              	.LBE10:
 527              		.loc 1 233 0
 528 0074 05B0     		add	sp, sp, #20
 529              		@ sp needed
 530 0076 5DF804FB 		ldr	pc, [sp], #4
 531              	.L25:
 532 007a 00BF     		.align	2
 533              	.L24:
 534 007c 70000000 		.word	.LC6
 535 0080 88000000 		.word	.LC7
 536              		.cfi_endproc
ARM GAS  /tmp/ccsUcftD.s 			page 11


 537              	.LFE124:
 538              		.size	adcStopConversion, .-adcStopConversion
 539 0084 AFF30080 		.section	.rodata
 539      AFF30080 
 539      AFF30080 
 540              		.align	2
 541              	.LC8:
 542 00a0 22616463 		.ascii	"\"adcStopConversionI\"()\000"
 542      53746F70 
 542      436F6E76 
 542      65727369 
 542      6F6E4922 
 543 00b7 00       		.align	2
 544              	.LC9:
 545 00b8 61646353 		.ascii	"adcStopConversionI(), #1\000"
 545      746F7043 
 545      6F6E7665 
 545      7273696F 
 545      6E492829 
 546              		.section	.text.adcStopConversionI,"ax",%progbits
 547              		.align	2
 548              		.p2align 4,,15
 549              		.global	adcStopConversionI
 550              		.thumb
 551              		.thumb_func
 552              		.type	adcStopConversionI, %function
 553              	adcStopConversionI:
 554              	.LFB125:
 555              		.loc 1 245 0
 556              		.cfi_startproc
 557              		@ args = 0, pretend = 0, frame = 16
 558              		@ frame_needed = 0, uses_anonymous_args = 0
 559 0000 00B5     		push	{lr}
 560              		.cfi_def_cfa_offset 4
 561              		.cfi_offset 14, -4
 562 0002 85B0     		sub	sp, sp, #20
 563              		.cfi_def_cfa_offset 24
 564 0004 0190     		str	r0, [sp, #4]
 565              		.loc 1 247 0
 566 0006 FFF7FEFF 		bl	chDbgCheckClassI
 567              		.loc 1 248 0
 568 000a 019B     		ldr	r3, [sp, #4]
 569 000c 002B     		cmp	r3, #0
 570 000e 02D1     		bne	.L27
 571              		.loc 1 248 0 is_stmt 0 discriminator 1
 572 0010 1948     		ldr	r0, .L30
 573 0012 FFF7FEFF 		bl	chDbgPanic
 574              	.L27:
 575              		.loc 1 249 0 is_stmt 1
 576 0016 019B     		ldr	r3, [sp, #4]
 577 0018 1B78     		ldrb	r3, [r3]	@ zero_extendqisi2
 578 001a 022B     		cmp	r3, #2
 579 001c 0AD0     		beq	.L28
 580              		.loc 1 249 0 is_stmt 0 discriminator 1
 581 001e 019B     		ldr	r3, [sp, #4]
 582 0020 1B78     		ldrb	r3, [r3]	@ zero_extendqisi2
 583 0022 032B     		cmp	r3, #3
ARM GAS  /tmp/ccsUcftD.s 			page 12


 584 0024 06D0     		beq	.L28
 585 0026 019B     		ldr	r3, [sp, #4]
 586 0028 1B78     		ldrb	r3, [r3]	@ zero_extendqisi2
 587 002a 042B     		cmp	r3, #4
 588 002c 02D0     		beq	.L28
 589 002e 1348     		ldr	r0, .L30+4
 590 0030 FFF7FEFF 		bl	chDbgPanic
 591              	.L28:
 592              		.loc 1 254 0 is_stmt 1
 593 0034 019B     		ldr	r3, [sp, #4]
 594 0036 1B78     		ldrb	r3, [r3]	@ zero_extendqisi2
 595 0038 022B     		cmp	r3, #2
 596 003a 19D0     		beq	.L26
 597              		.loc 1 255 0
 598 003c 0198     		ldr	r0, [sp, #4]
 599 003e FFF7FEFF 		bl	adc_lld_stop_conversion
 600              		.loc 1 256 0
 601 0042 019B     		ldr	r3, [sp, #4]
 602 0044 0022     		movs	r2, #0
 603 0046 1A61     		str	r2, [r3, #16]
 604              		.loc 1 257 0
 605 0048 019B     		ldr	r3, [sp, #4]
 606 004a 0222     		movs	r2, #2
 607 004c 1A70     		strb	r2, [r3]
 608              		.loc 1 258 0
 609 004e 019B     		ldr	r3, [sp, #4]
 610 0050 5B69     		ldr	r3, [r3, #20]
 611 0052 002B     		cmp	r3, #0
 612 0054 0CD0     		beq	.L26
 613              	.LBB11:
 614              		.loc 1 258 0 is_stmt 0 discriminator 1
 615 0056 019B     		ldr	r3, [sp, #4]
 616 0058 5B69     		ldr	r3, [r3, #20]
 617 005a 0393     		str	r3, [sp, #12]
 618 005c 019B     		ldr	r3, [sp, #4]
 619 005e 0022     		movs	r2, #0
 620 0060 5A61     		str	r2, [r3, #20]
 621 0062 039B     		ldr	r3, [sp, #12]
 622 0064 6FF00102 		mvn	r2, #1
 623 0068 9A62     		str	r2, [r3, #40]
 624 006a 0398     		ldr	r0, [sp, #12]
 625 006c FFF7FEFF 		bl	chSchReadyI
 626              	.L26:
 627              	.LBE11:
 628              		.loc 1 260 0 is_stmt 1
 629 0070 05B0     		add	sp, sp, #20
 630              		@ sp needed
 631 0072 5DF804FB 		ldr	pc, [sp], #4
 632              	.L31:
 633 0076 00BF     		.align	2
 634              	.L30:
 635 0078 A0000000 		.word	.LC8
 636 007c B8000000 		.word	.LC9
 637              		.cfi_endproc
 638              	.LFE125:
 639              		.size	adcStopConversionI, .-adcStopConversionI
 640              		.section	.rodata
ARM GAS  /tmp/ccsUcftD.s 			page 13


 641 00d1 000000   		.align	2
 642              	.LC10:
 643 00d4 61646343 		.ascii	"adcConvert(), #1\000"
 643      6F6E7665 
 643      72742829 
 643      2C202331 
 643      00
 644              		.section	.text.adcConvert,"ax",%progbits
 645              		.align	2
 646              		.p2align 4,,15
 647              		.global	adcConvert
 648              		.thumb
 649              		.thumb_func
 650              		.type	adcConvert, %function
 651              	adcConvert:
 652              	.LFB126:
 653              		.loc 1 289 0
 654              		.cfi_startproc
 655              		@ args = 0, pretend = 0, frame = 24
 656              		@ frame_needed = 0, uses_anonymous_args = 0
 657 0000 00B5     		push	{lr}
 658              		.cfi_def_cfa_offset 4
 659              		.cfi_offset 14, -4
 660 0002 87B0     		sub	sp, sp, #28
 661              		.cfi_def_cfa_offset 32
 662 0004 0390     		str	r0, [sp, #12]
 663 0006 0291     		str	r1, [sp, #8]
 664 0008 0192     		str	r2, [sp, #4]
 665 000a 0093     		str	r3, [sp]
 666              	.LBB12:
 667              		.loc 1 292 0
 668 000c 2023     		movs	r3, #32
 669              	@ 292 "/home/dave/r2p-sdk/core/ChibiOS/os/hal/src/adc.c" 1
 670 000e 83F31188 		msr     BASEPRI, r3
 671              	@ 0 "" 2
 672              		.thumb
 673              	.LBE12:
 674 0012 FFF7FEFF 		bl	dbg_check_lock
 675              		.loc 1 293 0
 676 0016 039B     		ldr	r3, [sp, #12]
 677 0018 5B69     		ldr	r3, [r3, #20]
 678 001a 002B     		cmp	r3, #0
 679 001c 02D0     		beq	.L33
 680              		.loc 1 293 0 is_stmt 0 discriminator 1
 681 001e 0F48     		ldr	r0, .L35
 682 0020 FFF7FEFF 		bl	chDbgPanic
 683              	.L33:
 684              		.loc 1 294 0 is_stmt 1
 685 0024 0398     		ldr	r0, [sp, #12]
 686 0026 0299     		ldr	r1, [sp, #8]
 687 0028 019A     		ldr	r2, [sp, #4]
 688 002a 009B     		ldr	r3, [sp]
 689 002c FFF7FEFF 		bl	adcStartConversionI
 690              		.loc 1 295 0
 691 0030 0B4B     		ldr	r3, .L35+4
 692 0032 9A69     		ldr	r2, [r3, #24]
 693 0034 039B     		ldr	r3, [sp, #12]
ARM GAS  /tmp/ccsUcftD.s 			page 14


 694 0036 5A61     		str	r2, [r3, #20]
 695              		.loc 1 296 0
 696 0038 0220     		movs	r0, #2
 697 003a FFF7FEFF 		bl	chSchGoSleepS
 698              		.loc 1 297 0
 699 003e 084B     		ldr	r3, .L35+4
 700 0040 9B69     		ldr	r3, [r3, #24]
 701 0042 9B6A     		ldr	r3, [r3, #40]
 702 0044 0593     		str	r3, [sp, #20]
 703              		.loc 1 298 0
 704 0046 FFF7FEFF 		bl	dbg_check_unlock
 705              	.LBB13:
 706 004a 0023     		movs	r3, #0
 707              	@ 298 "/home/dave/r2p-sdk/core/ChibiOS/os/hal/src/adc.c" 1
 708 004c 83F31188 		msr     BASEPRI, r3
 709              	@ 0 "" 2
 710              		.thumb
 711              	.LBE13:
 712              		.loc 1 299 0
 713 0050 059B     		ldr	r3, [sp, #20]
 714              		.loc 1 300 0
 715 0052 1846     		mov	r0, r3
 716 0054 07B0     		add	sp, sp, #28
 717              		@ sp needed
 718 0056 5DF804FB 		ldr	pc, [sp], #4
 719              	.L36:
 720 005a 00BF     		.align	2
 721              	.L35:
 722 005c D4000000 		.word	.LC10
 723 0060 00000000 		.word	rlist
 724              		.cfi_endproc
 725              	.LFE126:
 726              		.size	adcConvert, .-adcConvert
 727 0064 AFF30080 		.section	.rodata
 727      AFF30080 
 727      AFF30080 
 728 00e5 000000   		.align	2
 729              	.LC11:
 730 00e8 22616463 		.ascii	"\"adcAcquireBus\"()\000"
 730      41637175 
 730      69726542 
 730      75732228 
 730      2900
 731              		.section	.text.adcAcquireBus,"ax",%progbits
 732              		.align	2
 733              		.p2align 4,,15
 734              		.global	adcAcquireBus
 735              		.thumb
 736              		.thumb_func
 737              		.type	adcAcquireBus, %function
 738              	adcAcquireBus:
 739              	.LFB127:
 740              		.loc 1 315 0
 741              		.cfi_startproc
 742              		@ args = 0, pretend = 0, frame = 8
 743              		@ frame_needed = 0, uses_anonymous_args = 0
 744 0000 00B5     		push	{lr}
ARM GAS  /tmp/ccsUcftD.s 			page 15


 745              		.cfi_def_cfa_offset 4
 746              		.cfi_offset 14, -4
 747 0002 83B0     		sub	sp, sp, #12
 748              		.cfi_def_cfa_offset 16
 749 0004 0190     		str	r0, [sp, #4]
 750              		.loc 1 317 0
 751 0006 019B     		ldr	r3, [sp, #4]
 752 0008 002B     		cmp	r3, #0
 753 000a 02D1     		bne	.L38
 754              		.loc 1 317 0 is_stmt 0 discriminator 1
 755 000c 0548     		ldr	r0, .L39
 756 000e FFF7FEFF 		bl	chDbgPanic
 757              	.L38:
 758              		.loc 1 320 0 is_stmt 1
 759 0012 019B     		ldr	r3, [sp, #4]
 760 0014 1833     		adds	r3, r3, #24
 761 0016 1846     		mov	r0, r3
 762 0018 FFF7FEFF 		bl	chMtxLock
 763              		.loc 1 324 0
 764 001c 03B0     		add	sp, sp, #12
 765              		@ sp needed
 766 001e 5DF804FB 		ldr	pc, [sp], #4
 767              	.L40:
 768 0022 00BF     		.align	2
 769              	.L39:
 770 0024 E8000000 		.word	.LC11
 771              		.cfi_endproc
 772              	.LFE127:
 773              		.size	adcAcquireBus, .-adcAcquireBus
 774 0028 AFF30080 		.section	.rodata
 774      AFF30080 
 775 00fa 0000     		.align	2
 776              	.LC12:
 777 00fc 22616463 		.ascii	"\"adcReleaseBus\"()\000"
 777      52656C65 
 777      61736542 
 777      75732228 
 777      2900
 778 010e 0000     		.section	.text.adcReleaseBus,"ax",%progbits
 779              		.align	2
 780              		.p2align 4,,15
 781              		.global	adcReleaseBus
 782              		.thumb
 783              		.thumb_func
 784              		.type	adcReleaseBus, %function
 785              	adcReleaseBus:
 786              	.LFB128:
 787              		.loc 1 335 0
 788              		.cfi_startproc
 789              		@ args = 0, pretend = 0, frame = 8
 790              		@ frame_needed = 0, uses_anonymous_args = 0
 791 0000 00B5     		push	{lr}
 792              		.cfi_def_cfa_offset 4
 793              		.cfi_offset 14, -4
 794 0002 83B0     		sub	sp, sp, #12
 795              		.cfi_def_cfa_offset 16
 796 0004 0190     		str	r0, [sp, #4]
ARM GAS  /tmp/ccsUcftD.s 			page 16


 797              		.loc 1 337 0
 798 0006 019B     		ldr	r3, [sp, #4]
 799 0008 002B     		cmp	r3, #0
 800 000a 02D1     		bne	.L42
 801              		.loc 1 337 0 is_stmt 0 discriminator 1
 802 000c 0348     		ldr	r0, .L43
 803 000e FFF7FEFF 		bl	chDbgPanic
 804              	.L42:
 805              		.loc 1 341 0 is_stmt 1
 806 0012 FFF7FEFF 		bl	chMtxUnlock
 807              		.loc 1 345 0
 808 0016 03B0     		add	sp, sp, #12
 809              		@ sp needed
 810 0018 5DF804FB 		ldr	pc, [sp], #4
 811              	.L44:
 812              		.align	2
 813              	.L43:
 814 001c FC000000 		.word	.LC12
 815              		.cfi_endproc
 816              	.LFE128:
 817              		.size	adcReleaseBus, .-adcReleaseBus
 818              		.text
 819              	.Letext0:
 820              		.file 2 "/usr/lib/gcc/arm-none-eabi/4.8/include/stddef.h"
 821              		.file 3 "/usr/include/newlib/machine/_default_types.h"
 822              		.file 4 "/usr/include/newlib/stdint.h"
 823              		.file 5 "/home/dave/r2p-sdk/core/ChibiOS/os/ports/GCC/ARMCMx/chtypes.h"
 824              		.file 6 "/home/dave/r2p-sdk/core/ChibiOS/os/kernel/include/chlists.h"
 825              		.file 7 "/home/dave/r2p-sdk/core/ChibiOS/os/kernel/include/chthreads.h"
 826              		.file 8 "/home/dave/r2p-sdk/core/ChibiOS/os/ports/GCC/ARMCMx/chcore_v7m.h"
 827              		.file 9 "/home/dave/r2p-sdk/core/ChibiOS/os/kernel/include/chschd.h"
 828              		.file 10 "/home/dave/r2p-sdk/core/ChibiOS/os/kernel/include/chmtx.h"
 829              		.file 11 "/home/dave/r2p-sdk/core/ChibiOS/os/hal/platforms/STM32F30x/stm32f30x.h"
 830              		.file 12 "/home/dave/r2p-sdk/core/ChibiOS/os/hal/platforms/STM32F30x/stm32_dma.h"
 831              		.file 13 "/home/dave/r2p-sdk/core/ChibiOS/os/hal/include/adc.h"
 832              		.file 14 "/home/dave/r2p-sdk/core/ChibiOS/os/hal/platforms/STM32F30x/adc_lld.h"
 833              		.file 15 "/home/dave/r2p-sdk/core/ChibiOS/os/ports/common/ARMCMx/CMSIS/include/core_cm4.h"