ARM GAS  /tmp/cc8sNLlX.s 			page 1


   1              		.syntax unified
   2              		.cpu cortex-m4
   3              		.eabi_attribute 27, 3
   4              		.eabi_attribute 28, 1
   5              		.fpu fpv4-sp-d16
   6              		.eabi_attribute 20, 1
   7              		.eabi_attribute 21, 1
   8              		.eabi_attribute 23, 3
   9              		.eabi_attribute 24, 1
  10              		.eabi_attribute 25, 1
  11              		.eabi_attribute 26, 1
  12              		.eabi_attribute 30, 6
  13              		.eabi_attribute 34, 1
  14              		.eabi_attribute 18, 4
  15              		.thumb
  16              		.file	"BaseSubscriberQueue.cpp"
  17              		.text
  18              	.Ltext0:
  19              		.cfi_sections	.debug_frame
  20              		.section	.text._ZN3r2p10UncopyableC2Ev,"axG",%progbits,_ZN3r2p10UncopyableC5Ev,comdat
  21              		.align	2
  22              		.p2align 4,,15
  23              		.weak	_ZN3r2p10UncopyableC2Ev
  24              		.thumb
  25              		.thumb_func
  26              		.type	_ZN3r2p10UncopyableC2Ev, %function
  27              	_ZN3r2p10UncopyableC2Ev:
  28              	.LFB6:
  29              		.file 1 "/home/dave/r2p-sdk/core/Middleware/include/r2p/Uncopyable.hpp"
  30              		.loc 1 20 0
  31              		.cfi_startproc
  32              		@ args = 0, pretend = 0, frame = 8
  33              		@ frame_needed = 0, uses_anonymous_args = 0
  34              		@ link register save eliminated.
  35 0000 82B0     		sub	sp, sp, #8
  36              		.cfi_def_cfa_offset 8
  37 0002 0190     		str	r0, [sp, #4]
  38              		.loc 1 20 0
  39 0004 019B     		ldr	r3, [sp, #4]
  40 0006 1846     		mov	r0, r3
  41 0008 02B0     		add	sp, sp, #8
  42              		@ sp needed
  43 000a 7047     		bx	lr
  44              		.cfi_endproc
  45              	.LFE6:
  46              		.size	_ZN3r2p10UncopyableC2Ev, .-_ZN3r2p10UncopyableC2Ev
  47              		.weak	_ZN3r2p10UncopyableC1Ev
  48              		.thumb_set _ZN3r2p10UncopyableC1Ev,_ZN3r2p10UncopyableC2Ev
  49 000c AFF30080 		.section	.text._ZN3r2p11StaticQueueINS_14BaseSubscriberEEC2Ev,"axG",%progbits,_ZN3r2p11StaticQueue
  50              		.align	2
  51              		.p2align 4,,15
  52              		.weak	_ZN3r2p11StaticQueueINS_14BaseSubscriberEEC2Ev
  53              		.thumb
  54              		.thumb_func
  55              		.type	_ZN3r2p11StaticQueueINS_14BaseSubscriberEEC2Ev, %function
  56              	_ZN3r2p11StaticQueueINS_14BaseSubscriberEEC2Ev:
  57              	.LFB77:
ARM GAS  /tmp/cc8sNLlX.s 			page 2


  58              		.file 2 "/home/dave/r2p-sdk/core/Middleware/include/r2p/StaticQueue.hpp"
  59              		.loc 2 10 0
  60              		.cfi_startproc
  61              		@ args = 0, pretend = 0, frame = 8
  62              		@ frame_needed = 0, uses_anonymous_args = 0
  63 0000 00B5     		push	{lr}
  64              		.cfi_def_cfa_offset 4
  65              		.cfi_offset 14, -4
  66 0002 83B0     		sub	sp, sp, #12
  67              		.cfi_def_cfa_offset 16
  68 0004 0190     		str	r0, [sp, #4]
  69              	.LBB2:
  70              		.loc 2 10 0
  71 0006 0198     		ldr	r0, [sp, #4]
  72 0008 FFF7FEFF 		bl	_ZN3r2p10UncopyableC2Ev
  73 000c 019B     		ldr	r3, [sp, #4]
  74 000e 0433     		adds	r3, r3, #4
  75 0010 1846     		mov	r0, r3
  76 0012 FFF7FEFF 		bl	_ZN3r2p12StaticQueue_C1Ev
  77              	.LBE2:
  78 0016 019B     		ldr	r3, [sp, #4]
  79 0018 1846     		mov	r0, r3
  80 001a 03B0     		add	sp, sp, #12
  81              		@ sp needed
  82 001c 5DF804FB 		ldr	pc, [sp], #4
  83              		.cfi_endproc
  84              	.LFE77:
  85              		.size	_ZN3r2p11StaticQueueINS_14BaseSubscriberEEC2Ev, .-_ZN3r2p11StaticQueueINS_14BaseSubscriberEE
  86              		.weak	_ZN3r2p11StaticQueueINS_14BaseSubscriberEEC1Ev
  87              		.thumb_set _ZN3r2p11StaticQueueINS_14BaseSubscriberEEC1Ev,_ZN3r2p11StaticQueueINS_14BaseSubscriber
  88              		.section	.text._ZN3r2p19BaseSubscriberQueueC2Ev,"ax",%progbits
  89              		.align	2
  90              		.p2align 4,,15
  91              		.global	_ZN3r2p19BaseSubscriberQueueC2Ev
  92              		.thumb
  93              		.thumb_func
  94              		.type	_ZN3r2p19BaseSubscriberQueueC2Ev, %function
  95              	_ZN3r2p19BaseSubscriberQueueC2Ev:
  96              	.LFB82:
  97              		.file 3 "/home/dave/r2p-sdk/core/Middleware/src/BaseSubscriberQueue.cpp"
  98              		.loc 3 7 0
  99              		.cfi_startproc
 100              		@ args = 0, pretend = 0, frame = 8
 101              		@ frame_needed = 0, uses_anonymous_args = 0
 102 0000 00B5     		push	{lr}
 103              		.cfi_def_cfa_offset 4
 104              		.cfi_offset 14, -4
 105 0002 83B0     		sub	sp, sp, #12
 106              		.cfi_def_cfa_offset 16
 107 0004 0190     		str	r0, [sp, #4]
 108              	.LBB3:
 109              		.loc 3 7 0
 110 0006 019B     		ldr	r3, [sp, #4]
 111 0008 1846     		mov	r0, r3
 112 000a FFF7FEFF 		bl	_ZN3r2p11StaticQueueINS_14BaseSubscriberEEC2Ev
 113              	.LBE3:
 114 000e 019B     		ldr	r3, [sp, #4]
ARM GAS  /tmp/cc8sNLlX.s 			page 3


 115 0010 1846     		mov	r0, r3
 116 0012 03B0     		add	sp, sp, #12
 117              		@ sp needed
 118 0014 5DF804FB 		ldr	pc, [sp], #4
 119              		.cfi_endproc
 120              	.LFE82:
 121              		.size	_ZN3r2p19BaseSubscriberQueueC2Ev, .-_ZN3r2p19BaseSubscriberQueueC2Ev
 122              		.global	_ZN3r2p19BaseSubscriberQueueC1Ev
 123              		.thumb_set _ZN3r2p19BaseSubscriberQueueC1Ev,_ZN3r2p19BaseSubscriberQueueC2Ev
 124 0018 AFF30080 		.text
 124      AFF30080 
 125              	.Letext0:
 126              		.file 4 "/usr/include/newlib/c++/4.8/cstring"
 127              		.file 5 "/usr/include/newlib/string.h"
 128              		.file 6 "<built-in>"
 129              		.file 7 "/home/dave/r2p-sdk/core/Middleware/include/r2p/impl/StaticQueue_.hpp"
 130              		.file 8 "/home/dave/r2p-sdk/core/Middleware/include/r2p/BaseSubscriberQueue.hpp"
 131              		.file 9 "/usr/lib/gcc/arm-none-eabi/4.8/include/stddef.h"