ARM GAS  /tmp/ccVm9ZyL.s 			page 1


   1              		.syntax unified
   2              		.cpu cortex-m4
   3              		.eabi_attribute 27, 3
   4              		.eabi_attribute 28, 1
   5              		.fpu fpv4-sp-d16
   6              		.eabi_attribute 20, 1
   7              		.eabi_attribute 21, 1
   8              		.eabi_attribute 23, 3
   9              		.eabi_attribute 24, 1
  10              		.eabi_attribute 25, 1
  11              		.eabi_attribute 26, 1
  12              		.eabi_attribute 30, 6
  13              		.eabi_attribute 34, 1
  14              		.eabi_attribute 18, 4
  15              		.thumb
  16              		.file	"ext_lld.c"
  17              		.text
  18              	.Ltext0:
  19              		.cfi_sections	.debug_frame
  20              		.global	EXTD1
  21              		.section	.bss.EXTD1,"aw",%nobits
  22              		.align	2
  23              		.type	EXTD1, %object
  24              		.size	EXTD1, 8
  25              	EXTD1:
  26 0000 00000000 		.space	8
  26      00000000 
  27              		.section	.text.ext_lld_init,"ax",%progbits
  28              		.align	2
  29              		.p2align 4,,15
  30              		.global	ext_lld_init
  31              		.thumb
  32              		.thumb_func
  33              		.type	ext_lld_init, %function
  34              	ext_lld_init:
  35              	.LFB118:
  36              		.file 1 "/home/dave/r2p-sdk/core/ChibiOS/os/hal/platforms/STM32/ext_lld.c"
  37              		.loc 1 66 0
  38              		.cfi_startproc
  39              		@ args = 0, pretend = 0, frame = 0
  40              		@ frame_needed = 0, uses_anonymous_args = 0
  41 0000 08B5     		push	{r3, lr}
  42              		.cfi_def_cfa_offset 8
  43              		.cfi_offset 3, -8
  44              		.cfi_offset 14, -4
  45              		.loc 1 69 0
  46 0002 0248     		ldr	r0, .L2
  47 0004 FFF7FEFF 		bl	extObjectInit
  48              		.loc 1 70 0
  49 0008 08BD     		pop	{r3, pc}
  50              	.L3:
  51 000a 00BF     		.align	2
  52              	.L2:
  53 000c 00000000 		.word	EXTD1
  54              		.cfi_endproc
  55              	.LFE118:
  56              		.size	ext_lld_init, .-ext_lld_init
ARM GAS  /tmp/ccVm9ZyL.s 			page 2


  57              		.section	.text.ext_lld_start,"ax",%progbits
  58              		.align	2
  59              		.p2align 4,,15
  60              		.global	ext_lld_start
  61              		.thumb
  62              		.thumb_func
  63              		.type	ext_lld_start, %function
  64              	ext_lld_start:
  65              	.LFB119:
  66              		.loc 1 79 0
  67              		.cfi_startproc
  68              		@ args = 0, pretend = 0, frame = 16
  69              		@ frame_needed = 0, uses_anonymous_args = 0
  70 0000 00B5     		push	{lr}
  71              		.cfi_def_cfa_offset 4
  72              		.cfi_offset 14, -4
  73 0002 85B0     		sub	sp, sp, #20
  74              		.cfi_def_cfa_offset 24
  75 0004 0190     		str	r0, [sp, #4]
  76              		.loc 1 82 0
  77 0006 019B     		ldr	r3, [sp, #4]
  78 0008 1B78     		ldrb	r3, [r3]	@ zero_extendqisi2
  79 000a 012B     		cmp	r3, #1
  80 000c 01D1     		bne	.L5
  81              		.loc 1 83 0
  82 000e FFF7FEFF 		bl	ext_lld_exti_irq_enable
  83              	.L5:
  84              		.loc 1 86 0
  85 0012 0023     		movs	r3, #0
  86 0014 0393     		str	r3, [sp, #12]
  87 0016 14E0     		b	.L6
  88              	.L9:
  89              		.loc 1 87 0
  90 0018 019B     		ldr	r3, [sp, #4]
  91 001a 5B68     		ldr	r3, [r3, #4]
  92 001c 039A     		ldr	r2, [sp, #12]
  93 001e 53F83230 		ldr	r3, [r3, r2, lsl #3]
  94 0022 03F00403 		and	r3, r3, #4
  95 0026 002B     		cmp	r3, #0
  96 0028 04D0     		beq	.L7
  97              		.loc 1 88 0
  98 002a 0198     		ldr	r0, [sp, #4]
  99 002c 0399     		ldr	r1, [sp, #12]
 100 002e FFF7FEFF 		bl	ext_lld_channel_enable
 101 0032 03E0     		b	.L8
 102              	.L7:
 103              		.loc 1 90 0
 104 0034 0198     		ldr	r0, [sp, #4]
 105 0036 0399     		ldr	r1, [sp, #12]
 106 0038 FFF7FEFF 		bl	ext_lld_channel_disable
 107              	.L8:
 108              		.loc 1 86 0
 109 003c 039B     		ldr	r3, [sp, #12]
 110 003e 0133     		adds	r3, r3, #1
 111 0040 0393     		str	r3, [sp, #12]
 112              	.L6:
 113              		.loc 1 86 0 is_stmt 0 discriminator 1
ARM GAS  /tmp/ccVm9ZyL.s 			page 3


 114 0042 039B     		ldr	r3, [sp, #12]
 115 0044 212B     		cmp	r3, #33
 116 0046 E7D9     		bls	.L9
 117              		.loc 1 91 0 is_stmt 1
 118 0048 05B0     		add	sp, sp, #20
 119              		@ sp needed
 120 004a 5DF804FB 		ldr	pc, [sp], #4
 121              		.cfi_endproc
 122              	.LFE119:
 123              		.size	ext_lld_start, .-ext_lld_start
 124 004e 00BF     		.section	.text.ext_lld_stop,"ax",%progbits
 125              		.align	2
 126              		.p2align 4,,15
 127              		.global	ext_lld_stop
 128              		.thumb
 129              		.thumb_func
 130              		.type	ext_lld_stop, %function
 131              	ext_lld_stop:
 132              	.LFB120:
 133              		.loc 1 100 0
 134              		.cfi_startproc
 135              		@ args = 0, pretend = 0, frame = 8
 136              		@ frame_needed = 0, uses_anonymous_args = 0
 137 0000 00B5     		push	{lr}
 138              		.cfi_def_cfa_offset 4
 139              		.cfi_offset 14, -4
 140 0002 83B0     		sub	sp, sp, #12
 141              		.cfi_def_cfa_offset 16
 142 0004 0190     		str	r0, [sp, #4]
 143              		.loc 1 102 0
 144 0006 019B     		ldr	r3, [sp, #4]
 145 0008 1B78     		ldrb	r3, [r3]	@ zero_extendqisi2
 146 000a 022B     		cmp	r3, #2
 147 000c 01D1     		bne	.L11
 148              		.loc 1 103 0
 149 000e FFF7FEFF 		bl	ext_lld_exti_irq_disable
 150              	.L11:
 151              		.loc 1 105 0
 152 0012 084B     		ldr	r3, .L12
 153 0014 0022     		movs	r2, #0
 154 0016 5A60     		str	r2, [r3, #4]
 155              		.loc 1 106 0
 156 0018 064B     		ldr	r3, .L12
 157 001a 0022     		movs	r2, #0
 158 001c 1A60     		str	r2, [r3]
 159              		.loc 1 107 0
 160 001e 054B     		ldr	r3, .L12
 161 0020 4FF0FF32 		mov	r2, #-1
 162 0024 5A61     		str	r2, [r3, #20]
 163              		.loc 1 109 0
 164 0026 034B     		ldr	r3, .L12
 165 0028 4FF0FF32 		mov	r2, #-1
 166 002c 5A63     		str	r2, [r3, #52]
 167              		.loc 1 111 0
 168 002e 03B0     		add	sp, sp, #12
 169              		@ sp needed
 170 0030 5DF804FB 		ldr	pc, [sp], #4
ARM GAS  /tmp/ccVm9ZyL.s 			page 4


 171              	.L13:
 172              		.align	2
 173              	.L12:
 174 0034 00040140 		.word	1073808384
 175              		.cfi_endproc
 176              	.LFE120:
 177              		.size	ext_lld_stop, .-ext_lld_stop
 178 0038 AFF30080 		.section	.text.ext_lld_channel_enable,"ax",%progbits
 178      AFF30080 
 179              		.align	2
 180              		.p2align 4,,15
 181              		.global	ext_lld_channel_enable
 182              		.thumb
 183              		.thumb_func
 184              		.type	ext_lld_channel_enable, %function
 185              	ext_lld_channel_enable:
 186              	.LFB121:
 187              		.loc 1 121 0
 188              		.cfi_startproc
 189              		@ args = 0, pretend = 0, frame = 24
 190              		@ frame_needed = 0, uses_anonymous_args = 0
 191              		@ link register save eliminated.
 192 0000 86B0     		sub	sp, sp, #24
 193              		.cfi_def_cfa_offset 24
 194 0002 0190     		str	r0, [sp, #4]
 195 0004 0091     		str	r1, [sp]
 196              		.loc 1 124 0
 197 0006 009B     		ldr	r3, [sp]
 198 0008 0F2B     		cmp	r3, #15
 199 000a 28D8     		bhi	.L15
 200              	.LBB2:
 201              		.loc 1 125 0
 202 000c 009B     		ldr	r3, [sp]
 203 000e 9B08     		lsrs	r3, r3, #2
 204 0010 0593     		str	r3, [sp, #20]
 205              		.loc 1 126 0
 206 0012 009B     		ldr	r3, [sp]
 207 0014 03F00303 		and	r3, r3, #3
 208 0018 9B00     		lsls	r3, r3, #2
 209 001a 0F22     		movs	r2, #15
 210 001c 02FA03F3 		lsl	r3, r2, r3
 211 0020 DB43     		mvns	r3, r3
 212 0022 0493     		str	r3, [sp, #16]
 213              		.loc 1 127 0
 214 0024 019B     		ldr	r3, [sp, #4]
 215 0026 5B68     		ldr	r3, [r3, #4]
 216 0028 009A     		ldr	r2, [sp]
 217 002a 53F83230 		ldr	r3, [r3, r2, lsl #3]
 218 002e 03F0F003 		and	r3, r3, #240
 219              		.loc 1 128 0
 220 0032 1A09     		lsrs	r2, r3, #4
 221              		.loc 1 129 0
 222 0034 009B     		ldr	r3, [sp]
 223 0036 03F00303 		and	r3, r3, #3
 224 003a 9B00     		lsls	r3, r3, #2
 225              		.loc 1 127 0
 226 003c 02FA03F3 		lsl	r3, r2, r3
ARM GAS  /tmp/ccVm9ZyL.s 			page 5


 227 0040 0393     		str	r3, [sp, #12]
 228              		.loc 1 137 0
 229 0042 7B4B     		ldr	r3, .L29
 230 0044 7A4A     		ldr	r2, .L29
 231 0046 0599     		ldr	r1, [sp, #20]
 232 0048 0231     		adds	r1, r1, #2
 233 004a 52F82110 		ldr	r1, [r2, r1, lsl #2]
 234 004e 049A     		ldr	r2, [sp, #16]
 235 0050 1140     		ands	r1, r1, r2
 236 0052 039A     		ldr	r2, [sp, #12]
 237 0054 1143     		orrs	r1, r1, r2
 238 0056 059A     		ldr	r2, [sp, #20]
 239 0058 0232     		adds	r2, r2, #2
 240 005a 43F82210 		str	r1, [r3, r2, lsl #2]
 241              	.L15:
 242              	.LBE2:
 243              		.loc 1 142 0
 244 005e 009B     		ldr	r3, [sp]
 245 0060 1F2B     		cmp	r3, #31
 246 0062 69D8     		bhi	.L16
 247              		.loc 1 145 0
 248 0064 019B     		ldr	r3, [sp, #4]
 249 0066 5B68     		ldr	r3, [r3, #4]
 250 0068 009A     		ldr	r2, [sp]
 251 006a 53F83230 		ldr	r3, [r3, r2, lsl #3]
 252 006e 03F00103 		and	r3, r3, #1
 253 0072 002B     		cmp	r3, #0
 254 0074 09D0     		beq	.L17
 255              		.loc 1 146 0
 256 0076 6F4B     		ldr	r3, .L29+4
 257 0078 6E4A     		ldr	r2, .L29+4
 258 007a 9168     		ldr	r1, [r2, #8]
 259 007c 009A     		ldr	r2, [sp]
 260 007e 0120     		movs	r0, #1
 261 0080 00FA02F2 		lsl	r2, r0, r2
 262 0084 0A43     		orrs	r2, r2, r1
 263 0086 9A60     		str	r2, [r3, #8]
 264 0088 09E0     		b	.L18
 265              	.L17:
 266              		.loc 1 148 0
 267 008a 6A4B     		ldr	r3, .L29+4
 268 008c 694A     		ldr	r2, .L29+4
 269 008e 9168     		ldr	r1, [r2, #8]
 270 0090 009A     		ldr	r2, [sp]
 271 0092 0120     		movs	r0, #1
 272 0094 00FA02F2 		lsl	r2, r0, r2
 273 0098 D243     		mvns	r2, r2
 274 009a 0A40     		ands	r2, r2, r1
 275 009c 9A60     		str	r2, [r3, #8]
 276              	.L18:
 277              		.loc 1 149 0
 278 009e 019B     		ldr	r3, [sp, #4]
 279 00a0 5B68     		ldr	r3, [r3, #4]
 280 00a2 009A     		ldr	r2, [sp]
 281 00a4 53F83230 		ldr	r3, [r3, r2, lsl #3]
 282 00a8 03F00203 		and	r3, r3, #2
 283 00ac 002B     		cmp	r3, #0
ARM GAS  /tmp/ccVm9ZyL.s 			page 6


 284 00ae 09D0     		beq	.L19
 285              		.loc 1 150 0
 286 00b0 604B     		ldr	r3, .L29+4
 287 00b2 604A     		ldr	r2, .L29+4
 288 00b4 D168     		ldr	r1, [r2, #12]
 289 00b6 009A     		ldr	r2, [sp]
 290 00b8 0120     		movs	r0, #1
 291 00ba 00FA02F2 		lsl	r2, r0, r2
 292 00be 0A43     		orrs	r2, r2, r1
 293 00c0 DA60     		str	r2, [r3, #12]
 294 00c2 09E0     		b	.L20
 295              	.L19:
 296              		.loc 1 152 0
 297 00c4 5B4B     		ldr	r3, .L29+4
 298 00c6 5B4A     		ldr	r2, .L29+4
 299 00c8 D168     		ldr	r1, [r2, #12]
 300 00ca 009A     		ldr	r2, [sp]
 301 00cc 0120     		movs	r0, #1
 302 00ce 00FA02F2 		lsl	r2, r0, r2
 303 00d2 D243     		mvns	r2, r2
 304 00d4 0A40     		ands	r2, r2, r1
 305 00d6 DA60     		str	r2, [r3, #12]
 306              	.L20:
 307              		.loc 1 155 0
 308 00d8 019B     		ldr	r3, [sp, #4]
 309 00da 5A68     		ldr	r2, [r3, #4]
 310 00dc 009B     		ldr	r3, [sp]
 311 00de DB00     		lsls	r3, r3, #3
 312 00e0 1344     		add	r3, r3, r2
 313 00e2 5B68     		ldr	r3, [r3, #4]
 314 00e4 002B     		cmp	r3, #0
 315 00e6 13D0     		beq	.L21
 316              		.loc 1 156 0
 317 00e8 524B     		ldr	r3, .L29+4
 318 00ea 524A     		ldr	r2, .L29+4
 319 00ec 1168     		ldr	r1, [r2]
 320 00ee 009A     		ldr	r2, [sp]
 321 00f0 0120     		movs	r0, #1
 322 00f2 00FA02F2 		lsl	r2, r0, r2
 323 00f6 0A43     		orrs	r2, r2, r1
 324 00f8 1A60     		str	r2, [r3]
 325              		.loc 1 157 0
 326 00fa 4E4B     		ldr	r3, .L29+4
 327 00fc 4D4A     		ldr	r2, .L29+4
 328 00fe 5168     		ldr	r1, [r2, #4]
 329 0100 009A     		ldr	r2, [sp]
 330 0102 0120     		movs	r0, #1
 331 0104 00FA02F2 		lsl	r2, r0, r2
 332 0108 D243     		mvns	r2, r2
 333 010a 0A40     		ands	r2, r2, r1
 334 010c 5A60     		str	r2, [r3, #4]
 335 010e 8CE0     		b	.L14
 336              	.L21:
 337              		.loc 1 160 0
 338 0110 484B     		ldr	r3, .L29+4
 339 0112 484A     		ldr	r2, .L29+4
 340 0114 5168     		ldr	r1, [r2, #4]
ARM GAS  /tmp/ccVm9ZyL.s 			page 7


 341 0116 009A     		ldr	r2, [sp]
 342 0118 0120     		movs	r0, #1
 343 011a 00FA02F2 		lsl	r2, r0, r2
 344 011e 0A43     		orrs	r2, r2, r1
 345 0120 5A60     		str	r2, [r3, #4]
 346              		.loc 1 161 0
 347 0122 444B     		ldr	r3, .L29+4
 348 0124 434A     		ldr	r2, .L29+4
 349 0126 1168     		ldr	r1, [r2]
 350 0128 009A     		ldr	r2, [sp]
 351 012a 0120     		movs	r0, #1
 352 012c 00FA02F2 		lsl	r2, r0, r2
 353 0130 D243     		mvns	r2, r2
 354 0132 0A40     		ands	r2, r2, r1
 355 0134 1A60     		str	r2, [r3]
 356 0136 78E0     		b	.L14
 357              	.L16:
 358              		.loc 1 167 0
 359 0138 019B     		ldr	r3, [sp, #4]
 360 013a 5B68     		ldr	r3, [r3, #4]
 361 013c 009A     		ldr	r2, [sp]
 362 013e 53F83230 		ldr	r3, [r3, r2, lsl #3]
 363 0142 03F00103 		and	r3, r3, #1
 364 0146 002B     		cmp	r3, #0
 365 0148 0BD0     		beq	.L24
 366              		.loc 1 168 0
 367 014a 3A4B     		ldr	r3, .L29+4
 368 014c 394A     		ldr	r2, .L29+4
 369 014e 916A     		ldr	r1, [r2, #40]
 370 0150 009A     		ldr	r2, [sp]
 371 0152 C2F12002 		rsb	r2, r2, #32
 372 0156 0120     		movs	r0, #1
 373 0158 00FA02F2 		lsl	r2, r0, r2
 374 015c 0A43     		orrs	r2, r2, r1
 375 015e 9A62     		str	r2, [r3, #40]
 376 0160 0BE0     		b	.L25
 377              	.L24:
 378              		.loc 1 170 0
 379 0162 344B     		ldr	r3, .L29+4
 380 0164 334A     		ldr	r2, .L29+4
 381 0166 916A     		ldr	r1, [r2, #40]
 382 0168 009A     		ldr	r2, [sp]
 383 016a C2F12002 		rsb	r2, r2, #32
 384 016e 0120     		movs	r0, #1
 385 0170 00FA02F2 		lsl	r2, r0, r2
 386 0174 D243     		mvns	r2, r2
 387 0176 0A40     		ands	r2, r2, r1
 388 0178 9A62     		str	r2, [r3, #40]
 389              	.L25:
 390              		.loc 1 171 0
 391 017a 019B     		ldr	r3, [sp, #4]
 392 017c 5B68     		ldr	r3, [r3, #4]
 393 017e 009A     		ldr	r2, [sp]
 394 0180 53F83230 		ldr	r3, [r3, r2, lsl #3]
 395 0184 03F00203 		and	r3, r3, #2
 396 0188 002B     		cmp	r3, #0
 397 018a 0BD0     		beq	.L26
ARM GAS  /tmp/ccVm9ZyL.s 			page 8


 398              		.loc 1 172 0
 399 018c 294B     		ldr	r3, .L29+4
 400 018e 294A     		ldr	r2, .L29+4
 401 0190 D16A     		ldr	r1, [r2, #44]
 402 0192 009A     		ldr	r2, [sp]
 403 0194 C2F12002 		rsb	r2, r2, #32
 404 0198 0120     		movs	r0, #1
 405 019a 00FA02F2 		lsl	r2, r0, r2
 406 019e 0A43     		orrs	r2, r2, r1
 407 01a0 DA62     		str	r2, [r3, #44]
 408 01a2 0BE0     		b	.L27
 409              	.L26:
 410              		.loc 1 174 0
 411 01a4 234B     		ldr	r3, .L29+4
 412 01a6 234A     		ldr	r2, .L29+4
 413 01a8 D16A     		ldr	r1, [r2, #44]
 414 01aa 009A     		ldr	r2, [sp]
 415 01ac C2F12002 		rsb	r2, r2, #32
 416 01b0 0120     		movs	r0, #1
 417 01b2 00FA02F2 		lsl	r2, r0, r2
 418 01b6 D243     		mvns	r2, r2
 419 01b8 0A40     		ands	r2, r2, r1
 420 01ba DA62     		str	r2, [r3, #44]
 421              	.L27:
 422              		.loc 1 177 0
 423 01bc 019B     		ldr	r3, [sp, #4]
 424 01be 5A68     		ldr	r2, [r3, #4]
 425 01c0 009B     		ldr	r3, [sp]
 426 01c2 DB00     		lsls	r3, r3, #3
 427 01c4 1344     		add	r3, r3, r2
 428 01c6 5B68     		ldr	r3, [r3, #4]
 429 01c8 002B     		cmp	r3, #0
 430 01ca 17D0     		beq	.L28
 431              		.loc 1 178 0
 432 01cc 194B     		ldr	r3, .L29+4
 433 01ce 194A     		ldr	r2, .L29+4
 434 01d0 116A     		ldr	r1, [r2, #32]
 435 01d2 009A     		ldr	r2, [sp]
 436 01d4 C2F12002 		rsb	r2, r2, #32
 437 01d8 0120     		movs	r0, #1
 438 01da 00FA02F2 		lsl	r2, r0, r2
 439 01de 0A43     		orrs	r2, r2, r1
 440 01e0 1A62     		str	r2, [r3, #32]
 441              		.loc 1 179 0
 442 01e2 144B     		ldr	r3, .L29+4
 443 01e4 134A     		ldr	r2, .L29+4
 444 01e6 516A     		ldr	r1, [r2, #36]
 445 01e8 009A     		ldr	r2, [sp]
 446 01ea C2F12002 		rsb	r2, r2, #32
 447 01ee 0120     		movs	r0, #1
 448 01f0 00FA02F2 		lsl	r2, r0, r2
 449 01f4 D243     		mvns	r2, r2
 450 01f6 0A40     		ands	r2, r2, r1
 451 01f8 5A62     		str	r2, [r3, #36]
 452 01fa 16E0     		b	.L14
 453              	.L28:
 454              		.loc 1 182 0
ARM GAS  /tmp/ccVm9ZyL.s 			page 9


 455 01fc 0D4B     		ldr	r3, .L29+4
 456 01fe 0D4A     		ldr	r2, .L29+4
 457 0200 516A     		ldr	r1, [r2, #36]
 458 0202 009A     		ldr	r2, [sp]
 459 0204 C2F12002 		rsb	r2, r2, #32
 460 0208 0120     		movs	r0, #1
 461 020a 00FA02F2 		lsl	r2, r0, r2
 462 020e 0A43     		orrs	r2, r2, r1
 463 0210 5A62     		str	r2, [r3, #36]
 464              		.loc 1 183 0
 465 0212 084B     		ldr	r3, .L29+4
 466 0214 074A     		ldr	r2, .L29+4
 467 0216 116A     		ldr	r1, [r2, #32]
 468 0218 009A     		ldr	r2, [sp]
 469 021a C2F12002 		rsb	r2, r2, #32
 470 021e 0120     		movs	r0, #1
 471 0220 00FA02F2 		lsl	r2, r0, r2
 472 0224 D243     		mvns	r2, r2
 473 0226 0A40     		ands	r2, r2, r1
 474 0228 1A62     		str	r2, [r3, #32]
 475              	.L14:
 476              		.loc 1 187 0
 477 022a 06B0     		add	sp, sp, #24
 478              		@ sp needed
 479 022c 7047     		bx	lr
 480              	.L30:
 481 022e 00BF     		.align	2
 482              	.L29:
 483 0230 00000140 		.word	1073807360
 484 0234 00040140 		.word	1073808384
 485              		.cfi_endproc
 486              	.LFE121:
 487              		.size	ext_lld_channel_enable, .-ext_lld_channel_enable
 488 0238 AFF30080 		.section	.text.ext_lld_channel_disable,"ax",%progbits
 488      AFF30080 
 489              		.align	2
 490              		.p2align 4,,15
 491              		.global	ext_lld_channel_disable
 492              		.thumb
 493              		.thumb_func
 494              		.type	ext_lld_channel_disable, %function
 495              	ext_lld_channel_disable:
 496              	.LFB122:
 497              		.loc 1 197 0
 498              		.cfi_startproc
 499              		@ args = 0, pretend = 0, frame = 8
 500              		@ frame_needed = 0, uses_anonymous_args = 0
 501              		@ link register save eliminated.
 502 0000 82B0     		sub	sp, sp, #8
 503              		.cfi_def_cfa_offset 8
 504 0002 0190     		str	r0, [sp, #4]
 505 0004 0091     		str	r1, [sp]
 506              		.loc 1 202 0
 507 0006 009B     		ldr	r3, [sp]
 508 0008 1F2B     		cmp	r3, #31
 509 000a 2ED8     		bhi	.L32
 510              		.loc 1 204 0
ARM GAS  /tmp/ccVm9ZyL.s 			page 10


 511 000c 344B     		ldr	r3, .L34
 512 000e 344A     		ldr	r2, .L34
 513 0010 1168     		ldr	r1, [r2]
 514 0012 009A     		ldr	r2, [sp]
 515 0014 0120     		movs	r0, #1
 516 0016 00FA02F2 		lsl	r2, r0, r2
 517 001a D243     		mvns	r2, r2
 518 001c 0A40     		ands	r2, r2, r1
 519 001e 1A60     		str	r2, [r3]
 520              		.loc 1 205 0
 521 0020 2F4B     		ldr	r3, .L34
 522 0022 2F4A     		ldr	r2, .L34
 523 0024 5168     		ldr	r1, [r2, #4]
 524 0026 009A     		ldr	r2, [sp]
 525 0028 0120     		movs	r0, #1
 526 002a 00FA02F2 		lsl	r2, r0, r2
 527 002e D243     		mvns	r2, r2
 528 0030 0A40     		ands	r2, r2, r1
 529 0032 5A60     		str	r2, [r3, #4]
 530              		.loc 1 206 0
 531 0034 2A4B     		ldr	r3, .L34
 532 0036 2A4A     		ldr	r2, .L34
 533 0038 9168     		ldr	r1, [r2, #8]
 534 003a 009A     		ldr	r2, [sp]
 535 003c 0120     		movs	r0, #1
 536 003e 00FA02F2 		lsl	r2, r0, r2
 537 0042 D243     		mvns	r2, r2
 538 0044 0A40     		ands	r2, r2, r1
 539 0046 9A60     		str	r2, [r3, #8]
 540              		.loc 1 207 0
 541 0048 254B     		ldr	r3, .L34
 542 004a 254A     		ldr	r2, .L34
 543 004c D168     		ldr	r1, [r2, #12]
 544 004e 009A     		ldr	r2, [sp]
 545 0050 0120     		movs	r0, #1
 546 0052 00FA02F2 		lsl	r2, r0, r2
 547 0056 D243     		mvns	r2, r2
 548 0058 0A40     		ands	r2, r2, r1
 549 005a DA60     		str	r2, [r3, #12]
 550              		.loc 1 208 0
 551 005c 204B     		ldr	r3, .L34
 552 005e 009A     		ldr	r2, [sp]
 553 0060 0121     		movs	r1, #1
 554 0062 01FA02F2 		lsl	r2, r1, r2
 555 0066 5A61     		str	r2, [r3, #20]
 556 0068 37E0     		b	.L31
 557              	.L32:
 558              		.loc 1 212 0
 559 006a 1D4B     		ldr	r3, .L34
 560 006c 1C4A     		ldr	r2, .L34
 561 006e 116A     		ldr	r1, [r2, #32]
 562 0070 009A     		ldr	r2, [sp]
 563 0072 C2F12002 		rsb	r2, r2, #32
 564 0076 0120     		movs	r0, #1
 565 0078 00FA02F2 		lsl	r2, r0, r2
 566 007c D243     		mvns	r2, r2
 567 007e 0A40     		ands	r2, r2, r1
ARM GAS  /tmp/ccVm9ZyL.s 			page 11


 568 0080 1A62     		str	r2, [r3, #32]
 569              		.loc 1 213 0
 570 0082 174B     		ldr	r3, .L34
 571 0084 164A     		ldr	r2, .L34
 572 0086 516A     		ldr	r1, [r2, #36]
 573 0088 009A     		ldr	r2, [sp]
 574 008a C2F12002 		rsb	r2, r2, #32
 575 008e 0120     		movs	r0, #1
 576 0090 00FA02F2 		lsl	r2, r0, r2
 577 0094 D243     		mvns	r2, r2
 578 0096 0A40     		ands	r2, r2, r1
 579 0098 5A62     		str	r2, [r3, #36]
 580              		.loc 1 214 0
 581 009a 114B     		ldr	r3, .L34
 582 009c 104A     		ldr	r2, .L34
 583 009e 916A     		ldr	r1, [r2, #40]
 584 00a0 009A     		ldr	r2, [sp]
 585 00a2 C2F12002 		rsb	r2, r2, #32
 586 00a6 0120     		movs	r0, #1
 587 00a8 00FA02F2 		lsl	r2, r0, r2
 588 00ac D243     		mvns	r2, r2
 589 00ae 0A40     		ands	r2, r2, r1
 590 00b0 9A62     		str	r2, [r3, #40]
 591              		.loc 1 215 0
 592 00b2 0B4B     		ldr	r3, .L34
 593 00b4 0A4A     		ldr	r2, .L34
 594 00b6 D16A     		ldr	r1, [r2, #44]
 595 00b8 009A     		ldr	r2, [sp]
 596 00ba C2F12002 		rsb	r2, r2, #32
 597 00be 0120     		movs	r0, #1
 598 00c0 00FA02F2 		lsl	r2, r0, r2
 599 00c4 D243     		mvns	r2, r2
 600 00c6 0A40     		ands	r2, r2, r1
 601 00c8 DA62     		str	r2, [r3, #44]
 602              		.loc 1 216 0
 603 00ca 054B     		ldr	r3, .L34
 604 00cc 009A     		ldr	r2, [sp]
 605 00ce C2F12002 		rsb	r2, r2, #32
 606 00d2 0121     		movs	r1, #1
 607 00d4 01FA02F2 		lsl	r2, r1, r2
 608 00d8 5A63     		str	r2, [r3, #52]
 609              	.L31:
 610              		.loc 1 219 0
 611 00da 02B0     		add	sp, sp, #8
 612              		@ sp needed
 613 00dc 7047     		bx	lr
 614              	.L35:
 615 00de 00BF     		.align	2
 616              	.L34:
 617 00e0 00040140 		.word	1073808384
 618              		.cfi_endproc
 619              	.LFE122:
 620              		.size	ext_lld_channel_disable, .-ext_lld_channel_disable
 621 00e4 AFF30080 		.text
 621      AFF30080 
 621      AFF30080 
 622              	.Letext0:
ARM GAS  /tmp/ccVm9ZyL.s 			page 12


 623              		.file 2 "/usr/include/newlib/machine/_default_types.h"
 624              		.file 3 "/usr/include/newlib/stdint.h"
 625              		.file 4 "/home/dave/r2p-sdk/core/ChibiOS/os/hal/platforms/STM32F30x/stm32f30x.h"
 626              		.file 5 "/home/dave/r2p-sdk/core/ChibiOS/os/hal/include/ext.h"
 627              		.file 6 "/home/dave/r2p-sdk/core/ChibiOS/os/hal/platforms/STM32/ext_lld.h"
 628              		.file 7 "/home/dave/r2p-sdk/core/ChibiOS/os/ports/common/ARMCMx/CMSIS/include/core_cm4.h"