ARM GAS  /tmp/ccyGe5fa.s 			page 1


   1              		.syntax unified
   2              		.cpu cortex-m4
   3              		.eabi_attribute 27, 3
   4              		.eabi_attribute 28, 1
   5              		.fpu fpv4-sp-d16
   6              		.eabi_attribute 20, 1
   7              		.eabi_attribute 21, 1
   8              		.eabi_attribute 23, 3
   9              		.eabi_attribute 24, 1
  10              		.eabi_attribute 25, 1
  11              		.eabi_attribute 26, 1
  12              		.eabi_attribute 30, 6
  13              		.eabi_attribute 34, 1
  14              		.eabi_attribute 18, 4
  15              		.thumb
  16              		.file	"main.cpp"
  17              		.text
  18              	.Ltext0:
  19              		.cfi_sections	.debug_frame
  20              		.section	.text._ZN3r2p10UncopyableD2Ev,"axG",%progbits,_ZN3r2p10UncopyableD5Ev,comdat
  21              		.align	2
  22              		.p2align 4,,15
  23              		.weak	_ZN3r2p10UncopyableD2Ev
  24              		.thumb
  25              		.thumb_func
  26              		.type	_ZN3r2p10UncopyableD2Ev, %function
  27              	_ZN3r2p10UncopyableD2Ev:
  28              	.LFB127:
  29              		.file 1 "/home/dave/r2p-sdk/core/Middleware/include/r2p/Uncopyable.hpp"
  30              		.loc 1 21 0
  31              		.cfi_startproc
  32              		@ args = 0, pretend = 0, frame = 8
  33              		@ frame_needed = 0, uses_anonymous_args = 0
  34              		@ link register save eliminated.
  35 0000 82B0     		sub	sp, sp, #8
  36              		.cfi_def_cfa_offset 8
  37 0002 0190     		str	r0, [sp, #4]
  38              		.loc 1 21 0
  39 0004 019B     		ldr	r3, [sp, #4]
  40 0006 1846     		mov	r0, r3
  41 0008 02B0     		add	sp, sp, #8
  42              		@ sp needed
  43 000a 7047     		bx	lr
  44              		.cfi_endproc
  45              	.LFE127:
  46              		.size	_ZN3r2p10UncopyableD2Ev, .-_ZN3r2p10UncopyableD2Ev
  47              		.weak	_ZN3r2p10UncopyableD1Ev
  48              		.thumb_set _ZN3r2p10UncopyableD1Ev,_ZN3r2p10UncopyableD2Ev
  49 000c AFF30080 		.section	.text._ZNK3r2p4Time8to_s_rawEv,"axG",%progbits,_ZNK3r2p4Time8to_s_rawEv,comdat
  50              		.align	2
  51              		.p2align 4,,15
  52              		.weak	_ZNK3r2p4Time8to_s_rawEv
  53              		.thumb
  54              		.thumb_func
  55              		.type	_ZNK3r2p4Time8to_s_rawEv, %function
  56              	_ZNK3r2p4Time8to_s_rawEv:
  57              	.LFB256:
ARM GAS  /tmp/ccyGe5fa.s 			page 2


  58              		.file 2 "/home/dave/r2p-sdk/core/Middleware/include/r2p/Time.hpp"
  59              		.loc 2 89 0
  60              		.cfi_startproc
  61              		@ args = 0, pretend = 0, frame = 8
  62              		@ frame_needed = 0, uses_anonymous_args = 0
  63              		@ link register save eliminated.
  64 0000 82B0     		sub	sp, sp, #8
  65              		.cfi_def_cfa_offset 8
  66 0002 0190     		str	r0, [sp, #4]
  67              		.loc 2 91 0
  68 0004 019B     		ldr	r3, [sp, #4]
  69 0006 1B68     		ldr	r3, [r3]
  70 0008 044A     		ldr	r2, .L6
  71 000a 82FB0312 		smull	r1, r2, r2, r3
  72 000e 9214     		asrs	r2, r2, #18
  73 0010 DB17     		asrs	r3, r3, #31
  74 0012 D31A     		subs	r3, r2, r3
  75              		.loc 2 92 0
  76 0014 1846     		mov	r0, r3
  77 0016 02B0     		add	sp, sp, #8
  78              		@ sp needed
  79 0018 7047     		bx	lr
  80              	.L7:
  81 001a 00BF     		.align	2
  82              	.L6:
  83 001c 83DE1B43 		.word	1125899907
  84              		.cfi_endproc
  85              	.LFE256:
  86              		.size	_ZNK3r2p4Time8to_s_rawEv, .-_ZNK3r2p4Time8to_s_rawEv
  87              		.section	.text._ZN3r2p4TimeaSERKS0_,"axG",%progbits,_ZN3r2p4TimeaSERKS0_,comdat
  88              		.align	2
  89              		.p2align 4,,15
  90              		.weak	_ZN3r2p4TimeaSERKS0_
  91              		.thumb
  92              		.thumb_func
  93              		.type	_ZN3r2p4TimeaSERKS0_, %function
  94              	_ZN3r2p4TimeaSERKS0_:
  95              	.LFB262:
  96              		.loc 2 131 0
  97              		.cfi_startproc
  98              		@ args = 0, pretend = 0, frame = 8
  99              		@ frame_needed = 0, uses_anonymous_args = 0
 100              		@ link register save eliminated.
 101 0000 82B0     		sub	sp, sp, #8
 102              		.cfi_def_cfa_offset 8
 103 0002 0190     		str	r0, [sp, #4]
 104 0004 0091     		str	r1, [sp]
 105              		.loc 2 133 0
 106 0006 009B     		ldr	r3, [sp]
 107 0008 1A68     		ldr	r2, [r3]
 108 000a 019B     		ldr	r3, [sp, #4]
 109 000c 1A60     		str	r2, [r3]
 110              		.loc 2 134 0
 111 000e 019B     		ldr	r3, [sp, #4]
 112              		.loc 2 135 0
 113 0010 1846     		mov	r0, r3
 114 0012 02B0     		add	sp, sp, #8
ARM GAS  /tmp/ccyGe5fa.s 			page 3


 115              		@ sp needed
 116 0014 7047     		bx	lr
 117              		.cfi_endproc
 118              	.LFE262:
 119              		.size	_ZN3r2p4TimeaSERKS0_, .-_ZN3r2p4TimeaSERKS0_
 120 0016 00BFAFF3 		.section	.text._ZN3r2p4Time2msEl,"axG",%progbits,_ZN3r2p4Time2msEl,comdat
 120      0080AFF3 
 120      0080
 121              		.align	2
 122              		.p2align 4,,15
 123              		.weak	_ZN3r2p4Time2msEl
 124              		.thumb
 125              		.thumb_func
 126              		.type	_ZN3r2p4Time2msEl, %function
 127              	_ZN3r2p4Time2msEl:
 128              	.LFB276:
 129              		.loc 2 184 0
 130              		.cfi_startproc
 131              		@ args = 0, pretend = 0, frame = 8
 132              		@ frame_needed = 0, uses_anonymous_args = 0
 133 0000 00B5     		push	{lr}
 134              		.cfi_def_cfa_offset 4
 135              		.cfi_offset 14, -4
 136 0002 83B0     		sub	sp, sp, #12
 137              		.cfi_def_cfa_offset 16
 138 0004 0190     		str	r0, [sp, #4]
 139 0006 0091     		str	r1, [sp]
 140              		.loc 2 186 0
 141 0008 009B     		ldr	r3, [sp]
 142 000a 4FF47A72 		mov	r2, #1000
 143 000e 02FB03F3 		mul	r3, r2, r3
 144 0012 0198     		ldr	r0, [sp, #4]
 145 0014 1946     		mov	r1, r3
 146 0016 FFF7FEFF 		bl	_ZN3r2p4TimeC1IlEET_
 147              		.loc 2 187 0
 148 001a 0198     		ldr	r0, [sp, #4]
 149 001c 03B0     		add	sp, sp, #12
 150              		@ sp needed
 151 001e 5DF804FB 		ldr	pc, [sp], #4
 152              		.cfi_endproc
 153              	.LFE276:
 154              		.size	_ZN3r2p4Time2msEl, .-_ZN3r2p4Time2msEl
 155 0022 00BFAFF3 		.section	.text._ZN3r2p7Thread_11create_heapEPvjmPFlS1_ES1_PKc,"axG",%progbits,_ZN3r2p7Thread_11cre
 155      0080AFF3 
 155      0080AFF3 
 155      0080
 156              		.align	2
 157              		.p2align 4,,15
 158              		.weak	_ZN3r2p7Thread_11create_heapEPvjmPFlS1_ES1_PKc
 159              		.thumb
 160              		.thumb_func
 161              		.type	_ZN3r2p7Thread_11create_heapEPvjmPFlS1_ES1_PKc, %function
 162              	_ZN3r2p7Thread_11create_heapEPvjmPFlS1_ES1_PKc:
 163              	.LFB334:
 164              		.file 3 "/home/dave/r2p-sdk/core/Middleware/port/chibios/include/r2p/impl/Thread_.hpp"
 165              		.loc 3 115 0
 166              		.cfi_startproc
ARM GAS  /tmp/ccyGe5fa.s 			page 4


 167              		@ args = 8, pretend = 0, frame = 24
 168              		@ frame_needed = 0, uses_anonymous_args = 0
 169 0000 00B5     		push	{lr}
 170              		.cfi_def_cfa_offset 4
 171              		.cfi_offset 14, -4
 172 0002 89B0     		sub	sp, sp, #36
 173              		.cfi_def_cfa_offset 40
 174 0004 0590     		str	r0, [sp, #20]
 175 0006 0491     		str	r1, [sp, #16]
 176 0008 0392     		str	r2, [sp, #12]
 177 000a 0293     		str	r3, [sp, #8]
 178              	.LBB10:
 179              		.loc 3 120 0
 180 000c 0A9B     		ldr	r3, [sp, #40]
 181 000e 0093     		str	r3, [sp]
 182 0010 0598     		ldr	r0, [sp, #20]
 183 0012 0499     		ldr	r1, [sp, #16]
 184 0014 039A     		ldr	r2, [sp, #12]
 185 0016 029B     		ldr	r3, [sp, #8]
 186 0018 FFF7FEFF 		bl	chThdCreateFromHeap
 187 001c 0790     		str	r0, [sp, #28]
 188              		.loc 3 122 0
 189 001e 079B     		ldr	r3, [sp, #28]
 190 0020 002B     		cmp	r3, #0
 191 0022 02D0     		beq	.L13
 192              		.loc 3 123 0
 193 0024 079B     		ldr	r3, [sp, #28]
 194 0026 0B9A     		ldr	r2, [sp, #44]
 195 0028 9A61     		str	r2, [r3, #24]
 196              	.L13:
 197              		.loc 3 128 0
 198 002a 079B     		ldr	r3, [sp, #28]
 199              	.LBE10:
 200              		.loc 3 129 0
 201 002c 1846     		mov	r0, r3
 202 002e 09B0     		add	sp, sp, #36
 203              		@ sp needed
 204 0030 5DF804FB 		ldr	pc, [sp], #4
 205              		.cfi_endproc
 206              	.LFE334:
 207              		.size	_ZN3r2p7Thread_11create_heapEPvjmPFlS1_ES1_PKc, .-_ZN3r2p7Thread_11create_heapEPvjmPFlS1_ES1
 208 0034 AFF30080 		.section	.text._ZN3r2p7Thread_5sleepERKNS_4TimeE,"axG",%progbits,_ZN3r2p7Thread_5sleepERKNS_4TimeE
 208      AFF30080 
 208      AFF30080 
 209              		.align	2
 210              		.p2align 4,,15
 211              		.weak	_ZN3r2p7Thread_5sleepERKNS_4TimeE
 212              		.thumb
 213              		.thumb_func
 214              		.type	_ZN3r2p7Thread_5sleepERKNS_4TimeE, %function
 215              	_ZN3r2p7Thread_5sleepERKNS_4TimeE:
 216              	.LFB340:
 217              		.loc 3 180 0
 218              		.cfi_startproc
 219              		@ args = 0, pretend = 0, frame = 8
 220              		@ frame_needed = 0, uses_anonymous_args = 0
 221 0000 00B5     		push	{lr}
ARM GAS  /tmp/ccyGe5fa.s 			page 5


 222              		.cfi_def_cfa_offset 4
 223              		.cfi_offset 14, -4
 224 0002 83B0     		sub	sp, sp, #12
 225              		.cfi_def_cfa_offset 16
 226 0004 0190     		str	r0, [sp, #4]
 227              		.loc 3 182 0
 228 0006 019B     		ldr	r3, [sp, #4]
 229 0008 1B68     		ldr	r3, [r3]
 230 000a 002B     		cmp	r3, #0
 231 000c 20DD     		ble	.L16
 232              		.loc 3 183 0
 233 000e 019B     		ldr	r3, [sp, #4]
 234 0010 1A68     		ldr	r2, [r3]
 235 0012 124B     		ldr	r3, .L20
 236 0014 9A42     		cmp	r2, r3
 237 0016 0FDC     		bgt	.L17
 238              		.loc 3 184 0
 239 0018 019B     		ldr	r3, [sp, #4]
 240 001a 1B68     		ldr	r3, [r3]
 241 001c 4FF47A72 		mov	r2, #1000
 242 0020 02FB03F3 		mul	r3, r2, r3
 243 0024 5A1E     		subs	r2, r3, #1
 244 0026 0E4B     		ldr	r3, .L20+4
 245 0028 A3FB0213 		umull	r1, r3, r3, r2
 246 002c 9B0C     		lsrs	r3, r3, #18
 247 002e 0133     		adds	r3, r3, #1
 248 0030 1846     		mov	r0, r3
 249 0032 FFF7FEFF 		bl	chThdSleep
 250 0036 0DE0     		b	.L15
 251              	.L17:
 252              		.loc 3 186 0
 253 0038 0198     		ldr	r0, [sp, #4]
 254 003a FFF7FEFF 		bl	_ZNK3r2p4Time8to_s_rawEv
 255 003e 0346     		mov	r3, r0
 256 0040 4FF47A72 		mov	r2, #1000
 257 0044 02FB03F3 		mul	r3, r2, r3
 258 0048 1846     		mov	r0, r3
 259 004a FFF7FEFF 		bl	chThdSleep
 260 004e 01E0     		b	.L15
 261              	.L16:
 262              		.loc 3 189 0
 263 0050 FFF7FEFF 		bl	chThdYield
 264              	.L15:
 265              		.loc 3 191 0
 266 0054 03B0     		add	sp, sp, #12
 267              		@ sp needed
 268 0056 5DF804FB 		ldr	pc, [sp], #4
 269              	.L21:
 270 005a 00BF     		.align	2
 271              	.L20:
 272 005c 3F420F00 		.word	999999
 273 0060 83DE1B43 		.word	1125899907
 274              		.cfi_endproc
 275              	.LFE340:
 276              		.size	_ZN3r2p7Thread_5sleepERKNS_4TimeE, .-_ZN3r2p7Thread_5sleepERKNS_4TimeE
 277 0064 AFF30080 		.section	.text._ZN3r2p6Thread11create_heapEPvjmPFlS1_ES1_PKc,"axG",%progbits,_ZN3r2p6Thread11creat
 277      AFF30080 
ARM GAS  /tmp/ccyGe5fa.s 			page 6


 277      AFF30080 
 278              		.align	2
 279              		.p2align 4,,15
 280              		.weak	_ZN3r2p6Thread11create_heapEPvjmPFlS1_ES1_PKc
 281              		.thumb
 282              		.thumb_func
 283              		.type	_ZN3r2p6Thread11create_heapEPvjmPFlS1_ES1_PKc, %function
 284              	_ZN3r2p6Thread11create_heapEPvjmPFlS1_ES1_PKc:
 285              	.LFB345:
 286              		.file 4 "/home/dave/r2p-sdk/core/Middleware/include/r2p/Thread.hpp"
 287              		.loc 4 92 0
 288              		.cfi_startproc
 289              		@ args = 8, pretend = 0, frame = 16
 290              		@ frame_needed = 0, uses_anonymous_args = 0
 291 0000 00B5     		push	{lr}
 292              		.cfi_def_cfa_offset 4
 293              		.cfi_offset 14, -4
 294 0002 87B0     		sub	sp, sp, #28
 295              		.cfi_def_cfa_offset 32
 296 0004 0590     		str	r0, [sp, #20]
 297 0006 0491     		str	r1, [sp, #16]
 298 0008 0392     		str	r2, [sp, #12]
 299 000a 0293     		str	r3, [sp, #8]
 300              		.loc 4 96 0
 301 000c 089B     		ldr	r3, [sp, #32]
 302 000e 0093     		str	r3, [sp]
 303 0010 099B     		ldr	r3, [sp, #36]
 304 0012 0193     		str	r3, [sp, #4]
 305 0014 0598     		ldr	r0, [sp, #20]
 306 0016 0499     		ldr	r1, [sp, #16]
 307 0018 039A     		ldr	r2, [sp, #12]
 308 001a 029B     		ldr	r3, [sp, #8]
 309 001c FFF7FEFF 		bl	_ZN3r2p7Thread_11create_heapEPvjmPFlS1_ES1_PKc
 310 0020 0346     		mov	r3, r0
 311              		.loc 4 97 0
 312 0022 1846     		mov	r0, r3
 313 0024 07B0     		add	sp, sp, #28
 314              		@ sp needed
 315 0026 5DF804FB 		ldr	pc, [sp], #4
 316              		.cfi_endproc
 317              	.LFE345:
 318              		.size	_ZN3r2p6Thread11create_heapEPvjmPFlS1_ES1_PKc, .-_ZN3r2p6Thread11create_heapEPvjmPFlS1_ES1_P
 319 002a 00BFAFF3 		.section	.text._ZN3r2p6Thread5sleepERKNS_4TimeE,"axG",%progbits,_ZN3r2p6Thread5sleepERKNS_4TimeE,c
 319      0080
 320              		.align	2
 321              		.p2align 4,,15
 322              		.weak	_ZN3r2p6Thread5sleepERKNS_4TimeE
 323              		.thumb
 324              		.thumb_func
 325              		.type	_ZN3r2p6Thread5sleepERKNS_4TimeE, %function
 326              	_ZN3r2p6Thread5sleepERKNS_4TimeE:
 327              	.LFB351:
 328              		.loc 4 140 0
 329              		.cfi_startproc
 330              		@ args = 0, pretend = 0, frame = 8
 331              		@ frame_needed = 0, uses_anonymous_args = 0
 332 0000 00B5     		push	{lr}
ARM GAS  /tmp/ccyGe5fa.s 			page 7


 333              		.cfi_def_cfa_offset 4
 334              		.cfi_offset 14, -4
 335 0002 83B0     		sub	sp, sp, #12
 336              		.cfi_def_cfa_offset 16
 337 0004 0190     		str	r0, [sp, #4]
 338              		.loc 4 142 0
 339 0006 0198     		ldr	r0, [sp, #4]
 340 0008 FFF7FEFF 		bl	_ZN3r2p7Thread_5sleepERKNS_4TimeE
 341              		.loc 4 143 0
 342 000c 03B0     		add	sp, sp, #12
 343              		@ sp needed
 344 000e 5DF804FB 		ldr	pc, [sp], #4
 345              		.cfi_endproc
 346              	.LFE351:
 347              		.size	_ZN3r2p6Thread5sleepERKNS_4TimeE, .-_ZN3r2p6Thread5sleepERKNS_4TimeE
 348 0012 00BFAFF3 		.section	.text._ZNK3r2p10SpinEvent_10get_threadEv,"axG",%progbits,_ZNK3r2p10SpinEvent_10get_thread
 348      0080AFF3 
 348      0080AFF3 
 348      0080
 349              		.align	2
 350              		.p2align 4,,15
 351              		.weak	_ZNK3r2p10SpinEvent_10get_threadEv
 352              		.thumb
 353              		.thumb_func
 354              		.type	_ZNK3r2p10SpinEvent_10get_threadEv, %function
 355              	_ZNK3r2p10SpinEvent_10get_threadEv:
 356              	.LFB353:
 357              		.file 5 "/home/dave/r2p-sdk/core/Middleware/port/chibios/include/r2p/impl/SpinEvent_.hpp"
 358              		.loc 5 36 0
 359              		.cfi_startproc
 360              		@ args = 0, pretend = 0, frame = 8
 361              		@ frame_needed = 0, uses_anonymous_args = 0
 362              		@ link register save eliminated.
 363 0000 82B0     		sub	sp, sp, #8
 364              		.cfi_def_cfa_offset 8
 365 0002 0190     		str	r0, [sp, #4]
 366              		.loc 5 38 0
 367 0004 019B     		ldr	r3, [sp, #4]
 368 0006 1B68     		ldr	r3, [r3]
 369              		.loc 5 39 0
 370 0008 1846     		mov	r0, r3
 371 000a 02B0     		add	sp, sp, #8
 372              		@ sp needed
 373 000c 7047     		bx	lr
 374              		.cfi_endproc
 375              	.LFE353:
 376              		.size	_ZNK3r2p10SpinEvent_10get_threadEv, .-_ZNK3r2p10SpinEvent_10get_threadEv
 377 000e 00BF     		.section	.rodata
 378              		.align	2
 379              	.LC6:
 380 0000 5232505F 		.ascii	"R2P_ASSERT()\000"
 380      41535345 
 380      52542829 
 380      00
 381              		.section	.text._ZN3r2p10SpinEvent_13signal_unsafeEj,"axG",%progbits,_ZN3r2p10SpinEvent_13signal_un
 382              		.align	2
 383              		.p2align 4,,15
ARM GAS  /tmp/ccyGe5fa.s 			page 8


 384              		.weak	_ZN3r2p10SpinEvent_13signal_unsafeEj
 385              		.thumb
 386              		.thumb_func
 387              		.type	_ZN3r2p10SpinEvent_13signal_unsafeEj, %function
 388              	_ZN3r2p10SpinEvent_13signal_unsafeEj:
 389              	.LFB355:
 390              		.loc 5 50 0
 391              		.cfi_startproc
 392              		@ args = 0, pretend = 0, frame = 8
 393              		@ frame_needed = 0, uses_anonymous_args = 0
 394 0000 00B5     		push	{lr}
 395              		.cfi_def_cfa_offset 4
 396              		.cfi_offset 14, -4
 397 0002 83B0     		sub	sp, sp, #12
 398              		.cfi_def_cfa_offset 16
 399 0004 0190     		str	r0, [sp, #4]
 400 0006 0091     		str	r1, [sp]
 401              		.loc 5 52 0
 402 0008 019B     		ldr	r3, [sp, #4]
 403 000a 1B68     		ldr	r3, [r3]
 404 000c 002B     		cmp	r3, #0
 405 000e 10D0     		beq	.L27
 406              		.loc 5 53 0
 407 0010 2022     		movs	r2, #32
 408 0012 009B     		ldr	r3, [sp]
 409 0014 9A42     		cmp	r2, r3
 410 0016 02D8     		bhi	.L29
 411              		.loc 5 53 0 is_stmt 0 discriminator 1
 412 0018 0748     		ldr	r0, .L30
 413 001a FFF7FEFF 		bl	chDbgPanic
 414              	.L29:
 415              		.loc 5 54 0 is_stmt 1 discriminator 1
 416 001e 019B     		ldr	r3, [sp, #4]
 417 0020 1A68     		ldr	r2, [r3]
 418 0022 009B     		ldr	r3, [sp]
 419 0024 0121     		movs	r1, #1
 420 0026 01FA03F3 		lsl	r3, r1, r3
 421 002a 1046     		mov	r0, r2
 422 002c 1946     		mov	r1, r3
 423 002e FFF7FEFF 		bl	chEvtSignalI
 424              	.L27:
 425              		.loc 5 56 0
 426 0032 03B0     		add	sp, sp, #12
 427              		@ sp needed
 428 0034 5DF804FB 		ldr	pc, [sp], #4
 429              	.L31:
 430              		.align	2
 431              	.L30:
 432 0038 00000000 		.word	.LC6
 433              		.cfi_endproc
 434              	.LFE355:
 435              		.size	_ZN3r2p10SpinEvent_13signal_unsafeEj, .-_ZN3r2p10SpinEvent_13signal_unsafeEj
 436 003c AFF30080 		.section	.text._ZNK3r2p9SpinEvent10get_threadEv,"axG",%progbits,_ZNK3r2p9SpinEvent10get_threadEv,c
 437              		.align	2
 438              		.p2align 4,,15
 439              		.weak	_ZNK3r2p9SpinEvent10get_threadEv
 440              		.thumb
ARM GAS  /tmp/ccyGe5fa.s 			page 9


 441              		.thumb_func
 442              		.type	_ZNK3r2p9SpinEvent10get_threadEv, %function
 443              	_ZNK3r2p9SpinEvent10get_threadEv:
 444              	.LFB361:
 445              		.file 6 "/home/dave/r2p-sdk/core/Middleware/include/r2p/SpinEvent.hpp"
 446              		.loc 6 35 0
 447              		.cfi_startproc
 448              		@ args = 0, pretend = 0, frame = 8
 449              		@ frame_needed = 0, uses_anonymous_args = 0
 450 0000 00B5     		push	{lr}
 451              		.cfi_def_cfa_offset 4
 452              		.cfi_offset 14, -4
 453 0002 83B0     		sub	sp, sp, #12
 454              		.cfi_def_cfa_offset 16
 455 0004 0190     		str	r0, [sp, #4]
 456              		.loc 6 37 0
 457 0006 019B     		ldr	r3, [sp, #4]
 458 0008 1846     		mov	r0, r3
 459 000a FFF7FEFF 		bl	_ZNK3r2p10SpinEvent_10get_threadEv
 460 000e 0346     		mov	r3, r0
 461              		.loc 6 38 0
 462 0010 1846     		mov	r0, r3
 463 0012 03B0     		add	sp, sp, #12
 464              		@ sp needed
 465 0014 5DF804FB 		ldr	pc, [sp], #4
 466              		.cfi_endproc
 467              	.LFE361:
 468              		.size	_ZNK3r2p9SpinEvent10get_threadEv, .-_ZNK3r2p9SpinEvent10get_threadEv
 469 0018 AFF30080 		.section	.text._ZN3r2p9SpinEvent13signal_unsafeEj,"axG",%progbits,_ZN3r2p9SpinEvent13signal_unsafe
 469      AFF30080 
 470              		.align	2
 471              		.p2align 4,,15
 472              		.weak	_ZN3r2p9SpinEvent13signal_unsafeEj
 473              		.thumb
 474              		.thumb_func
 475              		.type	_ZN3r2p9SpinEvent13signal_unsafeEj, %function
 476              	_ZN3r2p9SpinEvent13signal_unsafeEj:
 477              	.LFB363:
 478              		.loc 6 49 0
 479              		.cfi_startproc
 480              		@ args = 0, pretend = 0, frame = 8
 481              		@ frame_needed = 0, uses_anonymous_args = 0
 482 0000 00B5     		push	{lr}
 483              		.cfi_def_cfa_offset 4
 484              		.cfi_offset 14, -4
 485 0002 83B0     		sub	sp, sp, #12
 486              		.cfi_def_cfa_offset 16
 487 0004 0190     		str	r0, [sp, #4]
 488 0006 0091     		str	r1, [sp]
 489              		.loc 6 51 0
 490 0008 019B     		ldr	r3, [sp, #4]
 491 000a 1846     		mov	r0, r3
 492 000c 0099     		ldr	r1, [sp]
 493 000e FFF7FEFF 		bl	_ZN3r2p10SpinEvent_13signal_unsafeEj
 494              		.loc 6 52 0
 495 0012 03B0     		add	sp, sp, #12
 496              		@ sp needed
ARM GAS  /tmp/ccyGe5fa.s 			page 10


 497 0014 5DF804FB 		ldr	pc, [sp], #4
 498              		.cfi_endproc
 499              	.LFE363:
 500              		.size	_ZN3r2p9SpinEvent13signal_unsafeEj, .-_ZN3r2p9SpinEvent13signal_unsafeEj
 501 0018 AFF30080 		.section	.text._ZNK3r2p4Node11get_enabledEv,"axG",%progbits,_ZNK3r2p4Node11get_enabledEv,comdat
 501      AFF30080 
 502              		.align	2
 503              		.p2align 4,,15
 504              		.weak	_ZNK3r2p4Node11get_enabledEv
 505              		.thumb
 506              		.thumb_func
 507              		.type	_ZNK3r2p4Node11get_enabledEv, %function
 508              	_ZNK3r2p4Node11get_enabledEv:
 509              	.LFB380:
 510              		.file 7 "/home/dave/r2p-sdk/core/Middleware/include/r2p/Node.hpp"
 511              		.loc 7 103 0
 512              		.cfi_startproc
 513              		@ args = 0, pretend = 0, frame = 8
 514              		@ frame_needed = 0, uses_anonymous_args = 0
 515 0000 00B5     		push	{lr}
 516              		.cfi_def_cfa_offset 4
 517              		.cfi_offset 14, -4
 518 0002 83B0     		sub	sp, sp, #12
 519              		.cfi_def_cfa_offset 16
 520 0004 0190     		str	r0, [sp, #4]
 521              		.loc 7 105 0
 522 0006 019B     		ldr	r3, [sp, #4]
 523 0008 0C33     		adds	r3, r3, #12
 524 000a 1846     		mov	r0, r3
 525 000c FFF7FEFF 		bl	_ZNK3r2p9SpinEvent10get_threadEv
 526 0010 0346     		mov	r3, r0
 527 0012 002B     		cmp	r3, #0
 528 0014 0CBF     		ite	eq
 529 0016 0023     		moveq	r3, #0
 530 0018 0123     		movne	r3, #1
 531 001a DBB2     		uxtb	r3, r3
 532              		.loc 7 106 0
 533 001c 1846     		mov	r0, r3
 534 001e 03B0     		add	sp, sp, #12
 535              		@ sp needed
 536 0020 5DF804FB 		ldr	pc, [sp], #4
 537              		.cfi_endproc
 538              	.LFE380:
 539              		.size	_ZNK3r2p4Node11get_enabledEv, .-_ZNK3r2p4Node11get_enabledEv
 540 0024 AFF30080 		.section	.text._ZN3r2p4Node13notify_unsafeEj,"axG",%progbits,_ZN3r2p4Node13notify_unsafeEj,comdat
 540      AFF30080 
 540      AFF30080 
 541              		.align	2
 542              		.p2align 4,,15
 543              		.weak	_ZN3r2p4Node13notify_unsafeEj
 544              		.thumb
 545              		.thumb_func
 546              		.type	_ZN3r2p4Node13notify_unsafeEj, %function
 547              	_ZN3r2p4Node13notify_unsafeEj:
 548              	.LFB385:
 549              		.loc 7 140 0
 550              		.cfi_startproc
ARM GAS  /tmp/ccyGe5fa.s 			page 11


 551              		@ args = 0, pretend = 0, frame = 8
 552              		@ frame_needed = 0, uses_anonymous_args = 0
 553 0000 00B5     		push	{lr}
 554              		.cfi_def_cfa_offset 4
 555              		.cfi_offset 14, -4
 556 0002 83B0     		sub	sp, sp, #12
 557              		.cfi_def_cfa_offset 16
 558 0004 0190     		str	r0, [sp, #4]
 559 0006 0091     		str	r1, [sp]
 560              		.loc 7 142 0
 561 0008 019B     		ldr	r3, [sp, #4]
 562 000a 0C33     		adds	r3, r3, #12
 563 000c 1846     		mov	r0, r3
 564 000e 0099     		ldr	r1, [sp]
 565 0010 FFF7FEFF 		bl	_ZN3r2p9SpinEvent13signal_unsafeEj
 566              		.loc 7 143 0
 567 0014 03B0     		add	sp, sp, #12
 568              		@ sp needed
 569 0016 5DF804FB 		ldr	pc, [sp], #4
 570              		.cfi_endproc
 571              	.LFE385:
 572              		.size	_ZN3r2p4Node13notify_unsafeEj, .-_ZN3r2p4Node13notify_unsafeEj
 573 001a 00BFAFF3 		.section	.text._ZNK3r2p15LocalSubscriber16get_queue_lengthEv,"axG",%progbits,_ZNK3r2p15LocalSubscr
 573      0080
 574              		.align	2
 575              		.p2align 4,,15
 576              		.weak	_ZNK3r2p15LocalSubscriber16get_queue_lengthEv
 577              		.thumb
 578              		.thumb_func
 579              		.type	_ZNK3r2p15LocalSubscriber16get_queue_lengthEv, %function
 580              	_ZNK3r2p15LocalSubscriber16get_queue_lengthEv:
 581              	.LFB391:
 582              		.file 8 "/home/dave/r2p-sdk/core/Middleware/include/r2p/LocalSubscriber.hpp"
 583              		.loc 8 64 0
 584              		.cfi_startproc
 585              		@ args = 0, pretend = 0, frame = 8
 586              		@ frame_needed = 0, uses_anonymous_args = 0
 587 0000 00B5     		push	{lr}
 588              		.cfi_def_cfa_offset 4
 589              		.cfi_offset 14, -4
 590 0002 83B0     		sub	sp, sp, #12
 591              		.cfi_def_cfa_offset 16
 592 0004 0190     		str	r0, [sp, #4]
 593              		.loc 8 66 0
 594 0006 019B     		ldr	r3, [sp, #4]
 595 0008 1033     		adds	r3, r3, #16
 596 000a 1846     		mov	r0, r3
 597 000c FFF7FEFF 		bl	_ZNK3r2p10ArrayQueueIPNS_7MessageEE10get_lengthEv
 598 0010 0346     		mov	r3, r0
 599              		.loc 8 67 0
 600 0012 1846     		mov	r0, r3
 601 0014 03B0     		add	sp, sp, #12
 602              		@ sp needed
 603 0016 5DF804FB 		ldr	pc, [sp], #4
 604              		.cfi_endproc
 605              	.LFE391:
 606              		.size	_ZNK3r2p15LocalSubscriber16get_queue_lengthEv, .-_ZNK3r2p15LocalSubscriber16get_queue_length
ARM GAS  /tmp/ccyGe5fa.s 			page 12


 607 001a 00BFAFF3 		.section	.text._ZN3r2p15LocalSubscriber12fetch_unsafeERPNS_7MessageERNS_4TimeE,"axG",%progbits,_ZN
 607      0080
 608              		.align	2
 609              		.p2align 4,,15
 610              		.weak	_ZN3r2p15LocalSubscriber12fetch_unsafeERPNS_7MessageERNS_4TimeE
 611              		.thumb
 612              		.thumb_func
 613              		.type	_ZN3r2p15LocalSubscriber12fetch_unsafeERPNS_7MessageERNS_4TimeE, %function
 614              	_ZN3r2p15LocalSubscriber12fetch_unsafeERPNS_7MessageERNS_4TimeE:
 615              	.LFB392:
 616              		.loc 8 71 0
 617              		.cfi_startproc
 618              		@ args = 0, pretend = 0, frame = 24
 619              		@ frame_needed = 0, uses_anonymous_args = 0
 620 0000 00B5     		push	{lr}
 621              		.cfi_def_cfa_offset 4
 622              		.cfi_offset 14, -4
 623 0002 87B0     		sub	sp, sp, #28
 624              		.cfi_def_cfa_offset 32
 625 0004 0390     		str	r0, [sp, #12]
 626 0006 0291     		str	r1, [sp, #8]
 627 0008 0192     		str	r2, [sp, #4]
 628              		.loc 8 73 0
 629 000a 039B     		ldr	r3, [sp, #12]
 630 000c 1033     		adds	r3, r3, #16
 631 000e 1846     		mov	r0, r3
 632 0010 0299     		ldr	r1, [sp, #8]
 633 0012 FFF7FEFF 		bl	_ZN3r2p10ArrayQueueIPNS_7MessageEE12fetch_unsafeERS2_
 634 0016 0346     		mov	r3, r0
 635 0018 002B     		cmp	r3, #0
 636 001a 0AD0     		beq	.L41
 637              		.loc 8 74 0
 638 001c 05AB     		add	r3, sp, #20
 639 001e 1846     		mov	r0, r3
 640 0020 FFF7FEFF 		bl	_ZN3r2p4Time3nowEv
 641 0024 05AB     		add	r3, sp, #20
 642 0026 0198     		ldr	r0, [sp, #4]
 643 0028 1946     		mov	r1, r3
 644 002a FFF7FEFF 		bl	_ZN3r2p4TimeaSERKS0_
 645              		.loc 8 75 0
 646 002e 0123     		movs	r3, #1
 647 0030 00E0     		b	.L42
 648              	.L41:
 649              		.loc 8 77 0
 650 0032 0023     		movs	r3, #0
 651              	.L42:
 652              		.loc 8 78 0
 653 0034 1846     		mov	r0, r3
 654 0036 07B0     		add	sp, sp, #28
 655              		@ sp needed
 656 0038 5DF804FB 		ldr	pc, [sp], #4
 657              		.cfi_endproc
 658              	.LFE392:
 659              		.size	_ZN3r2p15LocalSubscriber12fetch_unsafeERPNS_7MessageERNS_4TimeE, .-_ZN3r2p15LocalSubscriber1
 660 003c AFF30080 		.section	.text._ZN3r2p15LocalSubscriber13notify_unsafeERNS_7MessageERKNS_4TimeE,"axG",%progbits,_Z
 661              		.align	2
 662              		.p2align 4,,15
ARM GAS  /tmp/ccyGe5fa.s 			page 13


 663              		.weak	_ZN3r2p15LocalSubscriber13notify_unsafeERNS_7MessageERKNS_4TimeE
 664              		.thumb
 665              		.thumb_func
 666              		.type	_ZN3r2p15LocalSubscriber13notify_unsafeERNS_7MessageERKNS_4TimeE, %function
 667              	_ZN3r2p15LocalSubscriber13notify_unsafeERNS_7MessageERKNS_4TimeE:
 668              	.LFB393:
 669              		.loc 8 82 0
 670              		.cfi_startproc
 671              		@ args = 0, pretend = 0, frame = 16
 672              		@ frame_needed = 0, uses_anonymous_args = 0
 673 0000 00B5     		push	{lr}
 674              		.cfi_def_cfa_offset 4
 675              		.cfi_offset 14, -4
 676 0002 85B0     		sub	sp, sp, #20
 677              		.cfi_def_cfa_offset 24
 678 0004 0390     		str	r0, [sp, #12]
 679 0006 0291     		str	r1, [sp, #8]
 680 0008 0192     		str	r2, [sp, #4]
 681              		.loc 8 86 0
 682 000a 039B     		ldr	r3, [sp, #12]
 683 000c 9B68     		ldr	r3, [r3, #8]
 684 000e 1846     		mov	r0, r3
 685 0010 FFF7FEFF 		bl	_ZNK3r2p4Node11get_enabledEv
 686 0014 0346     		mov	r3, r0
 687 0016 002B     		cmp	r3, #0
 688 0018 0AD0     		beq	.L44
 689              		.loc 8 86 0 is_stmt 0 discriminator 1
 690 001a 039B     		ldr	r3, [sp, #12]
 691 001c 1033     		adds	r3, r3, #16
 692 001e 1846     		mov	r0, r3
 693 0020 0299     		ldr	r1, [sp, #8]
 694 0022 FFF7FEFF 		bl	_ZN3r2p10ArrayQueueIPNS_7MessageEE11post_unsafeES2_
 695 0026 0346     		mov	r3, r0
 696 0028 002B     		cmp	r3, #0
 697 002a 01D0     		beq	.L44
 698              		.loc 8 86 0 discriminator 3
 699 002c 0123     		movs	r3, #1
 700 002e 00E0     		b	.L45
 701              	.L44:
 702              		.loc 8 86 0 discriminator 2
 703 0030 0023     		movs	r3, #0
 704              	.L45:
 705              		.loc 8 86 0 discriminator 4
 706 0032 002B     		cmp	r3, #0
 707 0034 0AD0     		beq	.L46
 708              		.loc 8 87 0 is_stmt 1
 709 0036 039B     		ldr	r3, [sp, #12]
 710 0038 9A68     		ldr	r2, [r3, #8]
 711 003a 039B     		ldr	r3, [sp, #12]
 712 003c 93F82430 		ldrb	r3, [r3, #36]	@ zero_extendqisi2
 713 0040 1046     		mov	r0, r2
 714 0042 1946     		mov	r1, r3
 715 0044 FFF7FEFF 		bl	_ZN3r2p4Node13notify_unsafeEj
 716              		.loc 8 88 0
 717 0048 0123     		movs	r3, #1
 718 004a 00E0     		b	.L47
 719              	.L46:
ARM GAS  /tmp/ccyGe5fa.s 			page 14


 720              		.loc 8 90 0
 721 004c 0023     		movs	r3, #0
 722              	.L47:
 723              		.loc 8 91 0
 724 004e 1846     		mov	r0, r3
 725 0050 05B0     		add	sp, sp, #20
 726              		@ sp needed
 727 0052 5DF804FB 		ldr	pc, [sp], #4
 728              		.cfi_endproc
 729              	.LFE393:
 730              		.size	_ZN3r2p15LocalSubscriber13notify_unsafeERNS_7MessageERKNS_4TimeE, .-_ZN3r2p15LocalSubscriber
 731 0056 00BFAFF3 		.section	.text._ZN3r2p6Mutex_D2Ev,"axG",%progbits,_ZN3r2p6Mutex_D5Ev,comdat
 731      0080AFF3 
 731      0080
 732              		.align	2
 733              		.p2align 4,,15
 734              		.weak	_ZN3r2p6Mutex_D2Ev
 735              		.thumb
 736              		.thumb_func
 737              		.type	_ZN3r2p6Mutex_D2Ev, %function
 738              	_ZN3r2p6Mutex_D2Ev:
 739              	.LFB459:
 740              		.file 9 "/home/dave/r2p-sdk/core/Middleware/port/chibios/include/r2p/impl/Mutex_.hpp"
 741              		.loc 9 9 0
 742              		.cfi_startproc
 743              		@ args = 0, pretend = 0, frame = 8
 744              		@ frame_needed = 0, uses_anonymous_args = 0
 745 0000 00B5     		push	{lr}
 746              		.cfi_def_cfa_offset 4
 747              		.cfi_offset 14, -4
 748 0002 83B0     		sub	sp, sp, #12
 749              		.cfi_def_cfa_offset 16
 750 0004 0190     		str	r0, [sp, #4]
 751              	.LBB11:
 752              		.loc 9 9 0
 753 0006 0198     		ldr	r0, [sp, #4]
 754 0008 FFF7FEFF 		bl	_ZN3r2p10UncopyableD2Ev
 755              	.LBE11:
 756 000c 019B     		ldr	r3, [sp, #4]
 757 000e 1846     		mov	r0, r3
 758 0010 03B0     		add	sp, sp, #12
 759              		@ sp needed
 760 0012 5DF804FB 		ldr	pc, [sp], #4
 761              		.cfi_endproc
 762              	.LFE459:
 763              		.size	_ZN3r2p6Mutex_D2Ev, .-_ZN3r2p6Mutex_D2Ev
 764              		.weak	_ZN3r2p6Mutex_D1Ev
 765              		.thumb_set _ZN3r2p6Mutex_D1Ev,_ZN3r2p6Mutex_D2Ev
 766 0016 00BFAFF3 		.section	.text._ZN3r2p5MutexD2Ev,"axG",%progbits,_ZN3r2p5MutexD5Ev,comdat
 766      0080AFF3 
 766      0080
 767              		.align	2
 768              		.p2align 4,,15
 769              		.weak	_ZN3r2p5MutexD2Ev
 770              		.thumb
 771              		.thumb_func
 772              		.type	_ZN3r2p5MutexD2Ev, %function
ARM GAS  /tmp/ccyGe5fa.s 			page 15


 773              	_ZN3r2p5MutexD2Ev:
 774              	.LFB473:
 775              		.file 10 "/home/dave/r2p-sdk/core/Middleware/include/r2p/Mutex.hpp"
 776              		.loc 10 9 0
 777              		.cfi_startproc
 778              		@ args = 0, pretend = 0, frame = 8
 779              		@ frame_needed = 0, uses_anonymous_args = 0
 780 0000 00B5     		push	{lr}
 781              		.cfi_def_cfa_offset 4
 782              		.cfi_offset 14, -4
 783 0002 83B0     		sub	sp, sp, #12
 784              		.cfi_def_cfa_offset 16
 785 0004 0190     		str	r0, [sp, #4]
 786              	.LBB12:
 787              		.loc 10 9 0
 788 0006 019B     		ldr	r3, [sp, #4]
 789 0008 0433     		adds	r3, r3, #4
 790 000a 1846     		mov	r0, r3
 791 000c FFF7FEFF 		bl	_ZN3r2p6Mutex_D1Ev
 792 0010 0198     		ldr	r0, [sp, #4]
 793 0012 FFF7FEFF 		bl	_ZN3r2p10UncopyableD2Ev
 794              	.LBE12:
 795 0016 019B     		ldr	r3, [sp, #4]
 796 0018 1846     		mov	r0, r3
 797 001a 03B0     		add	sp, sp, #12
 798              		@ sp needed
 799 001c 5DF804FB 		ldr	pc, [sp], #4
 800              		.cfi_endproc
 801              	.LFE473:
 802              		.size	_ZN3r2p5MutexD2Ev, .-_ZN3r2p5MutexD2Ev
 803              		.weak	_ZN3r2p5MutexD1Ev
 804              		.thumb_set _ZN3r2p5MutexD1Ev,_ZN3r2p5MutexD2Ev
 805              		.section	.bss._ZL7wa_info,"aw",%nobits
 806              		.align	3
 807              		.type	_ZL7wa_info, %object
 808              		.size	_ZL7wa_info, 1368
 809              	_ZL7wa_info:
 810 0000 00000000 		.space	1368
 810      00000000 
 810      00000000 
 810      00000000 
 810      00000000 
 811              		.section	.bss._ZL8rtcantra,"aw",%nobits
 812              		.align	2
 813              		.type	_ZL8rtcantra, %object
 814              		.size	_ZL8rtcantra, 572
 815              	_ZL8rtcantra:
 816 0000 00000000 		.space	572
 816      00000000 
 816      00000000 
 816      00000000 
 816      00000000 
 817              		.global	rtcan_config
 818              		.section	.data.rtcan_config,"aw",%progbits
 819              		.align	2
 820              		.type	rtcan_config, %object
 821              		.size	rtcan_config, 12
ARM GAS  /tmp/ccyGe5fa.s 			page 16


 822              	rtcan_config:
 823 0000 40420F00 		.word	1000000
 824 0004 64000000 		.word	100
 825 0008 3C000000 		.word	60
 826              		.global	_ZN3r2p10Middleware8instanceE
 827              		.section	.bss._ZN3r2p10Middleware8instanceE,"aw",%nobits
 828              		.align	2
 829              		.type	_ZN3r2p10Middleware8instanceE, %object
 830              		.size	_ZN3r2p10Middleware8instanceE, 608
 831              	_ZN3r2p10Middleware8instanceE:
 832 0000 00000000 		.space	608
 832      00000000 
 832      00000000 
 832      00000000 
 832      00000000 
 833              		.section	.rodata
 834 000d 000000   		.align	2
 835              	.LC7:
 836 0010 6C656400 		.ascii	"led\000"
 837              		.align	2
 838              	.LC0:
 839 0014 70776D5F 		.ascii	"pwm_node\000"
 839      6E6F6465 
 839      00
 840 001d 000000   		.align	2
 841              	.LC1:
 842 0020 70776D00 		.ascii	"pwm\000"
 843              		.align	2
 844              	.LC8:
 845 0024 14000000 		.word	.LC0
 846 0028 20000000 		.word	.LC1
 847 002c 01       		.byte	1
 848 002d 000000   		.space	3
 849              		.align	2
 850              	.LC3:
 851 0030 656E636F 		.ascii	"encoder_node\000"
 851      6465725F 
 851      6E6F6465 
 851      00
 852 003d 000000   		.align	2
 853              	.LC4:
 854 0040 656E636F 		.ascii	"encoder1\000"
 854      64657231 
 854      00
 855 0049 000000   		.align	2
 856              	.LC9:
 857 004c 30000000 		.word	.LC3
 858 0050 40000000 		.word	.LC4
 859 0054 39261143 		.word	1125197369
 860              		.section	.text.main,"ax",%progbits
 861              		.align	2
 862              		.p2align 4,,15
 863              		.global	main
 864              		.thumb
 865              		.thumb_func
 866              		.type	main, %function
 867              	main:
ARM GAS  /tmp/ccyGe5fa.s 			page 17


 868              	.LFB596:
 869              		.file 11 "main.cpp"
 870              		.loc 11 27 0
 871              		.cfi_startproc
 872              		@ args = 0, pretend = 0, frame = 32
 873              		@ frame_needed = 0, uses_anonymous_args = 0
 874 0000 00B5     		push	{lr}
 875              		.cfi_def_cfa_offset 4
 876              		.cfi_offset 14, -4
 877 0002 8DB0     		sub	sp, sp, #52
 878              		.cfi_def_cfa_offset 56
 879              	.LBB13:
 880              		.loc 11 29 0
 881 0004 FFF7FEFF 		bl	halInit
 882              		.loc 11 30 0
 883 0008 FFF7FEFF 		bl	chSysInit
 884              		.loc 11 32 0
 885 000c 0023     		movs	r3, #0
 886 000e 0093     		str	r3, [sp]
 887 0010 0023     		movs	r3, #0
 888 0012 0193     		str	r3, [sp, #4]
 889 0014 0223     		movs	r3, #2
 890 0016 0293     		str	r3, [sp, #8]
 891 0018 2B48     		ldr	r0, .L56
 892 001a 2C49     		ldr	r1, .L56+4
 893 001c 4FF4AB62 		mov	r2, #1368
 894 0020 0223     		movs	r3, #2
 895 0022 FFF7FEFF 		bl	_ZN3r2p10Middleware10initializeEPvjmS1_jm
 896              		.loc 11 33 0
 897 0026 2A48     		ldr	r0, .L56+8
 898 0028 2A49     		ldr	r1, .L56+12
 899 002a FFF7FEFF 		bl	_ZN3r2p14RTCANTransport10initializeERK11RTCANConfig
 900              		.loc 11 34 0
 901 002e 2648     		ldr	r0, .L56
 902 0030 FFF7FEFF 		bl	_ZN3r2p10Middleware5startEv
 903              		.loc 11 36 0
 904 0034 284B     		ldr	r3, .L56+16
 905 0036 0A93     		str	r3, [sp, #40]
 906              		.loc 11 37 0
 907 0038 B023     		movs	r3, #176
 908 003a 6833     		adds	r3, r3, #104
 909 003c 03F23F22 		addw	r2, r3, #575
 910 0040 0723     		movs	r3, #7
 911 0042 1343     		orrs	r3, r3, r2
 912 0044 0133     		adds	r3, r3, #1
 913 0046 0AAA     		add	r2, sp, #40
 914 0048 0092     		str	r2, [sp]
 915 004a 0022     		movs	r2, #0
 916 004c 0192     		str	r2, [sp, #4]
 917 004e 0020     		movs	r0, #0
 918 0050 1946     		mov	r1, r3
 919 0052 4022     		movs	r2, #64
 920 0054 214B     		ldr	r3, .L56+20
 921 0056 FFF7FEFF 		bl	_ZN3r2p6Thread11create_heapEPvjmPFlS1_ES1_PKc
 922              		.loc 11 39 0
 923 005a 214A     		ldr	r2, .L56+24
 924 005c 07AB     		add	r3, sp, #28
ARM GAS  /tmp/ccyGe5fa.s 			page 18


 925 005e 07CA     		ldmia	r2, {r0, r1, r2}
 926 0060 83E80700 		stmia	r3, {r0, r1, r2}
 927              		.loc 11 40 0
 928 0064 B023     		movs	r3, #176
 929 0066 6833     		adds	r3, r3, #104
 930 0068 03F63F02 		addw	r2, r3, #2111
 931 006c 0723     		movs	r3, #7
 932 006e 1343     		orrs	r3, r3, r2
 933 0070 0133     		adds	r3, r3, #1
 934 0072 07AA     		add	r2, sp, #28
 935 0074 0092     		str	r2, [sp]
 936 0076 0022     		movs	r2, #0
 937 0078 0192     		str	r2, [sp, #4]
 938 007a 0020     		movs	r0, #0
 939 007c 1946     		mov	r1, r3
 940 007e 4122     		movs	r2, #65
 941 0080 184B     		ldr	r3, .L56+28
 942 0082 FFF7FEFF 		bl	_ZN3r2p6Thread11create_heapEPvjmPFlS1_ES1_PKc
 943              		.loc 11 42 0
 944 0086 184A     		ldr	r2, .L56+32
 945 0088 04AB     		add	r3, sp, #16
 946 008a 07CA     		ldmia	r2, {r0, r1, r2}
 947 008c 83E80700 		stmia	r3, {r0, r1, r2}
 948              		.loc 11 43 0
 949 0090 B023     		movs	r3, #176
 950 0092 6833     		adds	r3, r3, #104
 951 0094 03F63F02 		addw	r2, r3, #2111
 952 0098 0723     		movs	r3, #7
 953 009a 1343     		orrs	r3, r3, r2
 954 009c 0133     		adds	r3, r3, #1
 955 009e 04AA     		add	r2, sp, #16
 956 00a0 0092     		str	r2, [sp]
 957 00a2 0022     		movs	r2, #0
 958 00a4 0192     		str	r2, [sp, #4]
 959 00a6 0020     		movs	r0, #0
 960 00a8 1946     		mov	r1, r3
 961 00aa 4222     		movs	r2, #66
 962 00ac 0F4B     		ldr	r3, .L56+36
 963 00ae FFF7FEFF 		bl	_ZN3r2p6Thread11create_heapEPvjmPFlS1_ES1_PKc
 964              	.L55:
 965              		.loc 11 46 0 discriminator 1
 966 00b2 0BAB     		add	r3, sp, #44
 967 00b4 1846     		mov	r0, r3
 968 00b6 4FF4FA71 		mov	r1, #500
 969 00ba FFF7FEFF 		bl	_ZN3r2p4Time2msEl
 970 00be 0BAB     		add	r3, sp, #44
 971 00c0 1846     		mov	r0, r3
 972 00c2 FFF7FEFF 		bl	_ZN3r2p6Thread5sleepERKNS_4TimeE
 973              		.loc 11 49 0 discriminator 1
 974 00c6 F4E7     		b	.L55
 975              	.L57:
 976              		.align	2
 977              	.L56:
 978 00c8 00000000 		.word	_ZN3r2p10Middleware8instanceE
 979 00cc 00000000 		.word	_ZL7wa_info
 980 00d0 00000000 		.word	_ZL8rtcantra
 981 00d4 00000000 		.word	rtcan_config
ARM GAS  /tmp/ccyGe5fa.s 			page 19


 982 00d8 10000000 		.word	.LC7
 983 00dc 00000000 		.word	_ZN3r2p11ledsub_nodeEPv
 984 00e0 24000000 		.word	.LC8
 985 00e4 00000000 		.word	_Z8pwm_nodePv
 986 00e8 4C000000 		.word	.LC9
 987 00ec 00000000 		.word	_Z12encoder_nodePv
 988              	.LBE13:
 989              		.cfi_endproc
 990              	.LFE596:
 991              		.size	main, .-main
 992              		.section	.text._ZN3r2p4TimeC2IlEET_,"axG",%progbits,_ZN3r2p4TimeC5IlEET_,comdat
 993              		.align	2
 994              		.p2align 4,,15
 995              		.weak	_ZN3r2p4TimeC2IlEET_
 996              		.thumb
 997              		.thumb_func
 998              		.type	_ZN3r2p4TimeC2IlEET_, %function
 999              	_ZN3r2p4TimeC2IlEET_:
 1000              	.LFB598:
 1001              		.loc 2 159 0
 1002              		.cfi_startproc
 1003              		@ args = 0, pretend = 0, frame = 8
 1004              		@ frame_needed = 0, uses_anonymous_args = 0
 1005              		@ link register save eliminated.
 1006 0000 82B0     		sub	sp, sp, #8
 1007              		.cfi_def_cfa_offset 8
 1008 0002 0190     		str	r0, [sp, #4]
 1009 0004 0091     		str	r1, [sp]
 1010              	.LBB14:
 1011              		.loc 2 161 0
 1012 0006 019B     		ldr	r3, [sp, #4]
 1013 0008 009A     		ldr	r2, [sp]
 1014 000a 1A60     		str	r2, [r3]
 1015              	.LBE14:
 1016              		.loc 2 162 0
 1017 000c 019B     		ldr	r3, [sp, #4]
 1018 000e 1846     		mov	r0, r3
 1019 0010 02B0     		add	sp, sp, #8
 1020              		@ sp needed
 1021 0012 7047     		bx	lr
 1022              		.cfi_endproc
 1023              	.LFE598:
 1024              		.size	_ZN3r2p4TimeC2IlEET_, .-_ZN3r2p4TimeC2IlEET_
 1025              		.weak	_ZN3r2p4TimeC1IlEET_
 1026              		.thumb_set _ZN3r2p4TimeC1IlEET_,_ZN3r2p4TimeC2IlEET_
 1027 0014 AFF30080 		.section	.text._ZNK3r2p10ArrayQueueIPNS_7MessageEE10get_lengthEv,"axG",%progbits,_ZNK3r2p10ArrayQu
 1027      AFF30080 
 1027      AFF30080 
 1028              		.align	2
 1029              		.p2align 4,,15
 1030              		.weak	_ZNK3r2p10ArrayQueueIPNS_7MessageEE10get_lengthEv
 1031              		.thumb
 1032              		.thumb_func
 1033              		.type	_ZNK3r2p10ArrayQueueIPNS_7MessageEE10get_lengthEv, %function
 1034              	_ZNK3r2p10ArrayQueueIPNS_7MessageEE10get_lengthEv:
 1035              	.LFB606:
 1036              		.file 12 "/home/dave/r2p-sdk/core/Middleware/include/r2p/ArrayQueue.hpp"
ARM GAS  /tmp/ccyGe5fa.s 			page 20


 1037              		.loc 12 81 0
 1038              		.cfi_startproc
 1039              		@ args = 0, pretend = 0, frame = 8
 1040              		@ frame_needed = 0, uses_anonymous_args = 0
 1041              		@ link register save eliminated.
 1042 0000 82B0     		sub	sp, sp, #8
 1043              		.cfi_def_cfa_offset 8
 1044 0002 0190     		str	r0, [sp, #4]
 1045              		.loc 12 83 0
 1046 0004 019B     		ldr	r3, [sp, #4]
 1047 0006 5B68     		ldr	r3, [r3, #4]
 1048              		.loc 12 84 0
 1049 0008 1846     		mov	r0, r3
 1050 000a 02B0     		add	sp, sp, #8
 1051              		@ sp needed
 1052 000c 7047     		bx	lr
 1053              		.cfi_endproc
 1054              	.LFE606:
 1055              		.size	_ZNK3r2p10ArrayQueueIPNS_7MessageEE10get_lengthEv, .-_ZNK3r2p10ArrayQueueIPNS_7MessageEE10ge
 1056 000e 00BF     		.section	.text._ZN3r2p10ArrayQueueIPNS_7MessageEE12fetch_unsafeERS2_,"axG",%progbits,_ZN3r2p10Arra
 1057              		.align	2
 1058              		.p2align 4,,15
 1059              		.weak	_ZN3r2p10ArrayQueueIPNS_7MessageEE12fetch_unsafeERS2_
 1060              		.thumb
 1061              		.thumb_func
 1062              		.type	_ZN3r2p10ArrayQueueIPNS_7MessageEE12fetch_unsafeERS2_, %function
 1063              	_ZN3r2p10ArrayQueueIPNS_7MessageEE12fetch_unsafeERS2_:
 1064              	.LFB607:
 1065              		.loc 12 52 0
 1066              		.cfi_startproc
 1067              		@ args = 0, pretend = 0, frame = 8
 1068              		@ frame_needed = 0, uses_anonymous_args = 0
 1069              		@ link register save eliminated.
 1070 0000 82B0     		sub	sp, sp, #8
 1071              		.cfi_def_cfa_offset 8
 1072 0002 0190     		str	r0, [sp, #4]
 1073 0004 0091     		str	r1, [sp]
 1074              		.loc 12 54 0
 1075 0006 019B     		ldr	r3, [sp, #4]
 1076 0008 9B68     		ldr	r3, [r3, #8]
 1077 000a 002B     		cmp	r3, #0
 1078 000c 23D0     		beq	.L64
 1079              		.loc 12 55 0
 1080 000e 019B     		ldr	r3, [sp, #4]
 1081 0010 9B68     		ldr	r3, [r3, #8]
 1082 0012 5A1E     		subs	r2, r3, #1
 1083 0014 019B     		ldr	r3, [sp, #4]
 1084 0016 9A60     		str	r2, [r3, #8]
 1085              		.loc 12 56 0
 1086 0018 019B     		ldr	r3, [sp, #4]
 1087 001a DB68     		ldr	r3, [r3, #12]
 1088 001c 1A68     		ldr	r2, [r3]
 1089 001e 009B     		ldr	r3, [sp]
 1090 0020 1A60     		str	r2, [r3]
 1091              		.loc 12 57 0
 1092 0022 019B     		ldr	r3, [sp, #4]
 1093 0024 DB68     		ldr	r3, [r3, #12]
ARM GAS  /tmp/ccyGe5fa.s 			page 21


 1094 0026 1A1D     		adds	r2, r3, #4
 1095 0028 019B     		ldr	r3, [sp, #4]
 1096 002a DA60     		str	r2, [r3, #12]
 1097 002c 019B     		ldr	r3, [sp, #4]
 1098 002e DA68     		ldr	r2, [r3, #12]
 1099 0030 019B     		ldr	r3, [sp, #4]
 1100 0032 1968     		ldr	r1, [r3]
 1101 0034 019B     		ldr	r3, [sp, #4]
 1102 0036 5B68     		ldr	r3, [r3, #4]
 1103 0038 9B00     		lsls	r3, r3, #2
 1104 003a 0B44     		add	r3, r3, r1
 1105 003c 9A42     		cmp	r2, r3
 1106 003e 34BF     		ite	cc
 1107 0040 0023     		movcc	r3, #0
 1108 0042 0123     		movcs	r3, #1
 1109 0044 DBB2     		uxtb	r3, r3
 1110 0046 002B     		cmp	r3, #0
 1111 0048 03D0     		beq	.L65
 1112              		.loc 12 58 0
 1113 004a 019B     		ldr	r3, [sp, #4]
 1114 004c 1A68     		ldr	r2, [r3]
 1115 004e 019B     		ldr	r3, [sp, #4]
 1116 0050 DA60     		str	r2, [r3, #12]
 1117              	.L65:
 1118              		.loc 12 60 0
 1119 0052 0123     		movs	r3, #1
 1120 0054 00E0     		b	.L66
 1121              	.L64:
 1122              		.loc 12 62 0
 1123 0056 0023     		movs	r3, #0
 1124              	.L66:
 1125              		.loc 12 63 0
 1126 0058 1846     		mov	r0, r3
 1127 005a 02B0     		add	sp, sp, #8
 1128              		@ sp needed
 1129 005c 7047     		bx	lr
 1130              		.cfi_endproc
 1131              	.LFE607:
 1132              		.size	_ZN3r2p10ArrayQueueIPNS_7MessageEE12fetch_unsafeERS2_, .-_ZN3r2p10ArrayQueueIPNS_7MessageEE1
 1133              		.section	.text._ZN3r2p10ArrayQueueIPNS_7MessageEE11post_unsafeES2_,"axG",%progbits,_ZN3r2p10ArrayQ
 1134              		.align	2
 1135              		.p2align 4,,15
 1136              		.weak	_ZN3r2p10ArrayQueueIPNS_7MessageEE11post_unsafeES2_
 1137              		.thumb
 1138              		.thumb_func
 1139              		.type	_ZN3r2p10ArrayQueueIPNS_7MessageEE11post_unsafeES2_, %function
 1140              	_ZN3r2p10ArrayQueueIPNS_7MessageEE11post_unsafeES2_:
 1141              	.LFB608:
 1142              		.loc 12 37 0
 1143              		.cfi_startproc
 1144              		@ args = 0, pretend = 0, frame = 8
 1145              		@ frame_needed = 0, uses_anonymous_args = 0
 1146              		@ link register save eliminated.
 1147 0000 82B0     		sub	sp, sp, #8
 1148              		.cfi_def_cfa_offset 8
 1149 0002 0190     		str	r0, [sp, #4]
 1150 0004 0091     		str	r1, [sp]
ARM GAS  /tmp/ccyGe5fa.s 			page 22


 1151              		.loc 12 39 0
 1152 0006 019B     		ldr	r3, [sp, #4]
 1153 0008 9A68     		ldr	r2, [r3, #8]
 1154 000a 019B     		ldr	r3, [sp, #4]
 1155 000c 5B68     		ldr	r3, [r3, #4]
 1156 000e 9A42     		cmp	r2, r3
 1157 0010 22D2     		bcs	.L68
 1158              		.loc 12 40 0
 1159 0012 019B     		ldr	r3, [sp, #4]
 1160 0014 9B68     		ldr	r3, [r3, #8]
 1161 0016 5A1C     		adds	r2, r3, #1
 1162 0018 019B     		ldr	r3, [sp, #4]
 1163 001a 9A60     		str	r2, [r3, #8]
 1164              		.loc 12 41 0
 1165 001c 019B     		ldr	r3, [sp, #4]
 1166 001e 1B69     		ldr	r3, [r3, #16]
 1167 0020 009A     		ldr	r2, [sp]
 1168 0022 1A60     		str	r2, [r3]
 1169              		.loc 12 42 0
 1170 0024 019B     		ldr	r3, [sp, #4]
 1171 0026 1B69     		ldr	r3, [r3, #16]
 1172 0028 1A1D     		adds	r2, r3, #4
 1173 002a 019B     		ldr	r3, [sp, #4]
 1174 002c 1A61     		str	r2, [r3, #16]
 1175 002e 019B     		ldr	r3, [sp, #4]
 1176 0030 1A69     		ldr	r2, [r3, #16]
 1177 0032 019B     		ldr	r3, [sp, #4]
 1178 0034 1968     		ldr	r1, [r3]
 1179 0036 019B     		ldr	r3, [sp, #4]
 1180 0038 5B68     		ldr	r3, [r3, #4]
 1181 003a 9B00     		lsls	r3, r3, #2
 1182 003c 0B44     		add	r3, r3, r1
 1183 003e 9A42     		cmp	r2, r3
 1184 0040 34BF     		ite	cc
 1185 0042 0023     		movcc	r3, #0
 1186 0044 0123     		movcs	r3, #1
 1187 0046 DBB2     		uxtb	r3, r3
 1188 0048 002B     		cmp	r3, #0
 1189 004a 03D0     		beq	.L69
 1190              		.loc 12 43 0
 1191 004c 019B     		ldr	r3, [sp, #4]
 1192 004e 1A68     		ldr	r2, [r3]
 1193 0050 019B     		ldr	r3, [sp, #4]
 1194 0052 1A61     		str	r2, [r3, #16]
 1195              	.L69:
 1196              		.loc 12 45 0
 1197 0054 0123     		movs	r3, #1
 1198 0056 00E0     		b	.L70
 1199              	.L68:
 1200              		.loc 12 47 0
 1201 0058 0023     		movs	r3, #0
 1202              	.L70:
 1203              		.loc 12 48 0
 1204 005a 1846     		mov	r0, r3
 1205 005c 02B0     		add	sp, sp, #8
 1206              		@ sp needed
 1207 005e 7047     		bx	lr
ARM GAS  /tmp/ccyGe5fa.s 			page 23


 1208              		.cfi_endproc
 1209              	.LFE608:
 1210              		.size	_ZN3r2p10ArrayQueueIPNS_7MessageEE11post_unsafeES2_, .-_ZN3r2p10ArrayQueueIPNS_7MessageEE11p
 1211              		.weak	_ZTVN3r2p16SubscriberExtBufINS_7MgmtMsgEEE
 1212              		.section	.rodata._ZTVN3r2p16SubscriberExtBufINS_7MgmtMsgEEE,"aG",%progbits,_ZTVN3r2p16SubscriberEx
 1213              		.align	3
 1214              		.type	_ZTVN3r2p16SubscriberExtBufINS_7MgmtMsgEEE, %object
 1215              		.size	_ZTVN3r2p16SubscriberExtBufINS_7MgmtMsgEEE, 36
 1216              	_ZTVN3r2p16SubscriberExtBufINS_7MgmtMsgEEE:
 1217 0000 00000000 		.word	0
 1218 0004 00000000 		.word	0
 1219 0008 00000000 		.word	_ZNK3r2p15LocalSubscriber16get_queue_lengthEv
 1220 000c 00000000 		.word	_ZN3r2p15LocalSubscriber13notify_unsafeERNS_7MessageERKNS_4TimeE
 1221 0010 00000000 		.word	_ZN3r2p15LocalSubscriber12fetch_unsafeERPNS_7MessageERNS_4TimeE
 1222 0014 00000000 		.word	_ZN3r2p15LocalSubscriber6notifyERNS_7MessageERKNS_4TimeE
 1223 0018 00000000 		.word	_ZN3r2p15LocalSubscriber5fetchERPNS_7MessageERNS_4TimeE
 1224 001c 00000000 		.word	_ZN3r2p16SubscriberExtBufINS_7MgmtMsgEED1Ev
 1225 0020 00000000 		.word	_ZN3r2p16SubscriberExtBufINS_7MgmtMsgEED0Ev
 1226              		.weak	_ZTVN3r2p9PublisherINS_7MgmtMsgEEE
 1227 0024 00000000 		.section	.rodata._ZTVN3r2p9PublisherINS_7MgmtMsgEEE,"aG",%progbits,_ZTVN3r2p9PublisherINS_7MgmtMsg
 1228              		.align	3
 1229              		.type	_ZTVN3r2p9PublisherINS_7MgmtMsgEEE, %object
 1230              		.size	_ZTVN3r2p9PublisherINS_7MgmtMsgEEE, 16
 1231              	_ZTVN3r2p9PublisherINS_7MgmtMsgEEE:
 1232 0000 00000000 		.word	0
 1233 0004 00000000 		.word	0
 1234 0008 00000000 		.word	_ZN3r2p9PublisherINS_7MgmtMsgEED1Ev
 1235 000c 00000000 		.word	_ZN3r2p9PublisherINS_7MgmtMsgEED0Ev
 1236              		.section	.text._ZN3r2p10StaticListINS_4NodeEED2Ev,"axG",%progbits,_ZN3r2p10StaticListINS_4NodeEED5
 1237              		.align	2
 1238              		.p2align 4,,15
 1239              		.weak	_ZN3r2p10StaticListINS_4NodeEED2Ev
 1240              		.thumb
 1241              		.thumb_func
 1242              		.type	_ZN3r2p10StaticListINS_4NodeEED2Ev, %function
 1243              	_ZN3r2p10StaticListINS_4NodeEED2Ev:
 1244              	.LFB621:
 1245              		.file 13 "/home/dave/r2p-sdk/core/Middleware/include/r2p/StaticList.hpp"
 1246              		.loc 13 15 0
 1247              		.cfi_startproc
 1248              		@ args = 0, pretend = 0, frame = 8
 1249              		@ frame_needed = 0, uses_anonymous_args = 0
 1250 0000 00B5     		push	{lr}
 1251              		.cfi_def_cfa_offset 4
 1252              		.cfi_offset 14, -4
 1253 0002 83B0     		sub	sp, sp, #12
 1254              		.cfi_def_cfa_offset 16
 1255 0004 0190     		str	r0, [sp, #4]
 1256              	.LBB15:
 1257              		.loc 13 15 0
 1258 0006 0198     		ldr	r0, [sp, #4]
 1259 0008 FFF7FEFF 		bl	_ZN3r2p10UncopyableD2Ev
 1260              	.LBE15:
 1261 000c 019B     		ldr	r3, [sp, #4]
 1262 000e 1846     		mov	r0, r3
 1263 0010 03B0     		add	sp, sp, #12
 1264              		@ sp needed
ARM GAS  /tmp/ccyGe5fa.s 			page 24


 1265 0012 5DF804FB 		ldr	pc, [sp], #4
 1266              		.cfi_endproc
 1267              	.LFE621:
 1268              		.size	_ZN3r2p10StaticListINS_4NodeEED2Ev, .-_ZN3r2p10StaticListINS_4NodeEED2Ev
 1269              		.weak	_ZN3r2p10StaticListINS_4NodeEED1Ev
 1270              		.thumb_set _ZN3r2p10StaticListINS_4NodeEED1Ev,_ZN3r2p10StaticListINS_4NodeEED2Ev
 1271 0016 00BFAFF3 		.section	.text._ZN3r2p10StaticListINS_5TopicEED2Ev,"axG",%progbits,_ZN3r2p10StaticListINS_5TopicEE
 1271      0080AFF3 
 1271      0080
 1272              		.align	2
 1273              		.p2align 4,,15
 1274              		.weak	_ZN3r2p10StaticListINS_5TopicEED2Ev
 1275              		.thumb
 1276              		.thumb_func
 1277              		.type	_ZN3r2p10StaticListINS_5TopicEED2Ev, %function
 1278              	_ZN3r2p10StaticListINS_5TopicEED2Ev:
 1279              	.LFB624:
 1280              		.loc 13 15 0
 1281              		.cfi_startproc
 1282              		@ args = 0, pretend = 0, frame = 8
 1283              		@ frame_needed = 0, uses_anonymous_args = 0
 1284 0000 00B5     		push	{lr}
 1285              		.cfi_def_cfa_offset 4
 1286              		.cfi_offset 14, -4
 1287 0002 83B0     		sub	sp, sp, #12
 1288              		.cfi_def_cfa_offset 16
 1289 0004 0190     		str	r0, [sp, #4]
 1290              	.LBB16:
 1291              		.loc 13 15 0
 1292 0006 0198     		ldr	r0, [sp, #4]
 1293 0008 FFF7FEFF 		bl	_ZN3r2p10UncopyableD2Ev
 1294              	.LBE16:
 1295 000c 019B     		ldr	r3, [sp, #4]
 1296 000e 1846     		mov	r0, r3
 1297 0010 03B0     		add	sp, sp, #12
 1298              		@ sp needed
 1299 0012 5DF804FB 		ldr	pc, [sp], #4
 1300              		.cfi_endproc
 1301              	.LFE624:
 1302              		.size	_ZN3r2p10StaticListINS_5TopicEED2Ev, .-_ZN3r2p10StaticListINS_5TopicEED2Ev
 1303              		.weak	_ZN3r2p10StaticListINS_5TopicEED1Ev
 1304              		.thumb_set _ZN3r2p10StaticListINS_5TopicEED1Ev,_ZN3r2p10StaticListINS_5TopicEED2Ev
 1305 0016 00BFAFF3 		.section	.text._ZN3r2p10StaticListINS_9TransportEED2Ev,"axG",%progbits,_ZN3r2p10StaticListINS_9Tra
 1305      0080AFF3 
 1305      0080
 1306              		.align	2
 1307              		.p2align 4,,15
 1308              		.weak	_ZN3r2p10StaticListINS_9TransportEED2Ev
 1309              		.thumb
 1310              		.thumb_func
 1311              		.type	_ZN3r2p10StaticListINS_9TransportEED2Ev, %function
 1312              	_ZN3r2p10StaticListINS_9TransportEED2Ev:
 1313              	.LFB627:
 1314              		.loc 13 15 0
 1315              		.cfi_startproc
 1316              		@ args = 0, pretend = 0, frame = 8
 1317              		@ frame_needed = 0, uses_anonymous_args = 0
ARM GAS  /tmp/ccyGe5fa.s 			page 25


 1318 0000 00B5     		push	{lr}
 1319              		.cfi_def_cfa_offset 4
 1320              		.cfi_offset 14, -4
 1321 0002 83B0     		sub	sp, sp, #12
 1322              		.cfi_def_cfa_offset 16
 1323 0004 0190     		str	r0, [sp, #4]
 1324              	.LBB17:
 1325              		.loc 13 15 0
 1326 0006 0198     		ldr	r0, [sp, #4]
 1327 0008 FFF7FEFF 		bl	_ZN3r2p10UncopyableD2Ev
 1328              	.LBE17:
 1329 000c 019B     		ldr	r3, [sp, #4]
 1330 000e 1846     		mov	r0, r3
 1331 0010 03B0     		add	sp, sp, #12
 1332              		@ sp needed
 1333 0012 5DF804FB 		ldr	pc, [sp], #4
 1334              		.cfi_endproc
 1335              	.LFE627:
 1336              		.size	_ZN3r2p10StaticListINS_9TransportEED2Ev, .-_ZN3r2p10StaticListINS_9TransportEED2Ev
 1337              		.weak	_ZN3r2p10StaticListINS_9TransportEED1Ev
 1338              		.thumb_set _ZN3r2p10StaticListINS_9TransportEED1Ev,_ZN3r2p10StaticListINS_9TransportEED2Ev
 1339 0016 00BFAFF3 		.section	.text._ZN3r2p7ReMutexD2Ev,"axG",%progbits,_ZN3r2p7ReMutexD5Ev,comdat
 1339      0080AFF3 
 1339      0080
 1340              		.align	2
 1341              		.p2align 4,,15
 1342              		.weak	_ZN3r2p7ReMutexD2Ev
 1343              		.thumb
 1344              		.thumb_func
 1345              		.type	_ZN3r2p7ReMutexD2Ev, %function
 1346              	_ZN3r2p7ReMutexD2Ev:
 1347              	.LFB630:
 1348              		.file 14 "/home/dave/r2p-sdk/core/Middleware/include/r2p/ReMutex.hpp"
 1349              		.loc 14 9 0
 1350              		.cfi_startproc
 1351              		@ args = 0, pretend = 0, frame = 8
 1352              		@ frame_needed = 0, uses_anonymous_args = 0
 1353 0000 00B5     		push	{lr}
 1354              		.cfi_def_cfa_offset 4
 1355              		.cfi_offset 14, -4
 1356 0002 83B0     		sub	sp, sp, #12
 1357              		.cfi_def_cfa_offset 16
 1358 0004 0190     		str	r0, [sp, #4]
 1359              	.LBB18:
 1360              		.loc 14 9 0
 1361 0006 019B     		ldr	r3, [sp, #4]
 1362 0008 0433     		adds	r3, r3, #4
 1363 000a 1846     		mov	r0, r3
 1364 000c FFF7FEFF 		bl	_ZN3r2p5MutexD1Ev
 1365 0010 0198     		ldr	r0, [sp, #4]
 1366 0012 FFF7FEFF 		bl	_ZN3r2p10UncopyableD2Ev
 1367              	.LBE18:
 1368 0016 019B     		ldr	r3, [sp, #4]
 1369 0018 1846     		mov	r0, r3
 1370 001a 03B0     		add	sp, sp, #12
 1371              		@ sp needed
 1372 001c 5DF804FB 		ldr	pc, [sp], #4
ARM GAS  /tmp/ccyGe5fa.s 			page 26


 1373              		.cfi_endproc
 1374              	.LFE630:
 1375              		.size	_ZN3r2p7ReMutexD2Ev, .-_ZN3r2p7ReMutexD2Ev
 1376              		.weak	_ZN3r2p7ReMutexD1Ev
 1377              		.thumb_set _ZN3r2p7ReMutexD1Ev,_ZN3r2p7ReMutexD2Ev
 1378              		.section	.text._ZN3r2p11MemoryPool_D2Ev,"axG",%progbits,_ZN3r2p11MemoryPool_D5Ev,comdat
 1379              		.align	2
 1380              		.p2align 4,,15
 1381              		.weak	_ZN3r2p11MemoryPool_D2Ev
 1382              		.thumb
 1383              		.thumb_func
 1384              		.type	_ZN3r2p11MemoryPool_D2Ev, %function
 1385              	_ZN3r2p11MemoryPool_D2Ev:
 1386              	.LFB634:
 1387              		.file 15 "/home/dave/r2p-sdk/core/Middleware/port/chibios/include/r2p/impl/MemoryPool_.hpp"
 1388              		.loc 15 9 0
 1389              		.cfi_startproc
 1390              		@ args = 0, pretend = 0, frame = 8
 1391              		@ frame_needed = 0, uses_anonymous_args = 0
 1392 0000 00B5     		push	{lr}
 1393              		.cfi_def_cfa_offset 4
 1394              		.cfi_offset 14, -4
 1395 0002 83B0     		sub	sp, sp, #12
 1396              		.cfi_def_cfa_offset 16
 1397 0004 0190     		str	r0, [sp, #4]
 1398              	.LBB19:
 1399              		.loc 15 9 0
 1400 0006 0198     		ldr	r0, [sp, #4]
 1401 0008 FFF7FEFF 		bl	_ZN3r2p10UncopyableD2Ev
 1402              	.LBE19:
 1403 000c 019B     		ldr	r3, [sp, #4]
 1404 000e 1846     		mov	r0, r3
 1405 0010 03B0     		add	sp, sp, #12
 1406              		@ sp needed
 1407 0012 5DF804FB 		ldr	pc, [sp], #4
 1408              		.cfi_endproc
 1409              	.LFE634:
 1410              		.size	_ZN3r2p11MemoryPool_D2Ev, .-_ZN3r2p11MemoryPool_D2Ev
 1411              		.weak	_ZN3r2p11MemoryPool_D1Ev
 1412              		.thumb_set _ZN3r2p11MemoryPool_D1Ev,_ZN3r2p11MemoryPool_D2Ev
 1413 0016 00BFAFF3 		.section	.text._ZN3r2p10StaticListINS_15LocalSubscriberEED2Ev,"axG",%progbits,_ZN3r2p10StaticListI
 1413      0080AFF3 
 1413      0080
 1414              		.align	2
 1415              		.p2align 4,,15
 1416              		.weak	_ZN3r2p10StaticListINS_15LocalSubscriberEED2Ev
 1417              		.thumb
 1418              		.thumb_func
 1419              		.type	_ZN3r2p10StaticListINS_15LocalSubscriberEED2Ev, %function
 1420              	_ZN3r2p10StaticListINS_15LocalSubscriberEED2Ev:
 1421              	.LFB637:
 1422              		.loc 13 15 0
 1423              		.cfi_startproc
 1424              		@ args = 0, pretend = 0, frame = 8
 1425              		@ frame_needed = 0, uses_anonymous_args = 0
 1426 0000 00B5     		push	{lr}
 1427              		.cfi_def_cfa_offset 4
ARM GAS  /tmp/ccyGe5fa.s 			page 27


 1428              		.cfi_offset 14, -4
 1429 0002 83B0     		sub	sp, sp, #12
 1430              		.cfi_def_cfa_offset 16
 1431 0004 0190     		str	r0, [sp, #4]
 1432              	.LBB20:
 1433              		.loc 13 15 0
 1434 0006 0198     		ldr	r0, [sp, #4]
 1435 0008 FFF7FEFF 		bl	_ZN3r2p10UncopyableD2Ev
 1436              	.LBE20:
 1437 000c 019B     		ldr	r3, [sp, #4]
 1438 000e 1846     		mov	r0, r3
 1439 0010 03B0     		add	sp, sp, #12
 1440              		@ sp needed
 1441 0012 5DF804FB 		ldr	pc, [sp], #4
 1442              		.cfi_endproc
 1443              	.LFE637:
 1444              		.size	_ZN3r2p10StaticListINS_15LocalSubscriberEED2Ev, .-_ZN3r2p10StaticListINS_15LocalSubscriberEE
 1445              		.weak	_ZN3r2p10StaticListINS_15LocalSubscriberEED1Ev
 1446              		.thumb_set _ZN3r2p10StaticListINS_15LocalSubscriberEED1Ev,_ZN3r2p10StaticListINS_15LocalSubscriber
 1447 0016 00BFAFF3 		.section	.text._ZN3r2p10StaticListINS_16RemoteSubscriberEED2Ev,"axG",%progbits,_ZN3r2p10StaticList
 1447      0080AFF3 
 1447      0080
 1448              		.align	2
 1449              		.p2align 4,,15
 1450              		.weak	_ZN3r2p10StaticListINS_16RemoteSubscriberEED2Ev
 1451              		.thumb
 1452              		.thumb_func
 1453              		.type	_ZN3r2p10StaticListINS_16RemoteSubscriberEED2Ev, %function
 1454              	_ZN3r2p10StaticListINS_16RemoteSubscriberEED2Ev:
 1455              	.LFB640:
 1456              		.loc 13 15 0
 1457              		.cfi_startproc
 1458              		@ args = 0, pretend = 0, frame = 8
 1459              		@ frame_needed = 0, uses_anonymous_args = 0
 1460 0000 00B5     		push	{lr}
 1461              		.cfi_def_cfa_offset 4
 1462              		.cfi_offset 14, -4
 1463 0002 83B0     		sub	sp, sp, #12
 1464              		.cfi_def_cfa_offset 16
 1465 0004 0190     		str	r0, [sp, #4]
 1466              	.LBB21:
 1467              		.loc 13 15 0
 1468 0006 0198     		ldr	r0, [sp, #4]
 1469 0008 FFF7FEFF 		bl	_ZN3r2p10UncopyableD2Ev
 1470              	.LBE21:
 1471 000c 019B     		ldr	r3, [sp, #4]
 1472 000e 1846     		mov	r0, r3
 1473 0010 03B0     		add	sp, sp, #12
 1474              		@ sp needed
 1475 0012 5DF804FB 		ldr	pc, [sp], #4
 1476              		.cfi_endproc
 1477              	.LFE640:
 1478              		.size	_ZN3r2p10StaticListINS_16RemoteSubscriberEED2Ev, .-_ZN3r2p10StaticListINS_16RemoteSubscriber
 1479              		.weak	_ZN3r2p10StaticListINS_16RemoteSubscriberEED1Ev
 1480              		.thumb_set _ZN3r2p10StaticListINS_16RemoteSubscriberEED1Ev,_ZN3r2p10StaticListINS_16RemoteSubscrib
 1481 0016 00BFAFF3 		.section	.text._ZN3r2p5TopicD2Ev,"axG",%progbits,_ZN3r2p5TopicD5Ev,comdat
 1481      0080AFF3 
ARM GAS  /tmp/ccyGe5fa.s 			page 28


 1481      0080
 1482              		.align	2
 1483              		.p2align 4,,15
 1484              		.weak	_ZN3r2p5TopicD2Ev
 1485              		.thumb
 1486              		.thumb_func
 1487              		.type	_ZN3r2p5TopicD2Ev, %function
 1488              	_ZN3r2p5TopicD2Ev:
 1489              	.LFB642:
 1490              		.file 16 "/home/dave/r2p-sdk/core/Middleware/include/r2p/Topic.hpp"
 1491              		.loc 16 23 0
 1492              		.cfi_startproc
 1493              		@ args = 0, pretend = 0, frame = 8
 1494              		@ frame_needed = 0, uses_anonymous_args = 0
 1495 0000 00B5     		push	{lr}
 1496              		.cfi_def_cfa_offset 4
 1497              		.cfi_offset 14, -4
 1498 0002 83B0     		sub	sp, sp, #12
 1499              		.cfi_def_cfa_offset 16
 1500 0004 0190     		str	r0, [sp, #4]
 1501              	.LBB22:
 1502              		.loc 16 23 0
 1503 0006 019B     		ldr	r3, [sp, #4]
 1504 0008 2033     		adds	r3, r3, #32
 1505 000a 1846     		mov	r0, r3
 1506 000c FFF7FEFF 		bl	_ZN3r2p10StaticListINS_16RemoteSubscriberEED1Ev
 1507 0010 019B     		ldr	r3, [sp, #4]
 1508 0012 1C33     		adds	r3, r3, #28
 1509 0014 1846     		mov	r0, r3
 1510 0016 FFF7FEFF 		bl	_ZN3r2p10StaticListINS_15LocalSubscriberEED1Ev
 1511 001a 019B     		ldr	r3, [sp, #4]
 1512 001c 0833     		adds	r3, r3, #8
 1513 001e 1846     		mov	r0, r3
 1514 0020 FFF7FEFF 		bl	_ZN3r2p11MemoryPool_D1Ev
 1515 0024 0198     		ldr	r0, [sp, #4]
 1516 0026 FFF7FEFF 		bl	_ZN3r2p10UncopyableD2Ev
 1517              	.LBE22:
 1518 002a 019B     		ldr	r3, [sp, #4]
 1519 002c 1846     		mov	r0, r3
 1520 002e 03B0     		add	sp, sp, #12
 1521              		@ sp needed
 1522 0030 5DF804FB 		ldr	pc, [sp], #4
 1523              		.cfi_endproc
 1524              	.LFE642:
 1525              		.size	_ZN3r2p5TopicD2Ev, .-_ZN3r2p5TopicD2Ev
 1526              		.weak	_ZN3r2p5TopicD1Ev
 1527              		.thumb_set _ZN3r2p5TopicD1Ev,_ZN3r2p5TopicD2Ev
 1528 0034 AFF30080 		.section	.text._ZN3r2p10MiddlewareD2Ev,"axG",%progbits,_ZN3r2p10MiddlewareD5Ev,comdat
 1528      AFF30080 
 1528      AFF30080 
 1529              		.align	2
 1530              		.p2align 4,,15
 1531              		.weak	_ZN3r2p10MiddlewareD2Ev
 1532              		.thumb
 1533              		.thumb_func
 1534              		.type	_ZN3r2p10MiddlewareD2Ev, %function
 1535              	_ZN3r2p10MiddlewareD2Ev:
ARM GAS  /tmp/ccyGe5fa.s 			page 29


 1536              	.LFB644:
 1537              		.file 17 "/home/dave/r2p-sdk/core/Middleware/include/r2p/Middleware.hpp"
 1538              		.loc 17 34 0
 1539              		.cfi_startproc
 1540              		@ args = 0, pretend = 0, frame = 8
 1541              		@ frame_needed = 0, uses_anonymous_args = 0
 1542 0000 00B5     		push	{lr}
 1543              		.cfi_def_cfa_offset 4
 1544              		.cfi_offset 14, -4
 1545 0002 83B0     		sub	sp, sp, #12
 1546              		.cfi_def_cfa_offset 16
 1547 0004 0190     		str	r0, [sp, #4]
 1548              	.LBB23:
 1549              		.loc 17 34 0
 1550 0006 019B     		ldr	r3, [sp, #4]
 1551 0008 9433     		adds	r3, r3, #148
 1552 000a 1846     		mov	r0, r3
 1553 000c FFF7FEFF 		bl	_ZN3r2p16SubscriberExtBufINS_7MgmtMsgEED1Ev
 1554 0010 019B     		ldr	r3, [sp, #4]
 1555 0012 8433     		adds	r3, r3, #132
 1556 0014 1846     		mov	r0, r3
 1557 0016 FFF7FEFF 		bl	_ZN3r2p9PublisherINS_7MgmtMsgEED1Ev
 1558 001a 019B     		ldr	r3, [sp, #4]
 1559 001c 6833     		adds	r3, r3, #104
 1560 001e 1846     		mov	r0, r3
 1561 0020 FFF7FEFF 		bl	_ZN3r2p4NodeD1Ev
 1562 0024 019B     		ldr	r3, [sp, #4]
 1563 0026 2833     		adds	r3, r3, #40
 1564 0028 1846     		mov	r0, r3
 1565 002a FFF7FEFF 		bl	_ZN3r2p5TopicD1Ev
 1566 002e 019B     		ldr	r3, [sp, #4]
 1567 0030 1033     		adds	r3, r3, #16
 1568 0032 1846     		mov	r0, r3
 1569 0034 FFF7FEFF 		bl	_ZN3r2p7ReMutexD1Ev
 1570 0038 019B     		ldr	r3, [sp, #4]
 1571 003a 0C33     		adds	r3, r3, #12
 1572 003c 1846     		mov	r0, r3
 1573 003e FFF7FEFF 		bl	_ZN3r2p10StaticListINS_9TransportEED1Ev
 1574 0042 019B     		ldr	r3, [sp, #4]
 1575 0044 0833     		adds	r3, r3, #8
 1576 0046 1846     		mov	r0, r3
 1577 0048 FFF7FEFF 		bl	_ZN3r2p10StaticListINS_5TopicEED1Ev
 1578 004c 019B     		ldr	r3, [sp, #4]
 1579 004e 0433     		adds	r3, r3, #4
 1580 0050 1846     		mov	r0, r3
 1581 0052 FFF7FEFF 		bl	_ZN3r2p10StaticListINS_4NodeEED1Ev
 1582 0056 0198     		ldr	r0, [sp, #4]
 1583 0058 FFF7FEFF 		bl	_ZN3r2p10UncopyableD2Ev
 1584              	.LBE23:
 1585 005c 019B     		ldr	r3, [sp, #4]
 1586 005e 1846     		mov	r0, r3
 1587 0060 03B0     		add	sp, sp, #12
 1588              		@ sp needed
 1589 0062 5DF804FB 		ldr	pc, [sp], #4
 1590              		.cfi_endproc
 1591              	.LFE644:
 1592              		.size	_ZN3r2p10MiddlewareD2Ev, .-_ZN3r2p10MiddlewareD2Ev
ARM GAS  /tmp/ccyGe5fa.s 			page 30


 1593              		.weak	_ZN3r2p10MiddlewareD1Ev
 1594              		.thumb_set _ZN3r2p10MiddlewareD1Ev,_ZN3r2p10MiddlewareD2Ev
 1595 0066 00BFAFF3 		.section	.rodata
 1595      0080AFF3 
 1595      0080
 1596              		.align	2
 1597              	.LC10:
 1598 0058 6D6F746F 		.ascii	"motor_right\000"
 1598      725F7269 
 1598      67687400 
 1599              		.align	2
 1600              	.LC11:
 1601 0064 424F4F54 		.ascii	"BOOT_motor_right\000"
 1601      5F6D6F74 
 1601      6F725F72 
 1601      69676874 
 1601      00
 1602 0075 000000   		.section	.text._Z41__static_initialization_and_destruction_0ii,"ax",%progbits
 1603              		.align	2
 1604              		.p2align 4,,15
 1605              		.thumb
 1606              		.thumb_func
 1607              		.type	_Z41__static_initialization_and_destruction_0ii, %function
 1608              	_Z41__static_initialization_and_destruction_0ii:
 1609              	.LFB618:
 1610              		.loc 11 51 0
 1611              		.cfi_startproc
 1612              		@ args = 0, pretend = 0, frame = 8
 1613              		@ frame_needed = 0, uses_anonymous_args = 0
 1614 0000 00B5     		push	{lr}
 1615              		.cfi_def_cfa_offset 4
 1616              		.cfi_offset 14, -4
 1617 0002 85B0     		sub	sp, sp, #20
 1618              		.cfi_def_cfa_offset 24
 1619 0004 0390     		str	r0, [sp, #12]
 1620 0006 0291     		str	r1, [sp, #8]
 1621              		.loc 11 51 0
 1622 0008 039B     		ldr	r3, [sp, #12]
 1623 000a 012B     		cmp	r3, #1
 1624 000c 1AD1     		bne	.L98
 1625              		.loc 11 51 0 is_stmt 0 discriminator 1
 1626 000e 029A     		ldr	r2, [sp, #8]
 1627 0010 4FF6FF73 		movw	r3, #65535
 1628 0014 9A42     		cmp	r2, r3
 1629 0016 15D1     		bne	.L98
 1630              		.loc 11 17 0 is_stmt 1
 1631 0018 0C48     		ldr	r0, .L100
 1632 001a 0D49     		ldr	r1, .L100+4
 1633 001c FFF7FEFF 		bl	_ZN3r2p14RTCANTransportC1ER11RTCANDriver
 1634 0020 0A48     		ldr	r0, .L100
 1635 0022 0C49     		ldr	r1, .L100+8
 1636 0024 0C4A     		ldr	r2, .L100+12
 1637 0026 FFF7FEFF 		bl	__aeabi_atexit
 1638              		.loc 11 21 0
 1639 002a 0023     		movs	r3, #0
 1640 002c 0093     		str	r3, [sp]
 1641 002e 0B48     		ldr	r0, .L100+16
ARM GAS  /tmp/ccyGe5fa.s 			page 31


 1642 0030 0B49     		ldr	r1, .L100+20
 1643 0032 0C4A     		ldr	r2, .L100+24
 1644 0034 0023     		movs	r3, #0
 1645 0036 FFF7FEFF 		bl	_ZN3r2p10MiddlewareC1EPKcS2_PNS0_10PubSubStepEj
 1646 003a 0848     		ldr	r0, .L100+16
 1647 003c 0A49     		ldr	r1, .L100+28
 1648 003e 064A     		ldr	r2, .L100+12
 1649 0040 FFF7FEFF 		bl	__aeabi_atexit
 1650              	.L98:
 1651              		.loc 11 51 0
 1652 0044 05B0     		add	sp, sp, #20
 1653              		@ sp needed
 1654 0046 5DF804FB 		ldr	pc, [sp], #4
 1655              	.L101:
 1656 004a 00BF     		.align	2
 1657              	.L100:
 1658 004c 00000000 		.word	_ZL8rtcantra
 1659 0050 00000000 		.word	RTCAND1
 1660 0054 00000000 		.word	_ZN3r2p14RTCANTransportD1Ev
 1661 0058 00000000 		.word	__dso_handle
 1662 005c 00000000 		.word	_ZN3r2p10Middleware8instanceE
 1663 0060 58000000 		.word	.LC10
 1664 0064 64000000 		.word	.LC11
 1665 0068 00000000 		.word	_ZN3r2p10MiddlewareD1Ev
 1666              		.cfi_endproc
 1667              	.LFE618:
 1668              		.size	_Z41__static_initialization_and_destruction_0ii, .-_Z41__static_initialization_and_destructi
 1669 006c AFF30080 		.section	.text._ZN3r2p9PublisherINS_7MgmtMsgEED2Ev,"axG",%progbits,_ZN3r2p9PublisherINS_7MgmtMsgEE
 1670              		.align	2
 1671              		.p2align 4,,15
 1672              		.weak	_ZN3r2p9PublisherINS_7MgmtMsgEED2Ev
 1673              		.thumb
 1674              		.thumb_func
 1675              		.type	_ZN3r2p9PublisherINS_7MgmtMsgEED2Ev, %function
 1676              	_ZN3r2p9PublisherINS_7MgmtMsgEED2Ev:
 1677              	.LFB647:
 1678              		.file 18 "/home/dave/r2p-sdk/core/Middleware/include/r2p/Publisher.hpp"
 1679              		.loc 18 54 0
 1680              		.cfi_startproc
 1681              		@ args = 0, pretend = 0, frame = 8
 1682              		@ frame_needed = 0, uses_anonymous_args = 0
 1683 0000 00B5     		push	{lr}
 1684              		.cfi_def_cfa_offset 4
 1685              		.cfi_offset 14, -4
 1686 0002 83B0     		sub	sp, sp, #12
 1687              		.cfi_def_cfa_offset 16
 1688 0004 0190     		str	r0, [sp, #4]
 1689              	.LBB24:
 1690              		.loc 18 57 0
 1691 0006 019B     		ldr	r3, [sp, #4]
 1692 0008 084A     		ldr	r2, .L106
 1693 000a 1A60     		str	r2, [r3]
 1694 000c 019B     		ldr	r3, [sp, #4]
 1695 000e 1846     		mov	r0, r3
 1696 0010 FFF7FEFF 		bl	_ZN3r2p14LocalPublisherD2Ev
 1697              	.LBE24:
 1698 0014 0023     		movs	r3, #0
ARM GAS  /tmp/ccyGe5fa.s 			page 32


 1699 0016 002B     		cmp	r3, #0
 1700 0018 02D0     		beq	.L104
 1701              		.loc 18 57 0 is_stmt 0 discriminator 1
 1702 001a 0198     		ldr	r0, [sp, #4]
 1703 001c FFF7FEFF 		bl	_ZdlPv
 1704              	.L104:
 1705              		.loc 18 57 0 discriminator 2
 1706 0020 019B     		ldr	r3, [sp, #4]
 1707 0022 1846     		mov	r0, r3
 1708 0024 03B0     		add	sp, sp, #12
 1709              		@ sp needed
 1710 0026 5DF804FB 		ldr	pc, [sp], #4
 1711              	.L107:
 1712 002a 00BF     		.align	2
 1713              	.L106:
 1714 002c 08000000 		.word	_ZTVN3r2p9PublisherINS_7MgmtMsgEEE+8
 1715              		.cfi_endproc
 1716              	.LFE647:
 1717              		.size	_ZN3r2p9PublisherINS_7MgmtMsgEED2Ev, .-_ZN3r2p9PublisherINS_7MgmtMsgEED2Ev
 1718              		.weak	_ZN3r2p9PublisherINS_7MgmtMsgEED1Ev
 1719              		.thumb_set _ZN3r2p9PublisherINS_7MgmtMsgEED1Ev,_ZN3r2p9PublisherINS_7MgmtMsgEED2Ev
 1720              		.section	.text._ZN3r2p9PublisherINS_7MgmtMsgEED0Ev,"axG",%progbits,_ZN3r2p9PublisherINS_7MgmtMsgEE
 1721              		.align	2
 1722              		.p2align 4,,15
 1723              		.weak	_ZN3r2p9PublisherINS_7MgmtMsgEED0Ev
 1724              		.thumb
 1725              		.thumb_func
 1726              		.type	_ZN3r2p9PublisherINS_7MgmtMsgEED0Ev, %function
 1727              	_ZN3r2p9PublisherINS_7MgmtMsgEED0Ev:
 1728              	.LFB649:
 1729              		.loc 18 54 0 is_stmt 1
 1730              		.cfi_startproc
 1731              		@ args = 0, pretend = 0, frame = 8
 1732              		@ frame_needed = 0, uses_anonymous_args = 0
 1733 0000 00B5     		push	{lr}
 1734              		.cfi_def_cfa_offset 4
 1735              		.cfi_offset 14, -4
 1736 0002 83B0     		sub	sp, sp, #12
 1737              		.cfi_def_cfa_offset 16
 1738 0004 0190     		str	r0, [sp, #4]
 1739              		.loc 18 57 0
 1740 0006 0198     		ldr	r0, [sp, #4]
 1741 0008 FFF7FEFF 		bl	_ZN3r2p9PublisherINS_7MgmtMsgEED1Ev
 1742 000c 0198     		ldr	r0, [sp, #4]
 1743 000e FFF7FEFF 		bl	_ZdlPv
 1744 0012 019B     		ldr	r3, [sp, #4]
 1745 0014 1846     		mov	r0, r3
 1746 0016 03B0     		add	sp, sp, #12
 1747              		@ sp needed
 1748 0018 5DF804FB 		ldr	pc, [sp], #4
 1749              		.cfi_endproc
 1750              	.LFE649:
 1751              		.size	_ZN3r2p9PublisherINS_7MgmtMsgEED0Ev, .-_ZN3r2p9PublisherINS_7MgmtMsgEED0Ev
 1752 001c AFF30080 		.section	.text._ZN3r2p16SubscriberExtBufINS_7MgmtMsgEED2Ev,"axG",%progbits,_ZN3r2p16SubscriberExtB
 1753              		.align	2
 1754              		.p2align 4,,15
 1755              		.weak	_ZN3r2p16SubscriberExtBufINS_7MgmtMsgEED2Ev
ARM GAS  /tmp/ccyGe5fa.s 			page 33


 1756              		.thumb
 1757              		.thumb_func
 1758              		.type	_ZN3r2p16SubscriberExtBufINS_7MgmtMsgEED2Ev, %function
 1759              	_ZN3r2p16SubscriberExtBufINS_7MgmtMsgEED2Ev:
 1760              	.LFB651:
 1761              		.file 19 "/home/dave/r2p-sdk/core/Middleware/include/r2p/SubscriberExtBuf.hpp"
 1762              		.loc 19 76 0
 1763              		.cfi_startproc
 1764              		@ args = 0, pretend = 0, frame = 8
 1765              		@ frame_needed = 0, uses_anonymous_args = 0
 1766 0000 00B5     		push	{lr}
 1767              		.cfi_def_cfa_offset 4
 1768              		.cfi_offset 14, -4
 1769 0002 83B0     		sub	sp, sp, #12
 1770              		.cfi_def_cfa_offset 16
 1771 0004 0190     		str	r0, [sp, #4]
 1772              	.LBB25:
 1773              		.loc 19 79 0
 1774 0006 019B     		ldr	r3, [sp, #4]
 1775 0008 084A     		ldr	r2, .L115
 1776 000a 1A60     		str	r2, [r3]
 1777 000c 019B     		ldr	r3, [sp, #4]
 1778 000e 1846     		mov	r0, r3
 1779 0010 FFF7FEFF 		bl	_ZN3r2p15LocalSubscriberD2Ev
 1780              	.LBE25:
 1781 0014 0023     		movs	r3, #0
 1782 0016 002B     		cmp	r3, #0
 1783 0018 02D0     		beq	.L113
 1784              		.loc 19 79 0 is_stmt 0 discriminator 1
 1785 001a 0198     		ldr	r0, [sp, #4]
 1786 001c FFF7FEFF 		bl	_ZdlPv
 1787              	.L113:
 1788              		.loc 19 79 0 discriminator 2
 1789 0020 019B     		ldr	r3, [sp, #4]
 1790 0022 1846     		mov	r0, r3
 1791 0024 03B0     		add	sp, sp, #12
 1792              		@ sp needed
 1793 0026 5DF804FB 		ldr	pc, [sp], #4
 1794              	.L116:
 1795 002a 00BF     		.align	2
 1796              	.L115:
 1797 002c 08000000 		.word	_ZTVN3r2p16SubscriberExtBufINS_7MgmtMsgEEE+8
 1798              		.cfi_endproc
 1799              	.LFE651:
 1800              		.size	_ZN3r2p16SubscriberExtBufINS_7MgmtMsgEED2Ev, .-_ZN3r2p16SubscriberExtBufINS_7MgmtMsgEED2Ev
 1801              		.weak	_ZN3r2p16SubscriberExtBufINS_7MgmtMsgEED1Ev
 1802              		.thumb_set _ZN3r2p16SubscriberExtBufINS_7MgmtMsgEED1Ev,_ZN3r2p16SubscriberExtBufINS_7MgmtMsgEED2Ev
 1803              		.section	.text._ZN3r2p16SubscriberExtBufINS_7MgmtMsgEED0Ev,"axG",%progbits,_ZN3r2p16SubscriberExtB
 1804              		.align	2
 1805              		.p2align 4,,15
 1806              		.weak	_ZN3r2p16SubscriberExtBufINS_7MgmtMsgEED0Ev
 1807              		.thumb
 1808              		.thumb_func
 1809              		.type	_ZN3r2p16SubscriberExtBufINS_7MgmtMsgEED0Ev, %function
 1810              	_ZN3r2p16SubscriberExtBufINS_7MgmtMsgEED0Ev:
 1811              	.LFB653:
 1812              		.loc 19 76 0 is_stmt 1
ARM GAS  /tmp/ccyGe5fa.s 			page 34


 1813              		.cfi_startproc
 1814              		@ args = 0, pretend = 0, frame = 8
 1815              		@ frame_needed = 0, uses_anonymous_args = 0
 1816 0000 00B5     		push	{lr}
 1817              		.cfi_def_cfa_offset 4
 1818              		.cfi_offset 14, -4
 1819 0002 83B0     		sub	sp, sp, #12
 1820              		.cfi_def_cfa_offset 16
 1821 0004 0190     		str	r0, [sp, #4]
 1822              		.loc 19 79 0
 1823 0006 0198     		ldr	r0, [sp, #4]
 1824 0008 FFF7FEFF 		bl	_ZN3r2p16SubscriberExtBufINS_7MgmtMsgEED1Ev
 1825 000c 0198     		ldr	r0, [sp, #4]
 1826 000e FFF7FEFF 		bl	_ZdlPv
 1827 0012 019B     		ldr	r3, [sp, #4]
 1828 0014 1846     		mov	r0, r3
 1829 0016 03B0     		add	sp, sp, #12
 1830              		@ sp needed
 1831 0018 5DF804FB 		ldr	pc, [sp], #4
 1832              		.cfi_endproc
 1833              	.LFE653:
 1834              		.size	_ZN3r2p16SubscriberExtBufINS_7MgmtMsgEED0Ev, .-_ZN3r2p16SubscriberExtBufINS_7MgmtMsgEED0Ev
 1835 001c AFF30080 		.section	.text._GLOBAL__sub_I_rtcan_config,"ax",%progbits
 1836              		.align	2
 1837              		.p2align 4,,15
 1838              		.thumb
 1839              		.thumb_func
 1840              		.type	_GLOBAL__sub_I_rtcan_config, %function
 1841              	_GLOBAL__sub_I_rtcan_config:
 1842              	.LFB655:
 1843              		.loc 11 51 0
 1844              		.cfi_startproc
 1845              		@ args = 0, pretend = 0, frame = 0
 1846              		@ frame_needed = 0, uses_anonymous_args = 0
 1847 0000 08B5     		push	{r3, lr}
 1848              		.cfi_def_cfa_offset 8
 1849              		.cfi_offset 3, -8
 1850              		.cfi_offset 14, -4
 1851              		.loc 11 51 0
 1852 0002 0120     		movs	r0, #1
 1853 0004 4FF6FF71 		movw	r1, #65535
 1854 0008 FFF7FEFF 		bl	_Z41__static_initialization_and_destruction_0ii
 1855 000c 08BD     		pop	{r3, pc}
 1856              		.cfi_endproc
 1857              	.LFE655:
 1858              		.size	_GLOBAL__sub_I_rtcan_config, .-_GLOBAL__sub_I_rtcan_config
 1859 000e 00BF     		.section	.init_array,"aw",%init_array
 1860              		.align	2
 1861 0000 00000000 		.word	_GLOBAL__sub_I_rtcan_config(target1)
 1862              		.text
 1863              	.Letext0:
 1864              		.file 20 "/usr/lib/gcc/arm-none-eabi/4.8/include/stddef.h"
 1865              		.file 21 "/usr/include/newlib/machine/_default_types.h"
 1866              		.file 22 "/usr/include/newlib/stdint.h"
 1867              		.file 23 "/home/dave/r2p-sdk/core/ChibiOS/os/ports/GCC/ARMCMx/chtypes.h"
 1868              		.file 24 "/home/dave/r2p-sdk/core/ChibiOS/os/kernel/include/chlists.h"
 1869              		.file 25 "/home/dave/r2p-sdk/core/ChibiOS/os/kernel/include/chthreads.h"
ARM GAS  /tmp/ccyGe5fa.s 			page 35


 1870              		.file 26 "/home/dave/r2p-sdk/core/ChibiOS/os/ports/GCC/ARMCMx/chcore_v7m.h"
 1871              		.file 27 "/home/dave/r2p-sdk/core/ChibiOS/os/kernel/include/chschd.h"
 1872              		.file 28 "/home/dave/r2p-sdk/core/ChibiOS/os/kernel/include/chmtx.h"
 1873              		.file 29 "/home/dave/r2p-sdk/core/ChibiOS/os/kernel/include/chmemcore.h"
 1874              		.file 30 "/home/dave/r2p-sdk/core/ChibiOS/os/kernel/include/chheap.h"
 1875              		.file 31 "/home/dave/r2p-sdk/core/ChibiOS/os/kernel/include/chmempools.h"
 1876              		.file 32 "/home/dave/r2p-sdk/core/ChibiOS/os/hal/platforms/STM32F30x/stm32f30x.h"
 1877              		.file 33 "/usr/include/newlib/c++/4.8/cstring"
 1878              		.file 34 "/usr/include/newlib/string.h"
 1879              		.file 35 "<built-in>"
 1880              		.file 36 "/home/dave/r2p-sdk/core/Middleware/include/r2p/NamingTraits.hpp"
 1881              		.file 37 "/home/dave/r2p-sdk/core/Middleware/include/r2p/Message.hpp"
 1882              		.file 38 "/home/dave/r2p-sdk/core/Middleware/include/r2p/LocalPublisher.hpp"
 1883              		.file 39 "/home/dave/r2p-sdk/core/Middleware/include/r2p/MgmtMsg.hpp"
 1884              		.file 40 "/home/dave/r2p-sdk/core/Middleware/include/r2p/BootMsg.hpp"
 1885              		.file 41 "/home/dave/r2p-sdk/core/Middleware/include/r2p/BaseSubscriber.hpp"
 1886              		.file 42 "/home/dave/r2p-sdk/core/Middleware/include/r2p/transport/DebugTransport.hpp"
 1887              		.file 43 "/home/dave/r2p-sdk/core/Middleware/include/r2p/transport/RTCANTransport.hpp"
 1888              		.file 44 "/home/dave/r2p-sdk/packages/led/nodes/led.hpp"
 1889              		.file 45 "/home/dave/r2p-sdk/core/Middleware/include/r2p/BasePublisher.hpp"
 1890              		.file 46 "/home/dave/r2p-sdk/core/RTCAN/include/rtcan.h"
 1891              		.file 47 "/home/dave/r2p-sdk/core/RTCAN/include/msgqueue.h"
 1892              		.file 48 "/home/dave/r2p-sdk/core/RTCAN/include/hrt.h"
 1893              		.file 49 "nodes/encoder_node.hpp"
 1894              		.file 50 "nodes/pwm_node.hpp"
 1895              		.file 51 "/home/dave/r2p-sdk/core/Middleware/include/r2p/common.hpp"
 1896              		.file 52 "/home/dave/r2p-sdk/core/ChibiOS/os/ports/common/ARMCMx/CMSIS/include/core_cm4.h"
 1897              		.file 53 "/home/dave/r2p-sdk/core/RTCAN/platforms/STM32/rtcan_lld_can.h"