ARM GAS  /tmp/ccEEAd8e.s 			page 1


   1              		.syntax unified
   2              		.cpu cortex-m4
   3              		.eabi_attribute 27, 3
   4              		.eabi_attribute 28, 1
   5              		.fpu fpv4-sp-d16
   6              		.eabi_attribute 20, 1
   7              		.eabi_attribute 21, 1
   8              		.eabi_attribute 23, 3
   9              		.eabi_attribute 24, 1
  10              		.eabi_attribute 25, 1
  11              		.eabi_attribute 26, 1
  12              		.eabi_attribute 30, 6
  13              		.eabi_attribute 34, 1
  14              		.eabi_attribute 18, 4
  15              		.thumb
  16              		.file	"Message.cpp"
  17              		.text
  18              	.Ltext0:
  19              		.cfi_sections	.debug_frame
  20              		.section	.text._ZN3r2p8SysLock_7acquireEv,"axG",%progbits,_ZN3r2p8SysLock_7acquireEv,comdat
  21              		.align	2
  22              		.p2align 4,,15
  23              		.weak	_ZN3r2p8SysLock_7acquireEv
  24              		.thumb
  25              		.thumb_func
  26              		.type	_ZN3r2p8SysLock_7acquireEv, %function
  27              	_ZN3r2p8SysLock_7acquireEv:
  28              	.LFB18:
  29              		.file 1 "/home/dave/r2p-sdk/core/Middleware/port/chibios/include/r2p/impl/SysLock_.hpp"
  30              		.loc 1 20 0
  31              		.cfi_startproc
  32              		@ args = 0, pretend = 0, frame = 0
  33              		@ frame_needed = 0, uses_anonymous_args = 0
  34 0000 08B5     		push	{r3, lr}
  35              		.cfi_def_cfa_offset 8
  36              		.cfi_offset 3, -8
  37              		.cfi_offset 14, -4
  38              	.LBB2:
  39              	.LBB3:
  40              	.LBB4:
  41              		.loc 1 22 0
  42 0002 2023     		movs	r3, #32
  43              	@ 22 "/home/dave/r2p-sdk/core/Middleware/port/chibios/include/r2p/impl/SysLock_.hpp" 1
  44 0004 83F31188 		msr     BASEPRI, r3
  45              	@ 0 "" 2
  46              		.thumb
  47              	.LBE4:
  48 0008 FFF7FEFF 		bl	dbg_check_lock
  49              	.LBE3:
  50              	.LBE2:
  51              		.loc 1 23 0
  52 000c 08BD     		pop	{r3, pc}
  53              		.cfi_endproc
  54              	.LFE18:
  55              		.size	_ZN3r2p8SysLock_7acquireEv, .-_ZN3r2p8SysLock_7acquireEv
  56 000e 00BF     		.section	.text._ZN3r2p8SysLock_7releaseEv,"axG",%progbits,_ZN3r2p8SysLock_7releaseEv,comdat
  57              		.align	2
ARM GAS  /tmp/ccEEAd8e.s 			page 2


  58              		.p2align 4,,15
  59              		.weak	_ZN3r2p8SysLock_7releaseEv
  60              		.thumb
  61              		.thumb_func
  62              		.type	_ZN3r2p8SysLock_7releaseEv, %function
  63              	_ZN3r2p8SysLock_7releaseEv:
  64              	.LFB19:
  65              		.loc 1 27 0
  66              		.cfi_startproc
  67              		@ args = 0, pretend = 0, frame = 0
  68              		@ frame_needed = 0, uses_anonymous_args = 0
  69 0000 08B5     		push	{r3, lr}
  70              		.cfi_def_cfa_offset 8
  71              		.cfi_offset 3, -8
  72              		.cfi_offset 14, -4
  73              	.LBB5:
  74              	.LBB6:
  75              		.loc 1 29 0
  76 0002 FFF7FEFF 		bl	dbg_check_unlock
  77              	.LBB7:
  78 0006 0023     		movs	r3, #0
  79              	@ 29 "/home/dave/r2p-sdk/core/Middleware/port/chibios/include/r2p/impl/SysLock_.hpp" 1
  80 0008 83F31188 		msr     BASEPRI, r3
  81              	@ 0 "" 2
  82              		.thumb
  83              	.LBE7:
  84              	.LBE6:
  85              	.LBE5:
  86              		.loc 1 30 0
  87 000c 08BD     		pop	{r3, pc}
  88              		.cfi_endproc
  89              	.LFE19:
  90              		.size	_ZN3r2p8SysLock_7releaseEv, .-_ZN3r2p8SysLock_7releaseEv
  91 000e 00BF     		.section	.text._ZN3r2p7SysLock7acquireEv,"axG",%progbits,_ZN3r2p7SysLock7acquireEv,comdat
  92              		.align	2
  93              		.p2align 4,,15
  94              		.weak	_ZN3r2p7SysLock7acquireEv
  95              		.thumb
  96              		.thumb_func
  97              		.type	_ZN3r2p7SysLock7acquireEv, %function
  98              	_ZN3r2p7SysLock7acquireEv:
  99              	.LFB26:
 100              		.file 2 "/home/dave/r2p-sdk/core/Middleware/include/r2p/SysLock.hpp"
 101              		.loc 2 27 0
 102              		.cfi_startproc
 103              		@ args = 0, pretend = 0, frame = 0
 104              		@ frame_needed = 0, uses_anonymous_args = 0
 105 0000 08B5     		push	{r3, lr}
 106              		.cfi_def_cfa_offset 8
 107              		.cfi_offset 3, -8
 108              		.cfi_offset 14, -4
 109              		.loc 2 29 0
 110 0002 FFF7FEFF 		bl	_ZN3r2p8SysLock_7acquireEv
 111              		.loc 2 30 0
 112 0006 08BD     		pop	{r3, pc}
 113              		.cfi_endproc
 114              	.LFE26:
ARM GAS  /tmp/ccEEAd8e.s 			page 3


 115              		.size	_ZN3r2p7SysLock7acquireEv, .-_ZN3r2p7SysLock7acquireEv
 116 0008 AFF30080 		.section	.text._ZN3r2p7SysLock7releaseEv,"axG",%progbits,_ZN3r2p7SysLock7releaseEv,comdat
 116      AFF30080 
 117              		.align	2
 118              		.p2align 4,,15
 119              		.weak	_ZN3r2p7SysLock7releaseEv
 120              		.thumb
 121              		.thumb_func
 122              		.type	_ZN3r2p7SysLock7releaseEv, %function
 123              	_ZN3r2p7SysLock7releaseEv:
 124              	.LFB27:
 125              		.loc 2 34 0
 126              		.cfi_startproc
 127              		@ args = 0, pretend = 0, frame = 0
 128              		@ frame_needed = 0, uses_anonymous_args = 0
 129 0000 08B5     		push	{r3, lr}
 130              		.cfi_def_cfa_offset 8
 131              		.cfi_offset 3, -8
 132              		.cfi_offset 14, -4
 133              		.loc 2 36 0
 134 0002 FFF7FEFF 		bl	_ZN3r2p8SysLock_7releaseEv
 135              		.loc 2 37 0
 136 0006 08BD     		pop	{r3, pc}
 137              		.cfi_endproc
 138              	.LFE27:
 139              		.size	_ZN3r2p7SysLock7releaseEv, .-_ZN3r2p7SysLock7releaseEv
 140 0008 AFF30080 		.section	.rodata
 140      AFF30080 
 141              		.align	2
 142              	.LC0:
 143 0000 5232505F 		.ascii	"R2P_ASSERT()\000"
 143      41535345 
 143      52542829 
 143      00
 144 000d 000000   		.section	.text._ZN3r2p7Message14acquire_unsafeEv,"axG",%progbits,_ZN3r2p7Message14acquire_unsafeEv
 145              		.align	2
 146              		.p2align 4,,15
 147              		.weak	_ZN3r2p7Message14acquire_unsafeEv
 148              		.thumb
 149              		.thumb_func
 150              		.type	_ZN3r2p7Message14acquire_unsafeEv, %function
 151              	_ZN3r2p7Message14acquire_unsafeEv:
 152              	.LFB38:
 153              		.file 3 "/home/dave/r2p-sdk/core/Middleware/include/r2p/Message.hpp"
 154              		.loc 3 104 0
 155              		.cfi_startproc
 156              		@ args = 0, pretend = 0, frame = 8
 157              		@ frame_needed = 0, uses_anonymous_args = 0
 158 0000 00B5     		push	{lr}
 159              		.cfi_def_cfa_offset 4
 160              		.cfi_offset 14, -4
 161 0002 83B0     		sub	sp, sp, #12
 162              		.cfi_def_cfa_offset 16
 163 0004 0190     		str	r0, [sp, #4]
 164              		.loc 3 106 0
 165 0006 019B     		ldr	r3, [sp, #4]
 166 0008 1B88     		ldrh	r3, [r3]	@ unaligned
ARM GAS  /tmp/ccEEAd8e.s 			page 4


 167 000a 9BB2     		uxth	r3, r3
 168 000c 1A46     		mov	r2, r3
 169 000e 1023     		movs	r3, #16
 170 0010 013B     		subs	r3, r3, #1
 171 0012 0121     		movs	r1, #1
 172 0014 01FA03F3 		lsl	r3, r1, r3
 173 0018 013B     		subs	r3, r3, #1
 174 001a 9A42     		cmp	r2, r3
 175 001c 02DB     		blt	.L6
 176              		.loc 3 106 0 is_stmt 0 discriminator 1
 177 001e 0648     		ldr	r0, .L7
 178 0020 FFF7FEFF 		bl	chDbgPanic
 179              	.L6:
 180              		.loc 3 108 0 is_stmt 1
 181 0024 019B     		ldr	r3, [sp, #4]
 182 0026 1B88     		ldrh	r3, [r3]	@ unaligned
 183 0028 9BB2     		uxth	r3, r3
 184 002a 0133     		adds	r3, r3, #1
 185 002c 9AB2     		uxth	r2, r3
 186 002e 019B     		ldr	r3, [sp, #4]
 187 0030 1A80     		strh	r2, [r3]	@ unaligned
 188              		.loc 3 109 0
 189 0032 03B0     		add	sp, sp, #12
 190              		@ sp needed
 191 0034 5DF804FB 		ldr	pc, [sp], #4
 192              	.L8:
 193              		.align	2
 194              	.L7:
 195 0038 00000000 		.word	.LC0
 196              		.cfi_endproc
 197              	.LFE38:
 198              		.size	_ZN3r2p7Message14acquire_unsafeEv, .-_ZN3r2p7Message14acquire_unsafeEv
 199 003c AFF30080 		.section	.text._ZN3r2p7Message14release_unsafeEv,"axG",%progbits,_ZN3r2p7Message14release_unsafeEv
 200              		.align	2
 201              		.p2align 4,,15
 202              		.weak	_ZN3r2p7Message14release_unsafeEv
 203              		.thumb
 204              		.thumb_func
 205              		.type	_ZN3r2p7Message14release_unsafeEv, %function
 206              	_ZN3r2p7Message14release_unsafeEv:
 207              	.LFB39:
 208              		.loc 3 113 0
 209              		.cfi_startproc
 210              		@ args = 0, pretend = 0, frame = 8
 211              		@ frame_needed = 0, uses_anonymous_args = 0
 212 0000 00B5     		push	{lr}
 213              		.cfi_def_cfa_offset 4
 214              		.cfi_offset 14, -4
 215 0002 83B0     		sub	sp, sp, #12
 216              		.cfi_def_cfa_offset 16
 217 0004 0190     		str	r0, [sp, #4]
 218              		.loc 3 115 0
 219 0006 019B     		ldr	r3, [sp, #4]
 220 0008 1B88     		ldrh	r3, [r3]	@ unaligned
 221 000a 9BB2     		uxth	r3, r3
 222 000c 002B     		cmp	r3, #0
 223 000e 02D1     		bne	.L10
ARM GAS  /tmp/ccEEAd8e.s 			page 5


 224              		.loc 3 115 0 is_stmt 0 discriminator 1
 225 0010 0A48     		ldr	r0, .L12
 226 0012 FFF7FEFF 		bl	chDbgPanic
 227              	.L10:
 228              		.loc 3 117 0 is_stmt 1
 229 0016 019B     		ldr	r3, [sp, #4]
 230 0018 1B88     		ldrh	r3, [r3]	@ unaligned
 231 001a 9BB2     		uxth	r3, r3
 232 001c 013B     		subs	r3, r3, #1
 233 001e 9AB2     		uxth	r2, r3
 234 0020 019B     		ldr	r3, [sp, #4]
 235 0022 1A80     		strh	r2, [r3]	@ unaligned
 236 0024 019B     		ldr	r3, [sp, #4]
 237 0026 1B88     		ldrh	r3, [r3]	@ unaligned
 238 0028 9BB2     		uxth	r3, r3
 239 002a 002B     		cmp	r3, #0
 240 002c 0CBF     		ite	eq
 241 002e 0023     		moveq	r3, #0
 242 0030 0123     		movne	r3, #1
 243 0032 DBB2     		uxtb	r3, r3
 244              		.loc 3 118 0
 245 0034 1846     		mov	r0, r3
 246 0036 03B0     		add	sp, sp, #12
 247              		@ sp needed
 248 0038 5DF804FB 		ldr	pc, [sp], #4
 249              	.L13:
 250              		.align	2
 251              	.L12:
 252 003c 00000000 		.word	.LC0
 253              		.cfi_endproc
 254              	.LFE39:
 255              		.size	_ZN3r2p7Message14release_unsafeEv, .-_ZN3r2p7Message14release_unsafeEv
 256              		.section	.text._ZN3r2p7Message12reset_unsafeEv,"axG",%progbits,_ZN3r2p7Message12reset_unsafeEv,com
 257              		.align	2
 258              		.p2align 4,,15
 259              		.weak	_ZN3r2p7Message12reset_unsafeEv
 260              		.thumb
 261              		.thumb_func
 262              		.type	_ZN3r2p7Message12reset_unsafeEv, %function
 263              	_ZN3r2p7Message12reset_unsafeEv:
 264              	.LFB40:
 265              		.loc 3 122 0
 266              		.cfi_startproc
 267              		@ args = 0, pretend = 0, frame = 8
 268              		@ frame_needed = 0, uses_anonymous_args = 0
 269              		@ link register save eliminated.
 270 0000 82B0     		sub	sp, sp, #8
 271              		.cfi_def_cfa_offset 8
 272 0002 0190     		str	r0, [sp, #4]
 273              		.loc 3 127 0
 274 0004 019B     		ldr	r3, [sp, #4]
 275 0006 0022     		movs	r2, #0
 276 0008 1A70     		strb	r2, [r3]
 277 000a 0022     		movs	r2, #0
 278 000c 5A70     		strb	r2, [r3, #1]
 279              		.loc 3 128 0
 280 000e 02B0     		add	sp, sp, #8
ARM GAS  /tmp/ccEEAd8e.s 			page 6


 281              		@ sp needed
 282 0010 7047     		bx	lr
 283              		.cfi_endproc
 284              	.LFE40:
 285              		.size	_ZN3r2p7Message12reset_unsafeEv, .-_ZN3r2p7Message12reset_unsafeEv
 286 0012 00BFAFF3 		.section	.text._ZN3r2p7Message7acquireEv,"ax",%progbits
 286      0080AFF3 
 286      0080AFF3 
 286      0080
 287              		.align	2
 288              		.p2align 4,,15
 289              		.global	_ZN3r2p7Message7acquireEv
 290              		.thumb
 291              		.thumb_func
 292              		.type	_ZN3r2p7Message7acquireEv, %function
 293              	_ZN3r2p7Message7acquireEv:
 294              	.LFB49:
 295              		.file 4 "/home/dave/r2p-sdk/core/Middleware/src/Message.cpp"
 296              		.loc 4 8 0
 297              		.cfi_startproc
 298              		@ args = 0, pretend = 0, frame = 8
 299              		@ frame_needed = 0, uses_anonymous_args = 0
 300 0000 00B5     		push	{lr}
 301              		.cfi_def_cfa_offset 4
 302              		.cfi_offset 14, -4
 303 0002 83B0     		sub	sp, sp, #12
 304              		.cfi_def_cfa_offset 16
 305 0004 0190     		str	r0, [sp, #4]
 306              		.loc 4 10 0
 307 0006 FFF7FEFF 		bl	_ZN3r2p7SysLock7acquireEv
 308              		.loc 4 11 0
 309 000a 0198     		ldr	r0, [sp, #4]
 310 000c FFF7FEFF 		bl	_ZN3r2p7Message14acquire_unsafeEv
 311              		.loc 4 12 0
 312 0010 FFF7FEFF 		bl	_ZN3r2p7SysLock7releaseEv
 313              		.loc 4 13 0
 314 0014 03B0     		add	sp, sp, #12
 315              		@ sp needed
 316 0016 5DF804FB 		ldr	pc, [sp], #4
 317              		.cfi_endproc
 318              	.LFE49:
 319              		.size	_ZN3r2p7Message7acquireEv, .-_ZN3r2p7Message7acquireEv
 320 001a 00BFAFF3 		.section	.text._ZN3r2p7Message7releaseEv,"ax",%progbits
 320      0080
 321              		.align	2
 322              		.p2align 4,,15
 323              		.global	_ZN3r2p7Message7releaseEv
 324              		.thumb
 325              		.thumb_func
 326              		.type	_ZN3r2p7Message7releaseEv, %function
 327              	_ZN3r2p7Message7releaseEv:
 328              	.LFB50:
 329              		.loc 4 16 0
 330              		.cfi_startproc
 331              		@ args = 0, pretend = 0, frame = 16
 332              		@ frame_needed = 0, uses_anonymous_args = 0
 333 0000 00B5     		push	{lr}
ARM GAS  /tmp/ccEEAd8e.s 			page 7


 334              		.cfi_def_cfa_offset 4
 335              		.cfi_offset 14, -4
 336 0002 85B0     		sub	sp, sp, #20
 337              		.cfi_def_cfa_offset 24
 338 0004 0190     		str	r0, [sp, #4]
 339              	.LBB8:
 340              		.loc 4 18 0
 341 0006 FFF7FEFF 		bl	_ZN3r2p7SysLock7acquireEv
 342              		.loc 4 19 0
 343 000a 0198     		ldr	r0, [sp, #4]
 344 000c FFF7FEFF 		bl	_ZN3r2p7Message14release_unsafeEv
 345 0010 0346     		mov	r3, r0
 346 0012 8DF80F30 		strb	r3, [sp, #15]
 347              		.loc 4 20 0
 348 0016 FFF7FEFF 		bl	_ZN3r2p7SysLock7releaseEv
 349              		.loc 4 21 0
 350 001a 9DF80F30 		ldrb	r3, [sp, #15]	@ zero_extendqisi2
 351              	.LBE8:
 352              		.loc 4 22 0
 353 001e 1846     		mov	r0, r3
 354 0020 05B0     		add	sp, sp, #20
 355              		@ sp needed
 356 0022 5DF804FB 		ldr	pc, [sp], #4
 357              		.cfi_endproc
 358              	.LFE50:
 359              		.size	_ZN3r2p7Message7releaseEv, .-_ZN3r2p7Message7releaseEv
 360 0026 00BFAFF3 		.section	.text._ZN3r2p7Message5resetEv,"ax",%progbits
 360      0080AFF3 
 360      0080
 361              		.align	2
 362              		.p2align 4,,15
 363              		.global	_ZN3r2p7Message5resetEv
 364              		.thumb
 365              		.thumb_func
 366              		.type	_ZN3r2p7Message5resetEv, %function
 367              	_ZN3r2p7Message5resetEv:
 368              	.LFB51:
 369              		.loc 4 25 0
 370              		.cfi_startproc
 371              		@ args = 0, pretend = 0, frame = 8
 372              		@ frame_needed = 0, uses_anonymous_args = 0
 373 0000 00B5     		push	{lr}
 374              		.cfi_def_cfa_offset 4
 375              		.cfi_offset 14, -4
 376 0002 83B0     		sub	sp, sp, #12
 377              		.cfi_def_cfa_offset 16
 378 0004 0190     		str	r0, [sp, #4]
 379              		.loc 4 27 0
 380 0006 FFF7FEFF 		bl	_ZN3r2p7SysLock7acquireEv
 381              		.loc 4 28 0
 382 000a 0198     		ldr	r0, [sp, #4]
 383 000c FFF7FEFF 		bl	_ZN3r2p7Message12reset_unsafeEv
 384              		.loc 4 29 0
 385 0010 FFF7FEFF 		bl	_ZN3r2p7SysLock7releaseEv
 386              		.loc 4 30 0
 387 0014 03B0     		add	sp, sp, #12
 388              		@ sp needed
ARM GAS  /tmp/ccEEAd8e.s 			page 8


 389 0016 5DF804FB 		ldr	pc, [sp], #4
 390              		.cfi_endproc
 391              	.LFE51:
 392              		.size	_ZN3r2p7Message5resetEv, .-_ZN3r2p7Message5resetEv
 393 001a 00BFAFF3 		.section	.text._ZN3r2p7Message4copyERS0_RKS0_j,"ax",%progbits
 393      0080
 394              		.align	2
 395              		.p2align 4,,15
 396              		.global	_ZN3r2p7Message4copyERS0_RKS0_j
 397              		.thumb
 398              		.thumb_func
 399              		.type	_ZN3r2p7Message4copyERS0_RKS0_j, %function
 400              	_ZN3r2p7Message4copyERS0_RKS0_j:
 401              	.LFB52:
 402              		.loc 4 33 0
 403              		.cfi_startproc
 404              		@ args = 0, pretend = 0, frame = 16
 405              		@ frame_needed = 0, uses_anonymous_args = 0
 406 0000 00B5     		push	{lr}
 407              		.cfi_def_cfa_offset 4
 408              		.cfi_offset 14, -4
 409 0002 85B0     		sub	sp, sp, #20
 410              		.cfi_def_cfa_offset 24
 411 0004 0390     		str	r0, [sp, #12]
 412 0006 0291     		str	r1, [sp, #8]
 413 0008 0192     		str	r2, [sp, #4]
 414              		.loc 4 35 0
 415 000a 019B     		ldr	r3, [sp, #4]
 416 000c 022B     		cmp	r3, #2
 417 000e 02D2     		bcs	.L20
 418              		.loc 4 35 0 is_stmt 0 discriminator 1
 419 0010 0848     		ldr	r0, .L21
 420 0012 FFF7FEFF 		bl	chDbgPanic
 421              	.L20:
 422              		.loc 4 44 0 is_stmt 1
 423 0016 039B     		ldr	r3, [sp, #12]
 424              		.loc 4 38 0
 425 0018 991C     		adds	r1, r3, #2
 426              		.loc 4 44 0
 427 001a 029B     		ldr	r3, [sp, #8]
 428              		.loc 4 38 0
 429 001c 9A1C     		adds	r2, r3, #2
 430              		.loc 4 44 0
 431 001e 019B     		ldr	r3, [sp, #4]
 432 0020 023B     		subs	r3, r3, #2
 433 0022 0846     		mov	r0, r1
 434 0024 1146     		mov	r1, r2
 435 0026 1A46     		mov	r2, r3
 436 0028 FFF7FEFF 		bl	memcpy
 437              		.loc 4 45 0
 438 002c 05B0     		add	sp, sp, #20
 439              		@ sp needed
 440 002e 5DF804FB 		ldr	pc, [sp], #4
 441              	.L22:
 442 0032 00BF     		.align	2
 443              	.L21:
 444 0034 00000000 		.word	.LC0
ARM GAS  /tmp/ccEEAd8e.s 			page 9


 445              		.cfi_endproc
 446              	.LFE52:
 447              		.size	_ZN3r2p7Message4copyERS0_RKS0_j, .-_ZN3r2p7Message4copyERS0_RKS0_j
 448 0038 AFF30080 		.text
 448      AFF30080 
 449              	.Letext0:
 450              		.file 5 "/usr/lib/gcc/arm-none-eabi/4.8/include/stddef.h"
 451              		.file 6 "/usr/include/newlib/machine/_default_types.h"
 452              		.file 7 "/usr/include/newlib/c++/4.8/cstring"
 453              		.file 8 "/usr/include/newlib/string.h"
 454              		.file 9 "<built-in>"
 455              		.file 10 "/home/dave/r2p-sdk/core/Middleware/include/r2p/Uncopyable.hpp"
 456              		.file 11 "/usr/include/newlib/stdint.h"