ARM GAS  /tmp/ccFkEblW.s 			page 1


   1              		.syntax unified
   2              		.cpu cortex-m4
   3              		.eabi_attribute 27, 3
   4              		.eabi_attribute 28, 1
   5              		.fpu fpv4-sp-d16
   6              		.eabi_attribute 20, 1
   7              		.eabi_attribute 21, 1
   8              		.eabi_attribute 23, 3
   9              		.eabi_attribute 24, 1
  10              		.eabi_attribute 25, 1
  11              		.eabi_attribute 26, 1
  12              		.eabi_attribute 30, 6
  13              		.eabi_attribute 34, 1
  14              		.eabi_attribute 18, 4
  15              		.thumb
  16              		.file	"pwm_lld.c"
  17              		.text
  18              	.Ltext0:
  19              		.cfi_sections	.debug_frame
  20              		.global	PWMD1
  21              		.section	.bss.PWMD1,"aw",%nobits
  22              		.align	2
  23              		.type	PWMD1, %object
  24              		.size	PWMD1, 20
  25              	PWMD1:
  26 0000 00000000 		.space	20
  26      00000000 
  26      00000000 
  26      00000000 
  26      00000000 
  27              		.section	.text.VectorA4,"ax",%progbits
  28              		.align	2
  29              		.p2align 4,,15
  30              		.global	VectorA4
  31              		.thumb
  32              		.thumb_func
  33              		.type	VectorA4, %function
  34              	VectorA4:
  35              	.LFB118:
  36              		.file 1 "/home/dave/r2p-sdk/core/ChibiOS/os/hal/platforms/STM32/TIMv1/pwm_lld.c"
  37              		.loc 1 147 0
  38              		.cfi_startproc
  39              		@ args = 0, pretend = 0, frame = 0
  40              		@ frame_needed = 0, uses_anonymous_args = 0
  41 0000 08B5     		push	{r3, lr}
  42              		.cfi_def_cfa_offset 8
  43              		.cfi_offset 3, -8
  44              		.cfi_offset 14, -4
  45              		.loc 1 149 0
  46 0002 FFF7FEFF 		bl	dbg_check_enter_isr
  47              		.loc 1 151 0
  48 0006 074B     		ldr	r3, .L2
  49 0008 6FF00102 		mvn	r2, #1
  50 000c 1A61     		str	r2, [r3, #16]
  51              		.loc 1 152 0
  52 000e 064B     		ldr	r3, .L2+4
  53 0010 5B68     		ldr	r3, [r3, #4]
ARM GAS  /tmp/ccFkEblW.s 			page 2


  54 0012 9B68     		ldr	r3, [r3, #8]
  55 0014 0448     		ldr	r0, .L2+4
  56 0016 9847     		blx	r3
  57              		.loc 1 154 0
  58 0018 FFF7FEFF 		bl	dbg_check_leave_isr
  59 001c FFF7FEFF 		bl	_port_irq_epilogue
  60              		.loc 1 155 0
  61 0020 08BD     		pop	{r3, pc}
  62              	.L3:
  63 0022 00BF     		.align	2
  64              	.L2:
  65 0024 002C0140 		.word	1073818624
  66 0028 00000000 		.word	PWMD1
  67              		.cfi_endproc
  68              	.LFE118:
  69              		.size	VectorA4, .-VectorA4
  70 002c AFF30080 		.section	.text.VectorAC,"ax",%progbits
  71              		.align	2
  72              		.p2align 4,,15
  73              		.global	VectorAC
  74              		.thumb
  75              		.thumb_func
  76              		.type	VectorAC, %function
  77              	VectorAC:
  78              	.LFB119:
  79              		.loc 1 168 0
  80              		.cfi_startproc
  81              		@ args = 0, pretend = 0, frame = 8
  82              		@ frame_needed = 0, uses_anonymous_args = 0
  83 0000 00B5     		push	{lr}
  84              		.cfi_def_cfa_offset 4
  85              		.cfi_offset 14, -4
  86 0002 83B0     		sub	sp, sp, #12
  87              		.cfi_def_cfa_offset 16
  88              		.loc 1 171 0
  89 0004 FFF7FEFF 		bl	dbg_check_enter_isr
  90              		.loc 1 173 0
  91 0008 214B     		ldr	r3, .L9
  92 000a 1B69     		ldr	r3, [r3, #16]
  93 000c 9AB2     		uxth	r2, r3
  94 000e 204B     		ldr	r3, .L9
  95 0010 DB68     		ldr	r3, [r3, #12]
  96 0012 9BB2     		uxth	r3, r3
  97 0014 1340     		ands	r3, r3, r2
  98 0016 9BB2     		uxth	r3, r3
  99 0018 DBB2     		uxtb	r3, r3
 100 001a ADF80630 		strh	r3, [sp, #6]	@ movhi
 101              		.loc 1 174 0
 102 001e 1C4B     		ldr	r3, .L9
 103 0020 BDF80620 		ldrh	r2, [sp, #6]
 104 0024 D243     		mvns	r2, r2
 105 0026 1A61     		str	r2, [r3, #16]
 106              		.loc 1 175 0
 107 0028 BDF80630 		ldrh	r3, [sp, #6]
 108 002c 03F00203 		and	r3, r3, #2
 109 0030 002B     		cmp	r3, #0
 110 0032 04D0     		beq	.L5
ARM GAS  /tmp/ccFkEblW.s 			page 3


 111              		.loc 1 176 0
 112 0034 174B     		ldr	r3, .L9+4
 113 0036 5B68     		ldr	r3, [r3, #4]
 114 0038 1B69     		ldr	r3, [r3, #16]
 115 003a 1648     		ldr	r0, .L9+4
 116 003c 9847     		blx	r3
 117              	.L5:
 118              		.loc 1 177 0
 119 003e BDF80630 		ldrh	r3, [sp, #6]
 120 0042 03F00403 		and	r3, r3, #4
 121 0046 002B     		cmp	r3, #0
 122 0048 04D0     		beq	.L6
 123              		.loc 1 178 0
 124 004a 124B     		ldr	r3, .L9+4
 125 004c 5B68     		ldr	r3, [r3, #4]
 126 004e 9B69     		ldr	r3, [r3, #24]
 127 0050 1048     		ldr	r0, .L9+4
 128 0052 9847     		blx	r3
 129              	.L6:
 130              		.loc 1 179 0
 131 0054 BDF80630 		ldrh	r3, [sp, #6]
 132 0058 03F00803 		and	r3, r3, #8
 133 005c 002B     		cmp	r3, #0
 134 005e 04D0     		beq	.L7
 135              		.loc 1 180 0
 136 0060 0C4B     		ldr	r3, .L9+4
 137 0062 5B68     		ldr	r3, [r3, #4]
 138 0064 1B6A     		ldr	r3, [r3, #32]
 139 0066 0B48     		ldr	r0, .L9+4
 140 0068 9847     		blx	r3
 141              	.L7:
 142              		.loc 1 181 0
 143 006a BDF80630 		ldrh	r3, [sp, #6]
 144 006e 03F01003 		and	r3, r3, #16
 145 0072 002B     		cmp	r3, #0
 146 0074 04D0     		beq	.L8
 147              		.loc 1 182 0
 148 0076 074B     		ldr	r3, .L9+4
 149 0078 5B68     		ldr	r3, [r3, #4]
 150 007a 9B6A     		ldr	r3, [r3, #40]
 151 007c 0548     		ldr	r0, .L9+4
 152 007e 9847     		blx	r3
 153              	.L8:
 154              		.loc 1 184 0
 155 0080 FFF7FEFF 		bl	dbg_check_leave_isr
 156 0084 FFF7FEFF 		bl	_port_irq_epilogue
 157              		.loc 1 185 0
 158 0088 03B0     		add	sp, sp, #12
 159              		@ sp needed
 160 008a 5DF804FB 		ldr	pc, [sp], #4
 161              	.L10:
 162 008e 00BF     		.align	2
 163              	.L9:
 164 0090 002C0140 		.word	1073818624
 165 0094 00000000 		.word	PWMD1
 166              		.cfi_endproc
 167              	.LFE119:
ARM GAS  /tmp/ccFkEblW.s 			page 4


 168              		.size	VectorAC, .-VectorAC
 169 0098 AFF30080 		.section	.text.pwm_lld_init,"ax",%progbits
 169      AFF30080 
 170              		.align	2
 171              		.p2align 4,,15
 172              		.global	pwm_lld_init
 173              		.thumb
 174              		.thumb_func
 175              		.type	pwm_lld_init, %function
 176              	pwm_lld_init:
 177              	.LFB120:
 178              		.loc 1 345 0
 179              		.cfi_startproc
 180              		@ args = 0, pretend = 0, frame = 0
 181              		@ frame_needed = 0, uses_anonymous_args = 0
 182 0000 08B5     		push	{r3, lr}
 183              		.cfi_def_cfa_offset 8
 184              		.cfi_offset 3, -8
 185              		.cfi_offset 14, -4
 186              		.loc 1 349 0
 187 0002 0348     		ldr	r0, .L12
 188 0004 FFF7FEFF 		bl	pwmObjectInit
 189              		.loc 1 350 0
 190 0008 014B     		ldr	r3, .L12
 191 000a 024A     		ldr	r2, .L12+4
 192 000c 1A61     		str	r2, [r3, #16]
 193              		.loc 1 388 0
 194 000e 08BD     		pop	{r3, pc}
 195              	.L13:
 196              		.align	2
 197              	.L12:
 198 0010 00000000 		.word	PWMD1
 199 0014 002C0140 		.word	1073818624
 200              		.cfi_endproc
 201              	.LFE120:
 202              		.size	pwm_lld_init, .-pwm_lld_init
 203 0018 AFF30080 		.section	.rodata
 203      AFF30080 
 204              		.align	2
 205              	.LC0:
 206 0000 70776D5F 		.ascii	"pwm_lld_start(), #1\000"
 206      6C6C645F 
 206      73746172 
 206      7428292C 
 206      20233100 
 207              		.section	.text.pwm_lld_start,"ax",%progbits
 208              		.align	2
 209              		.p2align 4,,15
 210              		.global	pwm_lld_start
 211              		.thumb
 212              		.thumb_func
 213              		.type	pwm_lld_start, %function
 214              	pwm_lld_start:
 215              	.LFB121:
 216              		.loc 1 399 0
 217              		.cfi_startproc
 218              		@ args = 0, pretend = 0, frame = 16
ARM GAS  /tmp/ccFkEblW.s 			page 5


 219              		@ frame_needed = 0, uses_anonymous_args = 0
 220 0000 00B5     		push	{lr}
 221              		.cfi_def_cfa_offset 4
 222              		.cfi_offset 14, -4
 223 0002 85B0     		sub	sp, sp, #20
 224              		.cfi_def_cfa_offset 24
 225 0004 0190     		str	r0, [sp, #4]
 226              		.loc 1 403 0
 227 0006 019B     		ldr	r3, [sp, #4]
 228 0008 1B78     		ldrb	r3, [r3]	@ zero_extendqisi2
 229 000a 012B     		cmp	r3, #1
 230 000c 28D1     		bne	.L15
 231              		.loc 1 406 0
 232 000e 019A     		ldr	r2, [sp, #4]
 233 0010 7B4B     		ldr	r3, .L32
 234 0012 9A42     		cmp	r2, r3
 235 0014 19D1     		bne	.L16
 236              		.loc 1 407 0
 237 0016 7B4B     		ldr	r3, .L32+4
 238 0018 7A4A     		ldr	r2, .L32+4
 239 001a 9269     		ldr	r2, [r2, #24]
 240 001c 42F40062 		orr	r2, r2, #2048
 241 0020 9A61     		str	r2, [r3, #24]
 242              		.loc 1 408 0
 243 0022 784B     		ldr	r3, .L32+4
 244 0024 774A     		ldr	r2, .L32+4
 245 0026 D268     		ldr	r2, [r2, #12]
 246 0028 42F40072 		orr	r2, r2, #512
 247 002c DA60     		str	r2, [r3, #12]
 248 002e 754B     		ldr	r3, .L32+4
 249 0030 0022     		movs	r2, #0
 250 0032 DA60     		str	r2, [r3, #12]
 251              		.loc 1 409 0
 252 0034 1920     		movs	r0, #25
 253 0036 7021     		movs	r1, #112
 254 0038 FFF7FEFF 		bl	nvicEnableVector
 255              		.loc 1 411 0
 256 003c 1B20     		movs	r0, #27
 257 003e 7021     		movs	r1, #112
 258 0040 FFF7FEFF 		bl	nvicEnableVector
 259              		.loc 1 414 0
 260 0044 019B     		ldr	r3, [sp, #4]
 261 0046 704A     		ldr	r2, .L32+8
 262 0048 DA60     		str	r2, [r3, #12]
 263              	.L16:
 264              		.loc 1 484 0
 265 004a 019B     		ldr	r3, [sp, #4]
 266 004c 1B69     		ldr	r3, [r3, #16]
 267 004e 46F66802 		movw	r2, #26728
 268 0052 9A61     		str	r2, [r3, #24]
 269              		.loc 1 486 0
 270 0054 019B     		ldr	r3, [sp, #4]
 271 0056 1B69     		ldr	r3, [r3, #16]
 272 0058 46F66802 		movw	r2, #26728
 273 005c DA61     		str	r2, [r3, #28]
 274 005e 23E0     		b	.L17
 275              	.L15:
ARM GAS  /tmp/ccFkEblW.s 			page 6


 276              		.loc 1 491 0
 277 0060 019B     		ldr	r3, [sp, #4]
 278 0062 1B69     		ldr	r3, [r3, #16]
 279 0064 0022     		movs	r2, #0
 280 0066 1A60     		str	r2, [r3]
 281              		.loc 1 492 0
 282 0068 019B     		ldr	r3, [sp, #4]
 283 006a 1B69     		ldr	r3, [r3, #16]
 284 006c 019A     		ldr	r2, [sp, #4]
 285 006e 5268     		ldr	r2, [r2, #4]
 286 0070 126B     		ldr	r2, [r2, #48]
 287 0072 22F0FF02 		bic	r2, r2, #255
 288 0076 DA60     		str	r2, [r3, #12]
 289              		.loc 1 494 0
 290 0078 019B     		ldr	r3, [sp, #4]
 291 007a 1B69     		ldr	r3, [r3, #16]
 292 007c 0022     		movs	r2, #0
 293 007e 1A61     		str	r2, [r3, #16]
 294              		.loc 1 495 0
 295 0080 019B     		ldr	r3, [sp, #4]
 296 0082 1B69     		ldr	r3, [r3, #16]
 297 0084 0022     		movs	r2, #0
 298 0086 5A63     		str	r2, [r3, #52]
 299              		.loc 1 496 0
 300 0088 019B     		ldr	r3, [sp, #4]
 301 008a 1B69     		ldr	r3, [r3, #16]
 302 008c 0022     		movs	r2, #0
 303 008e 9A63     		str	r2, [r3, #56]
 304              		.loc 1 497 0
 305 0090 019B     		ldr	r3, [sp, #4]
 306 0092 1B69     		ldr	r3, [r3, #16]
 307 0094 0022     		movs	r2, #0
 308 0096 DA63     		str	r2, [r3, #60]
 309              		.loc 1 498 0
 310 0098 019B     		ldr	r3, [sp, #4]
 311 009a 1B69     		ldr	r3, [r3, #16]
 312 009c 0022     		movs	r2, #0
 313 009e 1A64     		str	r2, [r3, #64]
 314              		.loc 1 499 0
 315 00a0 019B     		ldr	r3, [sp, #4]
 316 00a2 1B69     		ldr	r3, [r3, #16]
 317 00a4 0022     		movs	r2, #0
 318 00a6 5A62     		str	r2, [r3, #36]
 319              	.L17:
 320              		.loc 1 503 0
 321 00a8 019B     		ldr	r3, [sp, #4]
 322 00aa DA68     		ldr	r2, [r3, #12]
 323 00ac 019B     		ldr	r3, [sp, #4]
 324 00ae 5B68     		ldr	r3, [r3, #4]
 325 00b0 1B68     		ldr	r3, [r3]
 326 00b2 B2FBF3F3 		udiv	r3, r2, r3
 327 00b6 013B     		subs	r3, r3, #1
 328 00b8 0293     		str	r3, [sp, #8]
 329              		.loc 1 504 0
 330 00ba 029B     		ldr	r3, [sp, #8]
 331 00bc B3F5803F 		cmp	r3, #65536
 332 00c0 0AD2     		bcs	.L18
ARM GAS  /tmp/ccFkEblW.s 			page 7


 333              		.loc 1 504 0 is_stmt 0 discriminator 2
 334 00c2 029B     		ldr	r3, [sp, #8]
 335 00c4 0133     		adds	r3, r3, #1
 336 00c6 019A     		ldr	r2, [sp, #4]
 337 00c8 5268     		ldr	r2, [r2, #4]
 338 00ca 1268     		ldr	r2, [r2]
 339 00cc 02FB03F2 		mul	r2, r2, r3
 340 00d0 019B     		ldr	r3, [sp, #4]
 341 00d2 DB68     		ldr	r3, [r3, #12]
 342 00d4 9A42     		cmp	r2, r3
 343 00d6 02D0     		beq	.L19
 344              	.L18:
 345              		.loc 1 504 0 discriminator 1
 346 00d8 4C48     		ldr	r0, .L32+12
 347 00da FFF7FEFF 		bl	chDbgPanic
 348              	.L19:
 349              		.loc 1 507 0 is_stmt 1
 350 00de 019B     		ldr	r3, [sp, #4]
 351 00e0 1B69     		ldr	r3, [r3, #16]
 352 00e2 029A     		ldr	r2, [sp, #8]
 353 00e4 92B2     		uxth	r2, r2
 354 00e6 9A62     		str	r2, [r3, #40]
 355              		.loc 1 508 0
 356 00e8 019B     		ldr	r3, [sp, #4]
 357 00ea 1B69     		ldr	r3, [r3, #16]
 358 00ec 019A     		ldr	r2, [sp, #4]
 359 00ee 1289     		ldrh	r2, [r2, #8]
 360 00f0 013A     		subs	r2, r2, #1
 361 00f2 92B2     		uxth	r2, r2
 362 00f4 DA62     		str	r2, [r3, #44]
 363              		.loc 1 509 0
 364 00f6 019B     		ldr	r3, [sp, #4]
 365 00f8 1B69     		ldr	r3, [r3, #16]
 366 00fa 019A     		ldr	r2, [sp, #4]
 367 00fc 5268     		ldr	r2, [r2, #4]
 368 00fe D26A     		ldr	r2, [r2, #44]
 369 0100 5A60     		str	r2, [r3, #4]
 370              		.loc 1 512 0
 371 0102 0023     		movs	r3, #0
 372 0104 ADF80E30 		strh	r3, [sp, #14]	@ movhi
 373              		.loc 1 513 0
 374 0108 019B     		ldr	r3, [sp, #4]
 375 010a 5B68     		ldr	r3, [r3, #4]
 376 010c DB68     		ldr	r3, [r3, #12]
 377 010e 03F00F03 		and	r3, r3, #15
 378 0112 012B     		cmp	r3, #1
 379 0114 07D0     		beq	.L21
 380 0116 022B     		cmp	r3, #2
 381 0118 0BD1     		bne	.L20
 382              		.loc 1 515 0
 383 011a BDF80E30 		ldrh	r3, [sp, #14]	@ movhi
 384 011e 43F00203 		orr	r3, r3, #2
 385 0122 ADF80E30 		strh	r3, [sp, #14]	@ movhi
 386              	.L21:
 387              		.loc 1 517 0
 388 0126 BDF80E30 		ldrh	r3, [sp, #14]	@ movhi
 389 012a 43F00103 		orr	r3, r3, #1
ARM GAS  /tmp/ccFkEblW.s 			page 8


 390 012e ADF80E30 		strh	r3, [sp, #14]	@ movhi
 391              	.L20:
 392              		.loc 1 521 0
 393 0132 019B     		ldr	r3, [sp, #4]
 394 0134 5B68     		ldr	r3, [r3, #4]
 395 0136 5B69     		ldr	r3, [r3, #20]
 396 0138 03F00F03 		and	r3, r3, #15
 397 013c 012B     		cmp	r3, #1
 398 013e 07D0     		beq	.L24
 399 0140 022B     		cmp	r3, #2
 400 0142 0BD1     		bne	.L23
 401              		.loc 1 523 0
 402 0144 BDF80E30 		ldrh	r3, [sp, #14]	@ movhi
 403 0148 43F02003 		orr	r3, r3, #32
 404 014c ADF80E30 		strh	r3, [sp, #14]	@ movhi
 405              	.L24:
 406              		.loc 1 525 0
 407 0150 BDF80E30 		ldrh	r3, [sp, #14]	@ movhi
 408 0154 43F01003 		orr	r3, r3, #16
 409 0158 ADF80E30 		strh	r3, [sp, #14]	@ movhi
 410              	.L23:
 411              		.loc 1 529 0
 412 015c 019B     		ldr	r3, [sp, #4]
 413 015e 5B68     		ldr	r3, [r3, #4]
 414 0160 DB69     		ldr	r3, [r3, #28]
 415 0162 03F00F03 		and	r3, r3, #15
 416 0166 012B     		cmp	r3, #1
 417 0168 07D0     		beq	.L27
 418 016a 022B     		cmp	r3, #2
 419 016c 0BD1     		bne	.L26
 420              		.loc 1 531 0
 421 016e BDF80E30 		ldrh	r3, [sp, #14]	@ movhi
 422 0172 43F40073 		orr	r3, r3, #512
 423 0176 ADF80E30 		strh	r3, [sp, #14]	@ movhi
 424              	.L27:
 425              		.loc 1 533 0
 426 017a BDF80E30 		ldrh	r3, [sp, #14]	@ movhi
 427 017e 43F48073 		orr	r3, r3, #256
 428 0182 ADF80E30 		strh	r3, [sp, #14]	@ movhi
 429              	.L26:
 430              		.loc 1 537 0
 431 0186 019B     		ldr	r3, [sp, #4]
 432 0188 5B68     		ldr	r3, [r3, #4]
 433 018a 5B6A     		ldr	r3, [r3, #36]
 434 018c 03F00F03 		and	r3, r3, #15
 435 0190 012B     		cmp	r3, #1
 436 0192 07D0     		beq	.L30
 437 0194 022B     		cmp	r3, #2
 438 0196 0BD1     		bne	.L29
 439              		.loc 1 539 0
 440 0198 BDF80E30 		ldrh	r3, [sp, #14]	@ movhi
 441 019c 43F40053 		orr	r3, r3, #8192
 442 01a0 ADF80E30 		strh	r3, [sp, #14]	@ movhi
 443              	.L30:
 444              		.loc 1 541 0
 445 01a4 BDF80E30 		ldrh	r3, [sp, #14]	@ movhi
 446 01a8 43F48053 		orr	r3, r3, #4096
ARM GAS  /tmp/ccFkEblW.s 			page 9


 447 01ac ADF80E30 		strh	r3, [sp, #14]	@ movhi
 448              	.L29:
 449              		.loc 1 582 0
 450 01b0 019B     		ldr	r3, [sp, #4]
 451 01b2 1B69     		ldr	r3, [r3, #16]
 452 01b4 BDF80E20 		ldrh	r2, [sp, #14]
 453 01b8 1A62     		str	r2, [r3, #32]
 454              		.loc 1 583 0
 455 01ba 019B     		ldr	r3, [sp, #4]
 456 01bc 1B69     		ldr	r3, [r3, #16]
 457 01be 0122     		movs	r2, #1
 458 01c0 5A61     		str	r2, [r3, #20]
 459              		.loc 1 584 0
 460 01c2 019B     		ldr	r3, [sp, #4]
 461 01c4 1B69     		ldr	r3, [r3, #16]
 462 01c6 019A     		ldr	r2, [sp, #4]
 463 01c8 1269     		ldr	r2, [r2, #16]
 464 01ca D168     		ldr	r1, [r2, #12]
 465 01cc 019A     		ldr	r2, [sp, #4]
 466 01ce 5268     		ldr	r2, [r2, #4]
 467 01d0 9268     		ldr	r2, [r2, #8]
 468 01d2 002A     		cmp	r2, #0
 469 01d4 0CBF     		ite	eq
 470 01d6 0022     		moveq	r2, #0
 471 01d8 0122     		movne	r2, #1
 472 01da D2B2     		uxtb	r2, r2
 473 01dc 0A43     		orrs	r2, r2, r1
 474 01de DA60     		str	r2, [r3, #12]
 475              		.loc 1 585 0
 476 01e0 019B     		ldr	r3, [sp, #4]
 477 01e2 1B69     		ldr	r3, [r3, #16]
 478 01e4 0022     		movs	r2, #0
 479 01e6 1A61     		str	r2, [r3, #16]
 480              		.loc 1 590 0
 481 01e8 019B     		ldr	r3, [sp, #4]
 482 01ea 1B69     		ldr	r3, [r3, #16]
 483 01ec 4FF40042 		mov	r2, #32768
 484 01f0 5A64     		str	r2, [r3, #68]
 485              		.loc 1 594 0
 486 01f2 019B     		ldr	r3, [sp, #4]
 487 01f4 1B69     		ldr	r3, [r3, #16]
 488 01f6 8522     		movs	r2, #133
 489 01f8 1A60     		str	r2, [r3]
 490              		.loc 1 596 0
 491 01fa 05B0     		add	sp, sp, #20
 492              		@ sp needed
 493 01fc 5DF804FB 		ldr	pc, [sp], #4
 494              	.L33:
 495              		.align	2
 496              	.L32:
 497 0200 00000000 		.word	PWMD1
 498 0204 00100240 		.word	1073876992
 499 0208 00512502 		.word	36000000
 500 020c 00000000 		.word	.LC0
 501              		.cfi_endproc
 502              	.LFE121:
 503              		.size	pwm_lld_start, .-pwm_lld_start
ARM GAS  /tmp/ccFkEblW.s 			page 10


 504              		.section	.text.pwm_lld_stop,"ax",%progbits
 505              		.align	2
 506              		.p2align 4,,15
 507              		.global	pwm_lld_stop
 508              		.thumb
 509              		.thumb_func
 510              		.type	pwm_lld_stop, %function
 511              	pwm_lld_stop:
 512              	.LFB122:
 513              		.loc 1 605 0
 514              		.cfi_startproc
 515              		@ args = 0, pretend = 0, frame = 8
 516              		@ frame_needed = 0, uses_anonymous_args = 0
 517 0000 00B5     		push	{lr}
 518              		.cfi_def_cfa_offset 4
 519              		.cfi_offset 14, -4
 520 0002 83B0     		sub	sp, sp, #12
 521              		.cfi_def_cfa_offset 16
 522 0004 0190     		str	r0, [sp, #4]
 523              		.loc 1 608 0
 524 0006 019B     		ldr	r3, [sp, #4]
 525 0008 1B78     		ldrb	r3, [r3]	@ zero_extendqisi2
 526 000a 022B     		cmp	r3, #2
 527 000c 1FD1     		bne	.L34
 528              		.loc 1 609 0
 529 000e 019B     		ldr	r3, [sp, #4]
 530 0010 1B69     		ldr	r3, [r3, #16]
 531 0012 0022     		movs	r2, #0
 532 0014 1A60     		str	r2, [r3]
 533              		.loc 1 610 0
 534 0016 019B     		ldr	r3, [sp, #4]
 535 0018 1B69     		ldr	r3, [r3, #16]
 536 001a 0022     		movs	r2, #0
 537 001c DA60     		str	r2, [r3, #12]
 538              		.loc 1 611 0
 539 001e 019B     		ldr	r3, [sp, #4]
 540 0020 1B69     		ldr	r3, [r3, #16]
 541 0022 0022     		movs	r2, #0
 542 0024 1A61     		str	r2, [r3, #16]
 543              		.loc 1 613 0
 544 0026 019B     		ldr	r3, [sp, #4]
 545 0028 1B69     		ldr	r3, [r3, #16]
 546 002a 0022     		movs	r2, #0
 547 002c 5A64     		str	r2, [r3, #68]
 548              		.loc 1 617 0
 549 002e 019A     		ldr	r2, [sp, #4]
 550 0030 084B     		ldr	r3, .L36
 551 0032 9A42     		cmp	r2, r3
 552 0034 0BD1     		bne	.L34
 553              		.loc 1 618 0
 554 0036 1920     		movs	r0, #25
 555 0038 FFF7FEFF 		bl	nvicDisableVector
 556              		.loc 1 619 0
 557 003c 1B20     		movs	r0, #27
 558 003e FFF7FEFF 		bl	nvicDisableVector
 559              		.loc 1 620 0
 560 0042 054B     		ldr	r3, .L36+4
ARM GAS  /tmp/ccFkEblW.s 			page 11


 561 0044 044A     		ldr	r2, .L36+4
 562 0046 9269     		ldr	r2, [r2, #24]
 563 0048 22F40062 		bic	r2, r2, #2048
 564 004c 9A61     		str	r2, [r3, #24]
 565              	.L34:
 566              		.loc 1 661 0
 567 004e 03B0     		add	sp, sp, #12
 568              		@ sp needed
 569 0050 5DF804FB 		ldr	pc, [sp], #4
 570              	.L37:
 571              		.align	2
 572              	.L36:
 573 0054 00000000 		.word	PWMD1
 574 0058 00100240 		.word	1073876992
 575              		.cfi_endproc
 576              	.LFE122:
 577              		.size	pwm_lld_stop, .-pwm_lld_stop
 578 005c AFF30080 		.section	.text.pwm_lld_enable_channel,"ax",%progbits
 579              		.align	2
 580              		.p2align 4,,15
 581              		.global	pwm_lld_enable_channel
 582              		.thumb
 583              		.thumb_func
 584              		.type	pwm_lld_enable_channel, %function
 585              	pwm_lld_enable_channel:
 586              	.LFB123:
 587              		.loc 1 677 0
 588              		.cfi_startproc
 589              		@ args = 0, pretend = 0, frame = 16
 590              		@ frame_needed = 0, uses_anonymous_args = 0
 591              		@ link register save eliminated.
 592 0000 84B0     		sub	sp, sp, #16
 593              		.cfi_def_cfa_offset 16
 594 0002 0190     		str	r0, [sp, #4]
 595 0004 1346     		mov	r3, r2
 596 0006 0A46     		mov	r2, r1
 597 0008 8DF80320 		strb	r2, [sp, #3]
 598 000c ADF80030 		strh	r3, [sp]	@ movhi
 599              		.loc 1 679 0
 600 0010 019B     		ldr	r3, [sp, #4]
 601 0012 1969     		ldr	r1, [r3, #16]
 602 0014 9DF80330 		ldrb	r3, [sp, #3]	@ zero_extendqisi2
 603 0018 BDF80020 		ldrh	r2, [sp]
 604 001c 0C33     		adds	r3, r3, #12
 605 001e 9B00     		lsls	r3, r3, #2
 606 0020 0B44     		add	r3, r3, r1
 607 0022 5A60     		str	r2, [r3, #4]
 608              		.loc 1 682 0
 609 0024 019B     		ldr	r3, [sp, #4]
 610 0026 5A68     		ldr	r2, [r3, #4]
 611 0028 9DF80330 		ldrb	r3, [sp, #3]	@ zero_extendqisi2
 612 002c 0133     		adds	r3, r3, #1
 613 002e DB00     		lsls	r3, r3, #3
 614 0030 1344     		add	r3, r3, r2
 615 0032 9B68     		ldr	r3, [r3, #8]
 616 0034 002B     		cmp	r3, #0
 617 0036 21D0     		beq	.L38
ARM GAS  /tmp/ccFkEblW.s 			page 12


 618              	.LBB2:
 619              		.loc 1 683 0
 620 0038 019B     		ldr	r3, [sp, #4]
 621 003a 1B69     		ldr	r3, [r3, #16]
 622 003c DB68     		ldr	r3, [r3, #12]
 623 003e 0393     		str	r3, [sp, #12]
 624              		.loc 1 686 0
 625 0040 9DF80330 		ldrb	r3, [sp, #3]	@ zero_extendqisi2
 626 0044 0222     		movs	r2, #2
 627 0046 02FA03F3 		lsl	r3, r2, r3
 628 004a 1A46     		mov	r2, r3
 629 004c 039B     		ldr	r3, [sp, #12]
 630 004e 1340     		ands	r3, r3, r2
 631 0050 002B     		cmp	r3, #0
 632 0052 13D1     		bne	.L38
 633              		.loc 1 687 0
 634 0054 019B     		ldr	r3, [sp, #4]
 635 0056 1B69     		ldr	r3, [r3, #16]
 636 0058 9DF80320 		ldrb	r2, [sp, #3]	@ zero_extendqisi2
 637 005c 0221     		movs	r1, #2
 638 005e 01FA02F2 		lsl	r2, r1, r2
 639 0062 1146     		mov	r1, r2
 640 0064 039A     		ldr	r2, [sp, #12]
 641 0066 0A43     		orrs	r2, r2, r1
 642 0068 DA60     		str	r2, [r3, #12]
 643              		.loc 1 688 0
 644 006a 019B     		ldr	r3, [sp, #4]
 645 006c 1B69     		ldr	r3, [r3, #16]
 646 006e 9DF80320 		ldrb	r2, [sp, #3]	@ zero_extendqisi2
 647 0072 0221     		movs	r1, #2
 648 0074 01FA02F2 		lsl	r2, r1, r2
 649 0078 D243     		mvns	r2, r2
 650 007a 1A61     		str	r2, [r3, #16]
 651              	.L38:
 652              	.LBE2:
 653              		.loc 1 691 0
 654 007c 04B0     		add	sp, sp, #16
 655              		@ sp needed
 656 007e 7047     		bx	lr
 657              		.cfi_endproc
 658              	.LFE123:
 659              		.size	pwm_lld_enable_channel, .-pwm_lld_enable_channel
 660              		.section	.text.pwm_lld_disable_channel,"ax",%progbits
 661              		.align	2
 662              		.p2align 4,,15
 663              		.global	pwm_lld_disable_channel
 664              		.thumb
 665              		.thumb_func
 666              		.type	pwm_lld_disable_channel, %function
 667              	pwm_lld_disable_channel:
 668              	.LFB124:
 669              		.loc 1 705 0
 670              		.cfi_startproc
 671              		@ args = 0, pretend = 0, frame = 8
 672              		@ frame_needed = 0, uses_anonymous_args = 0
 673              		@ link register save eliminated.
 674 0000 82B0     		sub	sp, sp, #8
ARM GAS  /tmp/ccFkEblW.s 			page 13


 675              		.cfi_def_cfa_offset 8
 676 0002 0190     		str	r0, [sp, #4]
 677 0004 0B46     		mov	r3, r1
 678 0006 8DF80330 		strb	r3, [sp, #3]
 679              		.loc 1 707 0
 680 000a 019B     		ldr	r3, [sp, #4]
 681 000c 1A69     		ldr	r2, [r3, #16]
 682 000e 9DF80330 		ldrb	r3, [sp, #3]	@ zero_extendqisi2
 683 0012 0C33     		adds	r3, r3, #12
 684 0014 9B00     		lsls	r3, r3, #2
 685 0016 1344     		add	r3, r3, r2
 686 0018 0022     		movs	r2, #0
 687 001a 5A60     		str	r2, [r3, #4]
 688              		.loc 1 708 0
 689 001c 019B     		ldr	r3, [sp, #4]
 690 001e 1B69     		ldr	r3, [r3, #16]
 691 0020 019A     		ldr	r2, [sp, #4]
 692 0022 1269     		ldr	r2, [r2, #16]
 693 0024 D168     		ldr	r1, [r2, #12]
 694 0026 9DF80320 		ldrb	r2, [sp, #3]	@ zero_extendqisi2
 695 002a 0220     		movs	r0, #2
 696 002c 00FA02F2 		lsl	r2, r0, r2
 697 0030 D243     		mvns	r2, r2
 698 0032 0A40     		ands	r2, r2, r1
 699 0034 DA60     		str	r2, [r3, #12]
 700              		.loc 1 709 0
 701 0036 02B0     		add	sp, sp, #8
 702              		@ sp needed
 703 0038 7047     		bx	lr
 704              		.cfi_endproc
 705              	.LFE124:
 706              		.size	pwm_lld_disable_channel, .-pwm_lld_disable_channel
 707 003a 00BFAFF3 		.text
 707      0080
 708              	.Letext0:
 709              		.file 2 "/usr/include/newlib/machine/_default_types.h"
 710              		.file 3 "/usr/include/newlib/stdint.h"
 711              		.file 4 "/home/dave/r2p-sdk/core/ChibiOS/os/hal/platforms/STM32F30x/stm32f30x.h"
 712              		.file 5 "/home/dave/r2p-sdk/core/ChibiOS/os/hal/include/pwm.h"
 713              		.file 6 "/home/dave/r2p-sdk/core/ChibiOS/os/hal/platforms/STM32/TIMv1/pwm_lld.h"
 714              		.file 7 "/home/dave/r2p-sdk/core/ChibiOS/os/hal/platforms/STM32/TIMv1/stm32_tim.h"
 715              		.file 8 "/home/dave/r2p-sdk/core/ChibiOS/os/ports/common/ARMCMx/CMSIS/include/core_cm4.h"