ARM GAS  /tmp/cc56cwCU.s 			page 1


   1              		.syntax unified
   2              		.cpu cortex-m4
   3              		.eabi_attribute 27, 3
   4              		.eabi_attribute 28, 1
   5              		.fpu fpv4-sp-d16
   6              		.eabi_attribute 20, 1
   7              		.eabi_attribute 21, 1
   8              		.eabi_attribute 23, 3
   9              		.eabi_attribute 24, 1
  10              		.eabi_attribute 25, 1
  11              		.eabi_attribute 26, 1
  12              		.eabi_attribute 30, 6
  13              		.eabi_attribute 34, 1
  14              		.eabi_attribute 18, 4
  15              		.thumb
  16              		.file	"pwm_node.cpp"
  17              		.text
  18              	.Ltext0:
  19              		.cfi_sections	.debug_frame
  20              		.section	.text._ZN3r2p4TimeaSERKS0_,"axG",%progbits,_ZN3r2p4TimeaSERKS0_,comdat
  21              		.align	2
  22              		.p2align 4,,15
  23              		.weak	_ZN3r2p4TimeaSERKS0_
  24              		.thumb
  25              		.thumb_func
  26              		.type	_ZN3r2p4TimeaSERKS0_, %function
  27              	_ZN3r2p4TimeaSERKS0_:
  28              	.LFB262:
  29              		.file 1 "/home/dave/r2p-sdk/core/Middleware/include/r2p/Time.hpp"
  30              		.loc 1 131 0
  31              		.cfi_startproc
  32              		@ args = 0, pretend = 0, frame = 8
  33              		@ frame_needed = 0, uses_anonymous_args = 0
  34              		@ link register save eliminated.
  35 0000 82B0     		sub	sp, sp, #8
  36              		.cfi_def_cfa_offset 8
  37 0002 0190     		str	r0, [sp, #4]
  38 0004 0091     		str	r1, [sp]
  39              		.loc 1 133 0
  40 0006 009B     		ldr	r3, [sp]
  41 0008 1A68     		ldr	r2, [r3]
  42 000a 019B     		ldr	r3, [sp, #4]
  43 000c 1A60     		str	r2, [r3]
  44              		.loc 1 134 0
  45 000e 019B     		ldr	r3, [sp, #4]
  46              		.loc 1 135 0
  47 0010 1846     		mov	r0, r3
  48 0012 02B0     		add	sp, sp, #8
  49              		@ sp needed
  50 0014 7047     		bx	lr
  51              		.cfi_endproc
  52              	.LFE262:
  53              		.size	_ZN3r2p4TimeaSERKS0_, .-_ZN3r2p4TimeaSERKS0_
  54 0016 00BFAFF3 		.section	.text._ZN3r2p4Time2msEl,"axG",%progbits,_ZN3r2p4Time2msEl,comdat
  54      0080AFF3 
  54      0080
  55              		.align	2
ARM GAS  /tmp/cc56cwCU.s 			page 2


  56              		.p2align 4,,15
  57              		.weak	_ZN3r2p4Time2msEl
  58              		.thumb
  59              		.thumb_func
  60              		.type	_ZN3r2p4Time2msEl, %function
  61              	_ZN3r2p4Time2msEl:
  62              	.LFB276:
  63              		.loc 1 184 0
  64              		.cfi_startproc
  65              		@ args = 0, pretend = 0, frame = 8
  66              		@ frame_needed = 0, uses_anonymous_args = 0
  67 0000 00B5     		push	{lr}
  68              		.cfi_def_cfa_offset 4
  69              		.cfi_offset 14, -4
  70 0002 83B0     		sub	sp, sp, #12
  71              		.cfi_def_cfa_offset 16
  72 0004 0190     		str	r0, [sp, #4]
  73 0006 0091     		str	r1, [sp]
  74              		.loc 1 186 0
  75 0008 009B     		ldr	r3, [sp]
  76 000a 4FF47A72 		mov	r2, #1000
  77 000e 02FB03F3 		mul	r3, r2, r3
  78 0012 0198     		ldr	r0, [sp, #4]
  79 0014 1946     		mov	r1, r3
  80 0016 FFF7FEFF 		bl	_ZN3r2p4TimeC1IlEET_
  81              		.loc 1 187 0
  82 001a 0198     		ldr	r0, [sp, #4]
  83 001c 03B0     		add	sp, sp, #12
  84              		@ sp needed
  85 001e 5DF804FB 		ldr	pc, [sp], #4
  86              		.cfi_endproc
  87              	.LFE276:
  88              		.size	_ZN3r2p4Time2msEl, .-_ZN3r2p4Time2msEl
  89 0022 00BFAFF3 		.section	.text._ZN3r2p7MessageC2Ev,"axG",%progbits,_ZN3r2p7MessageC5Ev,comdat
  89      0080AFF3 
  89      0080AFF3 
  89      0080
  90              		.align	2
  91              		.p2align 4,,15
  92              		.weak	_ZN3r2p7MessageC2Ev
  93              		.thumb
  94              		.thumb_func
  95              		.type	_ZN3r2p7MessageC2Ev, %function
  96              	_ZN3r2p7MessageC2Ev:
  97              	.LFB294:
  98              		.file 2 "/home/dave/r2p-sdk/core/Middleware/include/r2p/Message.hpp"
  99              		.loc 2 132 0
 100              		.cfi_startproc
 101              		@ args = 0, pretend = 0, frame = 8
 102              		@ frame_needed = 0, uses_anonymous_args = 0
 103              		@ link register save eliminated.
 104 0000 82B0     		sub	sp, sp, #8
 105              		.cfi_def_cfa_offset 8
 106 0002 0190     		str	r0, [sp, #4]
 107              	.LBB13:
 108              		.loc 2 137 0
 109 0004 019B     		ldr	r3, [sp, #4]
ARM GAS  /tmp/cc56cwCU.s 			page 3


 110 0006 0022     		movs	r2, #0
 111 0008 1A70     		strb	r2, [r3]
 112 000a 0022     		movs	r2, #0
 113 000c 5A70     		strb	r2, [r3, #1]
 114              	.LBE13:
 115              		.loc 2 138 0
 116 000e 019B     		ldr	r3, [sp, #4]
 117 0010 1846     		mov	r0, r3
 118 0012 02B0     		add	sp, sp, #8
 119              		@ sp needed
 120 0014 7047     		bx	lr
 121              		.cfi_endproc
 122              	.LFE294:
 123              		.size	_ZN3r2p7MessageC2Ev, .-_ZN3r2p7MessageC2Ev
 124              		.weak	_ZN3r2p7MessageC1Ev
 125              		.thumb_set _ZN3r2p7MessageC1Ev,_ZN3r2p7MessageC2Ev
 126              		.section	.text._ZNK3r2p10SpinEvent_10get_threadEv,"axG",%progbits,_ZNK3r2p10SpinEvent_10get_thread
 127              		.align	2
 128              		.p2align 4,,15
 129              		.weak	_ZNK3r2p10SpinEvent_10get_threadEv
 130              		.thumb
 131              		.thumb_func
 132              		.type	_ZNK3r2p10SpinEvent_10get_threadEv, %function
 133              	_ZNK3r2p10SpinEvent_10get_threadEv:
 134              	.LFB353:
 135              		.file 3 "/home/dave/r2p-sdk/core/Middleware/port/chibios/include/r2p/impl/SpinEvent_.hpp"
 136              		.loc 3 36 0
 137              		.cfi_startproc
 138              		@ args = 0, pretend = 0, frame = 8
 139              		@ frame_needed = 0, uses_anonymous_args = 0
 140              		@ link register save eliminated.
 141 0000 82B0     		sub	sp, sp, #8
 142              		.cfi_def_cfa_offset 8
 143 0002 0190     		str	r0, [sp, #4]
 144              		.loc 3 38 0
 145 0004 019B     		ldr	r3, [sp, #4]
 146 0006 1B68     		ldr	r3, [r3]
 147              		.loc 3 39 0
 148 0008 1846     		mov	r0, r3
 149 000a 02B0     		add	sp, sp, #8
 150              		@ sp needed
 151 000c 7047     		bx	lr
 152              		.cfi_endproc
 153              	.LFE353:
 154              		.size	_ZNK3r2p10SpinEvent_10get_threadEv, .-_ZNK3r2p10SpinEvent_10get_threadEv
 155 000e 00BF     		.section	.rodata
 156              		.align	2
 157              	.LC0:
 158 0000 5232505F 		.ascii	"R2P_ASSERT()\000"
 158      41535345 
 158      52542829 
 158      00
 159 000d 000000   		.section	.text._ZN3r2p10SpinEvent_13signal_unsafeEj,"axG",%progbits,_ZN3r2p10SpinEvent_13signal_un
 160              		.align	2
 161              		.p2align 4,,15
 162              		.weak	_ZN3r2p10SpinEvent_13signal_unsafeEj
 163              		.thumb
ARM GAS  /tmp/cc56cwCU.s 			page 4


 164              		.thumb_func
 165              		.type	_ZN3r2p10SpinEvent_13signal_unsafeEj, %function
 166              	_ZN3r2p10SpinEvent_13signal_unsafeEj:
 167              	.LFB355:
 168              		.loc 3 50 0
 169              		.cfi_startproc
 170              		@ args = 0, pretend = 0, frame = 8
 171              		@ frame_needed = 0, uses_anonymous_args = 0
 172 0000 00B5     		push	{lr}
 173              		.cfi_def_cfa_offset 4
 174              		.cfi_offset 14, -4
 175 0002 83B0     		sub	sp, sp, #12
 176              		.cfi_def_cfa_offset 16
 177 0004 0190     		str	r0, [sp, #4]
 178 0006 0091     		str	r1, [sp]
 179              		.loc 3 52 0
 180 0008 019B     		ldr	r3, [sp, #4]
 181 000a 1B68     		ldr	r3, [r3]
 182 000c 002B     		cmp	r3, #0
 183 000e 10D0     		beq	.L10
 184              		.loc 3 53 0
 185 0010 2022     		movs	r2, #32
 186 0012 009B     		ldr	r3, [sp]
 187 0014 9A42     		cmp	r2, r3
 188 0016 02D8     		bhi	.L12
 189              		.loc 3 53 0 is_stmt 0 discriminator 1
 190 0018 0748     		ldr	r0, .L13
 191 001a FFF7FEFF 		bl	chDbgPanic
 192              	.L12:
 193              		.loc 3 54 0 is_stmt 1 discriminator 1
 194 001e 019B     		ldr	r3, [sp, #4]
 195 0020 1A68     		ldr	r2, [r3]
 196 0022 009B     		ldr	r3, [sp]
 197 0024 0121     		movs	r1, #1
 198 0026 01FA03F3 		lsl	r3, r1, r3
 199 002a 1046     		mov	r0, r2
 200 002c 1946     		mov	r1, r3
 201 002e FFF7FEFF 		bl	chEvtSignalI
 202              	.L10:
 203              		.loc 3 56 0
 204 0032 03B0     		add	sp, sp, #12
 205              		@ sp needed
 206 0034 5DF804FB 		ldr	pc, [sp], #4
 207              	.L14:
 208              		.align	2
 209              	.L13:
 210 0038 00000000 		.word	.LC0
 211              		.cfi_endproc
 212              	.LFE355:
 213              		.size	_ZN3r2p10SpinEvent_13signal_unsafeEj, .-_ZN3r2p10SpinEvent_13signal_unsafeEj
 214 003c AFF30080 		.section	.text._ZNK3r2p9SpinEvent10get_threadEv,"axG",%progbits,_ZNK3r2p9SpinEvent10get_threadEv,c
 215              		.align	2
 216              		.p2align 4,,15
 217              		.weak	_ZNK3r2p9SpinEvent10get_threadEv
 218              		.thumb
 219              		.thumb_func
 220              		.type	_ZNK3r2p9SpinEvent10get_threadEv, %function
ARM GAS  /tmp/cc56cwCU.s 			page 5


 221              	_ZNK3r2p9SpinEvent10get_threadEv:
 222              	.LFB361:
 223              		.file 4 "/home/dave/r2p-sdk/core/Middleware/include/r2p/SpinEvent.hpp"
 224              		.loc 4 35 0
 225              		.cfi_startproc
 226              		@ args = 0, pretend = 0, frame = 8
 227              		@ frame_needed = 0, uses_anonymous_args = 0
 228 0000 00B5     		push	{lr}
 229              		.cfi_def_cfa_offset 4
 230              		.cfi_offset 14, -4
 231 0002 83B0     		sub	sp, sp, #12
 232              		.cfi_def_cfa_offset 16
 233 0004 0190     		str	r0, [sp, #4]
 234              		.loc 4 37 0
 235 0006 019B     		ldr	r3, [sp, #4]
 236 0008 1846     		mov	r0, r3
 237 000a FFF7FEFF 		bl	_ZNK3r2p10SpinEvent_10get_threadEv
 238 000e 0346     		mov	r3, r0
 239              		.loc 4 38 0
 240 0010 1846     		mov	r0, r3
 241 0012 03B0     		add	sp, sp, #12
 242              		@ sp needed
 243 0014 5DF804FB 		ldr	pc, [sp], #4
 244              		.cfi_endproc
 245              	.LFE361:
 246              		.size	_ZNK3r2p9SpinEvent10get_threadEv, .-_ZNK3r2p9SpinEvent10get_threadEv
 247 0018 AFF30080 		.section	.text._ZN3r2p9SpinEvent13signal_unsafeEj,"axG",%progbits,_ZN3r2p9SpinEvent13signal_unsafe
 247      AFF30080 
 248              		.align	2
 249              		.p2align 4,,15
 250              		.weak	_ZN3r2p9SpinEvent13signal_unsafeEj
 251              		.thumb
 252              		.thumb_func
 253              		.type	_ZN3r2p9SpinEvent13signal_unsafeEj, %function
 254              	_ZN3r2p9SpinEvent13signal_unsafeEj:
 255              	.LFB363:
 256              		.loc 4 49 0
 257              		.cfi_startproc
 258              		@ args = 0, pretend = 0, frame = 8
 259              		@ frame_needed = 0, uses_anonymous_args = 0
 260 0000 00B5     		push	{lr}
 261              		.cfi_def_cfa_offset 4
 262              		.cfi_offset 14, -4
 263 0002 83B0     		sub	sp, sp, #12
 264              		.cfi_def_cfa_offset 16
 265 0004 0190     		str	r0, [sp, #4]
 266 0006 0091     		str	r1, [sp]
 267              		.loc 4 51 0
 268 0008 019B     		ldr	r3, [sp, #4]
 269 000a 1846     		mov	r0, r3
 270 000c 0099     		ldr	r1, [sp]
 271 000e FFF7FEFF 		bl	_ZN3r2p10SpinEvent_13signal_unsafeEj
 272              		.loc 4 52 0
 273 0012 03B0     		add	sp, sp, #12
 274              		@ sp needed
 275 0014 5DF804FB 		ldr	pc, [sp], #4
 276              		.cfi_endproc
ARM GAS  /tmp/cc56cwCU.s 			page 6


 277              	.LFE363:
 278              		.size	_ZN3r2p9SpinEvent13signal_unsafeEj, .-_ZN3r2p9SpinEvent13signal_unsafeEj
 279 0018 AFF30080 		.section	.text._ZNK3r2p4Node11get_enabledEv,"axG",%progbits,_ZNK3r2p4Node11get_enabledEv,comdat
 279      AFF30080 
 280              		.align	2
 281              		.p2align 4,,15
 282              		.weak	_ZNK3r2p4Node11get_enabledEv
 283              		.thumb
 284              		.thumb_func
 285              		.type	_ZNK3r2p4Node11get_enabledEv, %function
 286              	_ZNK3r2p4Node11get_enabledEv:
 287              	.LFB380:
 288              		.file 5 "/home/dave/r2p-sdk/core/Middleware/include/r2p/Node.hpp"
 289              		.loc 5 103 0
 290              		.cfi_startproc
 291              		@ args = 0, pretend = 0, frame = 8
 292              		@ frame_needed = 0, uses_anonymous_args = 0
 293 0000 00B5     		push	{lr}
 294              		.cfi_def_cfa_offset 4
 295              		.cfi_offset 14, -4
 296 0002 83B0     		sub	sp, sp, #12
 297              		.cfi_def_cfa_offset 16
 298 0004 0190     		str	r0, [sp, #4]
 299              		.loc 5 105 0
 300 0006 019B     		ldr	r3, [sp, #4]
 301 0008 0C33     		adds	r3, r3, #12
 302 000a 1846     		mov	r0, r3
 303 000c FFF7FEFF 		bl	_ZNK3r2p9SpinEvent10get_threadEv
 304 0010 0346     		mov	r3, r0
 305 0012 002B     		cmp	r3, #0
 306 0014 0CBF     		ite	eq
 307 0016 0023     		moveq	r3, #0
 308 0018 0123     		movne	r3, #1
 309 001a DBB2     		uxtb	r3, r3
 310              		.loc 5 106 0
 311 001c 1846     		mov	r0, r3
 312 001e 03B0     		add	sp, sp, #12
 313              		@ sp needed
 314 0020 5DF804FB 		ldr	pc, [sp], #4
 315              		.cfi_endproc
 316              	.LFE380:
 317              		.size	_ZNK3r2p4Node11get_enabledEv, .-_ZNK3r2p4Node11get_enabledEv
 318 0024 AFF30080 		.section	.text._ZN3r2p4Node13notify_unsafeEj,"axG",%progbits,_ZN3r2p4Node13notify_unsafeEj,comdat
 318      AFF30080 
 318      AFF30080 
 319              		.align	2
 320              		.p2align 4,,15
 321              		.weak	_ZN3r2p4Node13notify_unsafeEj
 322              		.thumb
 323              		.thumb_func
 324              		.type	_ZN3r2p4Node13notify_unsafeEj, %function
 325              	_ZN3r2p4Node13notify_unsafeEj:
 326              	.LFB385:
 327              		.loc 5 140 0
 328              		.cfi_startproc
 329              		@ args = 0, pretend = 0, frame = 8
 330              		@ frame_needed = 0, uses_anonymous_args = 0
ARM GAS  /tmp/cc56cwCU.s 			page 7


 331 0000 00B5     		push	{lr}
 332              		.cfi_def_cfa_offset 4
 333              		.cfi_offset 14, -4
 334 0002 83B0     		sub	sp, sp, #12
 335              		.cfi_def_cfa_offset 16
 336 0004 0190     		str	r0, [sp, #4]
 337 0006 0091     		str	r1, [sp]
 338              		.loc 5 142 0
 339 0008 019B     		ldr	r3, [sp, #4]
 340 000a 0C33     		adds	r3, r3, #12
 341 000c 1846     		mov	r0, r3
 342 000e 0099     		ldr	r1, [sp]
 343 0010 FFF7FEFF 		bl	_ZN3r2p9SpinEvent13signal_unsafeEj
 344              		.loc 5 143 0
 345 0014 03B0     		add	sp, sp, #12
 346              		@ sp needed
 347 0016 5DF804FB 		ldr	pc, [sp], #4
 348              		.cfi_endproc
 349              	.LFE385:
 350              		.size	_ZN3r2p4Node13notify_unsafeEj, .-_ZN3r2p4Node13notify_unsafeEj
 351 001a 00BFAFF3 		.section	.text._ZNK3r2p15LocalSubscriber16get_queue_lengthEv,"axG",%progbits,_ZNK3r2p15LocalSubscr
 351      0080
 352              		.align	2
 353              		.p2align 4,,15
 354              		.weak	_ZNK3r2p15LocalSubscriber16get_queue_lengthEv
 355              		.thumb
 356              		.thumb_func
 357              		.type	_ZNK3r2p15LocalSubscriber16get_queue_lengthEv, %function
 358              	_ZNK3r2p15LocalSubscriber16get_queue_lengthEv:
 359              	.LFB391:
 360              		.file 6 "/home/dave/r2p-sdk/core/Middleware/include/r2p/LocalSubscriber.hpp"
 361              		.loc 6 64 0
 362              		.cfi_startproc
 363              		@ args = 0, pretend = 0, frame = 8
 364              		@ frame_needed = 0, uses_anonymous_args = 0
 365 0000 00B5     		push	{lr}
 366              		.cfi_def_cfa_offset 4
 367              		.cfi_offset 14, -4
 368 0002 83B0     		sub	sp, sp, #12
 369              		.cfi_def_cfa_offset 16
 370 0004 0190     		str	r0, [sp, #4]
 371              		.loc 6 66 0
 372 0006 019B     		ldr	r3, [sp, #4]
 373 0008 1033     		adds	r3, r3, #16
 374 000a 1846     		mov	r0, r3
 375 000c FFF7FEFF 		bl	_ZNK3r2p10ArrayQueueIPNS_7MessageEE10get_lengthEv
 376 0010 0346     		mov	r3, r0
 377              		.loc 6 67 0
 378 0012 1846     		mov	r0, r3
 379 0014 03B0     		add	sp, sp, #12
 380              		@ sp needed
 381 0016 5DF804FB 		ldr	pc, [sp], #4
 382              		.cfi_endproc
 383              	.LFE391:
 384              		.size	_ZNK3r2p15LocalSubscriber16get_queue_lengthEv, .-_ZNK3r2p15LocalSubscriber16get_queue_length
 385 001a 00BFAFF3 		.section	.text._ZN3r2p15LocalSubscriber12fetch_unsafeERPNS_7MessageERNS_4TimeE,"axG",%progbits,_ZN
 385      0080
ARM GAS  /tmp/cc56cwCU.s 			page 8


 386              		.align	2
 387              		.p2align 4,,15
 388              		.weak	_ZN3r2p15LocalSubscriber12fetch_unsafeERPNS_7MessageERNS_4TimeE
 389              		.thumb
 390              		.thumb_func
 391              		.type	_ZN3r2p15LocalSubscriber12fetch_unsafeERPNS_7MessageERNS_4TimeE, %function
 392              	_ZN3r2p15LocalSubscriber12fetch_unsafeERPNS_7MessageERNS_4TimeE:
 393              	.LFB392:
 394              		.loc 6 71 0
 395              		.cfi_startproc
 396              		@ args = 0, pretend = 0, frame = 24
 397              		@ frame_needed = 0, uses_anonymous_args = 0
 398 0000 00B5     		push	{lr}
 399              		.cfi_def_cfa_offset 4
 400              		.cfi_offset 14, -4
 401 0002 87B0     		sub	sp, sp, #28
 402              		.cfi_def_cfa_offset 32
 403 0004 0390     		str	r0, [sp, #12]
 404 0006 0291     		str	r1, [sp, #8]
 405 0008 0192     		str	r2, [sp, #4]
 406              		.loc 6 73 0
 407 000a 039B     		ldr	r3, [sp, #12]
 408 000c 1033     		adds	r3, r3, #16
 409 000e 1846     		mov	r0, r3
 410 0010 0299     		ldr	r1, [sp, #8]
 411 0012 FFF7FEFF 		bl	_ZN3r2p10ArrayQueueIPNS_7MessageEE12fetch_unsafeERS2_
 412 0016 0346     		mov	r3, r0
 413 0018 002B     		cmp	r3, #0
 414 001a 0AD0     		beq	.L24
 415              		.loc 6 74 0
 416 001c 05AB     		add	r3, sp, #20
 417 001e 1846     		mov	r0, r3
 418 0020 FFF7FEFF 		bl	_ZN3r2p4Time3nowEv
 419 0024 05AB     		add	r3, sp, #20
 420 0026 0198     		ldr	r0, [sp, #4]
 421 0028 1946     		mov	r1, r3
 422 002a FFF7FEFF 		bl	_ZN3r2p4TimeaSERKS0_
 423              		.loc 6 75 0
 424 002e 0123     		movs	r3, #1
 425 0030 00E0     		b	.L25
 426              	.L24:
 427              		.loc 6 77 0
 428 0032 0023     		movs	r3, #0
 429              	.L25:
 430              		.loc 6 78 0
 431 0034 1846     		mov	r0, r3
 432 0036 07B0     		add	sp, sp, #28
 433              		@ sp needed
 434 0038 5DF804FB 		ldr	pc, [sp], #4
 435              		.cfi_endproc
 436              	.LFE392:
 437              		.size	_ZN3r2p15LocalSubscriber12fetch_unsafeERPNS_7MessageERNS_4TimeE, .-_ZN3r2p15LocalSubscriber1
 438 003c AFF30080 		.section	.text._ZN3r2p15LocalSubscriber13notify_unsafeERNS_7MessageERKNS_4TimeE,"axG",%progbits,_Z
 439              		.align	2
 440              		.p2align 4,,15
 441              		.weak	_ZN3r2p15LocalSubscriber13notify_unsafeERNS_7MessageERKNS_4TimeE
 442              		.thumb
ARM GAS  /tmp/cc56cwCU.s 			page 9


 443              		.thumb_func
 444              		.type	_ZN3r2p15LocalSubscriber13notify_unsafeERNS_7MessageERKNS_4TimeE, %function
 445              	_ZN3r2p15LocalSubscriber13notify_unsafeERNS_7MessageERKNS_4TimeE:
 446              	.LFB393:
 447              		.loc 6 82 0
 448              		.cfi_startproc
 449              		@ args = 0, pretend = 0, frame = 16
 450              		@ frame_needed = 0, uses_anonymous_args = 0
 451 0000 00B5     		push	{lr}
 452              		.cfi_def_cfa_offset 4
 453              		.cfi_offset 14, -4
 454 0002 85B0     		sub	sp, sp, #20
 455              		.cfi_def_cfa_offset 24
 456 0004 0390     		str	r0, [sp, #12]
 457 0006 0291     		str	r1, [sp, #8]
 458 0008 0192     		str	r2, [sp, #4]
 459              		.loc 6 86 0
 460 000a 039B     		ldr	r3, [sp, #12]
 461 000c 9B68     		ldr	r3, [r3, #8]
 462 000e 1846     		mov	r0, r3
 463 0010 FFF7FEFF 		bl	_ZNK3r2p4Node11get_enabledEv
 464 0014 0346     		mov	r3, r0
 465 0016 002B     		cmp	r3, #0
 466 0018 0AD0     		beq	.L27
 467              		.loc 6 86 0 is_stmt 0 discriminator 1
 468 001a 039B     		ldr	r3, [sp, #12]
 469 001c 1033     		adds	r3, r3, #16
 470 001e 1846     		mov	r0, r3
 471 0020 0299     		ldr	r1, [sp, #8]
 472 0022 FFF7FEFF 		bl	_ZN3r2p10ArrayQueueIPNS_7MessageEE11post_unsafeES2_
 473 0026 0346     		mov	r3, r0
 474 0028 002B     		cmp	r3, #0
 475 002a 01D0     		beq	.L27
 476              		.loc 6 86 0 discriminator 3
 477 002c 0123     		movs	r3, #1
 478 002e 00E0     		b	.L28
 479              	.L27:
 480              		.loc 6 86 0 discriminator 2
 481 0030 0023     		movs	r3, #0
 482              	.L28:
 483              		.loc 6 86 0 discriminator 4
 484 0032 002B     		cmp	r3, #0
 485 0034 0AD0     		beq	.L29
 486              		.loc 6 87 0 is_stmt 1
 487 0036 039B     		ldr	r3, [sp, #12]
 488 0038 9A68     		ldr	r2, [r3, #8]
 489 003a 039B     		ldr	r3, [sp, #12]
 490 003c 93F82430 		ldrb	r3, [r3, #36]	@ zero_extendqisi2
 491 0040 1046     		mov	r0, r2
 492 0042 1946     		mov	r1, r3
 493 0044 FFF7FEFF 		bl	_ZN3r2p4Node13notify_unsafeEj
 494              		.loc 6 88 0
 495 0048 0123     		movs	r3, #1
 496 004a 00E0     		b	.L30
 497              	.L29:
 498              		.loc 6 90 0
 499 004c 0023     		movs	r3, #0
ARM GAS  /tmp/cc56cwCU.s 			page 10


 500              	.L30:
 501              		.loc 6 91 0
 502 004e 1846     		mov	r0, r3
 503 0050 05B0     		add	sp, sp, #20
 504              		@ sp needed
 505 0052 5DF804FB 		ldr	pc, [sp], #4
 506              		.cfi_endproc
 507              	.LFE393:
 508              		.size	_ZN3r2p15LocalSubscriber13notify_unsafeERNS_7MessageERKNS_4TimeE, .-_ZN3r2p15LocalSubscriber
 509              		.global	pwm
 510 0056 00BFAFF3 		.section	.bss.pwm,"aw",%nobits
 510      0080AFF3 
 510      0080
 511              		.align	1
 512              		.type	pwm, %object
 513              		.size	pwm, 2
 514              	pwm:
 515 0000 0000     		.space	2
 516              		.section	.text._ZL5pwmcbP9PWMDriver,"ax",%progbits
 517              		.align	2
 518              		.p2align 4,,15
 519              		.thumb
 520              		.thumb_func
 521              		.type	_ZL5pwmcbP9PWMDriver, %function
 522              	_ZL5pwmcbP9PWMDriver:
 523              	.LFB596:
 524              		.file 7 "nodes/pwm_node.cpp"
 525              		.loc 7 14 0
 526              		.cfi_startproc
 527              		@ args = 0, pretend = 0, frame = 8
 528              		@ frame_needed = 0, uses_anonymous_args = 0
 529 0000 00B5     		push	{lr}
 530              		.cfi_def_cfa_offset 4
 531              		.cfi_offset 14, -4
 532 0002 83B0     		sub	sp, sp, #12
 533              		.cfi_def_cfa_offset 16
 534 0004 0190     		str	r0, [sp, #4]
 535              	.LBB14:
 536              	.LBB15:
 537              	.LBB16:
 538              		.loc 7 17 0
 539 0006 2023     		movs	r3, #32
 540              	@ 17 "nodes/pwm_node.cpp" 1
 541 0008 83F31188 		msr     BASEPRI, r3
 542              	@ 0 "" 2
 543              		.thumb
 544              	.LBE16:
 545 000c FFF7FEFF 		bl	dbg_check_lock_from_isr
 546              	.LBE15:
 547              		.loc 7 19 0
 548 0010 144B     		ldr	r3, .L34
 549 0012 1B88     		ldrh	r3, [r3]
 550 0014 1BB2     		sxth	r3, r3
 551 0016 002B     		cmp	r3, #0
 552 0018 0DDB     		blt	.L32
 553              		.loc 7 20 0
 554 001a 124B     		ldr	r3, .L34
ARM GAS  /tmp/cc56cwCU.s 			page 11


 555 001c 1B88     		ldrh	r3, [r3]
 556 001e 9BB2     		uxth	r3, r3
 557 0020 1148     		ldr	r0, .L34+4
 558 0022 0021     		movs	r1, #0
 559 0024 1A46     		mov	r2, r3
 560 0026 FFF7FEFF 		bl	pwm_lld_enable_channel
 561              		.loc 7 21 0
 562 002a 0F48     		ldr	r0, .L34+4
 563 002c 0121     		movs	r1, #1
 564 002e 0022     		movs	r2, #0
 565 0030 FFF7FEFF 		bl	pwm_lld_enable_channel
 566 0034 0EE0     		b	.L33
 567              	.L32:
 568              		.loc 7 23 0
 569 0036 0C48     		ldr	r0, .L34+4
 570 0038 0021     		movs	r1, #0
 571 003a 0022     		movs	r2, #0
 572 003c FFF7FEFF 		bl	pwm_lld_enable_channel
 573              		.loc 7 24 0
 574 0040 084B     		ldr	r3, .L34
 575 0042 1B88     		ldrh	r3, [r3]
 576 0044 9BB2     		uxth	r3, r3
 577 0046 5B42     		negs	r3, r3
 578 0048 9BB2     		uxth	r3, r3
 579 004a 0748     		ldr	r0, .L34+4
 580 004c 0121     		movs	r1, #1
 581 004e 1A46     		mov	r2, r3
 582 0050 FFF7FEFF 		bl	pwm_lld_enable_channel
 583              	.L33:
 584              	.LBB17:
 585              		.loc 7 26 0
 586 0054 FFF7FEFF 		bl	dbg_check_unlock_from_isr
 587              	.LBB18:
 588 0058 0023     		movs	r3, #0
 589              	@ 26 "nodes/pwm_node.cpp" 1
 590 005a 83F31188 		msr     BASEPRI, r3
 591              	@ 0 "" 2
 592              		.thumb
 593              	.LBE18:
 594              	.LBE17:
 595              	.LBE14:
 596              		.loc 7 27 0
 597 005e 03B0     		add	sp, sp, #12
 598              		@ sp needed
 599 0060 5DF804FB 		ldr	pc, [sp], #4
 600              	.L35:
 601              		.align	2
 602              	.L34:
 603 0064 00000000 		.word	pwm
 604 0068 00000000 		.word	PWMD1
 605              		.cfi_endproc
 606              	.LFE596:
 607              		.size	_ZL5pwmcbP9PWMDriver, .-_ZL5pwmcbP9PWMDriver
 608 006c AFF30080 		.section	.data._ZL6pwmcfg,"aw",%progbits
 609              		.align	2
 610              		.type	_ZL6pwmcfg, %object
 611              		.size	_ZL6pwmcfg, 52
ARM GAS  /tmp/cc56cwCU.s 			page 12


 612              	_ZL6pwmcfg:
 613 0000 00512502 		.word	36000000
 614 0004 0010     		.short	4096
 615 0006 0000     		.space	2
 616 0008 00000000 		.word	_ZL5pwmcbP9PWMDriver
 617 000c 01000000 		.word	1
 618 0010 00000000 		.word	0
 619 0014 01000000 		.word	1
 620 0018 00000000 		.word	0
 621 001c 00000000 		.word	0
 622 0020 00000000 		.word	0
 623 0024 00000000 		.word	0
 624 0028 00000000 		.word	0
 625 002c 00000000 		.word	0
 626 0030 00000000 		.word	0
 627              		.section	.text._Z8pwm_nodePv,"ax",%progbits
 628              		.align	2
 629              		.p2align 4,,15
 630              		.global	_Z8pwm_nodePv
 631              		.thumb
 632              		.thumb_func
 633              		.type	_Z8pwm_nodePv, %function
 634              	_Z8pwm_nodePv:
 635              	.LFB597:
 636              		.loc 7 41 0
 637              		.cfi_startproc
 638              		@ args = 0, pretend = 0, frame = 160
 639              		@ frame_needed = 0, uses_anonymous_args = 0
 640 0000 00B5     		push	{lr}
 641              		.cfi_def_cfa_offset 4
 642              		.cfi_offset 14, -4
 643 0002 A9B0     		sub	sp, sp, #164
 644              		.cfi_def_cfa_offset 168
 645 0004 0190     		str	r0, [sp, #4]
 646              	.LBB19:
 647              		.loc 7 42 0
 648 0006 019B     		ldr	r3, [sp, #4]
 649 0008 2793     		str	r3, [sp, #156]
 650              		.loc 7 43 0
 651 000a 279B     		ldr	r3, [sp, #156]
 652 000c 1B68     		ldr	r3, [r3]
 653 000e 1FAA     		add	r2, sp, #124
 654 0010 1046     		mov	r0, r2
 655 0012 1946     		mov	r1, r3
 656 0014 0122     		movs	r2, #1
 657 0016 FFF7FEFF 		bl	_ZN3r2p4NodeC1EPKcb
 658              		.loc 7 44 0
 659 001a 03AB     		add	r3, sp, #12
 660 001c 1846     		mov	r0, r3
 661 001e 0021     		movs	r1, #0
 662 0020 FFF7FEFF 		bl	_ZN3r2p10SubscriberINS_7PWM2MsgELj5EEC1EPFbRKS1_E
 663              		.loc 7 49 0
 664 0024 3D4B     		ldr	r3, .L43
 665 0026 9B69     		ldr	r3, [r3, #24]
 666 0028 279A     		ldr	r2, [sp, #156]
 667 002a 1268     		ldr	r2, [r2]
 668 002c 9A61     		str	r2, [r3, #24]
ARM GAS  /tmp/cc56cwCU.s 			page 13


 669              		.loc 7 52 0
 670 002e 3C4B     		ldr	r3, .L43+4
 671 0030 0122     		movs	r2, #1
 672 0032 1A83     		strh	r2, [r3, #24]	@ movhi
 673              		.loc 7 53 0
 674 0034 4FF09043 		mov	r3, #1207959552
 675 0038 4FF40062 		mov	r2, #2048
 676 003c 5A83     		strh	r2, [r3, #26]	@ movhi
 677              		.loc 7 54 0
 678 003e 4FF4FA70 		mov	r0, #500
 679 0042 FFF7FEFF 		bl	chThdSleep
 680              		.loc 7 55 0
 681 0046 3748     		ldr	r0, .L43+8
 682 0048 3749     		ldr	r1, .L43+12
 683 004a FFF7FEFF 		bl	pwmStart
 684              		.loc 7 57 0
 685 004e 279B     		ldr	r3, [sp, #156]
 686 0050 5B68     		ldr	r3, [r3, #4]
 687 0052 1FA9     		add	r1, sp, #124
 688 0054 03AA     		add	r2, sp, #12
 689 0056 0846     		mov	r0, r1
 690 0058 1146     		mov	r1, r2
 691 005a 1A46     		mov	r2, r3
 692 005c FFF7FEFF 		bl	_ZN3r2p4Node9subscribeINS_7PWM2MsgELj5EEEbRNS_10SubscriberIT_XT0_EEEPKc
 693              	.L42:
 694              	.LBB20:
 695              	.LBB21:
 696              	.LBB22:
 697              		.loc 7 60 0
 698 0060 26AB     		add	r3, sp, #152
 699 0062 1846     		mov	r0, r3
 700 0064 4FF47A71 		mov	r1, #1000
 701 0068 FFF7FEFF 		bl	_ZN3r2p4Time2msEl
 702 006c 1FAA     		add	r2, sp, #124
 703 006e 26AB     		add	r3, sp, #152
 704 0070 1046     		mov	r0, r2
 705 0072 1946     		mov	r1, r3
 706 0074 FFF7FEFF 		bl	_ZN3r2p4Node4spinERKNS_4TimeE
 707 0078 0346     		mov	r3, r0
 708 007a 002B     		cmp	r3, #0
 709 007c 45D0     		beq	.L37
 710              	.LBB23:
 711              	.LBB24:
 712              		.loc 7 61 0
 713 007e 03AA     		add	r2, sp, #12
 714 0080 1EAB     		add	r3, sp, #120
 715 0082 1046     		mov	r0, r2
 716 0084 1946     		mov	r1, r3
 717 0086 FFF7FEFF 		bl	_ZN3r2p16SubscriberExtBufINS_7PWM2MsgEE5fetchERPS1_
 718 008a 0346     		mov	r3, r0
 719 008c 002B     		cmp	r3, #0
 720 008e 3BD0     		beq	.L38
 721              	.LBB25:
 722              		.loc 7 62 0
 723 0090 1E9A     		ldr	r2, [sp, #120]
 724 0092 279B     		ldr	r3, [sp, #156]
 725 0094 1B7A     		ldrb	r3, [r3, #8]	@ zero_extendqisi2
ARM GAS  /tmp/cc56cwCU.s 			page 14


 726 0096 5B00     		lsls	r3, r3, #1
 727 0098 1344     		add	r3, r3, r2
 728 009a B3F90230 		ldrsh	r3, [r3, #2]	@ unaligned
 729 009e 9AB2     		uxth	r2, r3
 730 00a0 224B     		ldr	r3, .L43+16
 731 00a2 1A80     		strh	r2, [r3]	@ movhi
 732              	.LBB26:
 733              	.LBB27:
 734              		.loc 7 63 0
 735 00a4 2023     		movs	r3, #32
 736              	@ 63 "nodes/pwm_node.cpp" 1
 737 00a6 83F31188 		msr     BASEPRI, r3
 738              	@ 0 "" 2
 739              		.thumb
 740              	.LBE27:
 741 00aa FFF7FEFF 		bl	dbg_check_lock
 742              	.LBE26:
 743              		.loc 7 65 0
 744 00ae 1F4B     		ldr	r3, .L43+16
 745 00b0 1B88     		ldrh	r3, [r3]
 746 00b2 1BB2     		sxth	r3, r3
 747 00b4 002B     		cmp	r3, #0
 748 00b6 0DDB     		blt	.L39
 749              		.loc 7 66 0
 750 00b8 1C4B     		ldr	r3, .L43+16
 751 00ba 1B88     		ldrh	r3, [r3]
 752 00bc 9BB2     		uxth	r3, r3
 753 00be 1948     		ldr	r0, .L43+8
 754 00c0 0021     		movs	r1, #0
 755 00c2 1A46     		mov	r2, r3
 756 00c4 FFF7FEFF 		bl	pwm_lld_enable_channel
 757              		.loc 7 67 0
 758 00c8 1648     		ldr	r0, .L43+8
 759 00ca 0121     		movs	r1, #1
 760 00cc 0022     		movs	r2, #0
 761 00ce FFF7FEFF 		bl	pwm_lld_enable_channel
 762 00d2 0EE0     		b	.L40
 763              	.L39:
 764              		.loc 7 69 0
 765 00d4 1348     		ldr	r0, .L43+8
 766 00d6 0021     		movs	r1, #0
 767 00d8 0022     		movs	r2, #0
 768 00da FFF7FEFF 		bl	pwm_lld_enable_channel
 769              		.loc 7 70 0
 770 00de 134B     		ldr	r3, .L43+16
 771 00e0 1B88     		ldrh	r3, [r3]
 772 00e2 9BB2     		uxth	r3, r3
 773 00e4 5B42     		negs	r3, r3
 774 00e6 9BB2     		uxth	r3, r3
 775 00e8 0E48     		ldr	r0, .L43+8
 776 00ea 0121     		movs	r1, #1
 777 00ec 1A46     		mov	r2, r3
 778 00ee FFF7FEFF 		bl	pwm_lld_enable_channel
 779              	.L40:
 780              	.LBB28:
 781              		.loc 7 72 0 discriminator 1
 782 00f2 FFF7FEFF 		bl	dbg_check_unlock
ARM GAS  /tmp/cc56cwCU.s 			page 15


 783              	.LBB29:
 784 00f6 0023     		movs	r3, #0
 785              	@ 72 "nodes/pwm_node.cpp" 1
 786 00f8 83F31188 		msr     BASEPRI, r3
 787              	@ 0 "" 2
 788              		.thumb
 789              	.LBE29:
 790              	.LBE28:
 791              		.loc 7 73 0 discriminator 1
 792 00fc 1E9B     		ldr	r3, [sp, #120]
 793 00fe 03AA     		add	r2, sp, #12
 794 0100 1046     		mov	r0, r2
 795 0102 1946     		mov	r1, r3
 796 0104 FFF7FEFF 		bl	_ZN3r2p16SubscriberExtBufINS_7PWM2MsgEE7releaseERS1_
 797              	.L38:
 798              	.LBE25:
 799              	.LBE24:
 800              	.LBE23:
 801              	.LBE22:
 802              	.LBE21:
 803              		.loc 7 80 0 discriminator 1
 804 0108 AAE7     		b	.L42
 805              	.L37:
 806              	.LBB31:
 807              	.LBB30:
 808              		.loc 7 77 0
 809 010a 0648     		ldr	r0, .L43+8
 810 010c 0021     		movs	r1, #0
 811 010e FFF7FEFF 		bl	pwm_lld_disable_channel
 812              		.loc 7 78 0
 813 0112 0448     		ldr	r0, .L43+8
 814 0114 0121     		movs	r1, #1
 815 0116 FFF7FEFF 		bl	pwm_lld_disable_channel
 816              	.LBE30:
 817              	.LBE31:
 818              		.loc 7 80 0
 819 011a A1E7     		b	.L42
 820              	.L44:
 821              		.align	2
 822              	.L43:
 823 011c 00000000 		.word	rlist
 824 0120 00040048 		.word	1207960576
 825 0124 00000000 		.word	PWMD1
 826 0128 00000000 		.word	_ZL6pwmcfg
 827 012c 00000000 		.word	pwm
 828              	.LBE20:
 829              	.LBE19:
 830              		.cfi_endproc
 831              	.LFE597:
 832              		.size	_Z8pwm_nodePv, .-_Z8pwm_nodePv
 833              		.section	.text._ZN3r2p4TimeC2IlEET_,"axG",%progbits,_ZN3r2p4TimeC5IlEET_,comdat
 834              		.align	2
 835              		.p2align 4,,15
 836              		.weak	_ZN3r2p4TimeC2IlEET_
 837              		.thumb
 838              		.thumb_func
 839              		.type	_ZN3r2p4TimeC2IlEET_, %function
ARM GAS  /tmp/cc56cwCU.s 			page 16


 840              	_ZN3r2p4TimeC2IlEET_:
 841              	.LFB599:
 842              		.loc 1 159 0
 843              		.cfi_startproc
 844              		@ args = 0, pretend = 0, frame = 8
 845              		@ frame_needed = 0, uses_anonymous_args = 0
 846              		@ link register save eliminated.
 847 0000 82B0     		sub	sp, sp, #8
 848              		.cfi_def_cfa_offset 8
 849 0002 0190     		str	r0, [sp, #4]
 850 0004 0091     		str	r1, [sp]
 851              	.LBB32:
 852              		.loc 1 161 0
 853 0006 019B     		ldr	r3, [sp, #4]
 854 0008 009A     		ldr	r2, [sp]
 855 000a 1A60     		str	r2, [r3]
 856              	.LBE32:
 857              		.loc 1 162 0
 858 000c 019B     		ldr	r3, [sp, #4]
 859 000e 1846     		mov	r0, r3
 860 0010 02B0     		add	sp, sp, #8
 861              		@ sp needed
 862 0012 7047     		bx	lr
 863              		.cfi_endproc
 864              	.LFE599:
 865              		.size	_ZN3r2p4TimeC2IlEET_, .-_ZN3r2p4TimeC2IlEET_
 866              		.weak	_ZN3r2p4TimeC1IlEET_
 867              		.thumb_set _ZN3r2p4TimeC1IlEET_,_ZN3r2p4TimeC2IlEET_
 868 0014 AFF30080 		.section	.text._ZNK3r2p10ArrayQueueIPNS_7MessageEE10get_lengthEv,"axG",%progbits,_ZNK3r2p10ArrayQu
 868      AFF30080 
 868      AFF30080 
 869              		.align	2
 870              		.p2align 4,,15
 871              		.weak	_ZNK3r2p10ArrayQueueIPNS_7MessageEE10get_lengthEv
 872              		.thumb
 873              		.thumb_func
 874              		.type	_ZNK3r2p10ArrayQueueIPNS_7MessageEE10get_lengthEv, %function
 875              	_ZNK3r2p10ArrayQueueIPNS_7MessageEE10get_lengthEv:
 876              	.LFB607:
 877              		.file 8 "/home/dave/r2p-sdk/core/Middleware/include/r2p/ArrayQueue.hpp"
 878              		.loc 8 81 0
 879              		.cfi_startproc
 880              		@ args = 0, pretend = 0, frame = 8
 881              		@ frame_needed = 0, uses_anonymous_args = 0
 882              		@ link register save eliminated.
 883 0000 82B0     		sub	sp, sp, #8
 884              		.cfi_def_cfa_offset 8
 885 0002 0190     		str	r0, [sp, #4]
 886              		.loc 8 83 0
 887 0004 019B     		ldr	r3, [sp, #4]
 888 0006 5B68     		ldr	r3, [r3, #4]
 889              		.loc 8 84 0
 890 0008 1846     		mov	r0, r3
 891 000a 02B0     		add	sp, sp, #8
 892              		@ sp needed
 893 000c 7047     		bx	lr
 894              		.cfi_endproc
ARM GAS  /tmp/cc56cwCU.s 			page 17


 895              	.LFE607:
 896              		.size	_ZNK3r2p10ArrayQueueIPNS_7MessageEE10get_lengthEv, .-_ZNK3r2p10ArrayQueueIPNS_7MessageEE10ge
 897 000e 00BF     		.section	.text._ZN3r2p10ArrayQueueIPNS_7MessageEE12fetch_unsafeERS2_,"axG",%progbits,_ZN3r2p10Arra
 898              		.align	2
 899              		.p2align 4,,15
 900              		.weak	_ZN3r2p10ArrayQueueIPNS_7MessageEE12fetch_unsafeERS2_
 901              		.thumb
 902              		.thumb_func
 903              		.type	_ZN3r2p10ArrayQueueIPNS_7MessageEE12fetch_unsafeERS2_, %function
 904              	_ZN3r2p10ArrayQueueIPNS_7MessageEE12fetch_unsafeERS2_:
 905              	.LFB608:
 906              		.loc 8 52 0
 907              		.cfi_startproc
 908              		@ args = 0, pretend = 0, frame = 8
 909              		@ frame_needed = 0, uses_anonymous_args = 0
 910              		@ link register save eliminated.
 911 0000 82B0     		sub	sp, sp, #8
 912              		.cfi_def_cfa_offset 8
 913 0002 0190     		str	r0, [sp, #4]
 914 0004 0091     		str	r1, [sp]
 915              		.loc 8 54 0
 916 0006 019B     		ldr	r3, [sp, #4]
 917 0008 9B68     		ldr	r3, [r3, #8]
 918 000a 002B     		cmp	r3, #0
 919 000c 23D0     		beq	.L51
 920              		.loc 8 55 0
 921 000e 019B     		ldr	r3, [sp, #4]
 922 0010 9B68     		ldr	r3, [r3, #8]
 923 0012 5A1E     		subs	r2, r3, #1
 924 0014 019B     		ldr	r3, [sp, #4]
 925 0016 9A60     		str	r2, [r3, #8]
 926              		.loc 8 56 0
 927 0018 019B     		ldr	r3, [sp, #4]
 928 001a DB68     		ldr	r3, [r3, #12]
 929 001c 1A68     		ldr	r2, [r3]
 930 001e 009B     		ldr	r3, [sp]
 931 0020 1A60     		str	r2, [r3]
 932              		.loc 8 57 0
 933 0022 019B     		ldr	r3, [sp, #4]
 934 0024 DB68     		ldr	r3, [r3, #12]
 935 0026 1A1D     		adds	r2, r3, #4
 936 0028 019B     		ldr	r3, [sp, #4]
 937 002a DA60     		str	r2, [r3, #12]
 938 002c 019B     		ldr	r3, [sp, #4]
 939 002e DA68     		ldr	r2, [r3, #12]
 940 0030 019B     		ldr	r3, [sp, #4]
 941 0032 1968     		ldr	r1, [r3]
 942 0034 019B     		ldr	r3, [sp, #4]
 943 0036 5B68     		ldr	r3, [r3, #4]
 944 0038 9B00     		lsls	r3, r3, #2
 945 003a 0B44     		add	r3, r3, r1
 946 003c 9A42     		cmp	r2, r3
 947 003e 34BF     		ite	cc
 948 0040 0023     		movcc	r3, #0
 949 0042 0123     		movcs	r3, #1
 950 0044 DBB2     		uxtb	r3, r3
 951 0046 002B     		cmp	r3, #0
ARM GAS  /tmp/cc56cwCU.s 			page 18


 952 0048 03D0     		beq	.L52
 953              		.loc 8 58 0
 954 004a 019B     		ldr	r3, [sp, #4]
 955 004c 1A68     		ldr	r2, [r3]
 956 004e 019B     		ldr	r3, [sp, #4]
 957 0050 DA60     		str	r2, [r3, #12]
 958              	.L52:
 959              		.loc 8 60 0
 960 0052 0123     		movs	r3, #1
 961 0054 00E0     		b	.L53
 962              	.L51:
 963              		.loc 8 62 0
 964 0056 0023     		movs	r3, #0
 965              	.L53:
 966              		.loc 8 63 0
 967 0058 1846     		mov	r0, r3
 968 005a 02B0     		add	sp, sp, #8
 969              		@ sp needed
 970 005c 7047     		bx	lr
 971              		.cfi_endproc
 972              	.LFE608:
 973              		.size	_ZN3r2p10ArrayQueueIPNS_7MessageEE12fetch_unsafeERS2_, .-_ZN3r2p10ArrayQueueIPNS_7MessageEE1
 974              		.section	.text._ZN3r2p10ArrayQueueIPNS_7MessageEE11post_unsafeES2_,"axG",%progbits,_ZN3r2p10ArrayQ
 975              		.align	2
 976              		.p2align 4,,15
 977              		.weak	_ZN3r2p10ArrayQueueIPNS_7MessageEE11post_unsafeES2_
 978              		.thumb
 979              		.thumb_func
 980              		.type	_ZN3r2p10ArrayQueueIPNS_7MessageEE11post_unsafeES2_, %function
 981              	_ZN3r2p10ArrayQueueIPNS_7MessageEE11post_unsafeES2_:
 982              	.LFB609:
 983              		.loc 8 37 0
 984              		.cfi_startproc
 985              		@ args = 0, pretend = 0, frame = 8
 986              		@ frame_needed = 0, uses_anonymous_args = 0
 987              		@ link register save eliminated.
 988 0000 82B0     		sub	sp, sp, #8
 989              		.cfi_def_cfa_offset 8
 990 0002 0190     		str	r0, [sp, #4]
 991 0004 0091     		str	r1, [sp]
 992              		.loc 8 39 0
 993 0006 019B     		ldr	r3, [sp, #4]
 994 0008 9A68     		ldr	r2, [r3, #8]
 995 000a 019B     		ldr	r3, [sp, #4]
 996 000c 5B68     		ldr	r3, [r3, #4]
 997 000e 9A42     		cmp	r2, r3
 998 0010 22D2     		bcs	.L55
 999              		.loc 8 40 0
 1000 0012 019B     		ldr	r3, [sp, #4]
 1001 0014 9B68     		ldr	r3, [r3, #8]
 1002 0016 5A1C     		adds	r2, r3, #1
 1003 0018 019B     		ldr	r3, [sp, #4]
 1004 001a 9A60     		str	r2, [r3, #8]
 1005              		.loc 8 41 0
 1006 001c 019B     		ldr	r3, [sp, #4]
 1007 001e 1B69     		ldr	r3, [r3, #16]
 1008 0020 009A     		ldr	r2, [sp]
ARM GAS  /tmp/cc56cwCU.s 			page 19


 1009 0022 1A60     		str	r2, [r3]
 1010              		.loc 8 42 0
 1011 0024 019B     		ldr	r3, [sp, #4]
 1012 0026 1B69     		ldr	r3, [r3, #16]
 1013 0028 1A1D     		adds	r2, r3, #4
 1014 002a 019B     		ldr	r3, [sp, #4]
 1015 002c 1A61     		str	r2, [r3, #16]
 1016 002e 019B     		ldr	r3, [sp, #4]
 1017 0030 1A69     		ldr	r2, [r3, #16]
 1018 0032 019B     		ldr	r3, [sp, #4]
 1019 0034 1968     		ldr	r1, [r3]
 1020 0036 019B     		ldr	r3, [sp, #4]
 1021 0038 5B68     		ldr	r3, [r3, #4]
 1022 003a 9B00     		lsls	r3, r3, #2
 1023 003c 0B44     		add	r3, r3, r1
 1024 003e 9A42     		cmp	r2, r3
 1025 0040 34BF     		ite	cc
 1026 0042 0023     		movcc	r3, #0
 1027 0044 0123     		movcs	r3, #1
 1028 0046 DBB2     		uxtb	r3, r3
 1029 0048 002B     		cmp	r3, #0
 1030 004a 03D0     		beq	.L56
 1031              		.loc 8 43 0
 1032 004c 019B     		ldr	r3, [sp, #4]
 1033 004e 1A68     		ldr	r2, [r3]
 1034 0050 019B     		ldr	r3, [sp, #4]
 1035 0052 1A61     		str	r2, [r3, #16]
 1036              	.L56:
 1037              		.loc 8 45 0
 1038 0054 0123     		movs	r3, #1
 1039 0056 00E0     		b	.L57
 1040              	.L55:
 1041              		.loc 8 47 0
 1042 0058 0023     		movs	r3, #0
 1043              	.L57:
 1044              		.loc 8 48 0
 1045 005a 1846     		mov	r0, r3
 1046 005c 02B0     		add	sp, sp, #8
 1047              		@ sp needed
 1048 005e 7047     		bx	lr
 1049              		.cfi_endproc
 1050              	.LFE609:
 1051              		.size	_ZN3r2p10ArrayQueueIPNS_7MessageEE11post_unsafeES2_, .-_ZN3r2p10ArrayQueueIPNS_7MessageEE11p
 1052              		.section	.text._ZN3r2p7PWM2MsgC2Ev,"axG",%progbits,_ZN3r2p7PWM2MsgC5Ev,comdat
 1053              		.align	2
 1054              		.p2align 4,,15
 1055              		.weak	_ZN3r2p7PWM2MsgC2Ev
 1056              		.thumb
 1057              		.thumb_func
 1058              		.type	_ZN3r2p7PWM2MsgC2Ev, %function
 1059              	_ZN3r2p7PWM2MsgC2Ev:
 1060              	.LFB621:
 1061              		.file 9 "/home/dave/r2p-sdk/core/Middleware/include/r2p/msg/motor.hpp"
 1062              		.loc 9 13 0
 1063              		.cfi_startproc
 1064              		@ args = 0, pretend = 0, frame = 8
 1065              		@ frame_needed = 0, uses_anonymous_args = 0
ARM GAS  /tmp/cc56cwCU.s 			page 20


 1066 0000 00B5     		push	{lr}
 1067              		.cfi_def_cfa_offset 4
 1068              		.cfi_offset 14, -4
 1069 0002 83B0     		sub	sp, sp, #12
 1070              		.cfi_def_cfa_offset 16
 1071 0004 0190     		str	r0, [sp, #4]
 1072              	.LBB33:
 1073              		.loc 9 13 0
 1074 0006 019B     		ldr	r3, [sp, #4]
 1075 0008 1846     		mov	r0, r3
 1076 000a FFF7FEFF 		bl	_ZN3r2p7MessageC2Ev
 1077              	.LBE33:
 1078 000e 019B     		ldr	r3, [sp, #4]
 1079 0010 1846     		mov	r0, r3
 1080 0012 03B0     		add	sp, sp, #12
 1081              		@ sp needed
 1082 0014 5DF804FB 		ldr	pc, [sp], #4
 1083              		.cfi_endproc
 1084              	.LFE621:
 1085              		.size	_ZN3r2p7PWM2MsgC2Ev, .-_ZN3r2p7PWM2MsgC2Ev
 1086              		.weak	_ZN3r2p7PWM2MsgC1Ev
 1087              		.thumb_set _ZN3r2p7PWM2MsgC1Ev,_ZN3r2p7PWM2MsgC2Ev
 1088 0018 AFF30080 		.section	.text._ZN3r2p10SubscriberINS_7PWM2MsgELj5EEC2EPFbRKS1_E,"axG",%progbits,_ZN3r2p10Subscrib
 1088      AFF30080 
 1089              		.align	2
 1090              		.p2align 4,,15
 1091              		.weak	_ZN3r2p10SubscriberINS_7PWM2MsgELj5EEC2EPFbRKS1_E
 1092              		.thumb
 1093              		.thumb_func
 1094              		.type	_ZN3r2p10SubscriberINS_7PWM2MsgELj5EEC2EPFbRKS1_E, %function
 1095              	_ZN3r2p10SubscriberINS_7PWM2MsgELj5EEC2EPFbRKS1_E:
 1096              	.LFB623:
 1097              		.file 10 "/home/dave/r2p-sdk/core/Middleware/include/r2p/Subscriber.hpp"
 1098              		.loc 10 31 0
 1099              		.cfi_startproc
 1100              		@ args = 0, pretend = 0, frame = 8
 1101              		@ frame_needed = 0, uses_anonymous_args = 0
 1102 0000 30B5     		push	{r4, r5, lr}
 1103              		.cfi_def_cfa_offset 12
 1104              		.cfi_offset 4, -12
 1105              		.cfi_offset 5, -8
 1106              		.cfi_offset 14, -4
 1107 0002 83B0     		sub	sp, sp, #12
 1108              		.cfi_def_cfa_offset 24
 1109 0004 0190     		str	r0, [sp, #4]
 1110 0006 0091     		str	r1, [sp]
 1111              	.LBB34:
 1112              		.loc 10 33 0
 1113 0008 019A     		ldr	r2, [sp, #4]
 1114 000a 019B     		ldr	r3, [sp, #4]
 1115 000c 5833     		adds	r3, r3, #88
 1116 000e 1046     		mov	r0, r2
 1117 0010 1946     		mov	r1, r3
 1118 0012 0522     		movs	r2, #5
 1119 0014 009B     		ldr	r3, [sp]
 1120 0016 FFF7FEFF 		bl	_ZN3r2p16SubscriberExtBufINS_7PWM2MsgEEC2EPPS1_jPFbRKS1_E
 1121 001a 019B     		ldr	r3, [sp, #4]
ARM GAS  /tmp/cc56cwCU.s 			page 21


 1122 001c 094A     		ldr	r2, .L66
 1123 001e 1A60     		str	r2, [r3]
 1124 0020 019B     		ldr	r3, [sp, #4]
 1125 0022 3833     		adds	r3, r3, #56
 1126 0024 0424     		movs	r4, #4
 1127 0026 1D46     		mov	r5, r3
 1128 0028 04E0     		b	.L62
 1129              	.L63:
 1130              		.loc 10 33 0 is_stmt 0 discriminator 2
 1131 002a 2846     		mov	r0, r5
 1132 002c FFF7FEFF 		bl	_ZN3r2p7PWM2MsgC1Ev
 1133 0030 0635     		adds	r5, r5, #6
 1134 0032 013C     		subs	r4, r4, #1
 1135              	.L62:
 1136              		.loc 10 33 0 discriminator 1
 1137 0034 B4F1FF3F 		cmp	r4, #-1
 1138 0038 F7D1     		bne	.L63
 1139              	.LBE34:
 1140              		.loc 10 34 0 is_stmt 1 discriminator 3
 1141 003a 019B     		ldr	r3, [sp, #4]
 1142 003c 1846     		mov	r0, r3
 1143 003e 03B0     		add	sp, sp, #12
 1144              		@ sp needed
 1145 0040 30BD     		pop	{r4, r5, pc}
 1146              	.L67:
 1147 0042 00BF     		.align	2
 1148              	.L66:
 1149 0044 08000000 		.word	_ZTVN3r2p10SubscriberINS_7PWM2MsgELj5EEE+8
 1150              		.cfi_endproc
 1151              	.LFE623:
 1152              		.size	_ZN3r2p10SubscriberINS_7PWM2MsgELj5EEC2EPFbRKS1_E, .-_ZN3r2p10SubscriberINS_7PWM2MsgELj5EEC2
 1153              		.weak	_ZN3r2p10SubscriberINS_7PWM2MsgELj5EEC1EPFbRKS1_E
 1154              		.thumb_set _ZN3r2p10SubscriberINS_7PWM2MsgELj5EEC1EPFbRKS1_E,_ZN3r2p10SubscriberINS_7PWM2MsgELj5EE
 1155 0048 AFF30080 		.section	.text._ZN3r2p10SubscriberINS_7PWM2MsgELj5EED2Ev,"axG",%progbits,_ZN3r2p10SubscriberINS_7P
 1155      AFF30080 
 1156              		.align	2
 1157              		.p2align 4,,15
 1158              		.weak	_ZN3r2p10SubscriberINS_7PWM2MsgELj5EED2Ev
 1159              		.thumb
 1160              		.thumb_func
 1161              		.type	_ZN3r2p10SubscriberINS_7PWM2MsgELj5EED2Ev, %function
 1162              	_ZN3r2p10SubscriberINS_7PWM2MsgELj5EED2Ev:
 1163              	.LFB626:
 1164              		.loc 10 38 0
 1165              		.cfi_startproc
 1166              		@ args = 0, pretend = 0, frame = 8
 1167              		@ frame_needed = 0, uses_anonymous_args = 0
 1168 0000 00B5     		push	{lr}
 1169              		.cfi_def_cfa_offset 4
 1170              		.cfi_offset 14, -4
 1171 0002 83B0     		sub	sp, sp, #12
 1172              		.cfi_def_cfa_offset 16
 1173 0004 0190     		str	r0, [sp, #4]
 1174              	.LBB35:
 1175              		.loc 10 38 0
 1176 0006 019B     		ldr	r3, [sp, #4]
 1177 0008 084A     		ldr	r2, .L72
ARM GAS  /tmp/cc56cwCU.s 			page 22


 1178 000a 1A60     		str	r2, [r3]
 1179 000c 019B     		ldr	r3, [sp, #4]
 1180 000e 1846     		mov	r0, r3
 1181 0010 FFF7FEFF 		bl	_ZN3r2p16SubscriberExtBufINS_7PWM2MsgEED2Ev
 1182              	.LBE35:
 1183 0014 0023     		movs	r3, #0
 1184 0016 002B     		cmp	r3, #0
 1185 0018 02D0     		beq	.L70
 1186              		.loc 10 38 0 is_stmt 0 discriminator 1
 1187 001a 0198     		ldr	r0, [sp, #4]
 1188 001c FFF7FEFF 		bl	_ZdlPv
 1189              	.L70:
 1190              		.loc 10 38 0 discriminator 2
 1191 0020 019B     		ldr	r3, [sp, #4]
 1192 0022 1846     		mov	r0, r3
 1193 0024 03B0     		add	sp, sp, #12
 1194              		@ sp needed
 1195 0026 5DF804FB 		ldr	pc, [sp], #4
 1196              	.L73:
 1197 002a 00BF     		.align	2
 1198              	.L72:
 1199 002c 08000000 		.word	_ZTVN3r2p10SubscriberINS_7PWM2MsgELj5EEE+8
 1200              		.cfi_endproc
 1201              	.LFE626:
 1202              		.size	_ZN3r2p10SubscriberINS_7PWM2MsgELj5EED2Ev, .-_ZN3r2p10SubscriberINS_7PWM2MsgELj5EED2Ev
 1203              		.weak	_ZN3r2p10SubscriberINS_7PWM2MsgELj5EED1Ev
 1204              		.thumb_set _ZN3r2p10SubscriberINS_7PWM2MsgELj5EED1Ev,_ZN3r2p10SubscriberINS_7PWM2MsgELj5EED2Ev
 1205              		.section	.text._ZN3r2p10SubscriberINS_7PWM2MsgELj5EED0Ev,"axG",%progbits,_ZN3r2p10SubscriberINS_7P
 1206              		.align	2
 1207              		.p2align 4,,15
 1208              		.weak	_ZN3r2p10SubscriberINS_7PWM2MsgELj5EED0Ev
 1209              		.thumb
 1210              		.thumb_func
 1211              		.type	_ZN3r2p10SubscriberINS_7PWM2MsgELj5EED0Ev, %function
 1212              	_ZN3r2p10SubscriberINS_7PWM2MsgELj5EED0Ev:
 1213              	.LFB628:
 1214              		.loc 10 38 0 is_stmt 1
 1215              		.cfi_startproc
 1216              		@ args = 0, pretend = 0, frame = 8
 1217              		@ frame_needed = 0, uses_anonymous_args = 0
 1218 0000 00B5     		push	{lr}
 1219              		.cfi_def_cfa_offset 4
 1220              		.cfi_offset 14, -4
 1221 0002 83B0     		sub	sp, sp, #12
 1222              		.cfi_def_cfa_offset 16
 1223 0004 0190     		str	r0, [sp, #4]
 1224              		.loc 10 38 0
 1225 0006 0198     		ldr	r0, [sp, #4]
 1226 0008 FFF7FEFF 		bl	_ZN3r2p10SubscriberINS_7PWM2MsgELj5EED1Ev
 1227 000c 0198     		ldr	r0, [sp, #4]
 1228 000e FFF7FEFF 		bl	_ZdlPv
 1229 0012 019B     		ldr	r3, [sp, #4]
 1230 0014 1846     		mov	r0, r3
 1231 0016 03B0     		add	sp, sp, #12
 1232              		@ sp needed
 1233 0018 5DF804FB 		ldr	pc, [sp], #4
 1234              		.cfi_endproc
ARM GAS  /tmp/cc56cwCU.s 			page 23


 1235              	.LFE628:
 1236              		.size	_ZN3r2p10SubscriberINS_7PWM2MsgELj5EED0Ev, .-_ZN3r2p10SubscriberINS_7PWM2MsgELj5EED0Ev
 1237 001c AFF30080 		.section	.text._ZN3r2p4Node9subscribeINS_7PWM2MsgELj5EEEbRNS_10SubscriberIT_XT0_EEEPKc,"axG",%prog
 1238              		.align	2
 1239              		.p2align 4,,15
 1240              		.weak	_ZN3r2p4Node9subscribeINS_7PWM2MsgELj5EEEbRNS_10SubscriberIT_XT0_EEEPKc
 1241              		.thumb
 1242              		.thumb_func
 1243              		.type	_ZN3r2p4Node9subscribeINS_7PWM2MsgELj5EEEbRNS_10SubscriberIT_XT0_EEEPKc, %function
 1244              	_ZN3r2p4Node9subscribeINS_7PWM2MsgELj5EEEbRNS_10SubscriberIT_XT0_EEEPKc:
 1245              	.LFB629:
 1246              		.loc 5 133 0
 1247              		.cfi_startproc
 1248              		@ args = 0, pretend = 0, frame = 16
 1249              		@ frame_needed = 0, uses_anonymous_args = 0
 1250 0000 00B5     		push	{lr}
 1251              		.cfi_def_cfa_offset 4
 1252              		.cfi_offset 14, -4
 1253 0002 87B0     		sub	sp, sp, #28
 1254              		.cfi_def_cfa_offset 32
 1255 0004 0590     		str	r0, [sp, #20]
 1256 0006 0491     		str	r1, [sp, #16]
 1257 0008 0392     		str	r2, [sp, #12]
 1258              		.loc 5 135 0
 1259 000a 049A     		ldr	r2, [sp, #16]
 1260 000c 049B     		ldr	r3, [sp, #16]
 1261 000e 3833     		adds	r3, r3, #56
 1262 0010 0621     		movs	r1, #6
 1263 0012 0091     		str	r1, [sp]
 1264 0014 0598     		ldr	r0, [sp, #20]
 1265 0016 1146     		mov	r1, r2
 1266 0018 039A     		ldr	r2, [sp, #12]
 1267 001a FFF7FEFF 		bl	_ZN3r2p4Node9subscribeERNS_15LocalSubscriberEPKcPNS_7MessageEj
 1268 001e 0346     		mov	r3, r0
 1269              		.loc 5 136 0
 1270 0020 1846     		mov	r0, r3
 1271 0022 07B0     		add	sp, sp, #28
 1272              		@ sp needed
 1273 0024 5DF804FB 		ldr	pc, [sp], #4
 1274              		.cfi_endproc
 1275              	.LFE629:
 1276              		.size	_ZN3r2p4Node9subscribeINS_7PWM2MsgELj5EEEbRNS_10SubscriberIT_XT0_EEEPKc, .-_ZN3r2p4Node9subs
 1277 0028 AFF30080 		.section	.text._ZN3r2p16SubscriberExtBufINS_7PWM2MsgEE5fetchERPS1_,"axG",%progbits,_ZN3r2p16Subscr
 1277      AFF30080 
 1278              		.align	2
 1279              		.p2align 4,,15
 1280              		.weak	_ZN3r2p16SubscriberExtBufINS_7PWM2MsgEE5fetchERPS1_
 1281              		.thumb
 1282              		.thumb_func
 1283              		.type	_ZN3r2p16SubscriberExtBufINS_7PWM2MsgEE5fetchERPS1_, %function
 1284              	_ZN3r2p16SubscriberExtBufINS_7PWM2MsgEE5fetchERPS1_:
 1285              	.LFB630:
 1286              		.file 11 "/home/dave/r2p-sdk/core/Middleware/include/r2p/SubscriberExtBuf.hpp"
 1287              		.loc 11 31 0
 1288              		.cfi_startproc
 1289              		@ args = 0, pretend = 0, frame = 8
 1290              		@ frame_needed = 0, uses_anonymous_args = 0
ARM GAS  /tmp/cc56cwCU.s 			page 24


 1291 0000 00B5     		push	{lr}
 1292              		.cfi_def_cfa_offset 4
 1293              		.cfi_offset 14, -4
 1294 0002 83B0     		sub	sp, sp, #12
 1295              		.cfi_def_cfa_offset 16
 1296 0004 0190     		str	r0, [sp, #4]
 1297 0006 0091     		str	r1, [sp]
 1298              		.loc 11 34 0
 1299 0008 019B     		ldr	r3, [sp, #4]
 1300 000a 1846     		mov	r0, r3
 1301 000c 0099     		ldr	r1, [sp]
 1302 000e FFF7FEFF 		bl	_ZN3r2p15LocalSubscriber5fetchERPNS_7MessageE
 1303 0012 0346     		mov	r3, r0
 1304              		.loc 11 35 0
 1305 0014 1846     		mov	r0, r3
 1306 0016 03B0     		add	sp, sp, #12
 1307              		@ sp needed
 1308 0018 5DF804FB 		ldr	pc, [sp], #4
 1309              		.cfi_endproc
 1310              	.LFE630:
 1311              		.size	_ZN3r2p16SubscriberExtBufINS_7PWM2MsgEE5fetchERPS1_, .-_ZN3r2p16SubscriberExtBufINS_7PWM2Msg
 1312 001c AFF30080 		.section	.text._ZN3r2p16SubscriberExtBufINS_7PWM2MsgEE7releaseERS1_,"axG",%progbits,_ZN3r2p16Subsc
 1313              		.align	2
 1314              		.p2align 4,,15
 1315              		.weak	_ZN3r2p16SubscriberExtBufINS_7PWM2MsgEE7releaseERS1_
 1316              		.thumb
 1317              		.thumb_func
 1318              		.type	_ZN3r2p16SubscriberExtBufINS_7PWM2MsgEE7releaseERS1_, %function
 1319              	_ZN3r2p16SubscriberExtBufINS_7PWM2MsgEE7releaseERS1_:
 1320              	.LFB631:
 1321              		.loc 11 57 0
 1322              		.cfi_startproc
 1323              		@ args = 0, pretend = 0, frame = 8
 1324              		@ frame_needed = 0, uses_anonymous_args = 0
 1325 0000 00B5     		push	{lr}
 1326              		.cfi_def_cfa_offset 4
 1327              		.cfi_offset 14, -4
 1328 0002 83B0     		sub	sp, sp, #12
 1329              		.cfi_def_cfa_offset 16
 1330 0004 0190     		str	r0, [sp, #4]
 1331 0006 0091     		str	r1, [sp]
 1332              		.loc 11 60 0
 1333 0008 019A     		ldr	r2, [sp, #4]
 1334 000a 009B     		ldr	r3, [sp]
 1335 000c 1046     		mov	r0, r2
 1336 000e 1946     		mov	r1, r3
 1337 0010 FFF7FEFF 		bl	_ZN3r2p14BaseSubscriber7releaseERNS_7MessageE
 1338 0014 0346     		mov	r3, r0
 1339              		.loc 11 61 0
 1340 0016 1846     		mov	r0, r3
 1341 0018 03B0     		add	sp, sp, #12
 1342              		@ sp needed
 1343 001a 5DF804FB 		ldr	pc, [sp], #4
 1344              		.cfi_endproc
 1345              	.LFE631:
 1346              		.size	_ZN3r2p16SubscriberExtBufINS_7PWM2MsgEE7releaseERS1_, .-_ZN3r2p16SubscriberExtBufINS_7PWM2Ms
 1347 001e 00BF     		.section	.text._ZN3r2p16SubscriberExtBufINS_7PWM2MsgEEC2EPPS1_jPFbRKS1_E,"axG",%progbits,_ZN3r2p16
ARM GAS  /tmp/cc56cwCU.s 			page 25


 1348              		.align	2
 1349              		.p2align 4,,15
 1350              		.weak	_ZN3r2p16SubscriberExtBufINS_7PWM2MsgEEC2EPPS1_jPFbRKS1_E
 1351              		.thumb
 1352              		.thumb_func
 1353              		.type	_ZN3r2p16SubscriberExtBufINS_7PWM2MsgEEC2EPPS1_jPFbRKS1_E, %function
 1354              	_ZN3r2p16SubscriberExtBufINS_7PWM2MsgEEC2EPPS1_jPFbRKS1_E:
 1355              	.LFB633:
 1356              		.loc 11 65 0
 1357              		.cfi_startproc
 1358              		@ args = 0, pretend = 0, frame = 16
 1359              		@ frame_needed = 0, uses_anonymous_args = 0
 1360 0000 00B5     		push	{lr}
 1361              		.cfi_def_cfa_offset 4
 1362              		.cfi_offset 14, -4
 1363 0002 85B0     		sub	sp, sp, #20
 1364              		.cfi_def_cfa_offset 24
 1365 0004 0390     		str	r0, [sp, #12]
 1366 0006 0291     		str	r1, [sp, #8]
 1367 0008 0192     		str	r2, [sp, #4]
 1368 000a 0093     		str	r3, [sp]
 1369              	.LBB36:
 1370              		.loc 11 69 0
 1371 000c 039B     		ldr	r3, [sp, #12]
 1372 000e 1846     		mov	r0, r3
 1373 0010 0299     		ldr	r1, [sp, #8]
 1374 0012 019A     		ldr	r2, [sp, #4]
 1375 0014 009B     		ldr	r3, [sp]
 1376 0016 FFF7FEFF 		bl	_ZN3r2p15LocalSubscriberC2EPPNS_7MessageEjPFbRKS1_E
 1377 001a 039B     		ldr	r3, [sp, #12]
 1378 001c 034A     		ldr	r2, .L86
 1379 001e 1A60     		str	r2, [r3]
 1380              	.LBE36:
 1381              		.loc 11 72 0
 1382 0020 039B     		ldr	r3, [sp, #12]
 1383 0022 1846     		mov	r0, r3
 1384 0024 05B0     		add	sp, sp, #20
 1385              		@ sp needed
 1386 0026 5DF804FB 		ldr	pc, [sp], #4
 1387              	.L87:
 1388 002a 00BF     		.align	2
 1389              	.L86:
 1390 002c 08000000 		.word	_ZTVN3r2p16SubscriberExtBufINS_7PWM2MsgEEE+8
 1391              		.cfi_endproc
 1392              	.LFE633:
 1393              		.size	_ZN3r2p16SubscriberExtBufINS_7PWM2MsgEEC2EPPS1_jPFbRKS1_E, .-_ZN3r2p16SubscriberExtBufINS_7P
 1394              		.weak	_ZN3r2p16SubscriberExtBufINS_7PWM2MsgEEC1EPPS1_jPFbRKS1_E
 1395              		.thumb_set _ZN3r2p16SubscriberExtBufINS_7PWM2MsgEEC1EPPS1_jPFbRKS1_E,_ZN3r2p16SubscriberExtBufINS_
 1396              		.section	.text._ZN3r2p16SubscriberExtBufINS_7PWM2MsgEED2Ev,"axG",%progbits,_ZN3r2p16SubscriberExtB
 1397              		.align	2
 1398              		.p2align 4,,15
 1399              		.weak	_ZN3r2p16SubscriberExtBufINS_7PWM2MsgEED2Ev
 1400              		.thumb
 1401              		.thumb_func
 1402              		.type	_ZN3r2p16SubscriberExtBufINS_7PWM2MsgEED2Ev, %function
 1403              	_ZN3r2p16SubscriberExtBufINS_7PWM2MsgEED2Ev:
 1404              	.LFB636:
ARM GAS  /tmp/cc56cwCU.s 			page 26


 1405              		.loc 11 76 0
 1406              		.cfi_startproc
 1407              		@ args = 0, pretend = 0, frame = 8
 1408              		@ frame_needed = 0, uses_anonymous_args = 0
 1409 0000 00B5     		push	{lr}
 1410              		.cfi_def_cfa_offset 4
 1411              		.cfi_offset 14, -4
 1412 0002 83B0     		sub	sp, sp, #12
 1413              		.cfi_def_cfa_offset 16
 1414 0004 0190     		str	r0, [sp, #4]
 1415              	.LBB37:
 1416              		.loc 11 79 0
 1417 0006 019B     		ldr	r3, [sp, #4]
 1418 0008 084A     		ldr	r2, .L92
 1419 000a 1A60     		str	r2, [r3]
 1420 000c 019B     		ldr	r3, [sp, #4]
 1421 000e 1846     		mov	r0, r3
 1422 0010 FFF7FEFF 		bl	_ZN3r2p15LocalSubscriberD2Ev
 1423              	.LBE37:
 1424 0014 0023     		movs	r3, #0
 1425 0016 002B     		cmp	r3, #0
 1426 0018 02D0     		beq	.L90
 1427              		.loc 11 79 0 is_stmt 0 discriminator 1
 1428 001a 0198     		ldr	r0, [sp, #4]
 1429 001c FFF7FEFF 		bl	_ZdlPv
 1430              	.L90:
 1431              		.loc 11 79 0 discriminator 2
 1432 0020 019B     		ldr	r3, [sp, #4]
 1433 0022 1846     		mov	r0, r3
 1434 0024 03B0     		add	sp, sp, #12
 1435              		@ sp needed
 1436 0026 5DF804FB 		ldr	pc, [sp], #4
 1437              	.L93:
 1438 002a 00BF     		.align	2
 1439              	.L92:
 1440 002c 08000000 		.word	_ZTVN3r2p16SubscriberExtBufINS_7PWM2MsgEEE+8
 1441              		.cfi_endproc
 1442              	.LFE636:
 1443              		.size	_ZN3r2p16SubscriberExtBufINS_7PWM2MsgEED2Ev, .-_ZN3r2p16SubscriberExtBufINS_7PWM2MsgEED2Ev
 1444              		.weak	_ZN3r2p16SubscriberExtBufINS_7PWM2MsgEED1Ev
 1445              		.thumb_set _ZN3r2p16SubscriberExtBufINS_7PWM2MsgEED1Ev,_ZN3r2p16SubscriberExtBufINS_7PWM2MsgEED2Ev
 1446              		.section	.text._ZN3r2p16SubscriberExtBufINS_7PWM2MsgEED0Ev,"axG",%progbits,_ZN3r2p16SubscriberExtB
 1447              		.align	2
 1448              		.p2align 4,,15
 1449              		.weak	_ZN3r2p16SubscriberExtBufINS_7PWM2MsgEED0Ev
 1450              		.thumb
 1451              		.thumb_func
 1452              		.type	_ZN3r2p16SubscriberExtBufINS_7PWM2MsgEED0Ev, %function
 1453              	_ZN3r2p16SubscriberExtBufINS_7PWM2MsgEED0Ev:
 1454              	.LFB638:
 1455              		.loc 11 76 0 is_stmt 1
 1456              		.cfi_startproc
 1457              		@ args = 0, pretend = 0, frame = 8
 1458              		@ frame_needed = 0, uses_anonymous_args = 0
 1459 0000 00B5     		push	{lr}
 1460              		.cfi_def_cfa_offset 4
 1461              		.cfi_offset 14, -4
ARM GAS  /tmp/cc56cwCU.s 			page 27


 1462 0002 83B0     		sub	sp, sp, #12
 1463              		.cfi_def_cfa_offset 16
 1464 0004 0190     		str	r0, [sp, #4]
 1465              		.loc 11 79 0
 1466 0006 0198     		ldr	r0, [sp, #4]
 1467 0008 FFF7FEFF 		bl	_ZN3r2p16SubscriberExtBufINS_7PWM2MsgEED1Ev
 1468 000c 0198     		ldr	r0, [sp, #4]
 1469 000e FFF7FEFF 		bl	_ZdlPv
 1470 0012 019B     		ldr	r3, [sp, #4]
 1471 0014 1846     		mov	r0, r3
 1472 0016 03B0     		add	sp, sp, #12
 1473              		@ sp needed
 1474 0018 5DF804FB 		ldr	pc, [sp], #4
 1475              		.cfi_endproc
 1476              	.LFE638:
 1477              		.size	_ZN3r2p16SubscriberExtBufINS_7PWM2MsgEED0Ev, .-_ZN3r2p16SubscriberExtBufINS_7PWM2MsgEED0Ev
 1478              		.weak	_ZTVN3r2p10SubscriberINS_7PWM2MsgELj5EEE
 1479 001c AFF30080 		.section	.rodata._ZTVN3r2p10SubscriberINS_7PWM2MsgELj5EEE,"aG",%progbits,_ZTVN3r2p10SubscriberINS_
 1480              		.align	3
 1481              		.type	_ZTVN3r2p10SubscriberINS_7PWM2MsgELj5EEE, %object
 1482              		.size	_ZTVN3r2p10SubscriberINS_7PWM2MsgELj5EEE, 36
 1483              	_ZTVN3r2p10SubscriberINS_7PWM2MsgELj5EEE:
 1484 0000 00000000 		.word	0
 1485 0004 00000000 		.word	0
 1486 0008 00000000 		.word	_ZNK3r2p15LocalSubscriber16get_queue_lengthEv
 1487 000c 00000000 		.word	_ZN3r2p15LocalSubscriber13notify_unsafeERNS_7MessageERKNS_4TimeE
 1488 0010 00000000 		.word	_ZN3r2p15LocalSubscriber12fetch_unsafeERPNS_7MessageERNS_4TimeE
 1489 0014 00000000 		.word	_ZN3r2p15LocalSubscriber6notifyERNS_7MessageERKNS_4TimeE
 1490 0018 00000000 		.word	_ZN3r2p15LocalSubscriber5fetchERPNS_7MessageERNS_4TimeE
 1491 001c 00000000 		.word	_ZN3r2p10SubscriberINS_7PWM2MsgELj5EED1Ev
 1492 0020 00000000 		.word	_ZN3r2p10SubscriberINS_7PWM2MsgELj5EED0Ev
 1493              		.weak	_ZTVN3r2p16SubscriberExtBufINS_7PWM2MsgEEE
 1494 0024 00000000 		.section	.rodata._ZTVN3r2p16SubscriberExtBufINS_7PWM2MsgEEE,"aG",%progbits,_ZTVN3r2p16SubscriberEx
 1495              		.align	3
 1496              		.type	_ZTVN3r2p16SubscriberExtBufINS_7PWM2MsgEEE, %object
 1497              		.size	_ZTVN3r2p16SubscriberExtBufINS_7PWM2MsgEEE, 36
 1498              	_ZTVN3r2p16SubscriberExtBufINS_7PWM2MsgEEE:
 1499 0000 00000000 		.word	0
 1500 0004 00000000 		.word	0
 1501 0008 00000000 		.word	_ZNK3r2p15LocalSubscriber16get_queue_lengthEv
 1502 000c 00000000 		.word	_ZN3r2p15LocalSubscriber13notify_unsafeERNS_7MessageERKNS_4TimeE
 1503 0010 00000000 		.word	_ZN3r2p15LocalSubscriber12fetch_unsafeERPNS_7MessageERNS_4TimeE
 1504 0014 00000000 		.word	_ZN3r2p15LocalSubscriber6notifyERNS_7MessageERKNS_4TimeE
 1505 0018 00000000 		.word	_ZN3r2p15LocalSubscriber5fetchERPNS_7MessageERNS_4TimeE
 1506 001c 00000000 		.word	_ZN3r2p16SubscriberExtBufINS_7PWM2MsgEED1Ev
 1507 0020 00000000 		.word	_ZN3r2p16SubscriberExtBufINS_7PWM2MsgEED0Ev
 1508 0024 00000000 		.text
 1509              	.Letext0:
 1510              		.file 12 "/usr/lib/gcc/arm-none-eabi/4.8/include/stddef.h"
 1511              		.file 13 "/usr/include/newlib/machine/_default_types.h"
 1512              		.file 14 "/usr/include/newlib/stdint.h"
 1513              		.file 15 "/home/dave/r2p-sdk/core/ChibiOS/os/ports/GCC/ARMCMx/chtypes.h"
 1514              		.file 16 "/home/dave/r2p-sdk/core/ChibiOS/os/kernel/include/chlists.h"
 1515              		.file 17 "/home/dave/r2p-sdk/core/ChibiOS/os/kernel/include/chthreads.h"
 1516              		.file 18 "/home/dave/r2p-sdk/core/ChibiOS/os/ports/GCC/ARMCMx/chcore_v7m.h"
 1517              		.file 19 "/home/dave/r2p-sdk/core/ChibiOS/os/kernel/include/chschd.h"
 1518              		.file 20 "/home/dave/r2p-sdk/core/ChibiOS/os/kernel/include/chmtx.h"
ARM GAS  /tmp/cc56cwCU.s 			page 28


 1519              		.file 21 "/home/dave/r2p-sdk/core/ChibiOS/os/kernel/include/chmemcore.h"
 1520              		.file 22 "/home/dave/r2p-sdk/core/ChibiOS/os/kernel/include/chmempools.h"
 1521              		.file 23 "/home/dave/r2p-sdk/core/ChibiOS/os/hal/platforms/STM32/GPIOv2/pal_lld.h"
 1522              		.file 24 "/home/dave/r2p-sdk/core/ChibiOS/os/hal/include/pwm.h"
 1523              		.file 25 "/home/dave/r2p-sdk/core/ChibiOS/os/hal/platforms/STM32/TIMv1/pwm_lld.h"
 1524              		.file 26 "/home/dave/r2p-sdk/core/ChibiOS/os/hal/platforms/STM32/TIMv1/stm32_tim.h"
 1525              		.file 27 "/usr/include/newlib/c++/4.8/cstring"
 1526              		.file 28 "/usr/include/newlib/string.h"
 1527              		.file 29 "<built-in>"
 1528              		.file 30 "/home/dave/r2p-sdk/core/Middleware/include/r2p/Uncopyable.hpp"
 1529              		.file 31 "/home/dave/r2p-sdk/core/Middleware/port/chibios/include/r2p/impl/MemoryPool_.hpp"
 1530              		.file 32 "/home/dave/r2p-sdk/core/Middleware/include/r2p/StaticList.hpp"
 1531              		.file 33 "/home/dave/r2p-sdk/core/Middleware/include/r2p/Topic.hpp"
 1532              		.file 34 "/home/dave/r2p-sdk/core/Middleware/port/chibios/include/r2p/impl/Thread_.hpp"
 1533              		.file 35 "/home/dave/r2p-sdk/core/Middleware/include/r2p/Thread.hpp"
 1534              		.file 36 "/home/dave/r2p-sdk/core/Middleware/include/r2p/BaseSubscriber.hpp"
 1535              		.file 37 "nodes/pwm_node.hpp"
 1536              		.file 38 "/home/dave/r2p-sdk/core/Middleware/include/r2p/common.hpp"
 1537              		.file 39 "/home/dave/r2p-sdk/core/ChibiOS/os/ports/common/ARMCMx/CMSIS/include/core_cm4.h"