ARM GAS  /tmp/ccacYhh9.s 			page 1


   1              		.syntax unified
   2              		.cpu cortex-m4
   3              		.eabi_attribute 27, 3
   4              		.eabi_attribute 28, 1
   5              		.fpu fpv4-sp-d16
   6              		.eabi_attribute 20, 1
   7              		.eabi_attribute 21, 1
   8              		.eabi_attribute 23, 3
   9              		.eabi_attribute 24, 1
  10              		.eabi_attribute 25, 1
  11              		.eabi_attribute 26, 1
  12              		.eabi_attribute 30, 6
  13              		.eabi_attribute 34, 1
  14              		.eabi_attribute 18, 4
  15              		.thumb
  16              		.file	"syscalls.c"
  17              		.text
  18              	.Ltext0:
  19              		.cfi_sections	.debug_frame
  20              		.section	.text._read_r,"ax",%progbits
  21              		.align	2
  22              		.p2align 4,,15
  23              		.global	_read_r
  24              		.thumb
  25              		.thumb_func
  26              		.type	_read_r, %function
  27              	_read_r:
  28              	.LFB7:
  29              		.file 1 "/home/dave/r2p-sdk/core/ChibiOS/os/various/syscalls.c"
  30              		.loc 1 76 0
  31              		.cfi_startproc
  32              		@ args = 0, pretend = 0, frame = 16
  33              		@ frame_needed = 0, uses_anonymous_args = 0
  34              		@ link register save eliminated.
  35 0000 84B0     		sub	sp, sp, #16
  36              		.cfi_def_cfa_offset 16
  37 0002 0390     		str	r0, [sp, #12]
  38 0004 0291     		str	r1, [sp, #8]
  39 0006 0192     		str	r2, [sp, #4]
  40 0008 0093     		str	r3, [sp]
  41              		.loc 1 89 0
  42 000a 039B     		ldr	r3, [sp, #12]
  43 000c 1622     		movs	r2, #22
  44 000e 1A60     		str	r2, [r3]
  45              		.loc 1 90 0
  46 0010 4FF0FF33 		mov	r3, #-1
  47              		.loc 1 92 0
  48 0014 1846     		mov	r0, r3
  49 0016 04B0     		add	sp, sp, #16
  50              		@ sp needed
  51 0018 7047     		bx	lr
  52              		.cfi_endproc
  53              	.LFE7:
  54              		.size	_read_r, .-_read_r
  55 001a 00BFAFF3 		.section	.text._lseek_r,"ax",%progbits
  55      0080
  56              		.align	2
ARM GAS  /tmp/ccacYhh9.s 			page 2


  57              		.p2align 4,,15
  58              		.global	_lseek_r
  59              		.thumb
  60              		.thumb_func
  61              		.type	_lseek_r, %function
  62              	_lseek_r:
  63              	.LFB8:
  64              		.loc 1 97 0
  65              		.cfi_startproc
  66              		@ args = 0, pretend = 0, frame = 16
  67              		@ frame_needed = 0, uses_anonymous_args = 0
  68              		@ link register save eliminated.
  69 0000 84B0     		sub	sp, sp, #16
  70              		.cfi_def_cfa_offset 16
  71 0002 0390     		str	r0, [sp, #12]
  72 0004 0291     		str	r1, [sp, #8]
  73 0006 0192     		str	r2, [sp, #4]
  74 0008 0093     		str	r3, [sp]
  75              		.loc 1 103 0
  76 000a 0023     		movs	r3, #0
  77              		.loc 1 104 0
  78 000c 1846     		mov	r0, r3
  79 000e 04B0     		add	sp, sp, #16
  80              		@ sp needed
  81 0010 7047     		bx	lr
  82              		.cfi_endproc
  83              	.LFE8:
  84              		.size	_lseek_r, .-_lseek_r
  85 0012 00BFAFF3 		.section	.text._write_r,"ax",%progbits
  85      0080AFF3 
  85      0080AFF3 
  85      0080
  86              		.align	2
  87              		.p2align 4,,15
  88              		.global	_write_r
  89              		.thumb
  90              		.thumb_func
  91              		.type	_write_r, %function
  92              	_write_r:
  93              	.LFB9:
  94              		.loc 1 109 0
  95              		.cfi_startproc
  96              		@ args = 0, pretend = 0, frame = 16
  97              		@ frame_needed = 0, uses_anonymous_args = 0
  98              		@ link register save eliminated.
  99 0000 84B0     		sub	sp, sp, #16
 100              		.cfi_def_cfa_offset 16
 101 0002 0390     		str	r0, [sp, #12]
 102 0004 0291     		str	r1, [sp, #8]
 103 0006 0192     		str	r2, [sp, #4]
 104 0008 0093     		str	r3, [sp]
 105              		.loc 1 120 0
 106 000a 009B     		ldr	r3, [sp]
 107              		.loc 1 121 0
 108 000c 1846     		mov	r0, r3
 109 000e 04B0     		add	sp, sp, #16
 110              		@ sp needed
ARM GAS  /tmp/ccacYhh9.s 			page 3


 111 0010 7047     		bx	lr
 112              		.cfi_endproc
 113              	.LFE9:
 114              		.size	_write_r, .-_write_r
 115 0012 00BFAFF3 		.section	.text._close_r,"ax",%progbits
 115      0080AFF3 
 115      0080AFF3 
 115      0080
 116              		.align	2
 117              		.p2align 4,,15
 118              		.global	_close_r
 119              		.thumb
 120              		.thumb_func
 121              		.type	_close_r, %function
 122              	_close_r:
 123              	.LFB10:
 124              		.loc 1 126 0
 125              		.cfi_startproc
 126              		@ args = 0, pretend = 0, frame = 8
 127              		@ frame_needed = 0, uses_anonymous_args = 0
 128              		@ link register save eliminated.
 129 0000 82B0     		sub	sp, sp, #8
 130              		.cfi_def_cfa_offset 8
 131 0002 0190     		str	r0, [sp, #4]
 132 0004 0091     		str	r1, [sp]
 133              		.loc 1 130 0
 134 0006 0023     		movs	r3, #0
 135              		.loc 1 131 0
 136 0008 1846     		mov	r0, r3
 137 000a 02B0     		add	sp, sp, #8
 138              		@ sp needed
 139 000c 7047     		bx	lr
 140              		.cfi_endproc
 141              	.LFE10:
 142              		.size	_close_r, .-_close_r
 143 000e 00BF     		.section	.rodata
 144              		.align	2
 145              	.LC0:
 146 0000 225F7362 		.ascii	"\"_sbrk_r\"()\000"
 146      726B5F72 
 146      22282900 
 147              		.section	.text._sbrk_r,"ax",%progbits
 148              		.align	2
 149              		.p2align 4,,15
 150              		.global	_sbrk_r
 151              		.thumb
 152              		.thumb_func
 153              		.type	_sbrk_r, %function
 154              	_sbrk_r:
 155              	.LFB11:
 156              		.loc 1 136 0
 157              		.cfi_startproc
 158              		@ args = 0, pretend = 0, frame = 16
 159              		@ frame_needed = 0, uses_anonymous_args = 0
 160 0000 00B5     		push	{lr}
 161              		.cfi_def_cfa_offset 4
 162              		.cfi_offset 14, -4
ARM GAS  /tmp/ccacYhh9.s 			page 4


 163 0002 85B0     		sub	sp, sp, #20
 164              		.cfi_def_cfa_offset 24
 165 0004 0190     		str	r0, [sp, #4]
 166 0006 0091     		str	r1, [sp]
 167              		.loc 1 140 0
 168 0008 009B     		ldr	r3, [sp]
 169 000a 002B     		cmp	r3, #0
 170 000c 02DC     		bgt	.L10
 171              		.loc 1 140 0 is_stmt 0 discriminator 1
 172 000e 0B48     		ldr	r0, .L13
 173 0010 FFF7FEFF 		bl	chDbgPanic
 174              	.L10:
 175              		.loc 1 142 0 is_stmt 1
 176 0014 009B     		ldr	r3, [sp]
 177 0016 1846     		mov	r0, r3
 178 0018 FFF7FEFF 		bl	chCoreAlloc
 179 001c 0390     		str	r0, [sp, #12]
 180              		.loc 1 143 0
 181 001e 039B     		ldr	r3, [sp, #12]
 182 0020 002B     		cmp	r3, #0
 183 0022 05D1     		bne	.L11
 184              		.loc 1 144 0
 185 0024 019B     		ldr	r3, [sp, #4]
 186 0026 0C22     		movs	r2, #12
 187 0028 1A60     		str	r2, [r3]
 188              		.loc 1 145 0
 189 002a 4FF0FF33 		mov	r3, #-1
 190 002e 00E0     		b	.L12
 191              	.L11:
 192              		.loc 1 147 0
 193 0030 039B     		ldr	r3, [sp, #12]
 194              	.L12:
 195              		.loc 1 153 0
 196 0032 1846     		mov	r0, r3
 197 0034 05B0     		add	sp, sp, #20
 198              		@ sp needed
 199 0036 5DF804FB 		ldr	pc, [sp], #4
 200              	.L14:
 201 003a 00BF     		.align	2
 202              	.L13:
 203 003c 00000000 		.word	.LC0
 204              		.cfi_endproc
 205              	.LFE11:
 206              		.size	_sbrk_r, .-_sbrk_r
 207              		.section	.text._fstat_r,"ax",%progbits
 208              		.align	2
 209              		.p2align 4,,15
 210              		.global	_fstat_r
 211              		.thumb
 212              		.thumb_func
 213              		.type	_fstat_r, %function
 214              	_fstat_r:
 215              	.LFB12:
 216              		.loc 1 158 0
 217              		.cfi_startproc
 218              		@ args = 0, pretend = 0, frame = 16
 219              		@ frame_needed = 0, uses_anonymous_args = 0
ARM GAS  /tmp/ccacYhh9.s 			page 5


 220 0000 00B5     		push	{lr}
 221              		.cfi_def_cfa_offset 4
 222              		.cfi_offset 14, -4
 223 0002 85B0     		sub	sp, sp, #20
 224              		.cfi_def_cfa_offset 24
 225 0004 0390     		str	r0, [sp, #12]
 226 0006 0291     		str	r1, [sp, #8]
 227 0008 0192     		str	r2, [sp, #4]
 228              		.loc 1 162 0
 229 000a 0198     		ldr	r0, [sp, #4]
 230 000c 0021     		movs	r1, #0
 231 000e 3C22     		movs	r2, #60
 232 0010 FFF7FEFF 		bl	memset
 233              		.loc 1 163 0
 234 0014 019B     		ldr	r3, [sp, #4]
 235 0016 4FF40052 		mov	r2, #8192
 236 001a 5A60     		str	r2, [r3, #4]
 237              		.loc 1 164 0
 238 001c 0023     		movs	r3, #0
 239              		.loc 1 165 0
 240 001e 1846     		mov	r0, r3
 241 0020 05B0     		add	sp, sp, #20
 242              		@ sp needed
 243 0022 5DF804FB 		ldr	pc, [sp], #4
 244              		.cfi_endproc
 245              	.LFE12:
 246              		.size	_fstat_r, .-_fstat_r
 247 0026 00BFAFF3 		.section	.text._isatty_r,"ax",%progbits
 247      0080AFF3 
 247      0080
 248              		.align	2
 249              		.p2align 4,,15
 250              		.global	_isatty_r
 251              		.thumb
 252              		.thumb_func
 253              		.type	_isatty_r, %function
 254              	_isatty_r:
 255              	.LFB13:
 256              		.loc 1 170 0
 257              		.cfi_startproc
 258              		@ args = 0, pretend = 0, frame = 8
 259              		@ frame_needed = 0, uses_anonymous_args = 0
 260              		@ link register save eliminated.
 261 0000 82B0     		sub	sp, sp, #8
 262              		.cfi_def_cfa_offset 8
 263 0002 0190     		str	r0, [sp, #4]
 264 0004 0091     		str	r1, [sp]
 265              		.loc 1 174 0
 266 0006 0123     		movs	r3, #1
 267              		.loc 1 175 0
 268 0008 1846     		mov	r0, r3
 269 000a 02B0     		add	sp, sp, #8
 270              		@ sp needed
 271 000c 7047     		bx	lr
 272              		.cfi_endproc
 273              	.LFE13:
 274              		.size	_isatty_r, .-_isatty_r
ARM GAS  /tmp/ccacYhh9.s 			page 6


 275 000e 00BF     		.text
 276              	.Letext0:
 277              		.file 2 "/usr/lib/gcc/arm-none-eabi/4.8/include/stddef.h"
 278              		.file 3 "/usr/include/newlib/sys/lock.h"
 279              		.file 4 "/usr/include/newlib/sys/_types.h"
 280              		.file 5 "/usr/include/newlib/sys/reent.h"
 281              		.file 6 "/usr/include/newlib/sys/types.h"
 282              		.file 7 "/usr/include/newlib/sys/stat.h"