ARM GAS  /tmp/ccI7Zqab.s 			page 1


   1              		.syntax unified
   2              		.cpu cortex-m4
   3              		.eabi_attribute 27, 3
   4              		.eabi_attribute 28, 1
   5              		.fpu fpv4-sp-d16
   6              		.eabi_attribute 20, 1
   7              		.eabi_attribute 21, 1
   8              		.eabi_attribute 23, 3
   9              		.eabi_attribute 24, 1
  10              		.eabi_attribute 25, 1
  11              		.eabi_attribute 26, 1
  12              		.eabi_attribute 30, 6
  13              		.eabi_attribute 34, 1
  14              		.eabi_attribute 18, 4
  15              		.thumb
  16              		.file	"adc_lld.c"
  17              		.text
  18              	.Ltext0:
  19              		.cfi_sections	.debug_frame
  20              		.global	diocane
  21              		.section	.data.diocane,"aw",%progbits
  22              		.align	2
  23              		.type	diocane, %object
  24              		.size	diocane, 4
  25              	diocane:
  26 0000 7B000000 		.word	123
  27              		.global	ADCD1
  28              		.section	.bss.ADCD1,"aw",%nobits
  29              		.align	2
  30              		.type	ADCD1, %object
  31              		.size	ADCD1, 56
  32              	ADCD1:
  33 0000 00000000 		.space	56
  33      00000000 
  33      00000000 
  33      00000000 
  33      00000000 
  34              		.section	.text.adc_lld_vreg_on,"ax",%progbits
  35              		.align	2
  36              		.p2align 4,,15
  37              		.thumb
  38              		.thumb_func
  39              		.type	adc_lld_vreg_on, %function
  40              	adc_lld_vreg_on:
  41              	.LFB118:
  42              		.file 1 "/home/dave/r2p-sdk/core/ChibiOS/os/hal/platforms/STM32F30x/adc_lld.c"
  43              		.loc 1 86 0
  44              		.cfi_startproc
  45              		@ args = 0, pretend = 0, frame = 8
  46              		@ frame_needed = 0, uses_anonymous_args = 0
  47 0000 00B5     		push	{lr}
  48              		.cfi_def_cfa_offset 4
  49              		.cfi_offset 14, -4
  50 0002 83B0     		sub	sp, sp, #12
  51              		.cfi_def_cfa_offset 16
  52 0004 0190     		str	r0, [sp, #4]
  53              		.loc 1 88 0
ARM GAS  /tmp/ccI7Zqab.s 			page 2


  54 0006 019B     		ldr	r3, [sp, #4]
  55 0008 DB6A     		ldr	r3, [r3, #44]
  56 000a 0022     		movs	r2, #0
  57 000c 9A60     		str	r2, [r3, #8]
  58              		.loc 1 89 0
  59 000e 019B     		ldr	r3, [sp, #4]
  60 0010 DB6A     		ldr	r3, [r3, #44]
  61 0012 4FF08052 		mov	r2, #268435456
  62 0016 9A60     		str	r2, [r3, #8]
  63              		.loc 1 93 0
  64 0018 4FF43470 		mov	r0, #720
  65 001c FFF7FEFF 		bl	halPolledDelay
  66              		.loc 1 94 0
  67 0020 03B0     		add	sp, sp, #12
  68              		@ sp needed
  69 0022 5DF804FB 		ldr	pc, [sp], #4
  70              		.cfi_endproc
  71              	.LFE118:
  72              		.size	adc_lld_vreg_on, .-adc_lld_vreg_on
  73 0026 00BFAFF3 		.section	.text.adc_lld_vreg_off,"ax",%progbits
  73      0080AFF3 
  73      0080
  74              		.align	2
  75              		.p2align 4,,15
  76              		.thumb
  77              		.thumb_func
  78              		.type	adc_lld_vreg_off, %function
  79              	adc_lld_vreg_off:
  80              	.LFB119:
  81              		.loc 1 101 0
  82              		.cfi_startproc
  83              		@ args = 0, pretend = 0, frame = 8
  84              		@ frame_needed = 0, uses_anonymous_args = 0
  85              		@ link register save eliminated.
  86 0000 82B0     		sub	sp, sp, #8
  87              		.cfi_def_cfa_offset 8
  88 0002 0190     		str	r0, [sp, #4]
  89              		.loc 1 103 0
  90 0004 019B     		ldr	r3, [sp, #4]
  91 0006 DB6A     		ldr	r3, [r3, #44]
  92 0008 0022     		movs	r2, #0
  93 000a 9A60     		str	r2, [r3, #8]
  94              		.loc 1 104 0
  95 000c 019B     		ldr	r3, [sp, #4]
  96 000e DB6A     		ldr	r3, [r3, #44]
  97 0010 4FF00052 		mov	r2, #536870912
  98 0014 9A60     		str	r2, [r3, #8]
  99              		.loc 1 108 0
 100 0016 02B0     		add	sp, sp, #8
 101              		@ sp needed
 102 0018 7047     		bx	lr
 103              		.cfi_endproc
 104              	.LFE119:
 105              		.size	adc_lld_vreg_off, .-adc_lld_vreg_off
 106 001a 00BFAFF3 		.section	.text.adc_lld_analog_on,"ax",%progbits
 106      0080
 107              		.align	2
ARM GAS  /tmp/ccI7Zqab.s 			page 3


 108              		.p2align 4,,15
 109              		.thumb
 110              		.thumb_func
 111              		.type	adc_lld_analog_on, %function
 112              	adc_lld_analog_on:
 113              	.LFB120:
 114              		.loc 1 115 0
 115              		.cfi_startproc
 116              		@ args = 0, pretend = 0, frame = 8
 117              		@ frame_needed = 0, uses_anonymous_args = 0
 118              		@ link register save eliminated.
 119 0000 82B0     		sub	sp, sp, #8
 120              		.cfi_def_cfa_offset 8
 121 0002 0190     		str	r0, [sp, #4]
 122              		.loc 1 117 0
 123 0004 019B     		ldr	r3, [sp, #4]
 124 0006 DB6A     		ldr	r3, [r3, #44]
 125 0008 019A     		ldr	r2, [sp, #4]
 126 000a D26A     		ldr	r2, [r2, #44]
 127 000c 9268     		ldr	r2, [r2, #8]
 128 000e 42F00102 		orr	r2, r2, #1
 129 0012 9A60     		str	r2, [r3, #8]
 130              		.loc 1 118 0
 131 0014 00BF     		nop
 132              	.L4:
 133              		.loc 1 118 0 is_stmt 0 discriminator 1
 134 0016 019B     		ldr	r3, [sp, #4]
 135 0018 DB6A     		ldr	r3, [r3, #44]
 136 001a 1B68     		ldr	r3, [r3]
 137 001c 03F00103 		and	r3, r3, #1
 138 0020 002B     		cmp	r3, #0
 139 0022 F8D0     		beq	.L4
 140              		.loc 1 125 0 is_stmt 1
 141 0024 02B0     		add	sp, sp, #8
 142              		@ sp needed
 143 0026 7047     		bx	lr
 144              		.cfi_endproc
 145              	.LFE120:
 146              		.size	adc_lld_analog_on, .-adc_lld_analog_on
 147 0028 AFF30080 		.section	.text.adc_lld_analog_off,"ax",%progbits
 147      AFF30080 
 148              		.align	2
 149              		.p2align 4,,15
 150              		.thumb
 151              		.thumb_func
 152              		.type	adc_lld_analog_off, %function
 153              	adc_lld_analog_off:
 154              	.LFB121:
 155              		.loc 1 132 0
 156              		.cfi_startproc
 157              		@ args = 0, pretend = 0, frame = 8
 158              		@ frame_needed = 0, uses_anonymous_args = 0
 159              		@ link register save eliminated.
 160 0000 82B0     		sub	sp, sp, #8
 161              		.cfi_def_cfa_offset 8
 162 0002 0190     		str	r0, [sp, #4]
 163              		.loc 1 134 0
ARM GAS  /tmp/ccI7Zqab.s 			page 4


 164 0004 019B     		ldr	r3, [sp, #4]
 165 0006 DB6A     		ldr	r3, [r3, #44]
 166 0008 019A     		ldr	r2, [sp, #4]
 167 000a D26A     		ldr	r2, [r2, #44]
 168 000c 9268     		ldr	r2, [r2, #8]
 169 000e 42F00202 		orr	r2, r2, #2
 170 0012 9A60     		str	r2, [r3, #8]
 171              		.loc 1 135 0
 172 0014 00BF     		nop
 173              	.L6:
 174              		.loc 1 135 0 is_stmt 0 discriminator 1
 175 0016 019B     		ldr	r3, [sp, #4]
 176 0018 DB6A     		ldr	r3, [r3, #44]
 177 001a 9B68     		ldr	r3, [r3, #8]
 178 001c 03F00203 		and	r3, r3, #2
 179 0020 002B     		cmp	r3, #0
 180 0022 F8D1     		bne	.L6
 181              		.loc 1 142 0 is_stmt 1
 182 0024 02B0     		add	sp, sp, #8
 183              		@ sp needed
 184 0026 7047     		bx	lr
 185              		.cfi_endproc
 186              	.LFE121:
 187              		.size	adc_lld_analog_off, .-adc_lld_analog_off
 188 0028 AFF30080 		.section	.rodata
 188      AFF30080 
 189              		.align	2
 190              	.LC0:
 191 0000 6164635F 		.ascii	"adc_lld_calibrate(), #1\000"
 191      6C6C645F 
 191      63616C69 
 191      62726174 
 191      6528292C 
 192              		.section	.text.adc_lld_calibrate,"ax",%progbits
 193              		.align	2
 194              		.p2align 4,,15
 195              		.thumb
 196              		.thumb_func
 197              		.type	adc_lld_calibrate, %function
 198              	adc_lld_calibrate:
 199              	.LFB122:
 200              		.loc 1 149 0
 201              		.cfi_startproc
 202              		@ args = 0, pretend = 0, frame = 8
 203              		@ frame_needed = 0, uses_anonymous_args = 0
 204 0000 00B5     		push	{lr}
 205              		.cfi_def_cfa_offset 4
 206              		.cfi_offset 14, -4
 207 0002 83B0     		sub	sp, sp, #12
 208              		.cfi_def_cfa_offset 16
 209 0004 0190     		str	r0, [sp, #4]
 210              		.loc 1 151 0
 211 0006 019B     		ldr	r3, [sp, #4]
 212 0008 DB6A     		ldr	r3, [r3, #44]
 213 000a 9B68     		ldr	r3, [r3, #8]
 214 000c B3F1805F 		cmp	r3, #268435456
 215 0010 02D0     		beq	.L8
ARM GAS  /tmp/ccI7Zqab.s 			page 5


 216              		.loc 1 151 0 is_stmt 0 discriminator 1
 217 0012 0A48     		ldr	r0, .L10
 218 0014 FFF7FEFF 		bl	chDbgPanic
 219              	.L8:
 220              		.loc 1 153 0 is_stmt 1
 221 0018 019B     		ldr	r3, [sp, #4]
 222 001a DB6A     		ldr	r3, [r3, #44]
 223 001c 019A     		ldr	r2, [sp, #4]
 224 001e D26A     		ldr	r2, [r2, #44]
 225 0020 9268     		ldr	r2, [r2, #8]
 226 0022 42F00042 		orr	r2, r2, #-2147483648
 227 0026 9A60     		str	r2, [r3, #8]
 228              		.loc 1 154 0
 229 0028 00BF     		nop
 230              	.L9:
 231              		.loc 1 154 0 is_stmt 0 discriminator 1
 232 002a 019B     		ldr	r3, [sp, #4]
 233 002c DB6A     		ldr	r3, [r3, #44]
 234 002e 9B68     		ldr	r3, [r3, #8]
 235 0030 002B     		cmp	r3, #0
 236 0032 FADB     		blt	.L9
 237              		.loc 1 163 0 is_stmt 1
 238 0034 03B0     		add	sp, sp, #12
 239              		@ sp needed
 240 0036 5DF804FB 		ldr	pc, [sp], #4
 241              	.L11:
 242 003a 00BF     		.align	2
 243              	.L10:
 244 003c 00000000 		.word	.LC0
 245              		.cfi_endproc
 246              	.LFE122:
 247              		.size	adc_lld_calibrate, .-adc_lld_calibrate
 248              		.section	.text.adc_lld_stop_adc,"ax",%progbits
 249              		.align	2
 250              		.p2align 4,,15
 251              		.thumb
 252              		.thumb_func
 253              		.type	adc_lld_stop_adc, %function
 254              	adc_lld_stop_adc:
 255              	.LFB123:
 256              		.loc 1 170 0
 257              		.cfi_startproc
 258              		@ args = 0, pretend = 0, frame = 8
 259              		@ frame_needed = 0, uses_anonymous_args = 0
 260              		@ link register save eliminated.
 261 0000 82B0     		sub	sp, sp, #8
 262              		.cfi_def_cfa_offset 8
 263 0002 0190     		str	r0, [sp, #4]
 264              		.loc 1 172 0
 265 0004 019B     		ldr	r3, [sp, #4]
 266 0006 DB6A     		ldr	r3, [r3, #44]
 267 0008 9B68     		ldr	r3, [r3, #8]
 268 000a 03F00403 		and	r3, r3, #4
 269 000e 002B     		cmp	r3, #0
 270 0010 0FD0     		beq	.L12
 271              		.loc 1 173 0
 272 0012 019B     		ldr	r3, [sp, #4]
ARM GAS  /tmp/ccI7Zqab.s 			page 6


 273 0014 DB6A     		ldr	r3, [r3, #44]
 274 0016 019A     		ldr	r2, [sp, #4]
 275 0018 D26A     		ldr	r2, [r2, #44]
 276 001a 9268     		ldr	r2, [r2, #8]
 277 001c 42F01002 		orr	r2, r2, #16
 278 0020 9A60     		str	r2, [r3, #8]
 279              		.loc 1 174 0
 280 0022 00BF     		nop
 281              	.L14:
 282              		.loc 1 174 0 is_stmt 0 discriminator 1
 283 0024 019B     		ldr	r3, [sp, #4]
 284 0026 DB6A     		ldr	r3, [r3, #44]
 285 0028 9B68     		ldr	r3, [r3, #8]
 286 002a 03F01003 		and	r3, r3, #16
 287 002e 002B     		cmp	r3, #0
 288 0030 F8D1     		bne	.L14
 289              	.L12:
 290              		.loc 1 177 0 is_stmt 1
 291 0032 02B0     		add	sp, sp, #8
 292              		@ sp needed
 293 0034 7047     		bx	lr
 294              		.cfi_endproc
 295              	.LFE123:
 296              		.size	adc_lld_stop_adc, .-adc_lld_stop_adc
 297 0036 00BFAFF3 		.section	.text.adc_lld_serve_dma_interrupt,"ax",%progbits
 297      0080AFF3 
 297      0080
 298              		.align	2
 299              		.p2align 4,,15
 300              		.thumb
 301              		.thumb_func
 302              		.type	adc_lld_serve_dma_interrupt, %function
 303              	adc_lld_serve_dma_interrupt:
 304              	.LFB124:
 305              		.loc 1 185 0
 306              		.cfi_startproc
 307              		@ args = 0, pretend = 0, frame = 24
 308              		@ frame_needed = 0, uses_anonymous_args = 0
 309 0000 00B5     		push	{lr}
 310              		.cfi_def_cfa_offset 4
 311              		.cfi_offset 14, -4
 312 0002 87B0     		sub	sp, sp, #28
 313              		.cfi_def_cfa_offset 32
 314 0004 0190     		str	r0, [sp, #4]
 315 0006 0091     		str	r1, [sp]
 316              		.loc 1 188 0
 317 0008 009B     		ldr	r3, [sp]
 318 000a 03F00803 		and	r3, r3, #8
 319 000e 002B     		cmp	r3, #0
 320 0010 36D0     		beq	.L16
 321              		.loc 1 191 0
 322 0012 0198     		ldr	r0, [sp, #4]
 323 0014 FFF7FEFF 		bl	adc_lld_stop_conversion
 324 0018 019B     		ldr	r3, [sp, #4]
 325 001a 1B69     		ldr	r3, [r3, #16]
 326 001c 9B68     		ldr	r3, [r3, #8]
 327 001e 002B     		cmp	r3, #0
ARM GAS  /tmp/ccI7Zqab.s 			page 7


 328 0020 0FD0     		beq	.L17
 329              		.loc 1 191 0 is_stmt 0 discriminator 1
 330 0022 019B     		ldr	r3, [sp, #4]
 331 0024 0522     		movs	r2, #5
 332 0026 1A70     		strb	r2, [r3]
 333 0028 019B     		ldr	r3, [sp, #4]
 334 002a 1B69     		ldr	r3, [r3, #16]
 335 002c 9B68     		ldr	r3, [r3, #8]
 336 002e 0198     		ldr	r0, [sp, #4]
 337 0030 0021     		movs	r1, #0
 338 0032 9847     		blx	r3
 339 0034 019B     		ldr	r3, [sp, #4]
 340 0036 1B78     		ldrb	r3, [r3]	@ zero_extendqisi2
 341 0038 052B     		cmp	r3, #5
 342 003a 02D1     		bne	.L17
 343 003c 019B     		ldr	r3, [sp, #4]
 344 003e 0222     		movs	r2, #2
 345 0040 1A70     		strb	r2, [r3]
 346              	.L17:
 347              		.loc 1 191 0 discriminator 2
 348 0042 019B     		ldr	r3, [sp, #4]
 349 0044 0022     		movs	r2, #0
 350 0046 1A61     		str	r2, [r3, #16]
 351              	.LBB2:
 352 0048 2023     		movs	r3, #32
 353              	@ 191 "/home/dave/r2p-sdk/core/ChibiOS/os/hal/platforms/STM32F30x/adc_lld.c" 1
 354 004a 83F31188 		msr     BASEPRI, r3
 355              	@ 0 "" 2
 356              		.thumb
 357              	.LBE2:
 358 004e FFF7FEFF 		bl	dbg_check_lock_from_isr
 359 0052 019B     		ldr	r3, [sp, #4]
 360 0054 5B69     		ldr	r3, [r3, #20]
 361 0056 002B     		cmp	r3, #0
 362 0058 0CD0     		beq	.L18
 363              	.LBB3:
 364              		.loc 1 191 0 discriminator 1
 365 005a 019B     		ldr	r3, [sp, #4]
 366 005c 5B69     		ldr	r3, [r3, #20]
 367 005e 0593     		str	r3, [sp, #20]
 368 0060 019B     		ldr	r3, [sp, #4]
 369 0062 0022     		movs	r2, #0
 370 0064 5A61     		str	r2, [r3, #20]
 371 0066 059B     		ldr	r3, [sp, #20]
 372 0068 4FF0FF32 		mov	r2, #-1
 373 006c 9A62     		str	r2, [r3, #40]
 374 006e 0598     		ldr	r0, [sp, #20]
 375 0070 FFF7FEFF 		bl	chSchReadyI
 376              	.L18:
 377              	.LBE3:
 378              		.loc 1 191 0 discriminator 2
 379 0074 FFF7FEFF 		bl	dbg_check_unlock_from_isr
 380              	.LBB4:
 381 0078 0023     		movs	r3, #0
 382              	@ 191 "/home/dave/r2p-sdk/core/ChibiOS/os/hal/platforms/STM32F30x/adc_lld.c" 1
 383 007a 83F31188 		msr     BASEPRI, r3
 384              	@ 0 "" 2
ARM GAS  /tmp/ccI7Zqab.s 			page 8


 385              		.thumb
 386              	.LBE4:
 387 007e 8DE0     		b	.L15
 388              	.L16:
 389              		.loc 1 196 0 is_stmt 1
 390 0080 019B     		ldr	r3, [sp, #4]
 391 0082 1B69     		ldr	r3, [r3, #16]
 392 0084 002B     		cmp	r3, #0
 393 0086 00F08980 		beq	.L15
 394              		.loc 1 197 0
 395 008a 009B     		ldr	r3, [sp]
 396 008c 03F00203 		and	r3, r3, #2
 397 0090 002B     		cmp	r3, #0
 398 0092 6FD0     		beq	.L20
 399              		.loc 1 199 0
 400 0094 019B     		ldr	r3, [sp, #4]
 401 0096 1B69     		ldr	r3, [r3, #16]
 402 0098 1B78     		ldrb	r3, [r3]	@ zero_extendqisi2
 403 009a 002B     		cmp	r3, #0
 404 009c 2AD0     		beq	.L21
 405              		.loc 1 199 0 is_stmt 0 discriminator 1
 406 009e 019B     		ldr	r3, [sp, #4]
 407 00a0 1B69     		ldr	r3, [r3, #16]
 408 00a2 5B68     		ldr	r3, [r3, #4]
 409 00a4 002B     		cmp	r3, #0
 410 00a6 79D0     		beq	.L15
 411 00a8 019B     		ldr	r3, [sp, #4]
 412 00aa DB68     		ldr	r3, [r3, #12]
 413 00ac 012B     		cmp	r3, #1
 414 00ae 17D9     		bls	.L23
 415              	.LBB5:
 416 00b0 019B     		ldr	r3, [sp, #4]
 417 00b2 DB68     		ldr	r3, [r3, #12]
 418 00b4 5B08     		lsrs	r3, r3, #1
 419 00b6 0493     		str	r3, [sp, #16]
 420 00b8 019B     		ldr	r3, [sp, #4]
 421 00ba 1B69     		ldr	r3, [r3, #16]
 422 00bc 5B88     		ldrh	r3, [r3, #2]
 423 00be 049A     		ldr	r2, [sp, #16]
 424 00c0 02FB03F3 		mul	r3, r2, r3
 425 00c4 0393     		str	r3, [sp, #12]
 426 00c6 019B     		ldr	r3, [sp, #4]
 427 00c8 1B69     		ldr	r3, [r3, #16]
 428 00ca 5B68     		ldr	r3, [r3, #4]
 429 00cc 019A     		ldr	r2, [sp, #4]
 430 00ce 9168     		ldr	r1, [r2, #8]
 431 00d0 039A     		ldr	r2, [sp, #12]
 432 00d2 5200     		lsls	r2, r2, #1
 433 00d4 0A44     		add	r2, r2, r1
 434 00d6 0198     		ldr	r0, [sp, #4]
 435 00d8 1146     		mov	r1, r2
 436 00da 049A     		ldr	r2, [sp, #16]
 437 00dc 9847     		blx	r3
 438              	.LBE5:
 439 00de 5DE0     		b	.L15
 440              	.L23:
 441              		.loc 1 199 0 discriminator 2
ARM GAS  /tmp/ccI7Zqab.s 			page 9


 442 00e0 019B     		ldr	r3, [sp, #4]
 443 00e2 1B69     		ldr	r3, [r3, #16]
 444 00e4 5B68     		ldr	r3, [r3, #4]
 445 00e6 019A     		ldr	r2, [sp, #4]
 446 00e8 9168     		ldr	r1, [r2, #8]
 447 00ea 019A     		ldr	r2, [sp, #4]
 448 00ec D268     		ldr	r2, [r2, #12]
 449 00ee 0198     		ldr	r0, [sp, #4]
 450 00f0 9847     		blx	r3
 451 00f2 53E0     		b	.L15
 452              	.L21:
 453 00f4 0198     		ldr	r0, [sp, #4]
 454 00f6 FFF7FEFF 		bl	adc_lld_stop_conversion
 455 00fa 019B     		ldr	r3, [sp, #4]
 456 00fc 1B69     		ldr	r3, [r3, #16]
 457 00fe 5B68     		ldr	r3, [r3, #4]
 458 0100 002B     		cmp	r3, #0
 459 0102 16D0     		beq	.L25
 460              		.loc 1 199 0 discriminator 1
 461 0104 019B     		ldr	r3, [sp, #4]
 462 0106 0422     		movs	r2, #4
 463 0108 1A70     		strb	r2, [r3]
 464 010a 019B     		ldr	r3, [sp, #4]
 465 010c 1B69     		ldr	r3, [r3, #16]
 466 010e 5B68     		ldr	r3, [r3, #4]
 467 0110 019A     		ldr	r2, [sp, #4]
 468 0112 9168     		ldr	r1, [r2, #8]
 469 0114 019A     		ldr	r2, [sp, #4]
 470 0116 D268     		ldr	r2, [r2, #12]
 471 0118 0198     		ldr	r0, [sp, #4]
 472 011a 9847     		blx	r3
 473 011c 019B     		ldr	r3, [sp, #4]
 474 011e 1B78     		ldrb	r3, [r3]	@ zero_extendqisi2
 475 0120 042B     		cmp	r3, #4
 476 0122 0CD1     		bne	.L27
 477 0124 019B     		ldr	r3, [sp, #4]
 478 0126 0222     		movs	r2, #2
 479 0128 1A70     		strb	r2, [r3]
 480 012a 019B     		ldr	r3, [sp, #4]
 481 012c 0022     		movs	r2, #0
 482 012e 1A61     		str	r2, [r3, #16]
 483 0130 05E0     		b	.L27
 484              	.L25:
 485              		.loc 1 199 0 discriminator 2
 486 0132 019B     		ldr	r3, [sp, #4]
 487 0134 0222     		movs	r2, #2
 488 0136 1A70     		strb	r2, [r3]
 489 0138 019B     		ldr	r3, [sp, #4]
 490 013a 0022     		movs	r2, #0
 491 013c 1A61     		str	r2, [r3, #16]
 492              	.L27:
 493              	.LBB6:
 494              		.loc 1 199 0 discriminator 1
 495 013e 2023     		movs	r3, #32
 496              	@ 199 "/home/dave/r2p-sdk/core/ChibiOS/os/hal/platforms/STM32F30x/adc_lld.c" 1
 497 0140 83F31188 		msr     BASEPRI, r3
 498              	@ 0 "" 2
ARM GAS  /tmp/ccI7Zqab.s 			page 10


 499              		.thumb
 500              	.LBE6:
 501 0144 FFF7FEFF 		bl	dbg_check_lock_from_isr
 502 0148 019B     		ldr	r3, [sp, #4]
 503 014a 5B69     		ldr	r3, [r3, #20]
 504 014c 002B     		cmp	r3, #0
 505 014e 0BD0     		beq	.L28
 506              	.LBB7:
 507 0150 019B     		ldr	r3, [sp, #4]
 508 0152 5B69     		ldr	r3, [r3, #20]
 509 0154 0293     		str	r3, [sp, #8]
 510 0156 019B     		ldr	r3, [sp, #4]
 511 0158 0022     		movs	r2, #0
 512 015a 5A61     		str	r2, [r3, #20]
 513 015c 029B     		ldr	r3, [sp, #8]
 514 015e 0022     		movs	r2, #0
 515 0160 9A62     		str	r2, [r3, #40]
 516 0162 0298     		ldr	r0, [sp, #8]
 517 0164 FFF7FEFF 		bl	chSchReadyI
 518              	.L28:
 519              	.LBE7:
 520              		.loc 1 199 0 discriminator 2
 521 0168 FFF7FEFF 		bl	dbg_check_unlock_from_isr
 522              	.LBB8:
 523 016c 0023     		movs	r3, #0
 524              	@ 199 "/home/dave/r2p-sdk/core/ChibiOS/os/hal/platforms/STM32F30x/adc_lld.c" 1
 525 016e 83F31188 		msr     BASEPRI, r3
 526              	@ 0 "" 2
 527              		.thumb
 528 0172 13E0     		b	.L15
 529              	.L20:
 530              	.LBE8:
 531              		.loc 1 201 0 is_stmt 1
 532 0174 009B     		ldr	r3, [sp]
 533 0176 03F00403 		and	r3, r3, #4
 534 017a 002B     		cmp	r3, #0
 535 017c 0ED0     		beq	.L15
 536              		.loc 1 203 0
 537 017e 019B     		ldr	r3, [sp, #4]
 538 0180 1B69     		ldr	r3, [r3, #16]
 539 0182 5B68     		ldr	r3, [r3, #4]
 540 0184 002B     		cmp	r3, #0
 541 0186 09D0     		beq	.L15
 542              		.loc 1 203 0 is_stmt 0 discriminator 1
 543 0188 019B     		ldr	r3, [sp, #4]
 544 018a 1B69     		ldr	r3, [r3, #16]
 545 018c 5B68     		ldr	r3, [r3, #4]
 546 018e 019A     		ldr	r2, [sp, #4]
 547 0190 9168     		ldr	r1, [r2, #8]
 548 0192 019A     		ldr	r2, [sp, #4]
 549 0194 D268     		ldr	r2, [r2, #12]
 550 0196 5208     		lsrs	r2, r2, #1
 551 0198 0198     		ldr	r0, [sp, #4]
 552 019a 9847     		blx	r3
 553              	.L15:
 554              		.loc 1 207 0 is_stmt 1
 555 019c 07B0     		add	sp, sp, #28
ARM GAS  /tmp/ccI7Zqab.s 			page 11


 556              		@ sp needed
 557 019e 5DF804FB 		ldr	pc, [sp], #4
 558              		.cfi_endproc
 559              	.LFE124:
 560              		.size	adc_lld_serve_dma_interrupt, .-adc_lld_serve_dma_interrupt
 561 01a2 00BFAFF3 		.section	.text.adc_lld_serve_interrupt,"ax",%progbits
 561      0080AFF3 
 561      0080AFF3 
 561      0080
 562              		.align	2
 563              		.p2align 4,,15
 564              		.thumb
 565              		.thumb_func
 566              		.type	adc_lld_serve_interrupt, %function
 567              	adc_lld_serve_interrupt:
 568              	.LFB125:
 569              		.loc 1 215 0
 570              		.cfi_startproc
 571              		@ args = 0, pretend = 0, frame = 24
 572              		@ frame_needed = 0, uses_anonymous_args = 0
 573 0000 00B5     		push	{lr}
 574              		.cfi_def_cfa_offset 4
 575              		.cfi_offset 14, -4
 576 0002 87B0     		sub	sp, sp, #28
 577              		.cfi_def_cfa_offset 32
 578 0004 0190     		str	r0, [sp, #4]
 579 0006 0091     		str	r1, [sp]
 580              		.loc 1 219 0
 581 0008 019B     		ldr	r3, [sp, #4]
 582 000a 1B69     		ldr	r3, [r3, #16]
 583 000c 002B     		cmp	r3, #0
 584 000e 00F0F280 		beq	.L29
 585              		.loc 1 222 0
 586 0012 009B     		ldr	r3, [sp]
 587 0014 03F01003 		and	r3, r3, #16
 588 0018 002B     		cmp	r3, #0
 589 001a 3BD0     		beq	.L31
 590              		.loc 1 223 0 discriminator 1
 591 001c 019B     		ldr	r3, [sp, #4]
 592 001e 1B6B     		ldr	r3, [r3, #48]
 593 0020 1B68     		ldr	r3, [r3]
 594 0022 5B68     		ldr	r3, [r3, #4]
 595              		.loc 1 222 0 discriminator 1
 596 0024 002B     		cmp	r3, #0
 597 0026 35D0     		beq	.L31
 598              		.loc 1 226 0
 599 0028 0198     		ldr	r0, [sp, #4]
 600 002a FFF7FEFF 		bl	adc_lld_stop_conversion
 601 002e 019B     		ldr	r3, [sp, #4]
 602 0030 1B69     		ldr	r3, [r3, #16]
 603 0032 9B68     		ldr	r3, [r3, #8]
 604 0034 002B     		cmp	r3, #0
 605 0036 0FD0     		beq	.L32
 606              		.loc 1 226 0 is_stmt 0 discriminator 1
 607 0038 019B     		ldr	r3, [sp, #4]
 608 003a 0522     		movs	r2, #5
 609 003c 1A70     		strb	r2, [r3]
ARM GAS  /tmp/ccI7Zqab.s 			page 12


 610 003e 019B     		ldr	r3, [sp, #4]
 611 0040 1B69     		ldr	r3, [r3, #16]
 612 0042 9B68     		ldr	r3, [r3, #8]
 613 0044 0198     		ldr	r0, [sp, #4]
 614 0046 0121     		movs	r1, #1
 615 0048 9847     		blx	r3
 616 004a 019B     		ldr	r3, [sp, #4]
 617 004c 1B78     		ldrb	r3, [r3]	@ zero_extendqisi2
 618 004e 052B     		cmp	r3, #5
 619 0050 02D1     		bne	.L32
 620 0052 019B     		ldr	r3, [sp, #4]
 621 0054 0222     		movs	r2, #2
 622 0056 1A70     		strb	r2, [r3]
 623              	.L32:
 624              		.loc 1 226 0 discriminator 2
 625 0058 019B     		ldr	r3, [sp, #4]
 626 005a 0022     		movs	r2, #0
 627 005c 1A61     		str	r2, [r3, #16]
 628              	.LBB9:
 629 005e 2023     		movs	r3, #32
 630              	@ 226 "/home/dave/r2p-sdk/core/ChibiOS/os/hal/platforms/STM32F30x/adc_lld.c" 1
 631 0060 83F31188 		msr     BASEPRI, r3
 632              	@ 0 "" 2
 633              		.thumb
 634              	.LBE9:
 635 0064 FFF7FEFF 		bl	dbg_check_lock_from_isr
 636 0068 019B     		ldr	r3, [sp, #4]
 637 006a 5B69     		ldr	r3, [r3, #20]
 638 006c 002B     		cmp	r3, #0
 639 006e 0CD0     		beq	.L33
 640              	.LBB10:
 641              		.loc 1 226 0 discriminator 1
 642 0070 019B     		ldr	r3, [sp, #4]
 643 0072 5B69     		ldr	r3, [r3, #20]
 644 0074 0593     		str	r3, [sp, #20]
 645 0076 019B     		ldr	r3, [sp, #4]
 646 0078 0022     		movs	r2, #0
 647 007a 5A61     		str	r2, [r3, #20]
 648 007c 059B     		ldr	r3, [sp, #20]
 649 007e 4FF0FF32 		mov	r2, #-1
 650 0082 9A62     		str	r2, [r3, #40]
 651 0084 0598     		ldr	r0, [sp, #20]
 652 0086 FFF7FEFF 		bl	chSchReadyI
 653              	.L33:
 654              	.LBE10:
 655              		.loc 1 226 0 discriminator 2
 656 008a FFF7FEFF 		bl	dbg_check_unlock_from_isr
 657              	.LBB11:
 658 008e 0023     		movs	r3, #0
 659              	@ 226 "/home/dave/r2p-sdk/core/ChibiOS/os/hal/platforms/STM32F30x/adc_lld.c" 1
 660 0090 83F31188 		msr     BASEPRI, r3
 661              	@ 0 "" 2
 662              		.thumb
 663              	.L31:
 664              	.LBE11:
 665              		.loc 1 228 0 is_stmt 1
 666 0094 009B     		ldr	r3, [sp]
ARM GAS  /tmp/ccI7Zqab.s 			page 13


 667 0096 03F08003 		and	r3, r3, #128
 668 009a 002B     		cmp	r3, #0
 669 009c 35D0     		beq	.L34
 670              		.loc 1 230 0
 671 009e 0198     		ldr	r0, [sp, #4]
 672 00a0 FFF7FEFF 		bl	adc_lld_stop_conversion
 673 00a4 019B     		ldr	r3, [sp, #4]
 674 00a6 1B69     		ldr	r3, [r3, #16]
 675 00a8 9B68     		ldr	r3, [r3, #8]
 676 00aa 002B     		cmp	r3, #0
 677 00ac 0FD0     		beq	.L35
 678              		.loc 1 230 0 is_stmt 0 discriminator 1
 679 00ae 019B     		ldr	r3, [sp, #4]
 680 00b0 0522     		movs	r2, #5
 681 00b2 1A70     		strb	r2, [r3]
 682 00b4 019B     		ldr	r3, [sp, #4]
 683 00b6 1B69     		ldr	r3, [r3, #16]
 684 00b8 9B68     		ldr	r3, [r3, #8]
 685 00ba 0198     		ldr	r0, [sp, #4]
 686 00bc 0221     		movs	r1, #2
 687 00be 9847     		blx	r3
 688 00c0 019B     		ldr	r3, [sp, #4]
 689 00c2 1B78     		ldrb	r3, [r3]	@ zero_extendqisi2
 690 00c4 052B     		cmp	r3, #5
 691 00c6 02D1     		bne	.L35
 692 00c8 019B     		ldr	r3, [sp, #4]
 693 00ca 0222     		movs	r2, #2
 694 00cc 1A70     		strb	r2, [r3]
 695              	.L35:
 696              		.loc 1 230 0 discriminator 2
 697 00ce 019B     		ldr	r3, [sp, #4]
 698 00d0 0022     		movs	r2, #0
 699 00d2 1A61     		str	r2, [r3, #16]
 700              	.LBB12:
 701 00d4 2023     		movs	r3, #32
 702              	@ 230 "/home/dave/r2p-sdk/core/ChibiOS/os/hal/platforms/STM32F30x/adc_lld.c" 1
 703 00d6 83F31188 		msr     BASEPRI, r3
 704              	@ 0 "" 2
 705              		.thumb
 706              	.LBE12:
 707 00da FFF7FEFF 		bl	dbg_check_lock_from_isr
 708 00de 019B     		ldr	r3, [sp, #4]
 709 00e0 5B69     		ldr	r3, [r3, #20]
 710 00e2 002B     		cmp	r3, #0
 711 00e4 0CD0     		beq	.L36
 712              	.LBB13:
 713              		.loc 1 230 0 discriminator 1
 714 00e6 019B     		ldr	r3, [sp, #4]
 715 00e8 5B69     		ldr	r3, [r3, #20]
 716 00ea 0493     		str	r3, [sp, #16]
 717 00ec 019B     		ldr	r3, [sp, #4]
 718 00ee 0022     		movs	r2, #0
 719 00f0 5A61     		str	r2, [r3, #20]
 720 00f2 049B     		ldr	r3, [sp, #16]
 721 00f4 4FF0FF32 		mov	r2, #-1
 722 00f8 9A62     		str	r2, [r3, #40]
 723 00fa 0498     		ldr	r0, [sp, #16]
ARM GAS  /tmp/ccI7Zqab.s 			page 14


 724 00fc FFF7FEFF 		bl	chSchReadyI
 725              	.L36:
 726              	.LBE13:
 727              		.loc 1 230 0 discriminator 2
 728 0100 FFF7FEFF 		bl	dbg_check_unlock_from_isr
 729              	.LBB14:
 730 0104 0023     		movs	r3, #0
 731              	@ 230 "/home/dave/r2p-sdk/core/ChibiOS/os/hal/platforms/STM32F30x/adc_lld.c" 1
 732 0106 83F31188 		msr     BASEPRI, r3
 733              	@ 0 "" 2
 734              		.thumb
 735              	.L34:
 736              	.LBE14:
 737              		.loc 1 232 0 is_stmt 1
 738 010a 009B     		ldr	r3, [sp]
 739 010c 03F48073 		and	r3, r3, #256
 740 0110 002B     		cmp	r3, #0
 741 0112 35D0     		beq	.L37
 742              		.loc 1 234 0
 743 0114 0198     		ldr	r0, [sp, #4]
 744 0116 FFF7FEFF 		bl	adc_lld_stop_conversion
 745 011a 019B     		ldr	r3, [sp, #4]
 746 011c 1B69     		ldr	r3, [r3, #16]
 747 011e 9B68     		ldr	r3, [r3, #8]
 748 0120 002B     		cmp	r3, #0
 749 0122 0FD0     		beq	.L38
 750              		.loc 1 234 0 is_stmt 0 discriminator 1
 751 0124 019B     		ldr	r3, [sp, #4]
 752 0126 0522     		movs	r2, #5
 753 0128 1A70     		strb	r2, [r3]
 754 012a 019B     		ldr	r3, [sp, #4]
 755 012c 1B69     		ldr	r3, [r3, #16]
 756 012e 9B68     		ldr	r3, [r3, #8]
 757 0130 0198     		ldr	r0, [sp, #4]
 758 0132 0321     		movs	r1, #3
 759 0134 9847     		blx	r3
 760 0136 019B     		ldr	r3, [sp, #4]
 761 0138 1B78     		ldrb	r3, [r3]	@ zero_extendqisi2
 762 013a 052B     		cmp	r3, #5
 763 013c 02D1     		bne	.L38
 764 013e 019B     		ldr	r3, [sp, #4]
 765 0140 0222     		movs	r2, #2
 766 0142 1A70     		strb	r2, [r3]
 767              	.L38:
 768              		.loc 1 234 0 discriminator 2
 769 0144 019B     		ldr	r3, [sp, #4]
 770 0146 0022     		movs	r2, #0
 771 0148 1A61     		str	r2, [r3, #16]
 772              	.LBB15:
 773 014a 2023     		movs	r3, #32
 774              	@ 234 "/home/dave/r2p-sdk/core/ChibiOS/os/hal/platforms/STM32F30x/adc_lld.c" 1
 775 014c 83F31188 		msr     BASEPRI, r3
 776              	@ 0 "" 2
 777              		.thumb
 778              	.LBE15:
 779 0150 FFF7FEFF 		bl	dbg_check_lock_from_isr
 780 0154 019B     		ldr	r3, [sp, #4]
ARM GAS  /tmp/ccI7Zqab.s 			page 15


 781 0156 5B69     		ldr	r3, [r3, #20]
 782 0158 002B     		cmp	r3, #0
 783 015a 0CD0     		beq	.L39
 784              	.LBB16:
 785              		.loc 1 234 0 discriminator 1
 786 015c 019B     		ldr	r3, [sp, #4]
 787 015e 5B69     		ldr	r3, [r3, #20]
 788 0160 0393     		str	r3, [sp, #12]
 789 0162 019B     		ldr	r3, [sp, #4]
 790 0164 0022     		movs	r2, #0
 791 0166 5A61     		str	r2, [r3, #20]
 792 0168 039B     		ldr	r3, [sp, #12]
 793 016a 4FF0FF32 		mov	r2, #-1
 794 016e 9A62     		str	r2, [r3, #40]
 795 0170 0398     		ldr	r0, [sp, #12]
 796 0172 FFF7FEFF 		bl	chSchReadyI
 797              	.L39:
 798              	.LBE16:
 799              		.loc 1 234 0 discriminator 2
 800 0176 FFF7FEFF 		bl	dbg_check_unlock_from_isr
 801              	.LBB17:
 802 017a 0023     		movs	r3, #0
 803              	@ 234 "/home/dave/r2p-sdk/core/ChibiOS/os/hal/platforms/STM32F30x/adc_lld.c" 1
 804 017c 83F31188 		msr     BASEPRI, r3
 805              	@ 0 "" 2
 806              		.thumb
 807              	.L37:
 808              	.LBE17:
 809              		.loc 1 236 0 is_stmt 1
 810 0180 009B     		ldr	r3, [sp]
 811 0182 03F40073 		and	r3, r3, #512
 812 0186 002B     		cmp	r3, #0
 813 0188 35D0     		beq	.L29
 814              		.loc 1 238 0
 815 018a 0198     		ldr	r0, [sp, #4]
 816 018c FFF7FEFF 		bl	adc_lld_stop_conversion
 817 0190 019B     		ldr	r3, [sp, #4]
 818 0192 1B69     		ldr	r3, [r3, #16]
 819 0194 9B68     		ldr	r3, [r3, #8]
 820 0196 002B     		cmp	r3, #0
 821 0198 0FD0     		beq	.L40
 822              		.loc 1 238 0 is_stmt 0 discriminator 1
 823 019a 019B     		ldr	r3, [sp, #4]
 824 019c 0522     		movs	r2, #5
 825 019e 1A70     		strb	r2, [r3]
 826 01a0 019B     		ldr	r3, [sp, #4]
 827 01a2 1B69     		ldr	r3, [r3, #16]
 828 01a4 9B68     		ldr	r3, [r3, #8]
 829 01a6 0198     		ldr	r0, [sp, #4]
 830 01a8 0421     		movs	r1, #4
 831 01aa 9847     		blx	r3
 832 01ac 019B     		ldr	r3, [sp, #4]
 833 01ae 1B78     		ldrb	r3, [r3]	@ zero_extendqisi2
 834 01b0 052B     		cmp	r3, #5
 835 01b2 02D1     		bne	.L40
 836 01b4 019B     		ldr	r3, [sp, #4]
 837 01b6 0222     		movs	r2, #2
ARM GAS  /tmp/ccI7Zqab.s 			page 16


 838 01b8 1A70     		strb	r2, [r3]
 839              	.L40:
 840              		.loc 1 238 0 discriminator 2
 841 01ba 019B     		ldr	r3, [sp, #4]
 842 01bc 0022     		movs	r2, #0
 843 01be 1A61     		str	r2, [r3, #16]
 844              	.LBB18:
 845 01c0 2023     		movs	r3, #32
 846              	@ 238 "/home/dave/r2p-sdk/core/ChibiOS/os/hal/platforms/STM32F30x/adc_lld.c" 1
 847 01c2 83F31188 		msr     BASEPRI, r3
 848              	@ 0 "" 2
 849              		.thumb
 850              	.LBE18:
 851 01c6 FFF7FEFF 		bl	dbg_check_lock_from_isr
 852 01ca 019B     		ldr	r3, [sp, #4]
 853 01cc 5B69     		ldr	r3, [r3, #20]
 854 01ce 002B     		cmp	r3, #0
 855 01d0 0CD0     		beq	.L41
 856              	.LBB19:
 857              		.loc 1 238 0 discriminator 1
 858 01d2 019B     		ldr	r3, [sp, #4]
 859 01d4 5B69     		ldr	r3, [r3, #20]
 860 01d6 0293     		str	r3, [sp, #8]
 861 01d8 019B     		ldr	r3, [sp, #4]
 862 01da 0022     		movs	r2, #0
 863 01dc 5A61     		str	r2, [r3, #20]
 864 01de 029B     		ldr	r3, [sp, #8]
 865 01e0 4FF0FF32 		mov	r2, #-1
 866 01e4 9A62     		str	r2, [r3, #40]
 867 01e6 0298     		ldr	r0, [sp, #8]
 868 01e8 FFF7FEFF 		bl	chSchReadyI
 869              	.L41:
 870              	.LBE19:
 871              		.loc 1 238 0 discriminator 2
 872 01ec FFF7FEFF 		bl	dbg_check_unlock_from_isr
 873              	.LBB20:
 874 01f0 0023     		movs	r3, #0
 875              	@ 238 "/home/dave/r2p-sdk/core/ChibiOS/os/hal/platforms/STM32F30x/adc_lld.c" 1
 876 01f2 83F31188 		msr     BASEPRI, r3
 877              	@ 0 "" 2
 878              		.thumb
 879              	.L29:
 880              	.LBE20:
 881              		.loc 1 241 0 is_stmt 1
 882 01f6 07B0     		add	sp, sp, #28
 883              		@ sp needed
 884 01f8 5DF804FB 		ldr	pc, [sp], #4
 885              		.cfi_endproc
 886              	.LFE125:
 887              		.size	adc_lld_serve_interrupt, .-adc_lld_serve_interrupt
 888 01fc AFF30080 		.section	.text.Vector88,"ax",%progbits
 889              		.align	2
 890              		.p2align 4,,15
 891              		.global	Vector88
 892              		.thumb
 893              		.thumb_func
 894              		.type	Vector88, %function
ARM GAS  /tmp/ccI7Zqab.s 			page 17


 895              	Vector88:
 896              	.LFB126:
 897              		.loc 1 253 0
 898              		.cfi_startproc
 899              		@ args = 0, pretend = 0, frame = 8
 900              		@ frame_needed = 0, uses_anonymous_args = 0
 901 0000 00B5     		push	{lr}
 902              		.cfi_def_cfa_offset 4
 903              		.cfi_offset 14, -4
 904 0002 83B0     		sub	sp, sp, #12
 905              		.cfi_def_cfa_offset 16
 906              		.loc 1 256 0
 907 0004 FFF7FEFF 		bl	dbg_check_enter_isr
 908              		.loc 1 264 0
 909 0008 4FF0A043 		mov	r3, #1342177280
 910 000c 1B68     		ldr	r3, [r3]
 911 000e 0193     		str	r3, [sp, #4]
 912              		.loc 1 265 0
 913 0010 4FF0A043 		mov	r3, #1342177280
 914 0014 019A     		ldr	r2, [sp, #4]
 915 0016 1A60     		str	r2, [r3]
 916              		.loc 1 268 0
 917 0018 0548     		ldr	r0, .L43
 918 001a 0199     		ldr	r1, [sp, #4]
 919 001c FFF7FEFF 		bl	adc_lld_serve_interrupt
 920              		.loc 1 270 0
 921 0020 FFF7FEFF 		bl	dbg_check_leave_isr
 922 0024 FFF7FEFF 		bl	_port_irq_epilogue
 923              		.loc 1 271 0
 924 0028 03B0     		add	sp, sp, #12
 925              		@ sp needed
 926 002a 5DF804FB 		ldr	pc, [sp], #4
 927              	.L44:
 928 002e 00BF     		.align	2
 929              	.L43:
 930 0030 00000000 		.word	ADCD1
 931              		.cfi_endproc
 932              	.LFE126:
 933              		.size	Vector88, .-Vector88
 934 0034 AFF30080 		.section	.text.adc_lld_init,"ax",%progbits
 934      AFF30080 
 934      AFF30080 
 935              		.align	2
 936              		.p2align 4,,15
 937              		.global	adc_lld_init
 938              		.thumb
 939              		.thumb_func
 940              		.type	adc_lld_init, %function
 941              	adc_lld_init:
 942              	.LFB127:
 943              		.loc 1 323 0
 944              		.cfi_startproc
 945              		@ args = 0, pretend = 0, frame = 0
 946              		@ frame_needed = 0, uses_anonymous_args = 0
 947 0000 08B5     		push	{r3, lr}
 948              		.cfi_def_cfa_offset 8
 949              		.cfi_offset 3, -8
ARM GAS  /tmp/ccI7Zqab.s 			page 18


 950              		.cfi_offset 14, -4
 951              		.loc 1 327 0
 952 0002 0B48     		ldr	r0, .L46
 953 0004 FFF7FEFF 		bl	adcObjectInit
 954              		.loc 1 328 0
 955 0008 094B     		ldr	r3, .L46
 956 000a 0A4A     		ldr	r2, .L46+4
 957 000c 9A62     		str	r2, [r3, #40]
 958              		.loc 1 329 0
 959 000e 084B     		ldr	r3, .L46
 960 0010 4FF0A042 		mov	r2, #1342177280
 961 0014 DA62     		str	r2, [r3, #44]
 962              		.loc 1 333 0
 963 0016 064B     		ldr	r3, .L46
 964 0018 074A     		ldr	r2, .L46+8
 965 001a 1A63     		str	r2, [r3, #48]
 966              		.loc 1 334 0
 967 001c 044B     		ldr	r3, .L46
 968 001e 42F28A52 		movw	r2, #9610
 969 0022 5A63     		str	r2, [r3, #52]
 970              		.loc 1 339 0
 971 0024 1220     		movs	r0, #18
 972 0026 5021     		movs	r1, #80
 973 0028 FFF7FEFF 		bl	nvicEnableVector
 974              		.loc 1 364 0
 975 002c 08BD     		pop	{r3, pc}
 976              	.L47:
 977 002e 00BF     		.align	2
 978              	.L46:
 979 0030 00000000 		.word	ADCD1
 980 0034 00030050 		.word	1342178048
 981 0038 00000000 		.word	_stm32_dma_streams
 982              		.cfi_endproc
 983              	.LFE127:
 984              		.size	adc_lld_init, .-adc_lld_init
 985 003c AFF30080 		.section	.rodata
 986              		.align	2
 987              	.LC1:
 988 0018 6164635F 		.ascii	"adc_lld_start(), #1\000"
 988      6C6C645F 
 988      73746172 
 988      7428292C 
 988      20233100 
 989              		.section	.text.adc_lld_start,"ax",%progbits
 990              		.align	2
 991              		.p2align 4,,15
 992              		.global	adc_lld_start
 993              		.thumb
 994              		.thumb_func
 995              		.type	adc_lld_start, %function
 996              	adc_lld_start:
 997              	.LFB128:
 998              		.loc 1 373 0
 999              		.cfi_startproc
 1000              		@ args = 0, pretend = 0, frame = 16
 1001              		@ frame_needed = 0, uses_anonymous_args = 0
 1002 0000 00B5     		push	{lr}
ARM GAS  /tmp/ccI7Zqab.s 			page 19


 1003              		.cfi_def_cfa_offset 4
 1004              		.cfi_offset 14, -4
 1005 0002 85B0     		sub	sp, sp, #20
 1006              		.cfi_def_cfa_offset 24
 1007 0004 0190     		str	r0, [sp, #4]
 1008              		.loc 1 376 0
 1009 0006 019B     		ldr	r3, [sp, #4]
 1010 0008 1B78     		ldrb	r3, [r3]	@ zero_extendqisi2
 1011 000a 012B     		cmp	r3, #1
 1012 000c 30D1     		bne	.L48
 1013              		.loc 1 378 0
 1014 000e 019A     		ldr	r2, [sp, #4]
 1015 0010 194B     		ldr	r3, .L52
 1016 0012 9A42     		cmp	r2, r3
 1017 0014 17D1     		bne	.L50
 1018              	.LBB21:
 1019              		.loc 1 380 0
 1020 0016 019B     		ldr	r3, [sp, #4]
 1021 0018 1B6B     		ldr	r3, [r3, #48]
 1022 001a 1846     		mov	r0, r3
 1023 001c 0521     		movs	r1, #5
 1024 001e 174A     		ldr	r2, .L52+4
 1025 0020 019B     		ldr	r3, [sp, #4]
 1026 0022 FFF7FEFF 		bl	dmaStreamAllocate
 1027 0026 0346     		mov	r3, r0
 1028 0028 8DF80F30 		strb	r3, [sp, #15]
 1029              		.loc 1 384 0
 1030 002c 9DF80F30 		ldrb	r3, [sp, #15]	@ zero_extendqisi2
 1031 0030 002B     		cmp	r3, #0
 1032 0032 02D0     		beq	.L51
 1033              		.loc 1 384 0 is_stmt 0 discriminator 1
 1034 0034 1248     		ldr	r0, .L52+8
 1035 0036 FFF7FEFF 		bl	chDbgPanic
 1036              	.L51:
 1037              		.loc 1 385 0 is_stmt 1
 1038 003a 124B     		ldr	r3, .L52+12
 1039 003c 114A     		ldr	r2, .L52+12
 1040 003e 5269     		ldr	r2, [r2, #20]
 1041 0040 42F08052 		orr	r2, r2, #268435456
 1042 0044 5A61     		str	r2, [r3, #20]
 1043              	.L50:
 1044              	.LBE21:
 1045              		.loc 1 405 0
 1046 0046 019B     		ldr	r3, [sp, #4]
 1047 0048 1B6B     		ldr	r3, [r3, #48]
 1048 004a 1B68     		ldr	r3, [r3]
 1049 004c 019A     		ldr	r2, [sp, #4]
 1050 004e D26A     		ldr	r2, [r2, #44]
 1051 0050 4032     		adds	r2, r2, #64
 1052 0052 9A60     		str	r2, [r3, #8]
 1053              		.loc 1 409 0
 1054 0054 019B     		ldr	r3, [sp, #4]
 1055 0056 9B6A     		ldr	r3, [r3, #40]
 1056 0058 4FF48032 		mov	r2, #65536
 1057 005c 9A60     		str	r2, [r3, #8]
 1058              		.loc 1 412 0
 1059 005e 0198     		ldr	r0, [sp, #4]
ARM GAS  /tmp/ccI7Zqab.s 			page 20


 1060 0060 FFF7FEFF 		bl	adc_lld_vreg_on
 1061              		.loc 1 413 0
 1062 0064 0198     		ldr	r0, [sp, #4]
 1063 0066 FFF7FEFF 		bl	adc_lld_calibrate
 1064              		.loc 1 416 0
 1065 006a 0198     		ldr	r0, [sp, #4]
 1066 006c FFF7FEFF 		bl	adc_lld_analog_on
 1067              	.L48:
 1068              		.loc 1 418 0
 1069 0070 05B0     		add	sp, sp, #20
 1070              		@ sp needed
 1071 0072 5DF804FB 		ldr	pc, [sp], #4
 1072              	.L53:
 1073 0076 00BF     		.align	2
 1074              	.L52:
 1075 0078 00000000 		.word	ADCD1
 1076 007c 00000000 		.word	adc_lld_serve_dma_interrupt
 1077 0080 18000000 		.word	.LC1
 1078 0084 00100240 		.word	1073876992
 1079              		.cfi_endproc
 1080              	.LFE128:
 1081              		.size	adc_lld_start, .-adc_lld_start
 1082 0088 AFF30080 		.section	.text.adc_lld_stop,"ax",%progbits
 1082      AFF30080 
 1083              		.align	2
 1084              		.p2align 4,,15
 1085              		.global	adc_lld_stop
 1086              		.thumb
 1087              		.thumb_func
 1088              		.type	adc_lld_stop, %function
 1089              	adc_lld_stop:
 1090              	.LFB129:
 1091              		.loc 1 427 0
 1092              		.cfi_startproc
 1093              		@ args = 0, pretend = 0, frame = 8
 1094              		@ frame_needed = 0, uses_anonymous_args = 0
 1095 0000 00B5     		push	{lr}
 1096              		.cfi_def_cfa_offset 4
 1097              		.cfi_offset 14, -4
 1098 0002 83B0     		sub	sp, sp, #12
 1099              		.cfi_def_cfa_offset 16
 1100 0004 0190     		str	r0, [sp, #4]
 1101              		.loc 1 430 0
 1102 0006 019B     		ldr	r3, [sp, #4]
 1103 0008 1B78     		ldrb	r3, [r3]	@ zero_extendqisi2
 1104 000a 022B     		cmp	r3, #2
 1105 000c 17D1     		bne	.L54
 1106              		.loc 1 433 0
 1107 000e 019B     		ldr	r3, [sp, #4]
 1108 0010 1B6B     		ldr	r3, [r3, #48]
 1109 0012 1846     		mov	r0, r3
 1110 0014 FFF7FEFF 		bl	dmaStreamRelease
 1111              		.loc 1 436 0
 1112 0018 0198     		ldr	r0, [sp, #4]
 1113 001a FFF7FEFF 		bl	adc_lld_stop_adc
 1114              		.loc 1 439 0
 1115 001e 0198     		ldr	r0, [sp, #4]
ARM GAS  /tmp/ccI7Zqab.s 			page 21


 1116 0020 FFF7FEFF 		bl	adc_lld_analog_off
 1117              		.loc 1 440 0
 1118 0024 0198     		ldr	r0, [sp, #4]
 1119 0026 FFF7FEFF 		bl	adc_lld_vreg_off
 1120              		.loc 1 443 0
 1121 002a 019A     		ldr	r2, [sp, #4]
 1122 002c 054B     		ldr	r3, .L56
 1123 002e 9A42     		cmp	r2, r3
 1124 0030 05D1     		bne	.L54
 1125              		.loc 1 444 0
 1126 0032 054B     		ldr	r3, .L56+4
 1127 0034 044A     		ldr	r2, .L56+4
 1128 0036 5269     		ldr	r2, [r2, #20]
 1129 0038 22F08052 		bic	r2, r2, #268435456
 1130 003c 5A61     		str	r2, [r3, #20]
 1131              	.L54:
 1132              		.loc 1 452 0
 1133 003e 03B0     		add	sp, sp, #12
 1134              		@ sp needed
 1135 0040 5DF804FB 		ldr	pc, [sp], #4
 1136              	.L57:
 1137              		.align	2
 1138              	.L56:
 1139 0044 00000000 		.word	ADCD1
 1140 0048 00100240 		.word	1073876992
 1141              		.cfi_endproc
 1142              	.LFE129:
 1143              		.size	adc_lld_stop, .-adc_lld_stop
 1144 004c AFF30080 		.section	.text.adc_lld_start_conversion,"ax",%progbits
 1145              		.align	2
 1146              		.p2align 4,,15
 1147              		.global	adc_lld_start_conversion
 1148              		.thumb
 1149              		.thumb_func
 1150              		.type	adc_lld_start_conversion, %function
 1151              	adc_lld_start_conversion:
 1152              	.LFB130:
 1153              		.loc 1 461 0
 1154              		.cfi_startproc
 1155              		@ args = 0, pretend = 0, frame = 24
 1156              		@ frame_needed = 0, uses_anonymous_args = 0
 1157              		@ link register save eliminated.
 1158 0000 86B0     		sub	sp, sp, #24
 1159              		.cfi_def_cfa_offset 24
 1160 0002 0190     		str	r0, [sp, #4]
 1161              		.loc 1 463 0
 1162 0004 019B     		ldr	r3, [sp, #4]
 1163 0006 1B69     		ldr	r3, [r3, #16]
 1164 0008 0393     		str	r3, [sp, #12]
 1165              		.loc 1 470 0
 1166 000a 019B     		ldr	r3, [sp, #4]
 1167 000c 5B6B     		ldr	r3, [r3, #52]
 1168 000e 0593     		str	r3, [sp, #20]
 1169              		.loc 1 471 0
 1170 0010 039B     		ldr	r3, [sp, #12]
 1171 0012 5A69     		ldr	r2, [r3, #20]
 1172 0014 019B     		ldr	r3, [sp, #4]
ARM GAS  /tmp/ccI7Zqab.s 			page 22


 1173 0016 9B6A     		ldr	r3, [r3, #40]
 1174 0018 9B68     		ldr	r3, [r3, #8]
 1175 001a 03F47033 		and	r3, r3, #245760
 1176 001e 1343     		orrs	r3, r3, r2
 1177 0020 0293     		str	r3, [sp, #8]
 1178              		.loc 1 473 0
 1179 0022 039B     		ldr	r3, [sp, #12]
 1180 0024 DB68     		ldr	r3, [r3, #12]
 1181 0026 43F40053 		orr	r3, r3, #8192
 1182 002a 43F00103 		orr	r3, r3, #1
 1183 002e 0493     		str	r3, [sp, #16]
 1184              		.loc 1 474 0
 1185 0030 039B     		ldr	r3, [sp, #12]
 1186 0032 1B78     		ldrb	r3, [r3]	@ zero_extendqisi2
 1187 0034 002B     		cmp	r3, #0
 1188 0036 0FD0     		beq	.L59
 1189              		.loc 1 475 0
 1190 0038 059B     		ldr	r3, [sp, #20]
 1191 003a 43F02003 		orr	r3, r3, #32
 1192 003e 0593     		str	r3, [sp, #20]
 1193              		.loc 1 479 0
 1194 0040 049B     		ldr	r3, [sp, #16]
 1195 0042 43F00203 		orr	r3, r3, #2
 1196 0046 0493     		str	r3, [sp, #16]
 1197              		.loc 1 481 0
 1198 0048 019B     		ldr	r3, [sp, #4]
 1199 004a DB68     		ldr	r3, [r3, #12]
 1200 004c 012B     		cmp	r3, #1
 1201 004e 03D9     		bls	.L59
 1202              		.loc 1 484 0
 1203 0050 059B     		ldr	r3, [sp, #20]
 1204 0052 43F00403 		orr	r3, r3, #4
 1205 0056 0593     		str	r3, [sp, #20]
 1206              	.L59:
 1207              		.loc 1 489 0
 1208 0058 019B     		ldr	r3, [sp, #4]
 1209 005a 1B6B     		ldr	r3, [r3, #48]
 1210 005c 1B68     		ldr	r3, [r3]
 1211 005e 019A     		ldr	r2, [sp, #4]
 1212 0060 9268     		ldr	r2, [r2, #8]
 1213 0062 DA60     		str	r2, [r3, #12]
 1214              		.loc 1 494 0
 1215 0064 019B     		ldr	r3, [sp, #4]
 1216 0066 1B6B     		ldr	r3, [r3, #48]
 1217 0068 1B68     		ldr	r3, [r3]
 1218 006a 039A     		ldr	r2, [sp, #12]
 1219 006c 5288     		ldrh	r2, [r2, #2]
 1220 006e 0199     		ldr	r1, [sp, #4]
 1221 0070 C968     		ldr	r1, [r1, #12]
 1222 0072 01FB02F2 		mul	r2, r1, r2
 1223 0076 5A60     		str	r2, [r3, #4]
 1224              		.loc 1 497 0
 1225 0078 019B     		ldr	r3, [sp, #4]
 1226 007a 1B6B     		ldr	r3, [r3, #48]
 1227 007c 1B68     		ldr	r3, [r3]
 1228 007e 059A     		ldr	r2, [sp, #20]
 1229 0080 1A60     		str	r2, [r3]
ARM GAS  /tmp/ccI7Zqab.s 			page 23


 1230              		.loc 1 498 0
 1231 0082 019B     		ldr	r3, [sp, #4]
 1232 0084 1B6B     		ldr	r3, [r3, #48]
 1233 0086 1B68     		ldr	r3, [r3]
 1234 0088 019A     		ldr	r2, [sp, #4]
 1235 008a 126B     		ldr	r2, [r2, #48]
 1236 008c 1268     		ldr	r2, [r2]
 1237 008e 1268     		ldr	r2, [r2]
 1238 0090 42F00102 		orr	r2, r2, #1
 1239 0094 1A60     		str	r2, [r3]
 1240              		.loc 1 503 0
 1241 0096 019B     		ldr	r3, [sp, #4]
 1242 0098 9B6A     		ldr	r3, [r3, #40]
 1243 009a 029A     		ldr	r2, [sp, #8]
 1244 009c 9A60     		str	r2, [r3, #8]
 1245              		.loc 1 507 0
 1246 009e 019B     		ldr	r3, [sp, #4]
 1247 00a0 DB6A     		ldr	r3, [r3, #44]
 1248 00a2 019A     		ldr	r2, [sp, #4]
 1249 00a4 D26A     		ldr	r2, [r2, #44]
 1250 00a6 1268     		ldr	r2, [r2]
 1251 00a8 1A60     		str	r2, [r3]
 1252              		.loc 1 508 0
 1253 00aa 019B     		ldr	r3, [sp, #4]
 1254 00ac DB6A     		ldr	r3, [r3, #44]
 1255 00ae 9022     		movs	r2, #144
 1256 00b0 5A60     		str	r2, [r3, #4]
 1257              		.loc 1 509 0
 1258 00b2 019B     		ldr	r3, [sp, #4]
 1259 00b4 DB6A     		ldr	r3, [r3, #44]
 1260 00b6 039A     		ldr	r2, [sp, #12]
 1261 00b8 1269     		ldr	r2, [r2, #16]
 1262 00ba 1A62     		str	r2, [r3, #32]
 1263              		.loc 1 525 0
 1264 00bc 019B     		ldr	r3, [sp, #4]
 1265 00be DB6A     		ldr	r3, [r3, #44]
 1266 00c0 039A     		ldr	r2, [sp, #12]
 1267 00c2 9269     		ldr	r2, [r2, #24]
 1268 00c4 5A61     		str	r2, [r3, #20]
 1269              		.loc 1 526 0
 1270 00c6 019B     		ldr	r3, [sp, #4]
 1271 00c8 DB6A     		ldr	r3, [r3, #44]
 1272 00ca 039A     		ldr	r2, [sp, #12]
 1273 00cc D269     		ldr	r2, [r2, #28]
 1274 00ce 9A61     		str	r2, [r3, #24]
 1275              		.loc 1 527 0
 1276 00d0 019B     		ldr	r3, [sp, #4]
 1277 00d2 DB6A     		ldr	r3, [r3, #44]
 1278 00d4 039A     		ldr	r2, [sp, #12]
 1279 00d6 116A     		ldr	r1, [r2, #32]
 1280 00d8 039A     		ldr	r2, [sp, #12]
 1281 00da 5288     		ldrh	r2, [r2, #2]
 1282 00dc 013A     		subs	r2, r2, #1
 1283 00de 0A43     		orrs	r2, r2, r1
 1284 00e0 1A63     		str	r2, [r3, #48]
 1285              		.loc 1 528 0
 1286 00e2 019B     		ldr	r3, [sp, #4]
ARM GAS  /tmp/ccI7Zqab.s 			page 24


 1287 00e4 DB6A     		ldr	r3, [r3, #44]
 1288 00e6 039A     		ldr	r2, [sp, #12]
 1289 00e8 526A     		ldr	r2, [r2, #36]
 1290 00ea 5A63     		str	r2, [r3, #52]
 1291              		.loc 1 529 0
 1292 00ec 019B     		ldr	r3, [sp, #4]
 1293 00ee DB6A     		ldr	r3, [r3, #44]
 1294 00f0 039A     		ldr	r2, [sp, #12]
 1295 00f2 926A     		ldr	r2, [r2, #40]
 1296 00f4 9A63     		str	r2, [r3, #56]
 1297              		.loc 1 530 0
 1298 00f6 019B     		ldr	r3, [sp, #4]
 1299 00f8 DB6A     		ldr	r3, [r3, #44]
 1300 00fa 039A     		ldr	r2, [sp, #12]
 1301 00fc D26A     		ldr	r2, [r2, #44]
 1302 00fe DA63     		str	r2, [r3, #60]
 1303              		.loc 1 534 0
 1304 0100 019B     		ldr	r3, [sp, #4]
 1305 0102 DB6A     		ldr	r3, [r3, #44]
 1306 0104 049A     		ldr	r2, [sp, #16]
 1307 0106 DA60     		str	r2, [r3, #12]
 1308              		.loc 1 537 0
 1309 0108 019B     		ldr	r3, [sp, #4]
 1310 010a DB6A     		ldr	r3, [r3, #44]
 1311 010c 019A     		ldr	r2, [sp, #4]
 1312 010e D26A     		ldr	r2, [r2, #44]
 1313 0110 9268     		ldr	r2, [r2, #8]
 1314 0112 42F00402 		orr	r2, r2, #4
 1315 0116 9A60     		str	r2, [r3, #8]
 1316              		.loc 1 538 0
 1317 0118 06B0     		add	sp, sp, #24
 1318              		@ sp needed
 1319 011a 7047     		bx	lr
 1320              		.cfi_endproc
 1321              	.LFE130:
 1322              		.size	adc_lld_start_conversion, .-adc_lld_start_conversion
 1323 011c AFF30080 		.section	.text.adc_lld_stop_conversion,"ax",%progbits
 1324              		.align	2
 1325              		.p2align 4,,15
 1326              		.global	adc_lld_stop_conversion
 1327              		.thumb
 1328              		.thumb_func
 1329              		.type	adc_lld_stop_conversion, %function
 1330              	adc_lld_stop_conversion:
 1331              	.LFB131:
 1332              		.loc 1 547 0
 1333              		.cfi_startproc
 1334              		@ args = 0, pretend = 0, frame = 8
 1335              		@ frame_needed = 0, uses_anonymous_args = 0
 1336 0000 00B5     		push	{lr}
 1337              		.cfi_def_cfa_offset 4
 1338              		.cfi_offset 14, -4
 1339 0002 83B0     		sub	sp, sp, #12
 1340              		.cfi_def_cfa_offset 16
 1341 0004 0190     		str	r0, [sp, #4]
 1342              		.loc 1 549 0
 1343 0006 019B     		ldr	r3, [sp, #4]
ARM GAS  /tmp/ccI7Zqab.s 			page 25


 1344 0008 1B6B     		ldr	r3, [r3, #48]
 1345 000a 1B68     		ldr	r3, [r3]
 1346 000c 019A     		ldr	r2, [sp, #4]
 1347 000e 126B     		ldr	r2, [r2, #48]
 1348 0010 1268     		ldr	r2, [r2]
 1349 0012 1268     		ldr	r2, [r2]
 1350 0014 22F00F02 		bic	r2, r2, #15
 1351 0018 1A60     		str	r2, [r3]
 1352 001a 019B     		ldr	r3, [sp, #4]
 1353 001c 1B6B     		ldr	r3, [r3, #48]
 1354 001e 5B68     		ldr	r3, [r3, #4]
 1355 0020 019A     		ldr	r2, [sp, #4]
 1356 0022 126B     		ldr	r2, [r2, #48]
 1357 0024 127A     		ldrb	r2, [r2, #8]	@ zero_extendqisi2
 1358 0026 0F21     		movs	r1, #15
 1359 0028 01FA02F2 		lsl	r2, r1, r2
 1360 002c 1A60     		str	r2, [r3]
 1361              		.loc 1 550 0
 1362 002e 0198     		ldr	r0, [sp, #4]
 1363 0030 FFF7FEFF 		bl	adc_lld_stop_adc
 1364              		.loc 1 551 0
 1365 0034 03B0     		add	sp, sp, #12
 1366              		@ sp needed
 1367 0036 5DF804FB 		ldr	pc, [sp], #4
 1368              		.cfi_endproc
 1369              	.LFE131:
 1370              		.size	adc_lld_stop_conversion, .-adc_lld_stop_conversion
 1371 003a 00BFAFF3 		.text
 1371      0080
 1372              	.Letext0:
 1373              		.file 2 "/usr/lib/gcc/arm-none-eabi/4.8/include/stddef.h"
 1374              		.file 3 "/usr/include/newlib/machine/_default_types.h"
 1375              		.file 4 "/usr/include/newlib/stdint.h"
 1376              		.file 5 "/home/dave/r2p-sdk/core/ChibiOS/os/ports/GCC/ARMCMx/chtypes.h"
 1377              		.file 6 "/home/dave/r2p-sdk/core/ChibiOS/os/kernel/include/chlists.h"
 1378              		.file 7 "/home/dave/r2p-sdk/core/ChibiOS/os/kernel/include/chthreads.h"
 1379              		.file 8 "/home/dave/r2p-sdk/core/ChibiOS/os/ports/GCC/ARMCMx/chcore_v7m.h"
 1380              		.file 9 "/home/dave/r2p-sdk/core/ChibiOS/os/kernel/include/chmtx.h"
 1381              		.file 10 "/home/dave/r2p-sdk/core/ChibiOS/os/hal/platforms/STM32F30x/stm32f30x.h"
 1382              		.file 11 "/home/dave/r2p-sdk/core/ChibiOS/os/hal/platforms/STM32F30x/stm32_dma.h"
 1383              		.file 12 "/home/dave/r2p-sdk/core/ChibiOS/os/hal/include/adc.h"
 1384              		.file 13 "/home/dave/r2p-sdk/core/ChibiOS/os/hal/platforms/STM32F30x/adc_lld.h"
 1385              		.file 14 "/home/dave/r2p-sdk/core/ChibiOS/os/ports/common/ARMCMx/CMSIS/include/core_cm4.h"
 1386              		.section	.debug_info,"",%progbits
 1387              	.Ldebug_info0:
 1388 0000 A2110000 		.4byte	0x11a2
 1389 0004 0400     		.2byte	0x4
 1390 0006 00000000 		.4byte	.Ldebug_abbrev0
 1391 000a 04       		.byte	0x4
 1392 000b 01       		.uleb128 0x1
 1393 000c 19090000 		.4byte	.LASF254
 1394 0010 01       		.byte	0x1
 1395 0011 DD000000 		.4byte	.LASF255
 1396 0015 00000000 		.4byte	.Ldebug_ranges0+0
 1397 0019 00000000 		.4byte	0
 1398 001d 00000000 		.4byte	.Ldebug_line0
 1399 0021 02       		.uleb128 0x2
ARM GAS  /tmp/ccI7Zqab.s 			page 26


 1400 0022 04       		.byte	0x4
 1401 0023 05       		.byte	0x5
 1402 0024 696E7400 		.ascii	"int\000"
 1403 0028 03       		.uleb128 0x3
 1404 0029 00000000 		.4byte	.LASF2
 1405 002d 02       		.byte	0x2
 1406 002e D4       		.byte	0xd4
 1407 002f 33000000 		.4byte	0x33
 1408 0033 04       		.uleb128 0x4
 1409 0034 04       		.byte	0x4
 1410 0035 07       		.byte	0x7
 1411 0036 D1060000 		.4byte	.LASF0
 1412 003a 04       		.uleb128 0x4
 1413 003b 01       		.byte	0x1
 1414 003c 06       		.byte	0x6
 1415 003d 25020000 		.4byte	.LASF1
 1416 0041 03       		.uleb128 0x3
 1417 0042 6E010000 		.4byte	.LASF3
 1418 0046 03       		.byte	0x3
 1419 0047 1D       		.byte	0x1d
 1420 0048 4C000000 		.4byte	0x4c
 1421 004c 04       		.uleb128 0x4
 1422 004d 01       		.byte	0x1
 1423 004e 08       		.byte	0x8
 1424 004f 6B020000 		.4byte	.LASF4
 1425 0053 04       		.uleb128 0x4
 1426 0054 02       		.byte	0x2
 1427 0055 05       		.byte	0x5
 1428 0056 620A0000 		.4byte	.LASF5
 1429 005a 03       		.uleb128 0x3
 1430 005b 6F030000 		.4byte	.LASF6
 1431 005f 03       		.byte	0x3
 1432 0060 2B       		.byte	0x2b
 1433 0061 65000000 		.4byte	0x65
 1434 0065 04       		.uleb128 0x4
 1435 0066 02       		.byte	0x2
 1436 0067 07       		.byte	0x7
 1437 0068 990B0000 		.4byte	.LASF7
 1438 006c 03       		.uleb128 0x3
 1439 006d DB0B0000 		.4byte	.LASF8
 1440 0071 03       		.byte	0x3
 1441 0072 3F       		.byte	0x3f
 1442 0073 77000000 		.4byte	0x77
 1443 0077 04       		.uleb128 0x4
 1444 0078 04       		.byte	0x4
 1445 0079 05       		.byte	0x5
 1446 007a 98010000 		.4byte	.LASF9
 1447 007e 03       		.uleb128 0x3
 1448 007f DD050000 		.4byte	.LASF10
 1449 0083 03       		.byte	0x3
 1450 0084 41       		.byte	0x41
 1451 0085 89000000 		.4byte	0x89
 1452 0089 04       		.uleb128 0x4
 1453 008a 04       		.byte	0x4
 1454 008b 07       		.byte	0x7
 1455 008c AD040000 		.4byte	.LASF11
 1456 0090 04       		.uleb128 0x4
ARM GAS  /tmp/ccI7Zqab.s 			page 27


 1457 0091 08       		.byte	0x8
 1458 0092 05       		.byte	0x5
 1459 0093 F8050000 		.4byte	.LASF12
 1460 0097 03       		.uleb128 0x3
 1461 0098 98040000 		.4byte	.LASF13
 1462 009c 03       		.byte	0x3
 1463 009d 5B       		.byte	0x5b
 1464 009e A2000000 		.4byte	0xa2
 1465 00a2 04       		.uleb128 0x4
 1466 00a3 08       		.byte	0x8
 1467 00a4 07       		.byte	0x7
 1468 00a5 1A080000 		.4byte	.LASF14
 1469 00a9 03       		.uleb128 0x3
 1470 00aa 3B020000 		.4byte	.LASF15
 1471 00ae 04       		.byte	0x4
 1472 00af 2A       		.byte	0x2a
 1473 00b0 41000000 		.4byte	0x41
 1474 00b4 03       		.uleb128 0x3
 1475 00b5 48080000 		.4byte	.LASF16
 1476 00b9 04       		.byte	0x4
 1477 00ba 36       		.byte	0x36
 1478 00bb 5A000000 		.4byte	0x5a
 1479 00bf 03       		.uleb128 0x3
 1480 00c0 75000000 		.4byte	.LASF17
 1481 00c4 04       		.byte	0x4
 1482 00c5 41       		.byte	0x41
 1483 00c6 6C000000 		.4byte	0x6c
 1484 00ca 03       		.uleb128 0x3
 1485 00cb 560B0000 		.4byte	.LASF18
 1486 00cf 04       		.byte	0x4
 1487 00d0 42       		.byte	0x42
 1488 00d1 7E000000 		.4byte	0x7e
 1489 00d5 03       		.uleb128 0x3
 1490 00d6 6C0A0000 		.4byte	.LASF19
 1491 00da 04       		.byte	0x4
 1492 00db 4E       		.byte	0x4e
 1493 00dc 97000000 		.4byte	0x97
 1494 00e0 03       		.uleb128 0x3
 1495 00e1 C10A0000 		.4byte	.LASF20
 1496 00e5 05       		.byte	0x5
 1497 00e6 2B       		.byte	0x2b
 1498 00e7 EB000000 		.4byte	0xeb
 1499 00eb 04       		.uleb128 0x4
 1500 00ec 01       		.byte	0x1
 1501 00ed 02       		.byte	0x2
 1502 00ee 04030000 		.4byte	.LASF21
 1503 00f2 03       		.uleb128 0x3
 1504 00f3 F3080000 		.4byte	.LASF22
 1505 00f7 05       		.byte	0x5
 1506 00f8 2C       		.byte	0x2c
 1507 00f9 A9000000 		.4byte	0xa9
 1508 00fd 03       		.uleb128 0x3
 1509 00fe B7010000 		.4byte	.LASF23
 1510 0102 05       		.byte	0x5
 1511 0103 2D       		.byte	0x2d
 1512 0104 A9000000 		.4byte	0xa9
 1513 0108 03       		.uleb128 0x3
ARM GAS  /tmp/ccI7Zqab.s 			page 28


 1514 0109 1A0B0000 		.4byte	.LASF24
 1515 010d 05       		.byte	0x5
 1516 010e 2E       		.byte	0x2e
 1517 010f A9000000 		.4byte	0xa9
 1518 0113 03       		.uleb128 0x3
 1519 0114 84080000 		.4byte	.LASF25
 1520 0118 05       		.byte	0x5
 1521 0119 2F       		.byte	0x2f
 1522 011a A9000000 		.4byte	0xa9
 1523 011e 03       		.uleb128 0x3
 1524 011f 40000000 		.4byte	.LASF26
 1525 0123 05       		.byte	0x5
 1526 0124 30       		.byte	0x30
 1527 0125 CA000000 		.4byte	0xca
 1528 0129 03       		.uleb128 0x3
 1529 012a 63080000 		.4byte	.LASF27
 1530 012e 05       		.byte	0x5
 1531 012f 31       		.byte	0x31
 1532 0130 BF000000 		.4byte	0xbf
 1533 0134 03       		.uleb128 0x3
 1534 0135 43020000 		.4byte	.LASF28
 1535 0139 05       		.byte	0x5
 1536 013a 33       		.byte	0x33
 1537 013b CA000000 		.4byte	0xca
 1538 013f 03       		.uleb128 0x3
 1539 0140 1E000000 		.4byte	.LASF29
 1540 0144 05       		.byte	0x5
 1541 0145 35       		.byte	0x35
 1542 0146 CA000000 		.4byte	0xca
 1543 014a 03       		.uleb128 0x3
 1544 014b D70A0000 		.4byte	.LASF30
 1545 014f 06       		.byte	0x6
 1546 0150 2A       		.byte	0x2a
 1547 0151 55010000 		.4byte	0x155
 1548 0155 05       		.uleb128 0x5
 1549 0156 D70A0000 		.4byte	.LASF30
 1550 015a 4C       		.byte	0x4c
 1551 015b 07       		.byte	0x7
 1552 015c 5E       		.byte	0x5e
 1553 015d 5E020000 		.4byte	0x25e
 1554 0161 06       		.uleb128 0x6
 1555 0162 A1010000 		.4byte	.LASF31
 1556 0166 07       		.byte	0x7
 1557 0167 5F       		.byte	0x5f
 1558 0168 7F020000 		.4byte	0x27f
 1559 016c 00       		.byte	0
 1560 016d 06       		.uleb128 0x6
 1561 016e A8010000 		.4byte	.LASF32
 1562 0172 07       		.byte	0x7
 1563 0173 61       		.byte	0x61
 1564 0174 7F020000 		.4byte	0x27f
 1565 0178 04       		.byte	0x4
 1566 0179 06       		.uleb128 0x6
 1567 017a 68030000 		.4byte	.LASF33
 1568 017e 07       		.byte	0x7
 1569 017f 63       		.byte	0x63
 1570 0180 1E010000 		.4byte	0x11e
ARM GAS  /tmp/ccI7Zqab.s 			page 29


 1571 0184 08       		.byte	0x8
 1572 0185 06       		.uleb128 0x6
 1573 0186 3A000000 		.4byte	.LASF34
 1574 018a 07       		.byte	0x7
 1575 018b 64       		.byte	0x64
 1576 018c 14040000 		.4byte	0x414
 1577 0190 0C       		.byte	0xc
 1578 0191 06       		.uleb128 0x6
 1579 0192 7F010000 		.4byte	.LASF35
 1580 0196 07       		.byte	0x7
 1581 0197 66       		.byte	0x66
 1582 0198 7F020000 		.4byte	0x27f
 1583 019c 10       		.byte	0x10
 1584 019d 06       		.uleb128 0x6
 1585 019e 40080000 		.4byte	.LASF36
 1586 01a2 07       		.byte	0x7
 1587 01a3 67       		.byte	0x67
 1588 01a4 7F020000 		.4byte	0x27f
 1589 01a8 14       		.byte	0x14
 1590 01a9 06       		.uleb128 0x6
 1591 01aa FD0B0000 		.4byte	.LASF37
 1592 01ae 07       		.byte	0x7
 1593 01af 6E       		.byte	0x6e
 1594 01b0 BD040000 		.4byte	0x4bd
 1595 01b4 18       		.byte	0x18
 1596 01b5 06       		.uleb128 0x6
 1597 01b6 D00B0000 		.4byte	.LASF38
 1598 01ba 07       		.byte	0x7
 1599 01bb 74       		.byte	0x74
 1600 01bc CF040000 		.4byte	0x4cf
 1601 01c0 1C       		.byte	0x1c
 1602 01c1 06       		.uleb128 0x6
 1603 01c2 4C0C0000 		.4byte	.LASF39
 1604 01c6 07       		.byte	0x7
 1605 01c7 79       		.byte	0x79
 1606 01c8 FD000000 		.4byte	0xfd
 1607 01cc 20       		.byte	0x20
 1608 01cd 06       		.uleb128 0x6
 1609 01ce BF060000 		.4byte	.LASF40
 1610 01d2 07       		.byte	0x7
 1611 01d3 7D       		.byte	0x7d
 1612 01d4 F2000000 		.4byte	0xf2
 1613 01d8 21       		.byte	0x21
 1614 01d9 06       		.uleb128 0x6
 1615 01da 1A070000 		.4byte	.LASF41
 1616 01de 07       		.byte	0x7
 1617 01df 82       		.byte	0x82
 1618 01e0 08010000 		.4byte	0x108
 1619 01e4 22       		.byte	0x22
 1620 01e5 06       		.uleb128 0x6
 1621 01e6 31020000 		.4byte	.LASF42
 1622 01ea 07       		.byte	0x7
 1623 01eb 88       		.byte	0x88
 1624 01ec 13010000 		.4byte	0x113
 1625 01f0 23       		.byte	0x23
 1626 01f1 06       		.uleb128 0x6
 1627 01f2 83070000 		.4byte	.LASF43
ARM GAS  /tmp/ccI7Zqab.s 			page 30


 1628 01f6 07       		.byte	0x7
 1629 01f7 8F       		.byte	0x8f
 1630 01f8 41040000 		.4byte	0x441
 1631 01fc 24       		.byte	0x24
 1632 01fd 07       		.uleb128 0x7
 1633 01fe 705F7500 		.ascii	"p_u\000"
 1634 0202 07       		.byte	0x7
 1635 0203 B4       		.byte	0xb4
 1636 0204 88040000 		.4byte	0x488
 1637 0208 28       		.byte	0x28
 1638 0209 06       		.uleb128 0x6
 1639 020a A2060000 		.4byte	.LASF44
 1640 020e 07       		.byte	0x7
 1641 020f B9       		.byte	0xb9
 1642 0210 A5020000 		.4byte	0x2a5
 1643 0214 2C       		.byte	0x2c
 1644 0215 06       		.uleb128 0x6
 1645 0216 6A000000 		.4byte	.LASF45
 1646 021a 07       		.byte	0x7
 1647 021b BF       		.byte	0xbf
 1648 021c 85020000 		.4byte	0x285
 1649 0220 30       		.byte	0x30
 1650 0221 06       		.uleb128 0x6
 1651 0222 290C0000 		.4byte	.LASF46
 1652 0226 07       		.byte	0x7
 1653 0227 C3       		.byte	0xc3
 1654 0228 29010000 		.4byte	0x129
 1655 022c 38       		.byte	0x38
 1656 022d 06       		.uleb128 0x6
 1657 022e 1E040000 		.4byte	.LASF47
 1658 0232 07       		.byte	0x7
 1659 0233 C9       		.byte	0xc9
 1660 0234 34010000 		.4byte	0x134
 1661 0238 3C       		.byte	0x3c
 1662 0239 06       		.uleb128 0x6
 1663 023a C9010000 		.4byte	.LASF48
 1664 023e 07       		.byte	0x7
 1665 023f D0       		.byte	0xd0
 1666 0240 D5040000 		.4byte	0x4d5
 1667 0244 40       		.byte	0x40
 1668 0245 06       		.uleb128 0x6
 1669 0246 AD070000 		.4byte	.LASF49
 1670 024a 07       		.byte	0x7
 1671 024b D4       		.byte	0xd4
 1672 024c 1E010000 		.4byte	0x11e
 1673 0250 44       		.byte	0x44
 1674 0251 06       		.uleb128 0x6
 1675 0252 FF060000 		.4byte	.LASF50
 1676 0256 07       		.byte	0x7
 1677 0257 DA       		.byte	0xda
 1678 0258 BB020000 		.4byte	0x2bb
 1679 025c 48       		.byte	0x48
 1680 025d 00       		.byte	0
 1681 025e 08       		.uleb128 0x8
 1682 025f 08       		.byte	0x8
 1683 0260 06       		.byte	0x6
 1684 0261 61       		.byte	0x61
ARM GAS  /tmp/ccI7Zqab.s 			page 31


 1685 0262 7F020000 		.4byte	0x27f
 1686 0266 06       		.uleb128 0x6
 1687 0267 A1010000 		.4byte	.LASF31
 1688 026b 06       		.byte	0x6
 1689 026c 62       		.byte	0x62
 1690 026d 7F020000 		.4byte	0x27f
 1691 0271 00       		.byte	0
 1692 0272 06       		.uleb128 0x6
 1693 0273 A8010000 		.4byte	.LASF32
 1694 0277 06       		.byte	0x6
 1695 0278 64       		.byte	0x64
 1696 0279 7F020000 		.4byte	0x27f
 1697 027d 04       		.byte	0x4
 1698 027e 00       		.byte	0
 1699 027f 09       		.uleb128 0x9
 1700 0280 04       		.byte	0x4
 1701 0281 4A010000 		.4byte	0x14a
 1702 0285 03       		.uleb128 0x3
 1703 0286 6D0B0000 		.4byte	.LASF51
 1704 028a 06       		.byte	0x6
 1705 028b 66       		.byte	0x66
 1706 028c 5E020000 		.4byte	0x25e
 1707 0290 08       		.uleb128 0x8
 1708 0291 04       		.byte	0x4
 1709 0292 06       		.byte	0x6
 1710 0293 6B       		.byte	0x6b
 1711 0294 A5020000 		.4byte	0x2a5
 1712 0298 06       		.uleb128 0x6
 1713 0299 A1010000 		.4byte	.LASF31
 1714 029d 06       		.byte	0x6
 1715 029e 6D       		.byte	0x6d
 1716 029f 7F020000 		.4byte	0x27f
 1717 02a3 00       		.byte	0
 1718 02a4 00       		.byte	0
 1719 02a5 03       		.uleb128 0x3
 1720 02a6 46070000 		.4byte	.LASF52
 1721 02aa 06       		.byte	0x6
 1722 02ab 70       		.byte	0x70
 1723 02ac 90020000 		.4byte	0x290
 1724 02b0 03       		.uleb128 0x3
 1725 02b1 D8010000 		.4byte	.LASF53
 1726 02b5 08       		.byte	0x8
 1727 02b6 E5       		.byte	0xe5
 1728 02b7 BB020000 		.4byte	0x2bb
 1729 02bb 0A       		.uleb128 0xa
 1730 02bc 04       		.byte	0x4
 1731 02bd 03       		.uleb128 0x3
 1732 02be 8B030000 		.4byte	.LASF54
 1733 02c2 08       		.byte	0x8
 1734 02c3 EB       		.byte	0xeb
 1735 02c4 D5000000 		.4byte	0xd5
 1736 02c8 0B       		.uleb128 0xb
 1737 02c9 17040000 		.4byte	.LASF55
 1738 02cd 64       		.byte	0x64
 1739 02ce 08       		.byte	0x8
 1740 02cf 0C01     		.2byte	0x10c
 1741 02d1 14040000 		.4byte	0x414
ARM GAS  /tmp/ccI7Zqab.s 			page 32


 1742 02d5 0C       		.uleb128 0xc
 1743 02d6 73313600 		.ascii	"s16\000"
 1744 02da 08       		.byte	0x8
 1745 02db 0E01     		.2byte	0x10e
 1746 02dd B0020000 		.4byte	0x2b0
 1747 02e1 00       		.byte	0
 1748 02e2 0C       		.uleb128 0xc
 1749 02e3 73313700 		.ascii	"s17\000"
 1750 02e7 08       		.byte	0x8
 1751 02e8 0F01     		.2byte	0x10f
 1752 02ea B0020000 		.4byte	0x2b0
 1753 02ee 04       		.byte	0x4
 1754 02ef 0C       		.uleb128 0xc
 1755 02f0 73313800 		.ascii	"s18\000"
 1756 02f4 08       		.byte	0x8
 1757 02f5 1001     		.2byte	0x110
 1758 02f7 B0020000 		.4byte	0x2b0
 1759 02fb 08       		.byte	0x8
 1760 02fc 0C       		.uleb128 0xc
 1761 02fd 73313900 		.ascii	"s19\000"
 1762 0301 08       		.byte	0x8
 1763 0302 1101     		.2byte	0x111
 1764 0304 B0020000 		.4byte	0x2b0
 1765 0308 0C       		.byte	0xc
 1766 0309 0C       		.uleb128 0xc
 1767 030a 73323000 		.ascii	"s20\000"
 1768 030e 08       		.byte	0x8
 1769 030f 1201     		.2byte	0x112
 1770 0311 B0020000 		.4byte	0x2b0
 1771 0315 10       		.byte	0x10
 1772 0316 0C       		.uleb128 0xc
 1773 0317 73323100 		.ascii	"s21\000"
 1774 031b 08       		.byte	0x8
 1775 031c 1301     		.2byte	0x113
 1776 031e B0020000 		.4byte	0x2b0
 1777 0322 14       		.byte	0x14
 1778 0323 0C       		.uleb128 0xc
 1779 0324 73323200 		.ascii	"s22\000"
 1780 0328 08       		.byte	0x8
 1781 0329 1401     		.2byte	0x114
 1782 032b B0020000 		.4byte	0x2b0
 1783 032f 18       		.byte	0x18
 1784 0330 0C       		.uleb128 0xc
 1785 0331 73323300 		.ascii	"s23\000"
 1786 0335 08       		.byte	0x8
 1787 0336 1501     		.2byte	0x115
 1788 0338 B0020000 		.4byte	0x2b0
 1789 033c 1C       		.byte	0x1c
 1790 033d 0C       		.uleb128 0xc
 1791 033e 73323400 		.ascii	"s24\000"
 1792 0342 08       		.byte	0x8
 1793 0343 1601     		.2byte	0x116
 1794 0345 B0020000 		.4byte	0x2b0
 1795 0349 20       		.byte	0x20
 1796 034a 0C       		.uleb128 0xc
 1797 034b 73323500 		.ascii	"s25\000"
 1798 034f 08       		.byte	0x8
ARM GAS  /tmp/ccI7Zqab.s 			page 33


 1799 0350 1701     		.2byte	0x117
 1800 0352 B0020000 		.4byte	0x2b0
 1801 0356 24       		.byte	0x24
 1802 0357 0C       		.uleb128 0xc
 1803 0358 73323600 		.ascii	"s26\000"
 1804 035c 08       		.byte	0x8
 1805 035d 1801     		.2byte	0x118
 1806 035f B0020000 		.4byte	0x2b0
 1807 0363 28       		.byte	0x28
 1808 0364 0C       		.uleb128 0xc
 1809 0365 73323700 		.ascii	"s27\000"
 1810 0369 08       		.byte	0x8
 1811 036a 1901     		.2byte	0x119
 1812 036c B0020000 		.4byte	0x2b0
 1813 0370 2C       		.byte	0x2c
 1814 0371 0C       		.uleb128 0xc
 1815 0372 73323800 		.ascii	"s28\000"
 1816 0376 08       		.byte	0x8
 1817 0377 1A01     		.2byte	0x11a
 1818 0379 B0020000 		.4byte	0x2b0
 1819 037d 30       		.byte	0x30
 1820 037e 0C       		.uleb128 0xc
 1821 037f 73323900 		.ascii	"s29\000"
 1822 0383 08       		.byte	0x8
 1823 0384 1B01     		.2byte	0x11b
 1824 0386 B0020000 		.4byte	0x2b0
 1825 038a 34       		.byte	0x34
 1826 038b 0C       		.uleb128 0xc
 1827 038c 73333000 		.ascii	"s30\000"
 1828 0390 08       		.byte	0x8
 1829 0391 1C01     		.2byte	0x11c
 1830 0393 B0020000 		.4byte	0x2b0
 1831 0397 38       		.byte	0x38
 1832 0398 0C       		.uleb128 0xc
 1833 0399 73333100 		.ascii	"s31\000"
 1834 039d 08       		.byte	0x8
 1835 039e 1D01     		.2byte	0x11d
 1836 03a0 B0020000 		.4byte	0x2b0
 1837 03a4 3C       		.byte	0x3c
 1838 03a5 0C       		.uleb128 0xc
 1839 03a6 723400   		.ascii	"r4\000"
 1840 03a9 08       		.byte	0x8
 1841 03aa 1F01     		.2byte	0x11f
 1842 03ac B0020000 		.4byte	0x2b0
 1843 03b0 40       		.byte	0x40
 1844 03b1 0C       		.uleb128 0xc
 1845 03b2 723500   		.ascii	"r5\000"
 1846 03b5 08       		.byte	0x8
 1847 03b6 2001     		.2byte	0x120
 1848 03b8 B0020000 		.4byte	0x2b0
 1849 03bc 44       		.byte	0x44
 1850 03bd 0C       		.uleb128 0xc
 1851 03be 723600   		.ascii	"r6\000"
 1852 03c1 08       		.byte	0x8
 1853 03c2 2101     		.2byte	0x121
 1854 03c4 B0020000 		.4byte	0x2b0
 1855 03c8 48       		.byte	0x48
ARM GAS  /tmp/ccI7Zqab.s 			page 34


 1856 03c9 0C       		.uleb128 0xc
 1857 03ca 723700   		.ascii	"r7\000"
 1858 03cd 08       		.byte	0x8
 1859 03ce 2201     		.2byte	0x122
 1860 03d0 B0020000 		.4byte	0x2b0
 1861 03d4 4C       		.byte	0x4c
 1862 03d5 0C       		.uleb128 0xc
 1863 03d6 723800   		.ascii	"r8\000"
 1864 03d9 08       		.byte	0x8
 1865 03da 2301     		.2byte	0x123
 1866 03dc B0020000 		.4byte	0x2b0
 1867 03e0 50       		.byte	0x50
 1868 03e1 0C       		.uleb128 0xc
 1869 03e2 723900   		.ascii	"r9\000"
 1870 03e5 08       		.byte	0x8
 1871 03e6 2401     		.2byte	0x124
 1872 03e8 B0020000 		.4byte	0x2b0
 1873 03ec 54       		.byte	0x54
 1874 03ed 0C       		.uleb128 0xc
 1875 03ee 72313000 		.ascii	"r10\000"
 1876 03f2 08       		.byte	0x8
 1877 03f3 2501     		.2byte	0x125
 1878 03f5 B0020000 		.4byte	0x2b0
 1879 03f9 58       		.byte	0x58
 1880 03fa 0C       		.uleb128 0xc
 1881 03fb 72313100 		.ascii	"r11\000"
 1882 03ff 08       		.byte	0x8
 1883 0400 2601     		.2byte	0x126
 1884 0402 B0020000 		.4byte	0x2b0
 1885 0406 5C       		.byte	0x5c
 1886 0407 0C       		.uleb128 0xc
 1887 0408 6C7200   		.ascii	"lr\000"
 1888 040b 08       		.byte	0x8
 1889 040c 2701     		.2byte	0x127
 1890 040e B0020000 		.4byte	0x2b0
 1891 0412 60       		.byte	0x60
 1892 0413 00       		.byte	0
 1893 0414 0B       		.uleb128 0xb
 1894 0415 4F020000 		.4byte	.LASF56
 1895 0419 04       		.byte	0x4
 1896 041a 08       		.byte	0x8
 1897 041b 3101     		.2byte	0x131
 1898 041d 2F040000 		.4byte	0x42f
 1899 0421 0C       		.uleb128 0xc
 1900 0422 72313300 		.ascii	"r13\000"
 1901 0426 08       		.byte	0x8
 1902 0427 3201     		.2byte	0x132
 1903 0429 2F040000 		.4byte	0x42f
 1904 042d 00       		.byte	0
 1905 042e 00       		.byte	0
 1906 042f 09       		.uleb128 0x9
 1907 0430 04       		.byte	0x4
 1908 0431 C8020000 		.4byte	0x2c8
 1909 0435 0D       		.uleb128 0xd
 1910 0436 CA000000 		.4byte	0xca
 1911 043a 04       		.uleb128 0x4
 1912 043b 04       		.byte	0x4
ARM GAS  /tmp/ccI7Zqab.s 			page 35


 1913 043c 07       		.byte	0x7
 1914 043d 07000000 		.4byte	.LASF57
 1915 0441 0D       		.uleb128 0xd
 1916 0442 3F010000 		.4byte	0x13f
 1917 0446 05       		.uleb128 0x5
 1918 0447 E8050000 		.4byte	.LASF58
 1919 044b 10       		.byte	0x10
 1920 044c 09       		.byte	0x9
 1921 044d 2C       		.byte	0x2c
 1922 044e 77040000 		.4byte	0x477
 1923 0452 06       		.uleb128 0x6
 1924 0453 1A060000 		.4byte	.LASF59
 1925 0457 09       		.byte	0x9
 1926 0458 2D       		.byte	0x2d
 1927 0459 85020000 		.4byte	0x285
 1928 045d 00       		.byte	0
 1929 045e 06       		.uleb128 0x6
 1930 045f 51010000 		.4byte	.LASF60
 1931 0463 09       		.byte	0x9
 1932 0464 2F       		.byte	0x2f
 1933 0465 7F020000 		.4byte	0x27f
 1934 0469 08       		.byte	0x8
 1935 046a 06       		.uleb128 0x6
 1936 046b 170C0000 		.4byte	.LASF61
 1937 046f 09       		.byte	0x9
 1938 0470 31       		.byte	0x31
 1939 0471 77040000 		.4byte	0x477
 1940 0475 0C       		.byte	0xc
 1941 0476 00       		.byte	0
 1942 0477 09       		.uleb128 0x9
 1943 0478 04       		.byte	0x4
 1944 0479 46040000 		.4byte	0x446
 1945 047d 03       		.uleb128 0x3
 1946 047e E8050000 		.4byte	.LASF58
 1947 0482 09       		.byte	0x9
 1948 0483 33       		.byte	0x33
 1949 0484 46040000 		.4byte	0x446
 1950 0488 0E       		.uleb128 0xe
 1951 0489 04       		.byte	0x4
 1952 048a 07       		.byte	0x7
 1953 048b 96       		.byte	0x96
 1954 048c BD040000 		.4byte	0x4bd
 1955 0490 0F       		.uleb128 0xf
 1956 0491 870B0000 		.4byte	.LASF62
 1957 0495 07       		.byte	0x7
 1958 0496 9D       		.byte	0x9d
 1959 0497 29010000 		.4byte	0x129
 1960 049b 0F       		.uleb128 0xf
 1961 049c 65010000 		.4byte	.LASF63
 1962 04a0 07       		.byte	0x7
 1963 04a1 A4       		.byte	0xa4
 1964 04a2 29010000 		.4byte	0x129
 1965 04a6 0F       		.uleb128 0xf
 1966 04a7 7A030000 		.4byte	.LASF64
 1967 04ab 07       		.byte	0x7
 1968 04ac AB       		.byte	0xab
 1969 04ad BB020000 		.4byte	0x2bb
ARM GAS  /tmp/ccI7Zqab.s 			page 36


 1970 04b1 0F       		.uleb128 0xf
 1971 04b2 78010000 		.4byte	.LASF65
 1972 04b6 07       		.byte	0x7
 1973 04b7 B2       		.byte	0xb2
 1974 04b8 34010000 		.4byte	0x134
 1975 04bc 00       		.byte	0
 1976 04bd 09       		.uleb128 0x9
 1977 04be 04       		.byte	0x4
 1978 04bf C3040000 		.4byte	0x4c3
 1979 04c3 10       		.uleb128 0x10
 1980 04c4 C8040000 		.4byte	0x4c8
 1981 04c8 04       		.uleb128 0x4
 1982 04c9 01       		.byte	0x1
 1983 04ca 08       		.byte	0x8
 1984 04cb 5C030000 		.4byte	.LASF66
 1985 04cf 09       		.uleb128 0x9
 1986 04d0 04       		.byte	0x4
 1987 04d1 BD020000 		.4byte	0x2bd
 1988 04d5 09       		.uleb128 0x9
 1989 04d6 04       		.byte	0x4
 1990 04d7 7D040000 		.4byte	0x47d
 1991 04db 11       		.uleb128 0x11
 1992 04dc A8070000 		.4byte	.LASF256
 1993 04e0 01       		.byte	0x1
 1994 04e1 0A       		.byte	0xa
 1995 04e2 A5       		.byte	0xa5
 1996 04e3 AB060000 		.4byte	0x6ab
 1997 04e7 12       		.uleb128 0x12
 1998 04e8 84040000 		.4byte	.LASF67
 1999 04ec 72       		.sleb128 -14
 2000 04ed 12       		.uleb128 0x12
 2001 04ee C6040000 		.4byte	.LASF68
 2002 04f2 74       		.sleb128 -12
 2003 04f3 12       		.uleb128 0x12
 2004 04f4 B1050000 		.4byte	.LASF69
 2005 04f8 75       		.sleb128 -11
 2006 04f9 12       		.uleb128 0x12
 2007 04fa 38030000 		.4byte	.LASF70
 2008 04fe 76       		.sleb128 -10
 2009 04ff 12       		.uleb128 0x12
 2010 0500 66060000 		.4byte	.LASF71
 2011 0504 7B       		.sleb128 -5
 2012 0505 12       		.uleb128 0x12
 2013 0506 080A0000 		.4byte	.LASF72
 2014 050a 7C       		.sleb128 -4
 2015 050b 12       		.uleb128 0x12
 2016 050c C40B0000 		.4byte	.LASF73
 2017 0510 7E       		.sleb128 -2
 2018 0511 12       		.uleb128 0x12
 2019 0512 07020000 		.4byte	.LASF74
 2020 0516 7F       		.sleb128 -1
 2021 0517 12       		.uleb128 0x12
 2022 0518 A3040000 		.4byte	.LASF75
 2023 051c 00       		.sleb128 0
 2024 051d 12       		.uleb128 0x12
 2025 051e DF080000 		.4byte	.LASF76
 2026 0522 01       		.sleb128 1
ARM GAS  /tmp/ccI7Zqab.s 			page 37


 2027 0523 12       		.uleb128 0x12
 2028 0524 0A030000 		.4byte	.LASF77
 2029 0528 02       		.sleb128 2
 2030 0529 12       		.uleb128 0x12
 2031 052a 350B0000 		.4byte	.LASF78
 2032 052e 03       		.sleb128 3
 2033 052f 12       		.uleb128 0x12
 2034 0530 C5000000 		.4byte	.LASF79
 2035 0534 04       		.sleb128 4
 2036 0535 12       		.uleb128 0x12
 2037 0536 750A0000 		.4byte	.LASF80
 2038 053a 05       		.sleb128 5
 2039 053b 12       		.uleb128 0x12
 2040 053c E8080000 		.4byte	.LASF81
 2041 0540 06       		.sleb128 6
 2042 0541 12       		.uleb128 0x12
 2043 0542 72040000 		.4byte	.LASF82
 2044 0546 07       		.sleb128 7
 2045 0547 12       		.uleb128 0x12
 2046 0548 0C0B0000 		.4byte	.LASF83
 2047 054c 08       		.sleb128 8
 2048 054d 12       		.uleb128 0x12
 2049 054e B90B0000 		.4byte	.LASF84
 2050 0552 09       		.sleb128 9
 2051 0553 12       		.uleb128 0x12
 2052 0554 8E0B0000 		.4byte	.LASF85
 2053 0558 0A       		.sleb128 10
 2054 0559 12       		.uleb128 0x12
 2055 055a E7020000 		.4byte	.LASF86
 2056 055e 0B       		.sleb128 11
 2057 055f 12       		.uleb128 0x12
 2058 0560 F00A0000 		.4byte	.LASF87
 2059 0564 0C       		.sleb128 12
 2060 0565 12       		.uleb128 0x12
 2061 0566 3B0A0000 		.4byte	.LASF88
 2062 056a 0D       		.sleb128 13
 2063 056b 12       		.uleb128 0x12
 2064 056c DC040000 		.4byte	.LASF89
 2065 0570 0E       		.sleb128 14
 2066 0571 12       		.uleb128 0x12
 2067 0572 88000000 		.4byte	.LASF90
 2068 0576 0F       		.sleb128 15
 2069 0577 12       		.uleb128 0x12
 2070 0578 040C0000 		.4byte	.LASF91
 2071 057c 10       		.sleb128 16
 2072 057d 12       		.uleb128 0x12
 2073 057e 33070000 		.4byte	.LASF92
 2074 0582 11       		.sleb128 17
 2075 0583 12       		.uleb128 0x12
 2076 0584 AE0A0000 		.4byte	.LASF93
 2077 0588 12       		.sleb128 18
 2078 0589 12       		.uleb128 0x12
 2079 058a 48030000 		.4byte	.LASF94
 2080 058e 13       		.sleb128 19
 2081 058f 12       		.uleb128 0x12
 2082 0590 260A0000 		.4byte	.LASF95
 2083 0594 14       		.sleb128 20
ARM GAS  /tmp/ccI7Zqab.s 			page 38


 2084 0595 12       		.uleb128 0x12
 2085 0596 5F0B0000 		.4byte	.LASF96
 2086 059a 15       		.sleb128 21
 2087 059b 12       		.uleb128 0x12
 2088 059c F7040000 		.4byte	.LASF97
 2089 05a0 16       		.sleb128 22
 2090 05a1 12       		.uleb128 0x12
 2091 05a2 7A0B0000 		.4byte	.LASF98
 2092 05a6 17       		.sleb128 23
 2093 05a7 12       		.uleb128 0x12
 2094 05a8 39040000 		.4byte	.LASF99
 2095 05ac 18       		.sleb128 24
 2096 05ad 12       		.uleb128 0x12
 2097 05ae 220B0000 		.4byte	.LASF100
 2098 05b2 19       		.sleb128 25
 2099 05b3 12       		.uleb128 0x12
 2100 05b4 31060000 		.4byte	.LASF101
 2101 05b8 1A       		.sleb128 26
 2102 05b9 12       		.uleb128 0x12
 2103 05ba 65040000 		.4byte	.LASF102
 2104 05be 1B       		.sleb128 27
 2105 05bf 12       		.uleb128 0x12
 2106 05c0 28010000 		.4byte	.LASF103
 2107 05c4 1C       		.sleb128 28
 2108 05c5 12       		.uleb128 0x12
 2109 05c6 6E080000 		.4byte	.LASF104
 2110 05ca 1D       		.sleb128 29
 2111 05cb 12       		.uleb128 0x12
 2112 05cc C1030000 		.4byte	.LASF105
 2113 05d0 1E       		.sleb128 30
 2114 05d1 12       		.uleb128 0x12
 2115 05d2 F5030000 		.4byte	.LASF106
 2116 05d6 1F       		.sleb128 31
 2117 05d7 12       		.uleb128 0x12
 2118 05d8 CF020000 		.4byte	.LASF107
 2119 05dc 20       		.sleb128 32
 2120 05dd 12       		.uleb128 0x12
 2121 05de 0D070000 		.4byte	.LASF108
 2122 05e2 21       		.sleb128 33
 2123 05e3 12       		.uleb128 0x12
 2124 05e4 63050000 		.4byte	.LASF109
 2125 05e8 22       		.sleb128 34
 2126 05e9 12       		.uleb128 0x12
 2127 05ea 27060000 		.4byte	.LASF110
 2128 05ee 23       		.sleb128 35
 2129 05ef 12       		.uleb128 0x12
 2130 05f0 06060000 		.4byte	.LASF111
 2131 05f4 24       		.sleb128 36
 2132 05f5 12       		.uleb128 0x12
 2133 05f6 78080000 		.4byte	.LASF112
 2134 05fa 25       		.sleb128 37
 2135 05fb 12       		.uleb128 0x12
 2136 05fc CB030000 		.4byte	.LASF113
 2137 0600 26       		.sleb128 38
 2138 0601 12       		.uleb128 0x12
 2139 0602 14020000 		.4byte	.LASF114
 2140 0606 27       		.sleb128 39
ARM GAS  /tmp/ccI7Zqab.s 			page 39


 2141 0607 12       		.uleb128 0x12
 2142 0608 0B080000 		.4byte	.LASF115
 2143 060c 28       		.sleb128 40
 2144 060d 12       		.uleb128 0x12
 2145 060e F4070000 		.4byte	.LASF116
 2146 0612 29       		.sleb128 41
 2147 0613 12       		.uleb128 0x12
 2148 0614 B2030000 		.4byte	.LASF117
 2149 0618 2A       		.sleb128 42
 2150 0619 12       		.uleb128 0x12
 2151 061a C3070000 		.4byte	.LASF118
 2152 061e 2B       		.sleb128 43
 2153 061f 12       		.uleb128 0x12
 2154 0620 56050000 		.4byte	.LASF119
 2155 0624 2C       		.sleb128 44
 2156 0625 12       		.uleb128 0x12
 2157 0626 CD080000 		.4byte	.LASF120
 2158 062a 2D       		.sleb128 45
 2159 062b 12       		.uleb128 0x12
 2160 062c AC0B0000 		.4byte	.LASF121
 2161 0630 2E       		.sleb128 46
 2162 0631 12       		.uleb128 0x12
 2163 0632 10060000 		.4byte	.LASF122
 2164 0636 2F       		.sleb128 47
 2165 0637 12       		.uleb128 0x12
 2166 0638 BB000000 		.4byte	.LASF123
 2167 063c 33       		.sleb128 51
 2168 063d 12       		.uleb128 0x12
 2169 063e 90060000 		.4byte	.LASF124
 2170 0642 34       		.sleb128 52
 2171 0643 12       		.uleb128 0x12
 2172 0644 BF050000 		.4byte	.LASF125
 2173 0648 35       		.sleb128 53
 2174 0649 12       		.uleb128 0x12
 2175 064a DE060000 		.4byte	.LASF126
 2176 064e 36       		.sleb128 54
 2177 064f 12       		.uleb128 0x12
 2178 0650 EE050000 		.4byte	.LASF127
 2179 0654 37       		.sleb128 55
 2180 0655 12       		.uleb128 0x12
 2181 0656 24050000 		.4byte	.LASF128
 2182 065a 38       		.sleb128 56
 2183 065b 12       		.uleb128 0x12
 2184 065c 52040000 		.4byte	.LASF129
 2185 0660 39       		.sleb128 57
 2186 0661 12       		.uleb128 0x12
 2187 0662 2F0C0000 		.4byte	.LASF130
 2188 0666 3A       		.sleb128 58
 2189 0667 12       		.uleb128 0x12
 2190 0668 58070000 		.4byte	.LASF131
 2191 066c 3B       		.sleb128 59
 2192 066d 12       		.uleb128 0x12
 2193 066e AC060000 		.4byte	.LASF132
 2194 0672 3C       		.sleb128 60
 2195 0673 12       		.uleb128 0x12
 2196 0674 47010000 		.4byte	.LASF133
 2197 0678 3D       		.sleb128 61
ARM GAS  /tmp/ccI7Zqab.s 			page 40


 2198 0679 12       		.uleb128 0x12
 2199 067a 31080000 		.4byte	.LASF134
 2200 067e C000     		.sleb128 64
 2201 0680 12       		.uleb128 0x12
 2202 0681 B5020000 		.4byte	.LASF135
 2203 0685 C100     		.sleb128 65
 2204 0687 12       		.uleb128 0x12
 2205 0688 1E0C0000 		.4byte	.LASF136
 2206 068c C200     		.sleb128 66
 2207 068e 12       		.uleb128 0x12
 2208 068f 3B010000 		.4byte	.LASF137
 2209 0693 CA00     		.sleb128 74
 2210 0695 12       		.uleb128 0x12
 2211 0696 4A050000 		.4byte	.LASF138
 2212 069a CB00     		.sleb128 75
 2213 069c 12       		.uleb128 0x12
 2214 069d CA050000 		.4byte	.LASF139
 2215 06a1 CC00     		.sleb128 76
 2216 06a3 12       		.uleb128 0x12
 2217 06a4 87060000 		.4byte	.LASF140
 2218 06a8 D100     		.sleb128 81
 2219 06aa 00       		.byte	0
 2220 06ab 13       		.uleb128 0x13
 2221 06ac CA000000 		.4byte	0xca
 2222 06b0 BB060000 		.4byte	0x6bb
 2223 06b4 14       		.uleb128 0x14
 2224 06b5 3A040000 		.4byte	0x43a
 2225 06b9 01       		.byte	0x1
 2226 06ba 00       		.byte	0
 2227 06bb 13       		.uleb128 0x13
 2228 06bc CA000000 		.4byte	0xca
 2229 06c0 CB060000 		.4byte	0x6cb
 2230 06c4 14       		.uleb128 0x14
 2231 06c5 3A040000 		.4byte	0x43a
 2232 06c9 03       		.byte	0x3
 2233 06ca 00       		.byte	0
 2234 06cb 0D       		.uleb128 0xd
 2235 06cc BF000000 		.4byte	0xbf
 2236 06d0 15       		.uleb128 0x15
 2237 06d1 B8       		.byte	0xb8
 2238 06d2 0A       		.byte	0xa
 2239 06d3 3501     		.2byte	0x135
 2240 06d5 B9080000 		.4byte	0x8b9
 2241 06d9 0C       		.uleb128 0xc
 2242 06da 49535200 		.ascii	"ISR\000"
 2243 06de 0A       		.byte	0xa
 2244 06df 3701     		.2byte	0x137
 2245 06e1 35040000 		.4byte	0x435
 2246 06e5 00       		.byte	0
 2247 06e6 0C       		.uleb128 0xc
 2248 06e7 49455200 		.ascii	"IER\000"
 2249 06eb 0A       		.byte	0xa
 2250 06ec 3801     		.2byte	0x138
 2251 06ee 35040000 		.4byte	0x435
 2252 06f2 04       		.byte	0x4
 2253 06f3 0C       		.uleb128 0xc
 2254 06f4 435200   		.ascii	"CR\000"
ARM GAS  /tmp/ccI7Zqab.s 			page 41


 2255 06f7 0A       		.byte	0xa
 2256 06f8 3901     		.2byte	0x139
 2257 06fa 35040000 		.4byte	0x435
 2258 06fe 08       		.byte	0x8
 2259 06ff 16       		.uleb128 0x16
 2260 0700 4D040000 		.4byte	.LASF141
 2261 0704 0A       		.byte	0xa
 2262 0705 3A01     		.2byte	0x13a
 2263 0707 35040000 		.4byte	0x435
 2264 070b 0C       		.byte	0xc
 2265 070c 16       		.uleb128 0x16
 2266 070d 57020000 		.4byte	.LASF142
 2267 0711 0A       		.byte	0xa
 2268 0712 3B01     		.2byte	0x13b
 2269 0714 CA000000 		.4byte	0xca
 2270 0718 10       		.byte	0x10
 2271 0719 16       		.uleb128 0x16
 2272 071a 18050000 		.4byte	.LASF143
 2273 071e 0A       		.byte	0xa
 2274 071f 3C01     		.2byte	0x13c
 2275 0721 35040000 		.4byte	0x435
 2276 0725 14       		.byte	0x14
 2277 0726 16       		.uleb128 0x16
 2278 0727 1E050000 		.4byte	.LASF144
 2279 072b 0A       		.byte	0xa
 2280 072c 3D01     		.2byte	0x13d
 2281 072e 35040000 		.4byte	0x435
 2282 0732 18       		.byte	0x18
 2283 0733 16       		.uleb128 0x16
 2284 0734 61020000 		.4byte	.LASF145
 2285 0738 0A       		.byte	0xa
 2286 0739 3E01     		.2byte	0x13e
 2287 073b CA000000 		.4byte	0xca
 2288 073f 1C       		.byte	0x1c
 2289 0740 0C       		.uleb128 0xc
 2290 0741 54523100 		.ascii	"TR1\000"
 2291 0745 0A       		.byte	0xa
 2292 0746 3F01     		.2byte	0x13f
 2293 0748 35040000 		.4byte	0x435
 2294 074c 20       		.byte	0x20
 2295 074d 0C       		.uleb128 0xc
 2296 074e 54523200 		.ascii	"TR2\000"
 2297 0752 0A       		.byte	0xa
 2298 0753 4001     		.2byte	0x140
 2299 0755 35040000 		.4byte	0x435
 2300 0759 24       		.byte	0x24
 2301 075a 0C       		.uleb128 0xc
 2302 075b 54523300 		.ascii	"TR3\000"
 2303 075f 0A       		.byte	0xa
 2304 0760 4101     		.2byte	0x141
 2305 0762 35040000 		.4byte	0x435
 2306 0766 28       		.byte	0x28
 2307 0767 16       		.uleb128 0x16
 2308 0768 1C030000 		.4byte	.LASF146
 2309 076c 0A       		.byte	0xa
 2310 076d 4201     		.2byte	0x142
 2311 076f CA000000 		.4byte	0xca
ARM GAS  /tmp/ccI7Zqab.s 			page 42


 2312 0773 2C       		.byte	0x2c
 2313 0774 16       		.uleb128 0x16
 2314 0775 56000000 		.4byte	.LASF147
 2315 0779 0A       		.byte	0xa
 2316 077a 4301     		.2byte	0x143
 2317 077c 35040000 		.4byte	0x435
 2318 0780 30       		.byte	0x30
 2319 0781 16       		.uleb128 0x16
 2320 0782 5B000000 		.4byte	.LASF148
 2321 0786 0A       		.byte	0xa
 2322 0787 4401     		.2byte	0x144
 2323 0789 35040000 		.4byte	0x435
 2324 078d 34       		.byte	0x34
 2325 078e 16       		.uleb128 0x16
 2326 078f 60000000 		.4byte	.LASF149
 2327 0793 0A       		.byte	0xa
 2328 0794 4501     		.2byte	0x145
 2329 0796 35040000 		.4byte	0x435
 2330 079a 38       		.byte	0x38
 2331 079b 16       		.uleb128 0x16
 2332 079c 65000000 		.4byte	.LASF150
 2333 07a0 0A       		.byte	0xa
 2334 07a1 4601     		.2byte	0x146
 2335 07a3 35040000 		.4byte	0x435
 2336 07a7 3C       		.byte	0x3c
 2337 07a8 0C       		.uleb128 0xc
 2338 07a9 445200   		.ascii	"DR\000"
 2339 07ac 0A       		.byte	0xa
 2340 07ad 4701     		.2byte	0x147
 2341 07af 35040000 		.4byte	0x435
 2342 07b3 40       		.byte	0x40
 2343 07b4 16       		.uleb128 0x16
 2344 07b5 79020000 		.4byte	.LASF151
 2345 07b9 0A       		.byte	0xa
 2346 07ba 4801     		.2byte	0x148
 2347 07bc CA000000 		.4byte	0xca
 2348 07c0 44       		.byte	0x44
 2349 07c1 16       		.uleb128 0x16
 2350 07c2 83020000 		.4byte	.LASF152
 2351 07c6 0A       		.byte	0xa
 2352 07c7 4901     		.2byte	0x149
 2353 07c9 CA000000 		.4byte	0xca
 2354 07cd 48       		.byte	0x48
 2355 07ce 16       		.uleb128 0x16
 2356 07cf DE0A0000 		.4byte	.LASF153
 2357 07d3 0A       		.byte	0xa
 2358 07d4 4A01     		.2byte	0x14a
 2359 07d6 35040000 		.4byte	0x435
 2360 07da 4C       		.byte	0x4c
 2361 07db 16       		.uleb128 0x16
 2362 07dc 8D020000 		.4byte	.LASF154
 2363 07e0 0A       		.byte	0xa
 2364 07e1 4B01     		.2byte	0x14b
 2365 07e3 BB060000 		.4byte	0x6bb
 2366 07e7 50       		.byte	0x50
 2367 07e8 16       		.uleb128 0x16
 2368 07e9 0A090000 		.4byte	.LASF155
ARM GAS  /tmp/ccI7Zqab.s 			page 43


 2369 07ed 0A       		.byte	0xa
 2370 07ee 4C01     		.2byte	0x14c
 2371 07f0 35040000 		.4byte	0x435
 2372 07f4 60       		.byte	0x60
 2373 07f5 16       		.uleb128 0x16
 2374 07f6 0F090000 		.4byte	.LASF156
 2375 07fa 0A       		.byte	0xa
 2376 07fb 4D01     		.2byte	0x14d
 2377 07fd 35040000 		.4byte	0x435
 2378 0801 64       		.byte	0x64
 2379 0802 16       		.uleb128 0x16
 2380 0803 14090000 		.4byte	.LASF157
 2381 0807 0A       		.byte	0xa
 2382 0808 4E01     		.2byte	0x14e
 2383 080a 35040000 		.4byte	0x435
 2384 080e 68       		.byte	0x68
 2385 080f 16       		.uleb128 0x16
 2386 0810 69080000 		.4byte	.LASF158
 2387 0814 0A       		.byte	0xa
 2388 0815 4F01     		.2byte	0x14f
 2389 0817 35040000 		.4byte	0x435
 2390 081b 6C       		.byte	0x6c
 2391 081c 16       		.uleb128 0x16
 2392 081d 97020000 		.4byte	.LASF159
 2393 0821 0A       		.byte	0xa
 2394 0822 5001     		.2byte	0x150
 2395 0824 BB060000 		.4byte	0x6bb
 2396 0828 70       		.byte	0x70
 2397 0829 16       		.uleb128 0x16
 2398 082a C80A0000 		.4byte	.LASF160
 2399 082e 0A       		.byte	0xa
 2400 082f 5101     		.2byte	0x151
 2401 0831 35040000 		.4byte	0x435
 2402 0835 80       		.byte	0x80
 2403 0836 16       		.uleb128 0x16
 2404 0837 CD0A0000 		.4byte	.LASF161
 2405 083b 0A       		.byte	0xa
 2406 083c 5201     		.2byte	0x152
 2407 083e 35040000 		.4byte	0x435
 2408 0842 84       		.byte	0x84
 2409 0843 16       		.uleb128 0x16
 2410 0844 D20A0000 		.4byte	.LASF162
 2411 0848 0A       		.byte	0xa
 2412 0849 5301     		.2byte	0x153
 2413 084b 35040000 		.4byte	0x435
 2414 084f 88       		.byte	0x88
 2415 0850 16       		.uleb128 0x16
 2416 0851 59010000 		.4byte	.LASF163
 2417 0855 0A       		.byte	0xa
 2418 0856 5401     		.2byte	0x154
 2419 0858 35040000 		.4byte	0x435
 2420 085c 8C       		.byte	0x8c
 2421 085d 16       		.uleb128 0x16
 2422 085e A1020000 		.4byte	.LASF164
 2423 0862 0A       		.byte	0xa
 2424 0863 5501     		.2byte	0x155
 2425 0865 BB060000 		.4byte	0x6bb
ARM GAS  /tmp/ccI7Zqab.s 			page 44


 2426 0869 90       		.byte	0x90
 2427 086a 16       		.uleb128 0x16
 2428 086b E6030000 		.4byte	.LASF165
 2429 086f 0A       		.byte	0xa
 2430 0870 5601     		.2byte	0x156
 2431 0872 35040000 		.4byte	0x435
 2432 0876 A0       		.byte	0xa0
 2433 0877 16       		.uleb128 0x16
 2434 0878 9B060000 		.4byte	.LASF166
 2435 087c 0A       		.byte	0xa
 2436 087d 5701     		.2byte	0x157
 2437 087f 35040000 		.4byte	0x435
 2438 0883 A4       		.byte	0xa4
 2439 0884 16       		.uleb128 0x16
 2440 0885 AB020000 		.4byte	.LASF167
 2441 0889 0A       		.byte	0xa
 2442 088a 5801     		.2byte	0x158
 2443 088c CA000000 		.4byte	0xca
 2444 0890 A8       		.byte	0xa8
 2445 0891 16       		.uleb128 0x16
 2446 0892 DC030000 		.4byte	.LASF168
 2447 0896 0A       		.byte	0xa
 2448 0897 5901     		.2byte	0x159
 2449 0899 CA000000 		.4byte	0xca
 2450 089d AC       		.byte	0xac
 2451 089e 16       		.uleb128 0x16
 2452 089f 7D040000 		.4byte	.LASF169
 2453 08a3 0A       		.byte	0xa
 2454 08a4 5A01     		.2byte	0x15a
 2455 08a6 35040000 		.4byte	0x435
 2456 08aa B0       		.byte	0xb0
 2457 08ab 16       		.uleb128 0x16
 2458 08ac 5A0A0000 		.4byte	.LASF170
 2459 08b0 0A       		.byte	0xa
 2460 08b1 5B01     		.2byte	0x15b
 2461 08b3 35040000 		.4byte	0x435
 2462 08b7 B4       		.byte	0xb4
 2463 08b8 00       		.byte	0
 2464 08b9 17       		.uleb128 0x17
 2465 08ba 02040000 		.4byte	.LASF171
 2466 08be 0A       		.byte	0xa
 2467 08bf 5D01     		.2byte	0x15d
 2468 08c1 D0060000 		.4byte	0x6d0
 2469 08c5 15       		.uleb128 0x15
 2470 08c6 10       		.byte	0x10
 2471 08c7 0A       		.byte	0xa
 2472 08c8 5F01     		.2byte	0x15f
 2473 08ca 03090000 		.4byte	0x903
 2474 08ce 0C       		.uleb128 0xc
 2475 08cf 43535200 		.ascii	"CSR\000"
 2476 08d3 0A       		.byte	0xa
 2477 08d4 6101     		.2byte	0x161
 2478 08d6 35040000 		.4byte	0x435
 2479 08da 00       		.byte	0
 2480 08db 16       		.uleb128 0x16
 2481 08dc 0E040000 		.4byte	.LASF172
 2482 08e0 0A       		.byte	0xa
ARM GAS  /tmp/ccI7Zqab.s 			page 45


 2483 08e1 6201     		.2byte	0x162
 2484 08e3 CA000000 		.4byte	0xca
 2485 08e7 04       		.byte	0x4
 2486 08e8 0C       		.uleb128 0xc
 2487 08e9 43435200 		.ascii	"CCR\000"
 2488 08ed 0A       		.byte	0xa
 2489 08ee 6301     		.2byte	0x163
 2490 08f0 35040000 		.4byte	0x435
 2491 08f4 08       		.byte	0x8
 2492 08f5 0C       		.uleb128 0xc
 2493 08f6 43445200 		.ascii	"CDR\000"
 2494 08fa 0A       		.byte	0xa
 2495 08fb 6401     		.2byte	0x164
 2496 08fd 35040000 		.4byte	0x435
 2497 0901 0C       		.byte	0xc
 2498 0902 00       		.byte	0
 2499 0903 17       		.uleb128 0x17
 2500 0904 E50B0000 		.4byte	.LASF173
 2501 0908 0A       		.byte	0xa
 2502 0909 6601     		.2byte	0x166
 2503 090b C5080000 		.4byte	0x8c5
 2504 090f 15       		.uleb128 0x15
 2505 0910 10       		.byte	0x10
 2506 0911 0A       		.byte	0xa
 2507 0912 E501     		.2byte	0x1e5
 2508 0914 4D090000 		.4byte	0x94d
 2509 0918 0C       		.uleb128 0xc
 2510 0919 43435200 		.ascii	"CCR\000"
 2511 091d 0A       		.byte	0xa
 2512 091e E701     		.2byte	0x1e7
 2513 0920 35040000 		.4byte	0x435
 2514 0924 00       		.byte	0
 2515 0925 16       		.uleb128 0x16
 2516 0926 22010000 		.4byte	.LASF174
 2517 092a 0A       		.byte	0xa
 2518 092b E801     		.2byte	0x1e8
 2519 092d 35040000 		.4byte	0x435
 2520 0931 04       		.byte	0x4
 2521 0932 16       		.uleb128 0x16
 2522 0933 20020000 		.4byte	.LASF175
 2523 0937 0A       		.byte	0xa
 2524 0938 E901     		.2byte	0x1e9
 2525 093a 35040000 		.4byte	0x435
 2526 093e 08       		.byte	0x8
 2527 093f 16       		.uleb128 0x16
 2528 0940 2E070000 		.4byte	.LASF176
 2529 0944 0A       		.byte	0xa
 2530 0945 EA01     		.2byte	0x1ea
 2531 0947 35040000 		.4byte	0x435
 2532 094b 0C       		.byte	0xc
 2533 094c 00       		.byte	0
 2534 094d 17       		.uleb128 0x17
 2535 094e D1070000 		.4byte	.LASF177
 2536 0952 0A       		.byte	0xa
 2537 0953 EB01     		.2byte	0x1eb
 2538 0955 0F090000 		.4byte	0x90f
 2539 0959 15       		.uleb128 0x15
ARM GAS  /tmp/ccI7Zqab.s 			page 46


 2540 095a 34       		.byte	0x34
 2541 095b 0A       		.byte	0xa
 2542 095c 8502     		.2byte	0x285
 2543 095e 0B0A0000 		.4byte	0xa0b
 2544 0962 0C       		.uleb128 0xc
 2545 0963 435200   		.ascii	"CR\000"
 2546 0966 0A       		.byte	0xa
 2547 0967 8702     		.2byte	0x287
 2548 0969 35040000 		.4byte	0x435
 2549 096d 00       		.byte	0
 2550 096e 16       		.uleb128 0x16
 2551 096f 4D040000 		.4byte	.LASF141
 2552 0973 0A       		.byte	0xa
 2553 0974 8802     		.2byte	0x288
 2554 0976 35040000 		.4byte	0x435
 2555 097a 04       		.byte	0x4
 2556 097b 0C       		.uleb128 0xc
 2557 097c 43495200 		.ascii	"CIR\000"
 2558 0980 0A       		.byte	0xa
 2559 0981 8902     		.2byte	0x289
 2560 0983 35040000 		.4byte	0x435
 2561 0987 08       		.byte	0x8
 2562 0988 16       		.uleb128 0x16
 2563 0989 72060000 		.4byte	.LASF178
 2564 098d 0A       		.byte	0xa
 2565 098e 8A02     		.2byte	0x28a
 2566 0990 35040000 		.4byte	0x435
 2567 0994 0C       		.byte	0xc
 2568 0995 16       		.uleb128 0x16
 2569 0996 A50A0000 		.4byte	.LASF179
 2570 099a 0A       		.byte	0xa
 2571 099b 8B02     		.2byte	0x28b
 2572 099d 35040000 		.4byte	0x435
 2573 09a1 10       		.byte	0x10
 2574 09a2 16       		.uleb128 0x16
 2575 09a3 BA0A0000 		.4byte	.LASF180
 2576 09a7 0A       		.byte	0xa
 2577 09a8 8C02     		.2byte	0x28c
 2578 09aa 35040000 		.4byte	0x435
 2579 09ae 14       		.byte	0x14
 2580 09af 16       		.uleb128 0x16
 2581 09b0 FF010000 		.4byte	.LASF181
 2582 09b4 0A       		.byte	0xa
 2583 09b5 8D02     		.2byte	0x28d
 2584 09b7 35040000 		.4byte	0x435
 2585 09bb 18       		.byte	0x18
 2586 09bc 16       		.uleb128 0x16
 2587 09bd 03080000 		.4byte	.LASF182
 2588 09c1 0A       		.byte	0xa
 2589 09c2 8E02     		.2byte	0x28e
 2590 09c4 35040000 		.4byte	0x435
 2591 09c8 1C       		.byte	0x1c
 2592 09c9 16       		.uleb128 0x16
 2593 09ca D7030000 		.4byte	.LASF183
 2594 09ce 0A       		.byte	0xa
 2595 09cf 8F02     		.2byte	0x28f
 2596 09d1 35040000 		.4byte	0x435
ARM GAS  /tmp/ccI7Zqab.s 			page 47


 2597 09d5 20       		.byte	0x20
 2598 09d6 0C       		.uleb128 0xc
 2599 09d7 43535200 		.ascii	"CSR\000"
 2600 09db 0A       		.byte	0xa
 2601 09dc 9002     		.2byte	0x290
 2602 09de 35040000 		.4byte	0x435
 2603 09e2 24       		.byte	0x24
 2604 09e3 16       		.uleb128 0x16
 2605 09e4 90050000 		.4byte	.LASF184
 2606 09e8 0A       		.byte	0xa
 2607 09e9 9102     		.2byte	0x291
 2608 09eb 35040000 		.4byte	0x435
 2609 09ef 28       		.byte	0x28
 2610 09f0 16       		.uleb128 0x16
 2611 09f1 07070000 		.4byte	.LASF185
 2612 09f5 0A       		.byte	0xa
 2613 09f6 9202     		.2byte	0x292
 2614 09f8 35040000 		.4byte	0x435
 2615 09fc 2C       		.byte	0x2c
 2616 09fd 16       		.uleb128 0x16
 2617 09fe 8A070000 		.4byte	.LASF186
 2618 0a02 0A       		.byte	0xa
 2619 0a03 9302     		.2byte	0x293
 2620 0a05 35040000 		.4byte	0x435
 2621 0a09 30       		.byte	0x30
 2622 0a0a 00       		.byte	0
 2623 0a0b 17       		.uleb128 0x17
 2624 0a0c 4E0A0000 		.4byte	.LASF187
 2625 0a10 0A       		.byte	0xa
 2626 0a11 9402     		.2byte	0x294
 2627 0a13 59090000 		.4byte	0x959
 2628 0a17 08       		.uleb128 0x8
 2629 0a18 0C       		.byte	0xc
 2630 0a19 0B       		.byte	0xb
 2631 0a1a C1       		.byte	0xc1
 2632 0a1b 5C0A0000 		.4byte	0xa5c
 2633 0a1f 06       		.uleb128 0x6
 2634 0a20 EF040000 		.4byte	.LASF188
 2635 0a24 0B       		.byte	0xb
 2636 0a25 C2       		.byte	0xc2
 2637 0a26 5C0A0000 		.4byte	0xa5c
 2638 0a2a 00       		.byte	0
 2639 0a2b 06       		.uleb128 0x6
 2640 0a2c F80B0000 		.4byte	.LASF189
 2641 0a30 0B       		.byte	0xb
 2642 0a31 C3       		.byte	0xc3
 2643 0a32 620A0000 		.4byte	0xa62
 2644 0a36 04       		.byte	0x4
 2645 0a37 06       		.uleb128 0x6
 2646 0a38 61030000 		.4byte	.LASF190
 2647 0a3c 0B       		.byte	0xb
 2648 0a3d C4       		.byte	0xc4
 2649 0a3e A9000000 		.4byte	0xa9
 2650 0a42 08       		.byte	0x8
 2651 0a43 06       		.uleb128 0x6
 2652 0a44 C7060000 		.4byte	.LASF191
 2653 0a48 0B       		.byte	0xb
ARM GAS  /tmp/ccI7Zqab.s 			page 48


 2654 0a49 C6       		.byte	0xc6
 2655 0a4a A9000000 		.4byte	0xa9
 2656 0a4e 09       		.byte	0x9
 2657 0a4f 06       		.uleb128 0x6
 2658 0a50 B0080000 		.4byte	.LASF192
 2659 0a54 0B       		.byte	0xb
 2660 0a55 C7       		.byte	0xc7
 2661 0a56 A9000000 		.4byte	0xa9
 2662 0a5a 0A       		.byte	0xa
 2663 0a5b 00       		.byte	0
 2664 0a5c 09       		.uleb128 0x9
 2665 0a5d 04       		.byte	0x4
 2666 0a5e 4D090000 		.4byte	0x94d
 2667 0a62 09       		.uleb128 0x9
 2668 0a63 04       		.byte	0x4
 2669 0a64 35040000 		.4byte	0x435
 2670 0a68 03       		.uleb128 0x3
 2671 0a69 37050000 		.4byte	.LASF193
 2672 0a6d 0B       		.byte	0xb
 2673 0a6e C8       		.byte	0xc8
 2674 0a6f 170A0000 		.4byte	0xa17
 2675 0a73 03       		.uleb128 0x3
 2676 0a74 E5070000 		.4byte	.LASF194
 2677 0a78 0B       		.byte	0xb
 2678 0a79 D1       		.byte	0xd1
 2679 0a7a 7E0A0000 		.4byte	0xa7e
 2680 0a7e 09       		.uleb128 0x9
 2681 0a7f 04       		.byte	0x4
 2682 0a80 840A0000 		.4byte	0xa84
 2683 0a84 18       		.uleb128 0x18
 2684 0a85 940A0000 		.4byte	0xa94
 2685 0a89 19       		.uleb128 0x19
 2686 0a8a BB020000 		.4byte	0x2bb
 2687 0a8e 19       		.uleb128 0x19
 2688 0a8f CA000000 		.4byte	0xca
 2689 0a93 00       		.byte	0
 2690 0a94 1A       		.uleb128 0x1a
 2691 0a95 01       		.byte	0x1
 2692 0a96 0C       		.byte	0xc
 2693 0a97 55       		.byte	0x55
 2694 0a98 C10A0000 		.4byte	0xac1
 2695 0a9c 12       		.uleb128 0x12
 2696 0a9d DC020000 		.4byte	.LASF195
 2697 0aa1 00       		.sleb128 0
 2698 0aa2 12       		.uleb128 0x12
 2699 0aa3 01090000 		.4byte	.LASF196
 2700 0aa7 01       		.sleb128 1
 2701 0aa8 12       		.uleb128 0x12
 2702 0aa9 FA020000 		.4byte	.LASF197
 2703 0aad 02       		.sleb128 2
 2704 0aae 12       		.uleb128 0x12
 2705 0aaf B8070000 		.4byte	.LASF198
 2706 0ab3 03       		.sleb128 3
 2707 0ab4 12       		.uleb128 0x12
 2708 0ab5 83050000 		.4byte	.LASF199
 2709 0ab9 04       		.sleb128 4
 2710 0aba 12       		.uleb128 0x12
ARM GAS  /tmp/ccI7Zqab.s 			page 49


 2711 0abb 81030000 		.4byte	.LASF200
 2712 0abf 05       		.sleb128 5
 2713 0ac0 00       		.byte	0
 2714 0ac1 03       		.uleb128 0x3
 2715 0ac2 7D000000 		.4byte	.LASF201
 2716 0ac6 0C       		.byte	0xc
 2717 0ac7 5C       		.byte	0x5c
 2718 0ac8 940A0000 		.4byte	0xa94
 2719 0acc 17       		.uleb128 0x17
 2720 0acd 2C030000 		.4byte	.LASF202
 2721 0ad1 0D       		.byte	0xd
 2722 0ad2 4D01     		.2byte	0x14d
 2723 0ad4 B4000000 		.4byte	0xb4
 2724 0ad8 17       		.uleb128 0x17
 2725 0ad9 EC060000 		.4byte	.LASF203
 2726 0add 0D       		.byte	0xd
 2727 0ade 5501     		.2byte	0x155
 2728 0ae0 B4000000 		.4byte	0xb4
 2729 0ae4 1B       		.uleb128 0x1b
 2730 0ae5 01       		.byte	0x1
 2731 0ae6 0D       		.byte	0xd
 2732 0ae7 5C01     		.2byte	0x15c
 2733 0ae9 0C0B0000 		.4byte	0xb0c
 2734 0aed 12       		.uleb128 0x12
 2735 0aee A3000000 		.4byte	.LASF204
 2736 0af2 00       		.sleb128 0
 2737 0af3 12       		.uleb128 0x12
 2738 0af4 B7080000 		.4byte	.LASF205
 2739 0af8 01       		.sleb128 1
 2740 0af9 12       		.uleb128 0x12
 2741 0afa 7E0A0000 		.4byte	.LASF206
 2742 0afe 02       		.sleb128 2
 2743 0aff 12       		.uleb128 0x12
 2744 0b00 8B0A0000 		.4byte	.LASF207
 2745 0b04 03       		.sleb128 3
 2746 0b05 12       		.uleb128 0x12
 2747 0b06 980A0000 		.4byte	.LASF208
 2748 0b0a 04       		.sleb128 4
 2749 0b0b 00       		.byte	0
 2750 0b0c 17       		.uleb128 0x17
 2751 0b0d C4020000 		.4byte	.LASF209
 2752 0b11 0D       		.byte	0xd
 2753 0b12 6201     		.2byte	0x162
 2754 0b14 E40A0000 		.4byte	0xae4
 2755 0b18 17       		.uleb128 0x17
 2756 0b19 99080000 		.4byte	.LASF210
 2757 0b1d 0D       		.byte	0xd
 2758 0b1e 6701     		.2byte	0x167
 2759 0b20 240B0000 		.4byte	0xb24
 2760 0b24 0B       		.uleb128 0xb
 2761 0b25 99080000 		.4byte	.LASF210
 2762 0b29 38       		.byte	0x38
 2763 0b2a 0D       		.byte	0xd
 2764 0b2b C501     		.2byte	0x1c5
 2765 0b2d C10B0000 		.4byte	0xbc1
 2766 0b31 16       		.uleb128 0x16
 2767 0b32 D7000000 		.4byte	.LASF211
ARM GAS  /tmp/ccI7Zqab.s 			page 50


 2768 0b36 0D       		.byte	0xd
 2769 0b37 C901     		.2byte	0x1c9
 2770 0b39 C10A0000 		.4byte	0xac1
 2771 0b3d 00       		.byte	0
 2772 0b3e 16       		.uleb128 0x16
 2773 0b3f D0000000 		.4byte	.LASF212
 2774 0b43 0D       		.byte	0xd
 2775 0b44 CD01     		.2byte	0x1cd
 2776 0b46 C40C0000 		.4byte	0xcc4
 2777 0b4a 04       		.byte	0x4
 2778 0b4b 16       		.uleb128 0x16
 2779 0b4c ED030000 		.4byte	.LASF213
 2780 0b50 0D       		.byte	0xd
 2781 0b51 D101     		.2byte	0x1d1
 2782 0b53 EE0B0000 		.4byte	0xbee
 2783 0b57 08       		.byte	0x8
 2784 0b58 16       		.uleb128 0x16
 2785 0b59 7B060000 		.4byte	.LASF214
 2786 0b5d 0D       		.byte	0xd
 2787 0b5e D501     		.2byte	0x1d5
 2788 0b60 28000000 		.4byte	0x28
 2789 0b64 0C       		.byte	0xc
 2790 0b65 16       		.uleb128 0x16
 2791 0b66 1A0A0000 		.4byte	.LASF215
 2792 0b6a 0D       		.byte	0xd
 2793 0b6b D901     		.2byte	0x1d9
 2794 0b6d CF0C0000 		.4byte	0xccf
 2795 0b71 10       		.byte	0x10
 2796 0b72 16       		.uleb128 0x16
 2797 0b73 1F0A0000 		.4byte	.LASF216
 2798 0b77 0D       		.byte	0xd
 2799 0b78 DE01     		.2byte	0x1de
 2800 0b7a 7F020000 		.4byte	0x27f
 2801 0b7e 14       		.byte	0x14
 2802 0b7f 16       		.uleb128 0x16
 2803 0b80 81060000 		.4byte	.LASF217
 2804 0b84 0D       		.byte	0xd
 2805 0b85 E501     		.2byte	0x1e5
 2806 0b87 7D040000 		.4byte	0x47d
 2807 0b8b 18       		.byte	0x18
 2808 0b8c 16       		.uleb128 0x16
 2809 0b8d 22060000 		.4byte	.LASF218
 2810 0b91 0D       		.byte	0xd
 2811 0b92 F101     		.2byte	0x1f1
 2812 0b94 DA0C0000 		.4byte	0xcda
 2813 0b98 28       		.byte	0x28
 2814 0b99 16       		.uleb128 0x16
 2815 0b9a 49060000 		.4byte	.LASF219
 2816 0b9e 0D       		.byte	0xd
 2817 0b9f F501     		.2byte	0x1f5
 2818 0ba1 E00C0000 		.4byte	0xce0
 2819 0ba5 2C       		.byte	0x2c
 2820 0ba6 16       		.uleb128 0x16
 2821 0ba7 BF040000 		.4byte	.LASF220
 2822 0bab 0D       		.byte	0xd
 2823 0bac FF01     		.2byte	0x1ff
 2824 0bae E60C0000 		.4byte	0xce6
ARM GAS  /tmp/ccI7Zqab.s 			page 51


 2825 0bb2 30       		.byte	0x30
 2826 0bb3 16       		.uleb128 0x16
 2827 0bb4 AF010000 		.4byte	.LASF221
 2828 0bb8 0D       		.byte	0xd
 2829 0bb9 0302     		.2byte	0x203
 2830 0bbb CA000000 		.4byte	0xca
 2831 0bbf 34       		.byte	0x34
 2832 0bc0 00       		.byte	0
 2833 0bc1 17       		.uleb128 0x17
 2834 0bc2 48000000 		.4byte	.LASF222
 2835 0bc6 0D       		.byte	0xd
 2836 0bc7 7101     		.2byte	0x171
 2837 0bc9 CD0B0000 		.4byte	0xbcd
 2838 0bcd 09       		.uleb128 0x9
 2839 0bce 04       		.byte	0x4
 2840 0bcf D30B0000 		.4byte	0xbd3
 2841 0bd3 18       		.uleb128 0x18
 2842 0bd4 E80B0000 		.4byte	0xbe8
 2843 0bd8 19       		.uleb128 0x19
 2844 0bd9 E80B0000 		.4byte	0xbe8
 2845 0bdd 19       		.uleb128 0x19
 2846 0bde EE0B0000 		.4byte	0xbee
 2847 0be2 19       		.uleb128 0x19
 2848 0be3 28000000 		.4byte	0x28
 2849 0be7 00       		.byte	0
 2850 0be8 09       		.uleb128 0x9
 2851 0be9 04       		.byte	0x4
 2852 0bea 180B0000 		.4byte	0xb18
 2853 0bee 09       		.uleb128 0x9
 2854 0bef 04       		.byte	0x4
 2855 0bf0 CC0A0000 		.4byte	0xacc
 2856 0bf4 17       		.uleb128 0x17
 2857 0bf5 53060000 		.4byte	.LASF223
 2858 0bf9 0D       		.byte	0xd
 2859 0bfa 7A01     		.2byte	0x17a
 2860 0bfc 000C0000 		.4byte	0xc00
 2861 0c00 09       		.uleb128 0x9
 2862 0c01 04       		.byte	0x4
 2863 0c02 060C0000 		.4byte	0xc06
 2864 0c06 18       		.uleb128 0x18
 2865 0c07 160C0000 		.4byte	0xc16
 2866 0c0b 19       		.uleb128 0x19
 2867 0c0c E80B0000 		.4byte	0xbe8
 2868 0c10 19       		.uleb128 0x19
 2869 0c11 0C0B0000 		.4byte	0xb0c
 2870 0c15 00       		.byte	0
 2871 0c16 15       		.uleb128 0x15
 2872 0c17 30       		.byte	0x30
 2873 0c18 0D       		.byte	0xd
 2874 0c19 8401     		.2byte	0x184
 2875 0c1b 950C0000 		.4byte	0xc95
 2876 0c1f 16       		.uleb128 0x16
 2877 0c20 030B0000 		.4byte	.LASF224
 2878 0c24 0D       		.byte	0xd
 2879 0c25 8801     		.2byte	0x188
 2880 0c27 E0000000 		.4byte	0xe0
 2881 0c2b 00       		.byte	0
ARM GAS  /tmp/ccI7Zqab.s 			page 52


 2882 0c2c 16       		.uleb128 0x16
 2883 0c2d 21070000 		.4byte	.LASF225
 2884 0c31 0D       		.byte	0xd
 2885 0c32 8C01     		.2byte	0x18c
 2886 0c34 D80A0000 		.4byte	0xad8
 2887 0c38 02       		.byte	0x2
 2888 0c39 16       		.uleb128 0x16
 2889 0c3a 5E010000 		.4byte	.LASF226
 2890 0c3e 0D       		.byte	0xd
 2891 0c3f 9001     		.2byte	0x190
 2892 0c41 C10B0000 		.4byte	0xbc1
 2893 0c45 04       		.byte	0x4
 2894 0c46 16       		.uleb128 0x16
 2895 0c47 32010000 		.4byte	.LASF227
 2896 0c4b 0D       		.byte	0xd
 2897 0c4c 9401     		.2byte	0x194
 2898 0c4e F40B0000 		.4byte	0xbf4
 2899 0c52 08       		.byte	0x8
 2900 0c53 16       		.uleb128 0x16
 2901 0c54 B6000000 		.4byte	.LASF228
 2902 0c58 0D       		.byte	0xd
 2903 0c59 9B01     		.2byte	0x19b
 2904 0c5b CA000000 		.4byte	0xca
 2905 0c5f 0C       		.byte	0xc
 2906 0c60 0C       		.uleb128 0xc
 2907 0c61 74723100 		.ascii	"tr1\000"
 2908 0c65 0D       		.byte	0xd
 2909 0c66 9F01     		.2byte	0x19f
 2910 0c68 CA000000 		.4byte	0xca
 2911 0c6c 10       		.byte	0x10
 2912 0c6d 0C       		.uleb128 0xc
 2913 0c6e 63637200 		.ascii	"ccr\000"
 2914 0c72 0D       		.byte	0xd
 2915 0c73 A501     		.2byte	0x1a5
 2916 0c75 CA000000 		.4byte	0xca
 2917 0c79 14       		.byte	0x14
 2918 0c7a 16       		.uleb128 0x16
 2919 0c7b D3010000 		.4byte	.LASF229
 2920 0c7f 0D       		.byte	0xd
 2921 0c80 A901     		.2byte	0x1a9
 2922 0c82 AB060000 		.4byte	0x6ab
 2923 0c86 18       		.byte	0x18
 2924 0c87 0C       		.uleb128 0xc
 2925 0c88 73717200 		.ascii	"sqr\000"
 2926 0c8c 0D       		.byte	0xd
 2927 0c8d AD01     		.2byte	0x1ad
 2928 0c8f BB060000 		.4byte	0x6bb
 2929 0c93 20       		.byte	0x20
 2930 0c94 00       		.byte	0
 2931 0c95 17       		.uleb128 0x17
 2932 0c96 70050000 		.4byte	.LASF230
 2933 0c9a 0D       		.byte	0xd
 2934 0c9b B801     		.2byte	0x1b8
 2935 0c9d 160C0000 		.4byte	0xc16
 2936 0ca1 15       		.uleb128 0x15
 2937 0ca2 04       		.byte	0x4
 2938 0ca3 0D       		.byte	0xd
ARM GAS  /tmp/ccI7Zqab.s 			page 53


 2939 0ca4 BE01     		.2byte	0x1be
 2940 0ca6 B80C0000 		.4byte	0xcb8
 2941 0caa 16       		.uleb128 0x16
 2942 0cab FB080000 		.4byte	.LASF231
 2943 0caf 0D       		.byte	0xd
 2944 0cb0 BF01     		.2byte	0x1bf
 2945 0cb2 CA000000 		.4byte	0xca
 2946 0cb6 00       		.byte	0
 2947 0cb7 00       		.byte	0
 2948 0cb8 17       		.uleb128 0x17
 2949 0cb9 420C0000 		.4byte	.LASF232
 2950 0cbd 0D       		.byte	0xd
 2951 0cbe C001     		.2byte	0x1c0
 2952 0cc0 A10C0000 		.4byte	0xca1
 2953 0cc4 09       		.uleb128 0x9
 2954 0cc5 04       		.byte	0x4
 2955 0cc6 CA0C0000 		.4byte	0xcca
 2956 0cca 10       		.uleb128 0x10
 2957 0ccb B80C0000 		.4byte	0xcb8
 2958 0ccf 09       		.uleb128 0x9
 2959 0cd0 04       		.byte	0x4
 2960 0cd1 D50C0000 		.4byte	0xcd5
 2961 0cd5 10       		.uleb128 0x10
 2962 0cd6 950C0000 		.4byte	0xc95
 2963 0cda 09       		.uleb128 0x9
 2964 0cdb 04       		.byte	0x4
 2965 0cdc 03090000 		.4byte	0x903
 2966 0ce0 09       		.uleb128 0x9
 2967 0ce1 04       		.byte	0x4
 2968 0ce2 B9080000 		.4byte	0x8b9
 2969 0ce6 09       		.uleb128 0x9
 2970 0ce7 04       		.byte	0x4
 2971 0ce8 EC0C0000 		.4byte	0xcec
 2972 0cec 10       		.uleb128 0x10
 2973 0ced 680A0000 		.4byte	0xa68
 2974 0cf1 1C       		.uleb128 0x1c
 2975 0cf2 29040000 		.4byte	.LASF233
 2976 0cf6 01       		.byte	0x1
 2977 0cf7 56       		.byte	0x56
 2978 0cf8 00000000 		.4byte	.LFB118
 2979 0cfc 26000000 		.4byte	.LFE118-.LFB118
 2980 0d00 01       		.uleb128 0x1
 2981 0d01 9C       		.byte	0x9c
 2982 0d02 150D0000 		.4byte	0xd15
 2983 0d06 1D       		.uleb128 0x1d
 2984 0d07 4E060000 		.4byte	.LASF235
 2985 0d0b 01       		.byte	0x1
 2986 0d0c 56       		.byte	0x56
 2987 0d0d E80B0000 		.4byte	0xbe8
 2988 0d11 02       		.uleb128 0x2
 2989 0d12 91       		.byte	0x91
 2990 0d13 74       		.sleb128 -12
 2991 0d14 00       		.byte	0
 2992 0d15 1E       		.uleb128 0x1e
 2993 0d16 87010000 		.4byte	.LASF234
 2994 0d1a 01       		.byte	0x1
 2995 0d1b 65       		.byte	0x65
ARM GAS  /tmp/ccI7Zqab.s 			page 54


 2996 0d1c 00000000 		.4byte	.LFB119
 2997 0d20 1A000000 		.4byte	.LFE119-.LFB119
 2998 0d24 01       		.uleb128 0x1
 2999 0d25 9C       		.byte	0x9c
 3000 0d26 390D0000 		.4byte	0xd39
 3001 0d2a 1D       		.uleb128 0x1d
 3002 0d2b 4E060000 		.4byte	.LASF235
 3003 0d2f 01       		.byte	0x1
 3004 0d30 65       		.byte	0x65
 3005 0d31 E80B0000 		.4byte	0xbe8
 3006 0d35 02       		.uleb128 0x2
 3007 0d36 91       		.byte	0x91
 3008 0d37 7C       		.sleb128 -4
 3009 0d38 00       		.byte	0
 3010 0d39 1E       		.uleb128 0x1e
 3011 0d3a 28000000 		.4byte	.LASF236
 3012 0d3e 01       		.byte	0x1
 3013 0d3f 73       		.byte	0x73
 3014 0d40 00000000 		.4byte	.LFB120
 3015 0d44 28000000 		.4byte	.LFE120-.LFB120
 3016 0d48 01       		.uleb128 0x1
 3017 0d49 9C       		.byte	0x9c
 3018 0d4a 5D0D0000 		.4byte	0xd5d
 3019 0d4e 1D       		.uleb128 0x1d
 3020 0d4f 4E060000 		.4byte	.LASF235
 3021 0d53 01       		.byte	0x1
 3022 0d54 73       		.byte	0x73
 3023 0d55 E80B0000 		.4byte	0xbe8
 3024 0d59 02       		.uleb128 0x2
 3025 0d5a 91       		.byte	0x91
 3026 0d5b 7C       		.sleb128 -4
 3027 0d5c 00       		.byte	0
 3028 0d5d 1E       		.uleb128 0x1e
 3029 0d5e 430B0000 		.4byte	.LASF237
 3030 0d62 01       		.byte	0x1
 3031 0d63 84       		.byte	0x84
 3032 0d64 00000000 		.4byte	.LFB121
 3033 0d68 28000000 		.4byte	.LFE121-.LFB121
 3034 0d6c 01       		.uleb128 0x1
 3035 0d6d 9C       		.byte	0x9c
 3036 0d6e 810D0000 		.4byte	0xd81
 3037 0d72 1D       		.uleb128 0x1d
 3038 0d73 4E060000 		.4byte	.LASF235
 3039 0d77 01       		.byte	0x1
 3040 0d78 84       		.byte	0x84
 3041 0d79 E80B0000 		.4byte	0xbe8
 3042 0d7d 02       		.uleb128 0x2
 3043 0d7e 91       		.byte	0x91
 3044 0d7f 7C       		.sleb128 -4
 3045 0d80 00       		.byte	0
 3046 0d81 1C       		.uleb128 0x1c
 3047 0d82 51080000 		.4byte	.LASF238
 3048 0d86 01       		.byte	0x1
 3049 0d87 95       		.byte	0x95
 3050 0d88 00000000 		.4byte	.LFB122
 3051 0d8c 40000000 		.4byte	.LFE122-.LFB122
 3052 0d90 01       		.uleb128 0x1
ARM GAS  /tmp/ccI7Zqab.s 			page 55


 3053 0d91 9C       		.byte	0x9c
 3054 0d92 A50D0000 		.4byte	0xda5
 3055 0d96 1D       		.uleb128 0x1d
 3056 0d97 4E060000 		.4byte	.LASF235
 3057 0d9b 01       		.byte	0x1
 3058 0d9c 95       		.byte	0x95
 3059 0d9d E80B0000 		.4byte	0xbe8
 3060 0da1 02       		.uleb128 0x2
 3061 0da2 91       		.byte	0x91
 3062 0da3 74       		.sleb128 -12
 3063 0da4 00       		.byte	0
 3064 0da5 1E       		.uleb128 0x1e
 3065 0da6 EE010000 		.4byte	.LASF239
 3066 0daa 01       		.byte	0x1
 3067 0dab AA       		.byte	0xaa
 3068 0dac 00000000 		.4byte	.LFB123
 3069 0db0 36000000 		.4byte	.LFE123-.LFB123
 3070 0db4 01       		.uleb128 0x1
 3071 0db5 9C       		.byte	0x9c
 3072 0db6 C90D0000 		.4byte	0xdc9
 3073 0dba 1D       		.uleb128 0x1d
 3074 0dbb 4E060000 		.4byte	.LASF235
 3075 0dbf 01       		.byte	0x1
 3076 0dc0 AA       		.byte	0xaa
 3077 0dc1 E80B0000 		.4byte	0xbe8
 3078 0dc5 02       		.uleb128 0x2
 3079 0dc6 91       		.byte	0x91
 3080 0dc7 7C       		.sleb128 -4
 3081 0dc8 00       		.byte	0
 3082 0dc9 1C       		.uleb128 0x1c
 3083 0dca 96030000 		.4byte	.LASF240
 3084 0dce 01       		.byte	0x1
 3085 0dcf B9       		.byte	0xb9
 3086 0dd0 00000000 		.4byte	.LFB124
 3087 0dd4 A2010000 		.4byte	.LFE124-.LFB124
 3088 0dd8 01       		.uleb128 0x1
 3089 0dd9 9C       		.byte	0x9c
 3090 0dda C30E0000 		.4byte	0xec3
 3091 0dde 1D       		.uleb128 0x1d
 3092 0ddf 4E060000 		.4byte	.LASF235
 3093 0de3 01       		.byte	0x1
 3094 0de4 B9       		.byte	0xb9
 3095 0de5 E80B0000 		.4byte	0xbe8
 3096 0de9 02       		.uleb128 0x2
 3097 0dea 91       		.byte	0x91
 3098 0deb 64       		.sleb128 -28
 3099 0dec 1D       		.uleb128 0x1d
 3100 0ded 26030000 		.4byte	.LASF241
 3101 0df1 01       		.byte	0x1
 3102 0df2 B9       		.byte	0xb9
 3103 0df3 CA000000 		.4byte	0xca
 3104 0df7 02       		.uleb128 0x2
 3105 0df8 91       		.byte	0x91
 3106 0df9 60       		.sleb128 -32
 3107 0dfa 1F       		.uleb128 0x1f
 3108 0dfb 48000000 		.4byte	.LBB2
 3109 0dff 06000000 		.4byte	.LBE2-.LBB2
ARM GAS  /tmp/ccI7Zqab.s 			page 56


 3110 0e03 150E0000 		.4byte	0xe15
 3111 0e07 20       		.uleb128 0x20
 3112 0e08 746D7000 		.ascii	"tmp\000"
 3113 0e0c 01       		.byte	0x1
 3114 0e0d BF       		.byte	0xbf
 3115 0e0e CA000000 		.4byte	0xca
 3116 0e12 01       		.uleb128 0x1
 3117 0e13 53       		.byte	0x53
 3118 0e14 00       		.byte	0
 3119 0e15 1F       		.uleb128 0x1f
 3120 0e16 5A000000 		.4byte	.LBB3
 3121 0e1a 1A000000 		.4byte	.LBE3-.LBB3
 3122 0e1e 300E0000 		.4byte	0xe30
 3123 0e22 20       		.uleb128 0x20
 3124 0e23 747000   		.ascii	"tp\000"
 3125 0e26 01       		.byte	0x1
 3126 0e27 BF       		.byte	0xbf
 3127 0e28 7F020000 		.4byte	0x27f
 3128 0e2c 02       		.uleb128 0x2
 3129 0e2d 91       		.byte	0x91
 3130 0e2e 74       		.sleb128 -12
 3131 0e2f 00       		.byte	0
 3132 0e30 1F       		.uleb128 0x1f
 3133 0e31 78000000 		.4byte	.LBB4
 3134 0e35 06000000 		.4byte	.LBE4-.LBB4
 3135 0e39 4B0E0000 		.4byte	0xe4b
 3136 0e3d 20       		.uleb128 0x20
 3137 0e3e 746D7000 		.ascii	"tmp\000"
 3138 0e42 01       		.byte	0x1
 3139 0e43 BF       		.byte	0xbf
 3140 0e44 CA000000 		.4byte	0xca
 3141 0e48 01       		.uleb128 0x1
 3142 0e49 53       		.byte	0x53
 3143 0e4a 00       		.byte	0
 3144 0e4b 1F       		.uleb128 0x1f
 3145 0e4c B0000000 		.4byte	.LBB5
 3146 0e50 2E000000 		.4byte	.LBE5-.LBB5
 3147 0e54 750E0000 		.4byte	0xe75
 3148 0e58 21       		.uleb128 0x21
 3149 0e59 C8080000 		.4byte	.LASF242
 3150 0e5d 01       		.byte	0x1
 3151 0e5e C7       		.byte	0xc7
 3152 0e5f 28000000 		.4byte	0x28
 3153 0e63 02       		.uleb128 0x2
 3154 0e64 91       		.byte	0x91
 3155 0e65 70       		.sleb128 -16
 3156 0e66 21       		.uleb128 0x21
 3157 0e67 8E080000 		.4byte	.LASF243
 3158 0e6b 01       		.byte	0x1
 3159 0e6c C7       		.byte	0xc7
 3160 0e6d 28000000 		.4byte	0x28
 3161 0e71 02       		.uleb128 0x2
 3162 0e72 91       		.byte	0x91
 3163 0e73 6C       		.sleb128 -20
 3164 0e74 00       		.byte	0
 3165 0e75 1F       		.uleb128 0x1f
 3166 0e76 3E010000 		.4byte	.LBB6
ARM GAS  /tmp/ccI7Zqab.s 			page 57


 3167 0e7a 06000000 		.4byte	.LBE6-.LBB6
 3168 0e7e 900E0000 		.4byte	0xe90
 3169 0e82 20       		.uleb128 0x20
 3170 0e83 746D7000 		.ascii	"tmp\000"
 3171 0e87 01       		.byte	0x1
 3172 0e88 C7       		.byte	0xc7
 3173 0e89 CA000000 		.4byte	0xca
 3174 0e8d 01       		.uleb128 0x1
 3175 0e8e 53       		.byte	0x53
 3176 0e8f 00       		.byte	0
 3177 0e90 1F       		.uleb128 0x1f
 3178 0e91 50010000 		.4byte	.LBB7
 3179 0e95 18000000 		.4byte	.LBE7-.LBB7
 3180 0e99 AB0E0000 		.4byte	0xeab
 3181 0e9d 20       		.uleb128 0x20
 3182 0e9e 747000   		.ascii	"tp\000"
 3183 0ea1 01       		.byte	0x1
 3184 0ea2 C7       		.byte	0xc7
 3185 0ea3 7F020000 		.4byte	0x27f
 3186 0ea7 02       		.uleb128 0x2
 3187 0ea8 91       		.byte	0x91
 3188 0ea9 68       		.sleb128 -24
 3189 0eaa 00       		.byte	0
 3190 0eab 22       		.uleb128 0x22
 3191 0eac 6C010000 		.4byte	.LBB8
 3192 0eb0 08000000 		.4byte	.LBE8-.LBB8
 3193 0eb4 20       		.uleb128 0x20
 3194 0eb5 746D7000 		.ascii	"tmp\000"
 3195 0eb9 01       		.byte	0x1
 3196 0eba C7       		.byte	0xc7
 3197 0ebb CA000000 		.4byte	0xca
 3198 0ebf 01       		.uleb128 0x1
 3199 0ec0 53       		.byte	0x53
 3200 0ec1 00       		.byte	0
 3201 0ec2 00       		.byte	0
 3202 0ec3 1C       		.uleb128 0x1c
 3203 0ec4 90070000 		.4byte	.LASF244
 3204 0ec8 01       		.byte	0x1
 3205 0ec9 D7       		.byte	0xd7
 3206 0eca 00000000 		.4byte	.LFB125
 3207 0ece FC010000 		.4byte	.LFE125-.LFB125
 3208 0ed2 01       		.uleb128 0x1
 3209 0ed3 9C       		.byte	0x9c
 3210 0ed4 35100000 		.4byte	0x1035
 3211 0ed8 1D       		.uleb128 0x1d
 3212 0ed9 4E060000 		.4byte	.LASF235
 3213 0edd 01       		.byte	0x1
 3214 0ede D7       		.byte	0xd7
 3215 0edf E80B0000 		.4byte	0xbe8
 3216 0ee3 02       		.uleb128 0x2
 3217 0ee4 91       		.byte	0x91
 3218 0ee5 64       		.sleb128 -28
 3219 0ee6 23       		.uleb128 0x23
 3220 0ee7 69737200 		.ascii	"isr\000"
 3221 0eeb 01       		.byte	0x1
 3222 0eec D7       		.byte	0xd7
 3223 0eed CA000000 		.4byte	0xca
ARM GAS  /tmp/ccI7Zqab.s 			page 58


 3224 0ef1 02       		.uleb128 0x2
 3225 0ef2 91       		.byte	0x91
 3226 0ef3 60       		.sleb128 -32
 3227 0ef4 1F       		.uleb128 0x1f
 3228 0ef5 5E000000 		.4byte	.LBB9
 3229 0ef9 06000000 		.4byte	.LBE9-.LBB9
 3230 0efd 0F0F0000 		.4byte	0xf0f
 3231 0f01 20       		.uleb128 0x20
 3232 0f02 746D7000 		.ascii	"tmp\000"
 3233 0f06 01       		.byte	0x1
 3234 0f07 E2       		.byte	0xe2
 3235 0f08 CA000000 		.4byte	0xca
 3236 0f0c 01       		.uleb128 0x1
 3237 0f0d 53       		.byte	0x53
 3238 0f0e 00       		.byte	0
 3239 0f0f 1F       		.uleb128 0x1f
 3240 0f10 70000000 		.4byte	.LBB10
 3241 0f14 1A000000 		.4byte	.LBE10-.LBB10
 3242 0f18 2A0F0000 		.4byte	0xf2a
 3243 0f1c 20       		.uleb128 0x20
 3244 0f1d 747000   		.ascii	"tp\000"
 3245 0f20 01       		.byte	0x1
 3246 0f21 E2       		.byte	0xe2
 3247 0f22 7F020000 		.4byte	0x27f
 3248 0f26 02       		.uleb128 0x2
 3249 0f27 91       		.byte	0x91
 3250 0f28 74       		.sleb128 -12
 3251 0f29 00       		.byte	0
 3252 0f2a 1F       		.uleb128 0x1f
 3253 0f2b 8E000000 		.4byte	.LBB11
 3254 0f2f 06000000 		.4byte	.LBE11-.LBB11
 3255 0f33 450F0000 		.4byte	0xf45
 3256 0f37 20       		.uleb128 0x20
 3257 0f38 746D7000 		.ascii	"tmp\000"
 3258 0f3c 01       		.byte	0x1
 3259 0f3d E2       		.byte	0xe2
 3260 0f3e CA000000 		.4byte	0xca
 3261 0f42 01       		.uleb128 0x1
 3262 0f43 53       		.byte	0x53
 3263 0f44 00       		.byte	0
 3264 0f45 1F       		.uleb128 0x1f
 3265 0f46 D4000000 		.4byte	.LBB12
 3266 0f4a 06000000 		.4byte	.LBE12-.LBB12
 3267 0f4e 600F0000 		.4byte	0xf60
 3268 0f52 20       		.uleb128 0x20
 3269 0f53 746D7000 		.ascii	"tmp\000"
 3270 0f57 01       		.byte	0x1
 3271 0f58 E6       		.byte	0xe6
 3272 0f59 CA000000 		.4byte	0xca
 3273 0f5d 01       		.uleb128 0x1
 3274 0f5e 53       		.byte	0x53
 3275 0f5f 00       		.byte	0
 3276 0f60 1F       		.uleb128 0x1f
 3277 0f61 E6000000 		.4byte	.LBB13
 3278 0f65 1A000000 		.4byte	.LBE13-.LBB13
 3279 0f69 7B0F0000 		.4byte	0xf7b
 3280 0f6d 20       		.uleb128 0x20
ARM GAS  /tmp/ccI7Zqab.s 			page 59


 3281 0f6e 747000   		.ascii	"tp\000"
 3282 0f71 01       		.byte	0x1
 3283 0f72 E6       		.byte	0xe6
 3284 0f73 7F020000 		.4byte	0x27f
 3285 0f77 02       		.uleb128 0x2
 3286 0f78 91       		.byte	0x91
 3287 0f79 70       		.sleb128 -16
 3288 0f7a 00       		.byte	0
 3289 0f7b 1F       		.uleb128 0x1f
 3290 0f7c 04010000 		.4byte	.LBB14
 3291 0f80 06000000 		.4byte	.LBE14-.LBB14
 3292 0f84 960F0000 		.4byte	0xf96
 3293 0f88 20       		.uleb128 0x20
 3294 0f89 746D7000 		.ascii	"tmp\000"
 3295 0f8d 01       		.byte	0x1
 3296 0f8e E6       		.byte	0xe6
 3297 0f8f CA000000 		.4byte	0xca
 3298 0f93 01       		.uleb128 0x1
 3299 0f94 53       		.byte	0x53
 3300 0f95 00       		.byte	0
 3301 0f96 1F       		.uleb128 0x1f
 3302 0f97 4A010000 		.4byte	.LBB15
 3303 0f9b 06000000 		.4byte	.LBE15-.LBB15
 3304 0f9f B10F0000 		.4byte	0xfb1
 3305 0fa3 20       		.uleb128 0x20
 3306 0fa4 746D7000 		.ascii	"tmp\000"
 3307 0fa8 01       		.byte	0x1
 3308 0fa9 EA       		.byte	0xea
 3309 0faa CA000000 		.4byte	0xca
 3310 0fae 01       		.uleb128 0x1
 3311 0faf 53       		.byte	0x53
 3312 0fb0 00       		.byte	0
 3313 0fb1 1F       		.uleb128 0x1f
 3314 0fb2 5C010000 		.4byte	.LBB16
 3315 0fb6 1A000000 		.4byte	.LBE16-.LBB16
 3316 0fba CC0F0000 		.4byte	0xfcc
 3317 0fbe 20       		.uleb128 0x20
 3318 0fbf 747000   		.ascii	"tp\000"
 3319 0fc2 01       		.byte	0x1
 3320 0fc3 EA       		.byte	0xea
 3321 0fc4 7F020000 		.4byte	0x27f
 3322 0fc8 02       		.uleb128 0x2
 3323 0fc9 91       		.byte	0x91
 3324 0fca 6C       		.sleb128 -20
 3325 0fcb 00       		.byte	0
 3326 0fcc 1F       		.uleb128 0x1f
 3327 0fcd 7A010000 		.4byte	.LBB17
 3328 0fd1 06000000 		.4byte	.LBE17-.LBB17
 3329 0fd5 E70F0000 		.4byte	0xfe7
 3330 0fd9 20       		.uleb128 0x20
 3331 0fda 746D7000 		.ascii	"tmp\000"
 3332 0fde 01       		.byte	0x1
 3333 0fdf EA       		.byte	0xea
 3334 0fe0 CA000000 		.4byte	0xca
 3335 0fe4 01       		.uleb128 0x1
 3336 0fe5 53       		.byte	0x53
 3337 0fe6 00       		.byte	0
ARM GAS  /tmp/ccI7Zqab.s 			page 60


 3338 0fe7 1F       		.uleb128 0x1f
 3339 0fe8 C0010000 		.4byte	.LBB18
 3340 0fec 06000000 		.4byte	.LBE18-.LBB18
 3341 0ff0 02100000 		.4byte	0x1002
 3342 0ff4 20       		.uleb128 0x20
 3343 0ff5 746D7000 		.ascii	"tmp\000"
 3344 0ff9 01       		.byte	0x1
 3345 0ffa EE       		.byte	0xee
 3346 0ffb CA000000 		.4byte	0xca
 3347 0fff 01       		.uleb128 0x1
 3348 1000 53       		.byte	0x53
 3349 1001 00       		.byte	0
 3350 1002 1F       		.uleb128 0x1f
 3351 1003 D2010000 		.4byte	.LBB19
 3352 1007 1A000000 		.4byte	.LBE19-.LBB19
 3353 100b 1D100000 		.4byte	0x101d
 3354 100f 20       		.uleb128 0x20
 3355 1010 747000   		.ascii	"tp\000"
 3356 1013 01       		.byte	0x1
 3357 1014 EE       		.byte	0xee
 3358 1015 7F020000 		.4byte	0x27f
 3359 1019 02       		.uleb128 0x2
 3360 101a 91       		.byte	0x91
 3361 101b 68       		.sleb128 -24
 3362 101c 00       		.byte	0
 3363 101d 22       		.uleb128 0x22
 3364 101e F0010000 		.4byte	.LBB20
 3365 1022 06000000 		.4byte	.LBE20-.LBB20
 3366 1026 20       		.uleb128 0x20
 3367 1027 746D7000 		.ascii	"tmp\000"
 3368 102b 01       		.byte	0x1
 3369 102c EE       		.byte	0xee
 3370 102d CA000000 		.4byte	0xca
 3371 1031 01       		.uleb128 0x1
 3372 1032 53       		.byte	0x53
 3373 1033 00       		.byte	0
 3374 1034 00       		.byte	0
 3375 1035 24       		.uleb128 0x24
 3376 1036 C0010000 		.4byte	.LASF245
 3377 103a 01       		.byte	0x1
 3378 103b FD       		.byte	0xfd
 3379 103c 00000000 		.4byte	.LFB126
 3380 1040 34000000 		.4byte	.LFE126-.LFB126
 3381 1044 01       		.uleb128 0x1
 3382 1045 9C       		.byte	0x9c
 3383 1046 59100000 		.4byte	0x1059
 3384 104a 20       		.uleb128 0x20
 3385 104b 69737200 		.ascii	"isr\000"
 3386 104f 01       		.byte	0x1
 3387 1050 FE       		.byte	0xfe
 3388 1051 CA000000 		.4byte	0xca
 3389 1055 02       		.uleb128 0x2
 3390 1056 91       		.byte	0x91
 3391 1057 74       		.sleb128 -12
 3392 1058 00       		.byte	0
 3393 1059 25       		.uleb128 0x25
 3394 105a A3080000 		.4byte	.LASF257
ARM GAS  /tmp/ccI7Zqab.s 			page 61


 3395 105e 01       		.byte	0x1
 3396 105f 4301     		.2byte	0x143
 3397 1061 00000000 		.4byte	.LFB127
 3398 1065 3C000000 		.4byte	.LFE127-.LFB127
 3399 1069 01       		.uleb128 0x1
 3400 106a 9C       		.byte	0x9c
 3401 106b 26       		.uleb128 0x26
 3402 106c 10000000 		.4byte	.LASF246
 3403 1070 01       		.byte	0x1
 3404 1071 7501     		.2byte	0x175
 3405 1073 00000000 		.4byte	.LFB128
 3406 1077 88000000 		.4byte	.LFE128-.LFB128
 3407 107b 01       		.uleb128 0x1
 3408 107c 9C       		.byte	0x9c
 3409 107d A8100000 		.4byte	0x10a8
 3410 1081 27       		.uleb128 0x27
 3411 1082 4E060000 		.4byte	.LASF235
 3412 1086 01       		.byte	0x1
 3413 1087 7501     		.2byte	0x175
 3414 1089 E80B0000 		.4byte	0xbe8
 3415 108d 02       		.uleb128 0x2
 3416 108e 91       		.byte	0x91
 3417 108f 6C       		.sleb128 -20
 3418 1090 22       		.uleb128 0x22
 3419 1091 16000000 		.4byte	.LBB21
 3420 1095 30000000 		.4byte	.LBE21-.LBB21
 3421 1099 28       		.uleb128 0x28
 3422 109a 6200     		.ascii	"b\000"
 3423 109c 01       		.byte	0x1
 3424 109d 7B01     		.2byte	0x17b
 3425 109f E0000000 		.4byte	0xe0
 3426 10a3 02       		.uleb128 0x2
 3427 10a4 91       		.byte	0x91
 3428 10a5 77       		.sleb128 -9
 3429 10a6 00       		.byte	0
 3430 10a7 00       		.byte	0
 3431 10a8 26       		.uleb128 0x26
 3432 10a9 E1010000 		.4byte	.LASF247
 3433 10ad 01       		.byte	0x1
 3434 10ae AB01     		.2byte	0x1ab
 3435 10b0 00000000 		.4byte	.LFB129
 3436 10b4 4C000000 		.4byte	.LFE129-.LFB129
 3437 10b8 01       		.uleb128 0x1
 3438 10b9 9C       		.byte	0x9c
 3439 10ba CE100000 		.4byte	0x10ce
 3440 10be 27       		.uleb128 0x27
 3441 10bf 4E060000 		.4byte	.LASF235
 3442 10c3 01       		.byte	0x1
 3443 10c4 AB01     		.2byte	0x1ab
 3444 10c6 E80B0000 		.4byte	0xbe8
 3445 10ca 02       		.uleb128 0x2
 3446 10cb 91       		.byte	0x91
 3447 10cc 74       		.sleb128 -12
 3448 10cd 00       		.byte	0
 3449 10ce 29       		.uleb128 0x29
 3450 10cf 98050000 		.4byte	.LASF248
 3451 10d3 01       		.byte	0x1
ARM GAS  /tmp/ccI7Zqab.s 			page 62


 3452 10d4 CD01     		.2byte	0x1cd
 3453 10d6 00000000 		.4byte	.LFB130
 3454 10da 1C010000 		.4byte	.LFE130-.LFB130
 3455 10de 01       		.uleb128 0x1
 3456 10df 9C       		.byte	0x9c
 3457 10e0 30110000 		.4byte	0x1130
 3458 10e4 27       		.uleb128 0x27
 3459 10e5 4E060000 		.4byte	.LASF235
 3460 10e9 01       		.byte	0x1
 3461 10ea CD01     		.2byte	0x1cd
 3462 10ec E80B0000 		.4byte	0xbe8
 3463 10f0 02       		.uleb128 0x2
 3464 10f1 91       		.byte	0x91
 3465 10f2 6C       		.sleb128 -20
 3466 10f3 2A       		.uleb128 0x2a
 3467 10f4 AF010000 		.4byte	.LASF221
 3468 10f8 01       		.byte	0x1
 3469 10f9 CE01     		.2byte	0x1ce
 3470 10fb CA000000 		.4byte	0xca
 3471 10ff 02       		.uleb128 0x2
 3472 1100 91       		.byte	0x91
 3473 1101 7C       		.sleb128 -4
 3474 1102 28       		.uleb128 0x28
 3475 1103 63637200 		.ascii	"ccr\000"
 3476 1107 01       		.byte	0x1
 3477 1108 CE01     		.2byte	0x1ce
 3478 110a CA000000 		.4byte	0xca
 3479 110e 02       		.uleb128 0x2
 3480 110f 91       		.byte	0x91
 3481 1110 70       		.sleb128 -16
 3482 1111 2A       		.uleb128 0x2a
 3483 1112 B6000000 		.4byte	.LASF228
 3484 1116 01       		.byte	0x1
 3485 1117 CE01     		.2byte	0x1ce
 3486 1119 CA000000 		.4byte	0xca
 3487 111d 02       		.uleb128 0x2
 3488 111e 91       		.byte	0x91
 3489 111f 78       		.sleb128 -8
 3490 1120 2A       		.uleb128 0x2a
 3491 1121 1A0A0000 		.4byte	.LASF215
 3492 1125 01       		.byte	0x1
 3493 1126 CF01     		.2byte	0x1cf
 3494 1128 CF0C0000 		.4byte	0xccf
 3495 112c 02       		.uleb128 0x2
 3496 112d 91       		.byte	0x91
 3497 112e 74       		.sleb128 -12
 3498 112f 00       		.byte	0
 3499 1130 26       		.uleb128 0x26
 3500 1131 6B070000 		.4byte	.LASF249
 3501 1135 01       		.byte	0x1
 3502 1136 2302     		.2byte	0x223
 3503 1138 00000000 		.4byte	.LFB131
 3504 113c 3A000000 		.4byte	.LFE131-.LFB131
 3505 1140 01       		.uleb128 0x1
 3506 1141 9C       		.byte	0x9c
 3507 1142 56110000 		.4byte	0x1156
 3508 1146 27       		.uleb128 0x27
ARM GAS  /tmp/ccI7Zqab.s 			page 63


 3509 1147 4E060000 		.4byte	.LASF235
 3510 114b 01       		.byte	0x1
 3511 114c 2302     		.2byte	0x223
 3512 114e E80B0000 		.4byte	0xbe8
 3513 1152 02       		.uleb128 0x2
 3514 1153 91       		.byte	0x91
 3515 1154 74       		.sleb128 -12
 3516 1155 00       		.byte	0
 3517 1156 2B       		.uleb128 0x2b
 3518 1157 E30A0000 		.4byte	.LASF250
 3519 115b 0E       		.byte	0xe
 3520 115c 9806     		.2byte	0x698
 3521 115e CB060000 		.4byte	0x6cb
 3522 1162 13       		.uleb128 0x13
 3523 1163 680A0000 		.4byte	0xa68
 3524 1167 72110000 		.4byte	0x1172
 3525 116b 14       		.uleb128 0x14
 3526 116c 3A040000 		.4byte	0x43a
 3527 1170 0B       		.byte	0xb
 3528 1171 00       		.byte	0
 3529 1172 2B       		.uleb128 0x2b
 3530 1173 05050000 		.4byte	.LASF251
 3531 1177 0B       		.byte	0xb
 3532 1178 8401     		.2byte	0x184
 3533 117a 7E110000 		.4byte	0x117e
 3534 117e 10       		.uleb128 0x10
 3535 117f 62110000 		.4byte	0x1162
 3536 1183 2C       		.uleb128 0x2c
 3537 1184 52070000 		.4byte	.LASF252
 3538 1188 01       		.byte	0x1
 3539 1189 41       		.byte	0x41
 3540 118a 180B0000 		.4byte	0xb18
 3541 118e 05       		.uleb128 0x5
 3542 118f 03       		.byte	0x3
 3543 1190 00000000 		.4byte	ADCD1
 3544 1194 2C       		.uleb128 0x2c
 3545 1195 9B000000 		.4byte	.LASF253
 3546 1199 01       		.byte	0x1
 3547 119a 1D       		.byte	0x1d
 3548 119b CA000000 		.4byte	0xca
 3549 119f 05       		.uleb128 0x5
 3550 11a0 03       		.byte	0x3
 3551 11a1 00000000 		.4byte	diocane
 3552 11a5 00       		.byte	0
 3553              		.section	.debug_abbrev,"",%progbits
 3554              	.Ldebug_abbrev0:
 3555 0000 01       		.uleb128 0x1
 3556 0001 11       		.uleb128 0x11
 3557 0002 01       		.byte	0x1
 3558 0003 25       		.uleb128 0x25
 3559 0004 0E       		.uleb128 0xe
 3560 0005 13       		.uleb128 0x13
 3561 0006 0B       		.uleb128 0xb
 3562 0007 03       		.uleb128 0x3
 3563 0008 0E       		.uleb128 0xe
 3564 0009 55       		.uleb128 0x55
 3565 000a 17       		.uleb128 0x17
ARM GAS  /tmp/ccI7Zqab.s 			page 64


 3566 000b 11       		.uleb128 0x11
 3567 000c 01       		.uleb128 0x1
 3568 000d 10       		.uleb128 0x10
 3569 000e 17       		.uleb128 0x17
 3570 000f 00       		.byte	0
 3571 0010 00       		.byte	0
 3572 0011 02       		.uleb128 0x2
 3573 0012 24       		.uleb128 0x24
 3574 0013 00       		.byte	0
 3575 0014 0B       		.uleb128 0xb
 3576 0015 0B       		.uleb128 0xb
 3577 0016 3E       		.uleb128 0x3e
 3578 0017 0B       		.uleb128 0xb
 3579 0018 03       		.uleb128 0x3
 3580 0019 08       		.uleb128 0x8
 3581 001a 00       		.byte	0
 3582 001b 00       		.byte	0
 3583 001c 03       		.uleb128 0x3
 3584 001d 16       		.uleb128 0x16
 3585 001e 00       		.byte	0
 3586 001f 03       		.uleb128 0x3
 3587 0020 0E       		.uleb128 0xe
 3588 0021 3A       		.uleb128 0x3a
 3589 0022 0B       		.uleb128 0xb
 3590 0023 3B       		.uleb128 0x3b
 3591 0024 0B       		.uleb128 0xb
 3592 0025 49       		.uleb128 0x49
 3593 0026 13       		.uleb128 0x13
 3594 0027 00       		.byte	0
 3595 0028 00       		.byte	0
 3596 0029 04       		.uleb128 0x4
 3597 002a 24       		.uleb128 0x24
 3598 002b 00       		.byte	0
 3599 002c 0B       		.uleb128 0xb
 3600 002d 0B       		.uleb128 0xb
 3601 002e 3E       		.uleb128 0x3e
 3602 002f 0B       		.uleb128 0xb
 3603 0030 03       		.uleb128 0x3
 3604 0031 0E       		.uleb128 0xe
 3605 0032 00       		.byte	0
 3606 0033 00       		.byte	0
 3607 0034 05       		.uleb128 0x5
 3608 0035 13       		.uleb128 0x13
 3609 0036 01       		.byte	0x1
 3610 0037 03       		.uleb128 0x3
 3611 0038 0E       		.uleb128 0xe
 3612 0039 0B       		.uleb128 0xb
 3613 003a 0B       		.uleb128 0xb
 3614 003b 3A       		.uleb128 0x3a
 3615 003c 0B       		.uleb128 0xb
 3616 003d 3B       		.uleb128 0x3b
 3617 003e 0B       		.uleb128 0xb
 3618 003f 01       		.uleb128 0x1
 3619 0040 13       		.uleb128 0x13
 3620 0041 00       		.byte	0
 3621 0042 00       		.byte	0
 3622 0043 06       		.uleb128 0x6
ARM GAS  /tmp/ccI7Zqab.s 			page 65


 3623 0044 0D       		.uleb128 0xd
 3624 0045 00       		.byte	0
 3625 0046 03       		.uleb128 0x3
 3626 0047 0E       		.uleb128 0xe
 3627 0048 3A       		.uleb128 0x3a
 3628 0049 0B       		.uleb128 0xb
 3629 004a 3B       		.uleb128 0x3b
 3630 004b 0B       		.uleb128 0xb
 3631 004c 49       		.uleb128 0x49
 3632 004d 13       		.uleb128 0x13
 3633 004e 38       		.uleb128 0x38
 3634 004f 0B       		.uleb128 0xb
 3635 0050 00       		.byte	0
 3636 0051 00       		.byte	0
 3637 0052 07       		.uleb128 0x7
 3638 0053 0D       		.uleb128 0xd
 3639 0054 00       		.byte	0
 3640 0055 03       		.uleb128 0x3
 3641 0056 08       		.uleb128 0x8
 3642 0057 3A       		.uleb128 0x3a
 3643 0058 0B       		.uleb128 0xb
 3644 0059 3B       		.uleb128 0x3b
 3645 005a 0B       		.uleb128 0xb
 3646 005b 49       		.uleb128 0x49
 3647 005c 13       		.uleb128 0x13
 3648 005d 38       		.uleb128 0x38
 3649 005e 0B       		.uleb128 0xb
 3650 005f 00       		.byte	0
 3651 0060 00       		.byte	0
 3652 0061 08       		.uleb128 0x8
 3653 0062 13       		.uleb128 0x13
 3654 0063 01       		.byte	0x1
 3655 0064 0B       		.uleb128 0xb
 3656 0065 0B       		.uleb128 0xb
 3657 0066 3A       		.uleb128 0x3a
 3658 0067 0B       		.uleb128 0xb
 3659 0068 3B       		.uleb128 0x3b
 3660 0069 0B       		.uleb128 0xb
 3661 006a 01       		.uleb128 0x1
 3662 006b 13       		.uleb128 0x13
 3663 006c 00       		.byte	0
 3664 006d 00       		.byte	0
 3665 006e 09       		.uleb128 0x9
 3666 006f 0F       		.uleb128 0xf
 3667 0070 00       		.byte	0
 3668 0071 0B       		.uleb128 0xb
 3669 0072 0B       		.uleb128 0xb
 3670 0073 49       		.uleb128 0x49
 3671 0074 13       		.uleb128 0x13
 3672 0075 00       		.byte	0
 3673 0076 00       		.byte	0
 3674 0077 0A       		.uleb128 0xa
 3675 0078 0F       		.uleb128 0xf
 3676 0079 00       		.byte	0
 3677 007a 0B       		.uleb128 0xb
 3678 007b 0B       		.uleb128 0xb
 3679 007c 00       		.byte	0
ARM GAS  /tmp/ccI7Zqab.s 			page 66


 3680 007d 00       		.byte	0
 3681 007e 0B       		.uleb128 0xb
 3682 007f 13       		.uleb128 0x13
 3683 0080 01       		.byte	0x1
 3684 0081 03       		.uleb128 0x3
 3685 0082 0E       		.uleb128 0xe
 3686 0083 0B       		.uleb128 0xb
 3687 0084 0B       		.uleb128 0xb
 3688 0085 3A       		.uleb128 0x3a
 3689 0086 0B       		.uleb128 0xb
 3690 0087 3B       		.uleb128 0x3b
 3691 0088 05       		.uleb128 0x5
 3692 0089 01       		.uleb128 0x1
 3693 008a 13       		.uleb128 0x13
 3694 008b 00       		.byte	0
 3695 008c 00       		.byte	0
 3696 008d 0C       		.uleb128 0xc
 3697 008e 0D       		.uleb128 0xd
 3698 008f 00       		.byte	0
 3699 0090 03       		.uleb128 0x3
 3700 0091 08       		.uleb128 0x8
 3701 0092 3A       		.uleb128 0x3a
 3702 0093 0B       		.uleb128 0xb
 3703 0094 3B       		.uleb128 0x3b
 3704 0095 05       		.uleb128 0x5
 3705 0096 49       		.uleb128 0x49
 3706 0097 13       		.uleb128 0x13
 3707 0098 38       		.uleb128 0x38
 3708 0099 0B       		.uleb128 0xb
 3709 009a 00       		.byte	0
 3710 009b 00       		.byte	0
 3711 009c 0D       		.uleb128 0xd
 3712 009d 35       		.uleb128 0x35
 3713 009e 00       		.byte	0
 3714 009f 49       		.uleb128 0x49
 3715 00a0 13       		.uleb128 0x13
 3716 00a1 00       		.byte	0
 3717 00a2 00       		.byte	0
 3718 00a3 0E       		.uleb128 0xe
 3719 00a4 17       		.uleb128 0x17
 3720 00a5 01       		.byte	0x1
 3721 00a6 0B       		.uleb128 0xb
 3722 00a7 0B       		.uleb128 0xb
 3723 00a8 3A       		.uleb128 0x3a
 3724 00a9 0B       		.uleb128 0xb
 3725 00aa 3B       		.uleb128 0x3b
 3726 00ab 0B       		.uleb128 0xb
 3727 00ac 01       		.uleb128 0x1
 3728 00ad 13       		.uleb128 0x13
 3729 00ae 00       		.byte	0
 3730 00af 00       		.byte	0
 3731 00b0 0F       		.uleb128 0xf
 3732 00b1 0D       		.uleb128 0xd
 3733 00b2 00       		.byte	0
 3734 00b3 03       		.uleb128 0x3
 3735 00b4 0E       		.uleb128 0xe
 3736 00b5 3A       		.uleb128 0x3a
ARM GAS  /tmp/ccI7Zqab.s 			page 67


 3737 00b6 0B       		.uleb128 0xb
 3738 00b7 3B       		.uleb128 0x3b
 3739 00b8 0B       		.uleb128 0xb
 3740 00b9 49       		.uleb128 0x49
 3741 00ba 13       		.uleb128 0x13
 3742 00bb 00       		.byte	0
 3743 00bc 00       		.byte	0
 3744 00bd 10       		.uleb128 0x10
 3745 00be 26       		.uleb128 0x26
 3746 00bf 00       		.byte	0
 3747 00c0 49       		.uleb128 0x49
 3748 00c1 13       		.uleb128 0x13
 3749 00c2 00       		.byte	0
 3750 00c3 00       		.byte	0
 3751 00c4 11       		.uleb128 0x11
 3752 00c5 04       		.uleb128 0x4
 3753 00c6 01       		.byte	0x1
 3754 00c7 03       		.uleb128 0x3
 3755 00c8 0E       		.uleb128 0xe
 3756 00c9 0B       		.uleb128 0xb
 3757 00ca 0B       		.uleb128 0xb
 3758 00cb 3A       		.uleb128 0x3a
 3759 00cc 0B       		.uleb128 0xb
 3760 00cd 3B       		.uleb128 0x3b
 3761 00ce 0B       		.uleb128 0xb
 3762 00cf 01       		.uleb128 0x1
 3763 00d0 13       		.uleb128 0x13
 3764 00d1 00       		.byte	0
 3765 00d2 00       		.byte	0
 3766 00d3 12       		.uleb128 0x12
 3767 00d4 28       		.uleb128 0x28
 3768 00d5 00       		.byte	0
 3769 00d6 03       		.uleb128 0x3
 3770 00d7 0E       		.uleb128 0xe
 3771 00d8 1C       		.uleb128 0x1c
 3772 00d9 0D       		.uleb128 0xd
 3773 00da 00       		.byte	0
 3774 00db 00       		.byte	0
 3775 00dc 13       		.uleb128 0x13
 3776 00dd 01       		.uleb128 0x1
 3777 00de 01       		.byte	0x1
 3778 00df 49       		.uleb128 0x49
 3779 00e0 13       		.uleb128 0x13
 3780 00e1 01       		.uleb128 0x1
 3781 00e2 13       		.uleb128 0x13
 3782 00e3 00       		.byte	0
 3783 00e4 00       		.byte	0
 3784 00e5 14       		.uleb128 0x14
 3785 00e6 21       		.uleb128 0x21
 3786 00e7 00       		.byte	0
 3787 00e8 49       		.uleb128 0x49
 3788 00e9 13       		.uleb128 0x13
 3789 00ea 2F       		.uleb128 0x2f
 3790 00eb 0B       		.uleb128 0xb
 3791 00ec 00       		.byte	0
 3792 00ed 00       		.byte	0
 3793 00ee 15       		.uleb128 0x15
ARM GAS  /tmp/ccI7Zqab.s 			page 68


 3794 00ef 13       		.uleb128 0x13
 3795 00f0 01       		.byte	0x1
 3796 00f1 0B       		.uleb128 0xb
 3797 00f2 0B       		.uleb128 0xb
 3798 00f3 3A       		.uleb128 0x3a
 3799 00f4 0B       		.uleb128 0xb
 3800 00f5 3B       		.uleb128 0x3b
 3801 00f6 05       		.uleb128 0x5
 3802 00f7 01       		.uleb128 0x1
 3803 00f8 13       		.uleb128 0x13
 3804 00f9 00       		.byte	0
 3805 00fa 00       		.byte	0
 3806 00fb 16       		.uleb128 0x16
 3807 00fc 0D       		.uleb128 0xd
 3808 00fd 00       		.byte	0
 3809 00fe 03       		.uleb128 0x3
 3810 00ff 0E       		.uleb128 0xe
 3811 0100 3A       		.uleb128 0x3a
 3812 0101 0B       		.uleb128 0xb
 3813 0102 3B       		.uleb128 0x3b
 3814 0103 05       		.uleb128 0x5
 3815 0104 49       		.uleb128 0x49
 3816 0105 13       		.uleb128 0x13
 3817 0106 38       		.uleb128 0x38
 3818 0107 0B       		.uleb128 0xb
 3819 0108 00       		.byte	0
 3820 0109 00       		.byte	0
 3821 010a 17       		.uleb128 0x17
 3822 010b 16       		.uleb128 0x16
 3823 010c 00       		.byte	0
 3824 010d 03       		.uleb128 0x3
 3825 010e 0E       		.uleb128 0xe
 3826 010f 3A       		.uleb128 0x3a
 3827 0110 0B       		.uleb128 0xb
 3828 0111 3B       		.uleb128 0x3b
 3829 0112 05       		.uleb128 0x5
 3830 0113 49       		.uleb128 0x49
 3831 0114 13       		.uleb128 0x13
 3832 0115 00       		.byte	0
 3833 0116 00       		.byte	0
 3834 0117 18       		.uleb128 0x18
 3835 0118 15       		.uleb128 0x15
 3836 0119 01       		.byte	0x1
 3837 011a 27       		.uleb128 0x27
 3838 011b 19       		.uleb128 0x19
 3839 011c 01       		.uleb128 0x1
 3840 011d 13       		.uleb128 0x13
 3841 011e 00       		.byte	0
 3842 011f 00       		.byte	0
 3843 0120 19       		.uleb128 0x19
 3844 0121 05       		.uleb128 0x5
 3845 0122 00       		.byte	0
 3846 0123 49       		.uleb128 0x49
 3847 0124 13       		.uleb128 0x13
 3848 0125 00       		.byte	0
 3849 0126 00       		.byte	0
 3850 0127 1A       		.uleb128 0x1a
ARM GAS  /tmp/ccI7Zqab.s 			page 69


 3851 0128 04       		.uleb128 0x4
 3852 0129 01       		.byte	0x1
 3853 012a 0B       		.uleb128 0xb
 3854 012b 0B       		.uleb128 0xb
 3855 012c 3A       		.uleb128 0x3a
 3856 012d 0B       		.uleb128 0xb
 3857 012e 3B       		.uleb128 0x3b
 3858 012f 0B       		.uleb128 0xb
 3859 0130 01       		.uleb128 0x1
 3860 0131 13       		.uleb128 0x13
 3861 0132 00       		.byte	0
 3862 0133 00       		.byte	0
 3863 0134 1B       		.uleb128 0x1b
 3864 0135 04       		.uleb128 0x4
 3865 0136 01       		.byte	0x1
 3866 0137 0B       		.uleb128 0xb
 3867 0138 0B       		.uleb128 0xb
 3868 0139 3A       		.uleb128 0x3a
 3869 013a 0B       		.uleb128 0xb
 3870 013b 3B       		.uleb128 0x3b
 3871 013c 05       		.uleb128 0x5
 3872 013d 01       		.uleb128 0x1
 3873 013e 13       		.uleb128 0x13
 3874 013f 00       		.byte	0
 3875 0140 00       		.byte	0
 3876 0141 1C       		.uleb128 0x1c
 3877 0142 2E       		.uleb128 0x2e
 3878 0143 01       		.byte	0x1
 3879 0144 03       		.uleb128 0x3
 3880 0145 0E       		.uleb128 0xe
 3881 0146 3A       		.uleb128 0x3a
 3882 0147 0B       		.uleb128 0xb
 3883 0148 3B       		.uleb128 0x3b
 3884 0149 0B       		.uleb128 0xb
 3885 014a 27       		.uleb128 0x27
 3886 014b 19       		.uleb128 0x19
 3887 014c 11       		.uleb128 0x11
 3888 014d 01       		.uleb128 0x1
 3889 014e 12       		.uleb128 0x12
 3890 014f 06       		.uleb128 0x6
 3891 0150 40       		.uleb128 0x40
 3892 0151 18       		.uleb128 0x18
 3893 0152 9642     		.uleb128 0x2116
 3894 0154 19       		.uleb128 0x19
 3895 0155 01       		.uleb128 0x1
 3896 0156 13       		.uleb128 0x13
 3897 0157 00       		.byte	0
 3898 0158 00       		.byte	0
 3899 0159 1D       		.uleb128 0x1d
 3900 015a 05       		.uleb128 0x5
 3901 015b 00       		.byte	0
 3902 015c 03       		.uleb128 0x3
 3903 015d 0E       		.uleb128 0xe
 3904 015e 3A       		.uleb128 0x3a
 3905 015f 0B       		.uleb128 0xb
 3906 0160 3B       		.uleb128 0x3b
 3907 0161 0B       		.uleb128 0xb
ARM GAS  /tmp/ccI7Zqab.s 			page 70


 3908 0162 49       		.uleb128 0x49
 3909 0163 13       		.uleb128 0x13
 3910 0164 02       		.uleb128 0x2
 3911 0165 18       		.uleb128 0x18
 3912 0166 00       		.byte	0
 3913 0167 00       		.byte	0
 3914 0168 1E       		.uleb128 0x1e
 3915 0169 2E       		.uleb128 0x2e
 3916 016a 01       		.byte	0x1
 3917 016b 03       		.uleb128 0x3
 3918 016c 0E       		.uleb128 0xe
 3919 016d 3A       		.uleb128 0x3a
 3920 016e 0B       		.uleb128 0xb
 3921 016f 3B       		.uleb128 0x3b
 3922 0170 0B       		.uleb128 0xb
 3923 0171 27       		.uleb128 0x27
 3924 0172 19       		.uleb128 0x19
 3925 0173 11       		.uleb128 0x11
 3926 0174 01       		.uleb128 0x1
 3927 0175 12       		.uleb128 0x12
 3928 0176 06       		.uleb128 0x6
 3929 0177 40       		.uleb128 0x40
 3930 0178 18       		.uleb128 0x18
 3931 0179 9742     		.uleb128 0x2117
 3932 017b 19       		.uleb128 0x19
 3933 017c 01       		.uleb128 0x1
 3934 017d 13       		.uleb128 0x13
 3935 017e 00       		.byte	0
 3936 017f 00       		.byte	0
 3937 0180 1F       		.uleb128 0x1f
 3938 0181 0B       		.uleb128 0xb
 3939 0182 01       		.byte	0x1
 3940 0183 11       		.uleb128 0x11
 3941 0184 01       		.uleb128 0x1
 3942 0185 12       		.uleb128 0x12
 3943 0186 06       		.uleb128 0x6
 3944 0187 01       		.uleb128 0x1
 3945 0188 13       		.uleb128 0x13
 3946 0189 00       		.byte	0
 3947 018a 00       		.byte	0
 3948 018b 20       		.uleb128 0x20
 3949 018c 34       		.uleb128 0x34
 3950 018d 00       		.byte	0
 3951 018e 03       		.uleb128 0x3
 3952 018f 08       		.uleb128 0x8
 3953 0190 3A       		.uleb128 0x3a
 3954 0191 0B       		.uleb128 0xb
 3955 0192 3B       		.uleb128 0x3b
 3956 0193 0B       		.uleb128 0xb
 3957 0194 49       		.uleb128 0x49
 3958 0195 13       		.uleb128 0x13
 3959 0196 02       		.uleb128 0x2
 3960 0197 18       		.uleb128 0x18
 3961 0198 00       		.byte	0
 3962 0199 00       		.byte	0
 3963 019a 21       		.uleb128 0x21
 3964 019b 34       		.uleb128 0x34
ARM GAS  /tmp/ccI7Zqab.s 			page 71


 3965 019c 00       		.byte	0
 3966 019d 03       		.uleb128 0x3
 3967 019e 0E       		.uleb128 0xe
 3968 019f 3A       		.uleb128 0x3a
 3969 01a0 0B       		.uleb128 0xb
 3970 01a1 3B       		.uleb128 0x3b
 3971 01a2 0B       		.uleb128 0xb
 3972 01a3 49       		.uleb128 0x49
 3973 01a4 13       		.uleb128 0x13
 3974 01a5 02       		.uleb128 0x2
 3975 01a6 18       		.uleb128 0x18
 3976 01a7 00       		.byte	0
 3977 01a8 00       		.byte	0
 3978 01a9 22       		.uleb128 0x22
 3979 01aa 0B       		.uleb128 0xb
 3980 01ab 01       		.byte	0x1
 3981 01ac 11       		.uleb128 0x11
 3982 01ad 01       		.uleb128 0x1
 3983 01ae 12       		.uleb128 0x12
 3984 01af 06       		.uleb128 0x6
 3985 01b0 00       		.byte	0
 3986 01b1 00       		.byte	0
 3987 01b2 23       		.uleb128 0x23
 3988 01b3 05       		.uleb128 0x5
 3989 01b4 00       		.byte	0
 3990 01b5 03       		.uleb128 0x3
 3991 01b6 08       		.uleb128 0x8
 3992 01b7 3A       		.uleb128 0x3a
 3993 01b8 0B       		.uleb128 0xb
 3994 01b9 3B       		.uleb128 0x3b
 3995 01ba 0B       		.uleb128 0xb
 3996 01bb 49       		.uleb128 0x49
 3997 01bc 13       		.uleb128 0x13
 3998 01bd 02       		.uleb128 0x2
 3999 01be 18       		.uleb128 0x18
 4000 01bf 00       		.byte	0
 4001 01c0 00       		.byte	0
 4002 01c1 24       		.uleb128 0x24
 4003 01c2 2E       		.uleb128 0x2e
 4004 01c3 01       		.byte	0x1
 4005 01c4 3F       		.uleb128 0x3f
 4006 01c5 19       		.uleb128 0x19
 4007 01c6 03       		.uleb128 0x3
 4008 01c7 0E       		.uleb128 0xe
 4009 01c8 3A       		.uleb128 0x3a
 4010 01c9 0B       		.uleb128 0xb
 4011 01ca 3B       		.uleb128 0x3b
 4012 01cb 0B       		.uleb128 0xb
 4013 01cc 27       		.uleb128 0x27
 4014 01cd 19       		.uleb128 0x19
 4015 01ce 11       		.uleb128 0x11
 4016 01cf 01       		.uleb128 0x1
 4017 01d0 12       		.uleb128 0x12
 4018 01d1 06       		.uleb128 0x6
 4019 01d2 40       		.uleb128 0x40
 4020 01d3 18       		.uleb128 0x18
 4021 01d4 9642     		.uleb128 0x2116
ARM GAS  /tmp/ccI7Zqab.s 			page 72


 4022 01d6 19       		.uleb128 0x19
 4023 01d7 01       		.uleb128 0x1
 4024 01d8 13       		.uleb128 0x13
 4025 01d9 00       		.byte	0
 4026 01da 00       		.byte	0
 4027 01db 25       		.uleb128 0x25
 4028 01dc 2E       		.uleb128 0x2e
 4029 01dd 00       		.byte	0
 4030 01de 3F       		.uleb128 0x3f
 4031 01df 19       		.uleb128 0x19
 4032 01e0 03       		.uleb128 0x3
 4033 01e1 0E       		.uleb128 0xe
 4034 01e2 3A       		.uleb128 0x3a
 4035 01e3 0B       		.uleb128 0xb
 4036 01e4 3B       		.uleb128 0x3b
 4037 01e5 05       		.uleb128 0x5
 4038 01e6 27       		.uleb128 0x27
 4039 01e7 19       		.uleb128 0x19
 4040 01e8 11       		.uleb128 0x11
 4041 01e9 01       		.uleb128 0x1
 4042 01ea 12       		.uleb128 0x12
 4043 01eb 06       		.uleb128 0x6
 4044 01ec 40       		.uleb128 0x40
 4045 01ed 18       		.uleb128 0x18
 4046 01ee 9642     		.uleb128 0x2116
 4047 01f0 19       		.uleb128 0x19
 4048 01f1 00       		.byte	0
 4049 01f2 00       		.byte	0
 4050 01f3 26       		.uleb128 0x26
 4051 01f4 2E       		.uleb128 0x2e
 4052 01f5 01       		.byte	0x1
 4053 01f6 3F       		.uleb128 0x3f
 4054 01f7 19       		.uleb128 0x19
 4055 01f8 03       		.uleb128 0x3
 4056 01f9 0E       		.uleb128 0xe
 4057 01fa 3A       		.uleb128 0x3a
 4058 01fb 0B       		.uleb128 0xb
 4059 01fc 3B       		.uleb128 0x3b
 4060 01fd 05       		.uleb128 0x5
 4061 01fe 27       		.uleb128 0x27
 4062 01ff 19       		.uleb128 0x19
 4063 0200 11       		.uleb128 0x11
 4064 0201 01       		.uleb128 0x1
 4065 0202 12       		.uleb128 0x12
 4066 0203 06       		.uleb128 0x6
 4067 0204 40       		.uleb128 0x40
 4068 0205 18       		.uleb128 0x18
 4069 0206 9642     		.uleb128 0x2116
 4070 0208 19       		.uleb128 0x19
 4071 0209 01       		.uleb128 0x1
 4072 020a 13       		.uleb128 0x13
 4073 020b 00       		.byte	0
 4074 020c 00       		.byte	0
 4075 020d 27       		.uleb128 0x27
 4076 020e 05       		.uleb128 0x5
 4077 020f 00       		.byte	0
 4078 0210 03       		.uleb128 0x3
ARM GAS  /tmp/ccI7Zqab.s 			page 73


 4079 0211 0E       		.uleb128 0xe
 4080 0212 3A       		.uleb128 0x3a
 4081 0213 0B       		.uleb128 0xb
 4082 0214 3B       		.uleb128 0x3b
 4083 0215 05       		.uleb128 0x5
 4084 0216 49       		.uleb128 0x49
 4085 0217 13       		.uleb128 0x13
 4086 0218 02       		.uleb128 0x2
 4087 0219 18       		.uleb128 0x18
 4088 021a 00       		.byte	0
 4089 021b 00       		.byte	0
 4090 021c 28       		.uleb128 0x28
 4091 021d 34       		.uleb128 0x34
 4092 021e 00       		.byte	0
 4093 021f 03       		.uleb128 0x3
 4094 0220 08       		.uleb128 0x8
 4095 0221 3A       		.uleb128 0x3a
 4096 0222 0B       		.uleb128 0xb
 4097 0223 3B       		.uleb128 0x3b
 4098 0224 05       		.uleb128 0x5
 4099 0225 49       		.uleb128 0x49
 4100 0226 13       		.uleb128 0x13
 4101 0227 02       		.uleb128 0x2
 4102 0228 18       		.uleb128 0x18
 4103 0229 00       		.byte	0
 4104 022a 00       		.byte	0
 4105 022b 29       		.uleb128 0x29
 4106 022c 2E       		.uleb128 0x2e
 4107 022d 01       		.byte	0x1
 4108 022e 3F       		.uleb128 0x3f
 4109 022f 19       		.uleb128 0x19
 4110 0230 03       		.uleb128 0x3
 4111 0231 0E       		.uleb128 0xe
 4112 0232 3A       		.uleb128 0x3a
 4113 0233 0B       		.uleb128 0xb
 4114 0234 3B       		.uleb128 0x3b
 4115 0235 05       		.uleb128 0x5
 4116 0236 27       		.uleb128 0x27
 4117 0237 19       		.uleb128 0x19
 4118 0238 11       		.uleb128 0x11
 4119 0239 01       		.uleb128 0x1
 4120 023a 12       		.uleb128 0x12
 4121 023b 06       		.uleb128 0x6
 4122 023c 40       		.uleb128 0x40
 4123 023d 18       		.uleb128 0x18
 4124 023e 9742     		.uleb128 0x2117
 4125 0240 19       		.uleb128 0x19
 4126 0241 01       		.uleb128 0x1
 4127 0242 13       		.uleb128 0x13
 4128 0243 00       		.byte	0
 4129 0244 00       		.byte	0
 4130 0245 2A       		.uleb128 0x2a
 4131 0246 34       		.uleb128 0x34
 4132 0247 00       		.byte	0
 4133 0248 03       		.uleb128 0x3
 4134 0249 0E       		.uleb128 0xe
 4135 024a 3A       		.uleb128 0x3a
ARM GAS  /tmp/ccI7Zqab.s 			page 74


 4136 024b 0B       		.uleb128 0xb
 4137 024c 3B       		.uleb128 0x3b
 4138 024d 05       		.uleb128 0x5
 4139 024e 49       		.uleb128 0x49
 4140 024f 13       		.uleb128 0x13
 4141 0250 02       		.uleb128 0x2
 4142 0251 18       		.uleb128 0x18
 4143 0252 00       		.byte	0
 4144 0253 00       		.byte	0
 4145 0254 2B       		.uleb128 0x2b
 4146 0255 34       		.uleb128 0x34
 4147 0256 00       		.byte	0
 4148 0257 03       		.uleb128 0x3
 4149 0258 0E       		.uleb128 0xe
 4150 0259 3A       		.uleb128 0x3a
 4151 025a 0B       		.uleb128 0xb
 4152 025b 3B       		.uleb128 0x3b
 4153 025c 05       		.uleb128 0x5
 4154 025d 49       		.uleb128 0x49
 4155 025e 13       		.uleb128 0x13
 4156 025f 3F       		.uleb128 0x3f
 4157 0260 19       		.uleb128 0x19
 4158 0261 3C       		.uleb128 0x3c
 4159 0262 19       		.uleb128 0x19
 4160 0263 00       		.byte	0
 4161 0264 00       		.byte	0
 4162 0265 2C       		.uleb128 0x2c
 4163 0266 34       		.uleb128 0x34
 4164 0267 00       		.byte	0
 4165 0268 03       		.uleb128 0x3
 4166 0269 0E       		.uleb128 0xe
 4167 026a 3A       		.uleb128 0x3a
 4168 026b 0B       		.uleb128 0xb
 4169 026c 3B       		.uleb128 0x3b
 4170 026d 0B       		.uleb128 0xb
 4171 026e 49       		.uleb128 0x49
 4172 026f 13       		.uleb128 0x13
 4173 0270 3F       		.uleb128 0x3f
 4174 0271 19       		.uleb128 0x19
 4175 0272 02       		.uleb128 0x2
 4176 0273 18       		.uleb128 0x18
 4177 0274 00       		.byte	0
 4178 0275 00       		.byte	0
 4179 0276 00       		.byte	0
 4180              		.section	.debug_aranges,"",%progbits
 4181 0000 84000000 		.4byte	0x84
 4182 0004 0200     		.2byte	0x2
 4183 0006 00000000 		.4byte	.Ldebug_info0
 4184 000a 04       		.byte	0x4
 4185 000b 00       		.byte	0
 4186 000c 0000     		.2byte	0
 4187 000e 0000     		.2byte	0
 4188 0010 00000000 		.4byte	.LFB118
 4189 0014 26000000 		.4byte	.LFE118-.LFB118
 4190 0018 00000000 		.4byte	.LFB119
 4191 001c 1A000000 		.4byte	.LFE119-.LFB119
 4192 0020 00000000 		.4byte	.LFB120
ARM GAS  /tmp/ccI7Zqab.s 			page 75


 4193 0024 28000000 		.4byte	.LFE120-.LFB120
 4194 0028 00000000 		.4byte	.LFB121
 4195 002c 28000000 		.4byte	.LFE121-.LFB121
 4196 0030 00000000 		.4byte	.LFB122
 4197 0034 40000000 		.4byte	.LFE122-.LFB122
 4198 0038 00000000 		.4byte	.LFB123
 4199 003c 36000000 		.4byte	.LFE123-.LFB123
 4200 0040 00000000 		.4byte	.LFB124
 4201 0044 A2010000 		.4byte	.LFE124-.LFB124
 4202 0048 00000000 		.4byte	.LFB125
 4203 004c FC010000 		.4byte	.LFE125-.LFB125
 4204 0050 00000000 		.4byte	.LFB126
 4205 0054 34000000 		.4byte	.LFE126-.LFB126
 4206 0058 00000000 		.4byte	.LFB127
 4207 005c 3C000000 		.4byte	.LFE127-.LFB127
 4208 0060 00000000 		.4byte	.LFB128
 4209 0064 88000000 		.4byte	.LFE128-.LFB128
 4210 0068 00000000 		.4byte	.LFB129
 4211 006c 4C000000 		.4byte	.LFE129-.LFB129
 4212 0070 00000000 		.4byte	.LFB130
 4213 0074 1C010000 		.4byte	.LFE130-.LFB130
 4214 0078 00000000 		.4byte	.LFB131
 4215 007c 3A000000 		.4byte	.LFE131-.LFB131
 4216 0080 00000000 		.4byte	0
 4217 0084 00000000 		.4byte	0
 4218              		.section	.debug_ranges,"",%progbits
 4219              	.Ldebug_ranges0:
 4220 0000 00000000 		.4byte	.LFB118
 4221 0004 26000000 		.4byte	.LFE118
 4222 0008 00000000 		.4byte	.LFB119
 4223 000c 1A000000 		.4byte	.LFE119
 4224 0010 00000000 		.4byte	.LFB120
 4225 0014 28000000 		.4byte	.LFE120
 4226 0018 00000000 		.4byte	.LFB121
 4227 001c 28000000 		.4byte	.LFE121
 4228 0020 00000000 		.4byte	.LFB122
 4229 0024 40000000 		.4byte	.LFE122
 4230 0028 00000000 		.4byte	.LFB123
 4231 002c 36000000 		.4byte	.LFE123
 4232 0030 00000000 		.4byte	.LFB124
 4233 0034 A2010000 		.4byte	.LFE124
 4234 0038 00000000 		.4byte	.LFB125
 4235 003c FC010000 		.4byte	.LFE125
 4236 0040 00000000 		.4byte	.LFB126
 4237 0044 34000000 		.4byte	.LFE126
 4238 0048 00000000 		.4byte	.LFB127
 4239 004c 3C000000 		.4byte	.LFE127
 4240 0050 00000000 		.4byte	.LFB128
 4241 0054 88000000 		.4byte	.LFE128
 4242 0058 00000000 		.4byte	.LFB129
 4243 005c 4C000000 		.4byte	.LFE129
 4244 0060 00000000 		.4byte	.LFB130
 4245 0064 1C010000 		.4byte	.LFE130
 4246 0068 00000000 		.4byte	.LFB131
 4247 006c 3A000000 		.4byte	.LFE131
 4248 0070 00000000 		.4byte	0
 4249 0074 00000000 		.4byte	0
ARM GAS  /tmp/ccI7Zqab.s 			page 76


 4250              		.section	.debug_line,"",%progbits
 4251              	.Ldebug_line0:
 4252 0000 5E040000 		.section	.debug_str,"MS",%progbits,1
 4252      02003E02 
 4252      00000201 
 4252      FB0E0D00 
 4252      01010101 
 4253              	.LASF2:
 4254 0000 73697A65 		.ascii	"size_t\000"
 4254      5F7400
 4255              	.LASF57:
 4256 0007 73697A65 		.ascii	"sizetype\000"
 4256      74797065 
 4256      00
 4257              	.LASF246:
 4258 0010 6164635F 		.ascii	"adc_lld_start\000"
 4258      6C6C645F 
 4258      73746172 
 4258      7400
 4259              	.LASF29:
 4260 001e 73797374 		.ascii	"systime_t\000"
 4260      696D655F 
 4260      7400
 4261              	.LASF236:
 4262 0028 6164635F 		.ascii	"adc_lld_analog_on\000"
 4262      6C6C645F 
 4262      616E616C 
 4262      6F675F6F 
 4262      6E00
 4263              	.LASF34:
 4264 003a 705F6374 		.ascii	"p_ctx\000"
 4264      7800
 4265              	.LASF26:
 4266 0040 74707269 		.ascii	"tprio_t\000"
 4266      6F5F7400 
 4267              	.LASF222:
 4268 0048 61646363 		.ascii	"adccallback_t\000"
 4268      616C6C62 
 4268      61636B5F 
 4268      7400
 4269              	.LASF147:
 4270 0056 53515231 		.ascii	"SQR1\000"
 4270      00
 4271              	.LASF148:
 4272 005b 53515232 		.ascii	"SQR2\000"
 4272      00
 4273              	.LASF149:
 4274 0060 53515233 		.ascii	"SQR3\000"
 4274      00
 4275              	.LASF150:
 4276 0065 53515234 		.ascii	"SQR4\000"
 4276      00
 4277              	.LASF45:
 4278 006a 705F6D73 		.ascii	"p_msgqueue\000"
 4278      67717565 
 4278      756500
 4279              	.LASF17:
ARM GAS  /tmp/ccI7Zqab.s 			page 77


 4280 0075 696E7433 		.ascii	"int32_t\000"
 4280      325F7400 
 4281              	.LASF201:
 4282 007d 61646373 		.ascii	"adcstate_t\000"
 4282      74617465 
 4282      5F7400
 4283              	.LASF90:
 4284 0088 444D4131 		.ascii	"DMA1_Channel5_IRQn\000"
 4284      5F436861 
 4284      6E6E656C 
 4284      355F4952 
 4284      516E00
 4285              	.LASF253:
 4286 009b 64696F63 		.ascii	"diocane\000"
 4286      616E6500 
 4287              	.LASF204:
 4288 00a3 4144435F 		.ascii	"ADC_ERR_DMAFAILURE\000"
 4288      4552525F 
 4288      444D4146 
 4288      41494C55 
 4288      524500
 4289              	.LASF228:
 4290 00b6 63666772 		.ascii	"cfgr\000"
 4290      00
 4291              	.LASF123:
 4292 00bb 53504933 		.ascii	"SPI3_IRQn\000"
 4292      5F495251 
 4292      6E00
 4293              	.LASF79:
 4294 00c5 464C4153 		.ascii	"FLASH_IRQn\000"
 4294      485F4952 
 4294      516E00
 4295              	.LASF212:
 4296 00d0 636F6E66 		.ascii	"config\000"
 4296      696700
 4297              	.LASF211:
 4298 00d7 73746174 		.ascii	"state\000"
 4298      6500
 4299              	.LASF255:
 4300 00dd 2F686F6D 		.ascii	"/home/dave/r2p-sdk/core/ChibiOS/os/hal/platforms/ST"
 4300      652F6461 
 4300      76652F72 
 4300      32702D73 
 4300      646B2F63 
 4301 0110 4D333246 		.ascii	"M32F30x/adc_lld.c\000"
 4301      3330782F 
 4301      6164635F 
 4301      6C6C642E 
 4301      6300
 4302              	.LASF174:
 4303 0122 434E4454 		.ascii	"CNDTR\000"
 4303      5200
 4304              	.LASF103:
 4305 0128 54494D32 		.ascii	"TIM2_IRQn\000"
 4305      5F495251 
 4305      6E00
 4306              	.LASF227:
ARM GAS  /tmp/ccI7Zqab.s 			page 78


 4307 0132 6572726F 		.ascii	"error_cb\000"
 4307      725F6362 
 4307      00
 4308              	.LASF137:
 4309 013b 5553425F 		.ascii	"USB_HP_IRQn\000"
 4309      48505F49 
 4309      52516E00 
 4310              	.LASF133:
 4311 0147 41444334 		.ascii	"ADC4_IRQn\000"
 4311      5F495251 
 4311      6E00
 4312              	.LASF60:
 4313 0151 6D5F6F77 		.ascii	"m_owner\000"
 4313      6E657200 
 4314              	.LASF163:
 4315 0159 4A445234 		.ascii	"JDR4\000"
 4315      00
 4316              	.LASF226:
 4317 015e 656E645F 		.ascii	"end_cb\000"
 4317      636200
 4318              	.LASF63:
 4319 0165 65786974 		.ascii	"exitcode\000"
 4319      636F6465 
 4319      00
 4320              	.LASF3:
 4321 016e 5F5F7569 		.ascii	"__uint8_t\000"
 4321      6E74385F 
 4321      7400
 4322              	.LASF65:
 4323 0178 65776D61 		.ascii	"ewmask\000"
 4323      736B00
 4324              	.LASF35:
 4325 017f 705F6E65 		.ascii	"p_newer\000"
 4325      77657200 
 4326              	.LASF234:
 4327 0187 6164635F 		.ascii	"adc_lld_vreg_off\000"
 4327      6C6C645F 
 4327      76726567 
 4327      5F6F6666 
 4327      00
 4328              	.LASF9:
 4329 0198 6C6F6E67 		.ascii	"long int\000"
 4329      20696E74 
 4329      00
 4330              	.LASF31:
 4331 01a1 705F6E65 		.ascii	"p_next\000"
 4331      787400
 4332              	.LASF32:
 4333 01a8 705F7072 		.ascii	"p_prev\000"
 4333      657600
 4334              	.LASF221:
 4335 01af 646D616D 		.ascii	"dmamode\000"
 4335      6F646500 
 4336              	.LASF23:
 4337 01b7 74737461 		.ascii	"tstate_t\000"
 4337      74655F74 
 4337      00
ARM GAS  /tmp/ccI7Zqab.s 			page 79


 4338              	.LASF245:
 4339 01c0 56656374 		.ascii	"Vector88\000"
 4339      6F723838 
 4339      00
 4340              	.LASF48:
 4341 01c9 705F6D74 		.ascii	"p_mtxlist\000"
 4341      786C6973 
 4341      7400
 4342              	.LASF229:
 4343 01d3 736D7072 		.ascii	"smpr\000"
 4343      00
 4344              	.LASF53:
 4345 01d8 72656761 		.ascii	"regarm_t\000"
 4345      726D5F74 
 4345      00
 4346              	.LASF247:
 4347 01e1 6164635F 		.ascii	"adc_lld_stop\000"
 4347      6C6C645F 
 4347      73746F70 
 4347      00
 4348              	.LASF239:
 4349 01ee 6164635F 		.ascii	"adc_lld_stop_adc\000"
 4349      6C6C645F 
 4349      73746F70 
 4349      5F616463 
 4349      00
 4350              	.LASF181:
 4351 01ff 41504232 		.ascii	"APB2ENR\000"
 4351      454E5200 
 4352              	.LASF74:
 4353 0207 53797354 		.ascii	"SysTick_IRQn\000"
 4353      69636B5F 
 4353      4952516E 
 4353      00
 4354              	.LASF114:
 4355 0214 55534152 		.ascii	"USART3_IRQn\000"
 4355      54335F49 
 4355      52516E00 
 4356              	.LASF175:
 4357 0220 43504152 		.ascii	"CPAR\000"
 4357      00
 4358              	.LASF1:
 4359 0225 7369676E 		.ascii	"signed char\000"
 4359      65642063 
 4359      68617200 
 4360              	.LASF42:
 4361 0231 705F7072 		.ascii	"p_preempt\000"
 4361      65656D70 
 4361      7400
 4362              	.LASF15:
 4363 023b 75696E74 		.ascii	"uint8_t\000"
 4363      385F7400 
 4364              	.LASF28:
 4365 0243 6576656E 		.ascii	"eventmask_t\000"
 4365      746D6173 
 4365      6B5F7400 
 4366              	.LASF56:
ARM GAS  /tmp/ccI7Zqab.s 			page 80


 4367 024f 636F6E74 		.ascii	"context\000"
 4367      65787400 
 4368              	.LASF142:
 4369 0257 52455345 		.ascii	"RESERVED0\000"
 4369      52564544 
 4369      3000
 4370              	.LASF145:
 4371 0261 52455345 		.ascii	"RESERVED1\000"
 4371      52564544 
 4371      3100
 4372              	.LASF4:
 4373 026b 756E7369 		.ascii	"unsigned char\000"
 4373      676E6564 
 4373      20636861 
 4373      7200
 4374              	.LASF151:
 4375 0279 52455345 		.ascii	"RESERVED3\000"
 4375      52564544 
 4375      3300
 4376              	.LASF152:
 4377 0283 52455345 		.ascii	"RESERVED4\000"
 4377      52564544 
 4377      3400
 4378              	.LASF154:
 4379 028d 52455345 		.ascii	"RESERVED5\000"
 4379      52564544 
 4379      3500
 4380              	.LASF159:
 4381 0297 52455345 		.ascii	"RESERVED6\000"
 4381      52564544 
 4381      3600
 4382              	.LASF164:
 4383 02a1 52455345 		.ascii	"RESERVED7\000"
 4383      52564544 
 4383      3700
 4384              	.LASF167:
 4385 02ab 52455345 		.ascii	"RESERVED8\000"
 4385      52564544 
 4385      3800
 4386              	.LASF135:
 4387 02b5 434F4D50 		.ascii	"COMP4_5_6_IRQn\000"
 4387      345F355F 
 4387      365F4952 
 4387      516E00
 4388              	.LASF209:
 4389 02c4 61646365 		.ascii	"adcerror_t\000"
 4389      72726F72 
 4389      5F7400
 4390              	.LASF107:
 4391 02cf 49324331 		.ascii	"I2C1_ER_IRQn\000"
 4391      5F45525F 
 4391      4952516E 
 4391      00
 4392              	.LASF195:
 4393 02dc 4144435F 		.ascii	"ADC_UNINIT\000"
 4393      554E494E 
 4393      495400
ARM GAS  /tmp/ccI7Zqab.s 			page 81


 4394              	.LASF86:
 4395 02e7 444D4131 		.ascii	"DMA1_Channel1_IRQn\000"
 4395      5F436861 
 4395      6E6E656C 
 4395      315F4952 
 4395      516E00
 4396              	.LASF197:
 4397 02fa 4144435F 		.ascii	"ADC_READY\000"
 4397      52454144 
 4397      5900
 4398              	.LASF21:
 4399 0304 5F426F6F 		.ascii	"_Bool\000"
 4399      6C00
 4400              	.LASF77:
 4401 030a 54414D50 		.ascii	"TAMPER_STAMP_IRQn\000"
 4401      45525F53 
 4401      54414D50 
 4401      5F495251 
 4401      6E00
 4402              	.LASF146:
 4403 031c 52455345 		.ascii	"RESERVED2\000"
 4403      52564544 
 4403      3200
 4404              	.LASF241:
 4405 0326 666C6167 		.ascii	"flags\000"
 4405      7300
 4406              	.LASF202:
 4407 032c 61646373 		.ascii	"adcsample_t\000"
 4407      616D706C 
 4407      655F7400 
 4408              	.LASF70:
 4409 0338 55736167 		.ascii	"UsageFault_IRQn\000"
 4409      65466175 
 4409      6C745F49 
 4409      52516E00 
 4410              	.LASF94:
 4411 0348 5553425F 		.ascii	"USB_HP_CAN1_TX_IRQn\000"
 4411      48505F43 
 4411      414E315F 
 4411      54585F49 
 4411      52516E00 
 4412              	.LASF66:
 4413 035c 63686172 		.ascii	"char\000"
 4413      00
 4414              	.LASF190:
 4415 0361 69736869 		.ascii	"ishift\000"
 4415      667400
 4416              	.LASF33:
 4417 0368 705F7072 		.ascii	"p_prio\000"
 4417      696F00
 4418              	.LASF6:
 4419 036f 5F5F7569 		.ascii	"__uint16_t\000"
 4419      6E743136 
 4419      5F7400
 4420              	.LASF64:
 4421 037a 77746F62 		.ascii	"wtobjp\000"
 4421      6A7000
ARM GAS  /tmp/ccI7Zqab.s 			page 82


 4422              	.LASF200:
 4423 0381 4144435F 		.ascii	"ADC_ERROR\000"
 4423      4552524F 
 4423      5200
 4424              	.LASF54:
 4425 038b 73746B61 		.ascii	"stkalign_t\000"
 4425      6C69676E 
 4425      5F7400
 4426              	.LASF240:
 4427 0396 6164635F 		.ascii	"adc_lld_serve_dma_interrupt\000"
 4427      6C6C645F 
 4427      73657276 
 4427      655F646D 
 4427      615F696E 
 4428              	.LASF117:
 4429 03b2 55534257 		.ascii	"USBWakeUp_IRQn\000"
 4429      616B6555 
 4429      705F4952 
 4429      516E00
 4430              	.LASF105:
 4431 03c1 54494D34 		.ascii	"TIM4_IRQn\000"
 4431      5F495251 
 4431      6E00
 4432              	.LASF113:
 4433 03cb 55534152 		.ascii	"USART2_IRQn\000"
 4433      54325F49 
 4433      52516E00 
 4434              	.LASF183:
 4435 03d7 42444352 		.ascii	"BDCR\000"
 4435      00
 4436              	.LASF168:
 4437 03dc 52455345 		.ascii	"RESERVED9\000"
 4437      52564544 
 4437      3900
 4438              	.LASF165:
 4439 03e6 41574432 		.ascii	"AWD2CR\000"
 4439      435200
 4440              	.LASF213:
 4441 03ed 73616D70 		.ascii	"samples\000"
 4441      6C657300 
 4442              	.LASF106:
 4443 03f5 49324331 		.ascii	"I2C1_EV_IRQn\000"
 4443      5F45565F 
 4443      4952516E 
 4443      00
 4444              	.LASF171:
 4445 0402 4144435F 		.ascii	"ADC_TypeDef\000"
 4445      54797065 
 4445      44656600 
 4446              	.LASF172:
 4447 040e 52455345 		.ascii	"RESERVED\000"
 4447      52564544 
 4447      00
 4448              	.LASF55:
 4449 0417 696E7463 		.ascii	"intctx\000"
 4449      747800
 4450              	.LASF47:
ARM GAS  /tmp/ccI7Zqab.s 			page 83


 4451 041e 705F6570 		.ascii	"p_epending\000"
 4451      656E6469 
 4451      6E6700
 4452              	.LASF233:
 4453 0429 6164635F 		.ascii	"adc_lld_vreg_on\000"
 4453      6C6C645F 
 4453      76726567 
 4453      5F6F6E00 
 4454              	.LASF99:
 4455 0439 54494D31 		.ascii	"TIM1_BRK_TIM15_IRQn\000"
 4455      5F42524B 
 4455      5F54494D 
 4455      31355F49 
 4455      52516E00 
 4456              	.LASF141:
 4457 044d 43464752 		.ascii	"CFGR\000"
 4457      00
 4458              	.LASF129:
 4459 0452 444D4132 		.ascii	"DMA2_Channel2_IRQn\000"
 4459      5F436861 
 4459      6E6E656C 
 4459      325F4952 
 4459      516E00
 4460              	.LASF102:
 4461 0465 54494D31 		.ascii	"TIM1_CC_IRQn\000"
 4461      5F43435F 
 4461      4952516E 
 4461      00
 4462              	.LASF82:
 4463 0472 45585449 		.ascii	"EXTI1_IRQn\000"
 4463      315F4952 
 4463      516E00
 4464              	.LASF169:
 4465 047d 44494653 		.ascii	"DIFSEL\000"
 4465      454C00
 4466              	.LASF67:
 4467 0484 4E6F6E4D 		.ascii	"NonMaskableInt_IRQn\000"
 4467      61736B61 
 4467      626C6549 
 4467      6E745F49 
 4467      52516E00 
 4468              	.LASF13:
 4469 0498 5F5F7569 		.ascii	"__uint64_t\000"
 4469      6E743634 
 4469      5F7400
 4470              	.LASF75:
 4471 04a3 57574447 		.ascii	"WWDG_IRQn\000"
 4471      5F495251 
 4471      6E00
 4472              	.LASF11:
 4473 04ad 6C6F6E67 		.ascii	"long unsigned int\000"
 4473      20756E73 
 4473      69676E65 
 4473      6420696E 
 4473      7400
 4474              	.LASF220:
 4475 04bf 646D6173 		.ascii	"dmastp\000"
ARM GAS  /tmp/ccI7Zqab.s 			page 84


 4475      747000
 4476              	.LASF68:
 4477 04c6 4D656D6F 		.ascii	"MemoryManagement_IRQn\000"
 4477      72794D61 
 4477      6E616765 
 4477      6D656E74 
 4477      5F495251 
 4478              	.LASF89:
 4479 04dc 444D4131 		.ascii	"DMA1_Channel4_IRQn\000"
 4479      5F436861 
 4479      6E6E656C 
 4479      345F4952 
 4479      516E00
 4480              	.LASF188:
 4481 04ef 6368616E 		.ascii	"channel\000"
 4481      6E656C00 
 4482              	.LASF97:
 4483 04f7 43414E31 		.ascii	"CAN1_SCE_IRQn\000"
 4483      5F534345 
 4483      5F495251 
 4483      6E00
 4484              	.LASF251:
 4485 0505 5F73746D 		.ascii	"_stm32_dma_streams\000"
 4485      33325F64 
 4485      6D615F73 
 4485      74726561 
 4485      6D7300
 4486              	.LASF143:
 4487 0518 534D5052 		.ascii	"SMPR1\000"
 4487      3100
 4488              	.LASF144:
 4489 051e 534D5052 		.ascii	"SMPR2\000"
 4489      3200
 4490              	.LASF128:
 4491 0524 444D4132 		.ascii	"DMA2_Channel1_IRQn\000"
 4491      5F436861 
 4491      6E6E656C 
 4491      315F4952 
 4491      516E00
 4492              	.LASF193:
 4493 0537 73746D33 		.ascii	"stm32_dma_stream_t\000"
 4493      325F646D 
 4493      615F7374 
 4493      7265616D 
 4493      5F7400
 4494              	.LASF138:
 4495 054a 5553425F 		.ascii	"USB_LP_IRQn\000"
 4495      4C505F49 
 4495      52516E00 
 4496              	.LASF119:
 4497 0556 54494D38 		.ascii	"TIM8_UP_IRQn\000"
 4497      5F55505F 
 4497      4952516E 
 4497      00
 4498              	.LASF109:
 4499 0563 49324332 		.ascii	"I2C2_ER_IRQn\000"
 4499      5F45525F 
ARM GAS  /tmp/ccI7Zqab.s 			page 85


 4499      4952516E 
 4499      00
 4500              	.LASF230:
 4501 0570 41444343 		.ascii	"ADCConversionGroup\000"
 4501      6F6E7665 
 4501      7273696F 
 4501      6E47726F 
 4501      757000
 4502              	.LASF199:
 4503 0583 4144435F 		.ascii	"ADC_COMPLETE\000"
 4503      434F4D50 
 4503      4C455445 
 4503      00
 4504              	.LASF184:
 4505 0590 41484252 		.ascii	"AHBRSTR\000"
 4505      53545200 
 4506              	.LASF248:
 4507 0598 6164635F 		.ascii	"adc_lld_start_conversion\000"
 4507      6C6C645F 
 4507      73746172 
 4507      745F636F 
 4507      6E766572 
 4508              	.LASF69:
 4509 05b1 42757346 		.ascii	"BusFault_IRQn\000"
 4509      61756C74 
 4509      5F495251 
 4509      6E00
 4510              	.LASF125:
 4511 05bf 55415254 		.ascii	"UART5_IRQn\000"
 4511      355F4952 
 4511      516E00
 4512              	.LASF139:
 4513 05ca 55534257 		.ascii	"USBWakeUp_RMP_IRQn\000"
 4513      616B6555 
 4513      705F524D 
 4513      505F4952 
 4513      516E00
 4514              	.LASF10:
 4515 05dd 5F5F7569 		.ascii	"__uint32_t\000"
 4515      6E743332 
 4515      5F7400
 4516              	.LASF58:
 4517 05e8 4D757465 		.ascii	"Mutex\000"
 4517      7800
 4518              	.LASF127:
 4519 05ee 54494D37 		.ascii	"TIM7_IRQn\000"
 4519      5F495251 
 4519      6E00
 4520              	.LASF12:
 4521 05f8 6C6F6E67 		.ascii	"long long int\000"
 4521      206C6F6E 
 4521      6720696E 
 4521      7400
 4522              	.LASF111:
 4523 0606 53504932 		.ascii	"SPI2_IRQn\000"
 4523      5F495251 
 4523      6E00
ARM GAS  /tmp/ccI7Zqab.s 			page 86


 4524              	.LASF122:
 4525 0610 41444333 		.ascii	"ADC3_IRQn\000"
 4525      5F495251 
 4525      6E00
 4526              	.LASF59:
 4527 061a 6D5F7175 		.ascii	"m_queue\000"
 4527      65756500 
 4528              	.LASF218:
 4529 0622 61646363 		.ascii	"adcc\000"
 4529      00
 4530              	.LASF110:
 4531 0627 53504931 		.ascii	"SPI1_IRQn\000"
 4531      5F495251 
 4531      6E00
 4532              	.LASF101:
 4533 0631 54494D31 		.ascii	"TIM1_TRG_COM_TIM17_IRQn\000"
 4533      5F545247 
 4533      5F434F4D 
 4533      5F54494D 
 4533      31375F49 
 4534              	.LASF219:
 4535 0649 6164636D 		.ascii	"adcm\000"
 4535      00
 4536              	.LASF235:
 4537 064e 61646370 		.ascii	"adcp\000"
 4537      00
 4538              	.LASF223:
 4539 0653 61646365 		.ascii	"adcerrorcallback_t\000"
 4539      72726F72 
 4539      63616C6C 
 4539      6261636B 
 4539      5F7400
 4540              	.LASF71:
 4541 0666 53564361 		.ascii	"SVCall_IRQn\000"
 4541      6C6C5F49 
 4541      52516E00 
 4542              	.LASF178:
 4543 0672 41504232 		.ascii	"APB2RSTR\000"
 4543      52535452 
 4543      00
 4544              	.LASF214:
 4545 067b 64657074 		.ascii	"depth\000"
 4545      6800
 4546              	.LASF217:
 4547 0681 6D757465 		.ascii	"mutex\000"
 4547      7800
 4548              	.LASF140:
 4549 0687 4650555F 		.ascii	"FPU_IRQn\000"
 4549      4952516E 
 4549      00
 4550              	.LASF124:
 4551 0690 55415254 		.ascii	"UART4_IRQn\000"
 4551      345F4952 
 4551      516E00
 4552              	.LASF166:
 4553 069b 41574433 		.ascii	"AWD3CR\000"
 4553      435200
ARM GAS  /tmp/ccI7Zqab.s 			page 87


 4554              	.LASF44:
 4555 06a2 705F7761 		.ascii	"p_waiting\000"
 4555      6974696E 
 4555      6700
 4556              	.LASF132:
 4557 06ac 444D4132 		.ascii	"DMA2_Channel5_IRQn\000"
 4557      5F436861 
 4557      6E6E656C 
 4557      355F4952 
 4557      516E00
 4558              	.LASF40:
 4559 06bf 705F666C 		.ascii	"p_flags\000"
 4559      61677300 
 4560              	.LASF191:
 4561 06c7 73656C66 		.ascii	"selfindex\000"
 4561      696E6465 
 4561      7800
 4562              	.LASF0:
 4563 06d1 756E7369 		.ascii	"unsigned int\000"
 4563      676E6564 
 4563      20696E74 
 4563      00
 4564              	.LASF126:
 4565 06de 54494D36 		.ascii	"TIM6_DAC_IRQn\000"
 4565      5F444143 
 4565      5F495251 
 4565      6E00
 4566              	.LASF203:
 4567 06ec 6164635F 		.ascii	"adc_channels_num_t\000"
 4567      6368616E 
 4567      6E656C73 
 4567      5F6E756D 
 4567      5F7400
 4568              	.LASF50:
 4569 06ff 705F6D70 		.ascii	"p_mpool\000"
 4569      6F6F6C00 
 4570              	.LASF185:
 4571 0707 43464752 		.ascii	"CFGR2\000"
 4571      3200
 4572              	.LASF108:
 4573 070d 49324332 		.ascii	"I2C2_EV_IRQn\000"
 4573      5F45565F 
 4573      4952516E 
 4573      00
 4574              	.LASF41:
 4575 071a 705F7265 		.ascii	"p_refs\000"
 4575      667300
 4576              	.LASF225:
 4577 0721 6E756D5F 		.ascii	"num_channels\000"
 4577      6368616E 
 4577      6E656C73 
 4577      00
 4578              	.LASF176:
 4579 072e 434D4152 		.ascii	"CMAR\000"
 4579      00
 4580              	.LASF92:
 4581 0733 444D4131 		.ascii	"DMA1_Channel7_IRQn\000"
ARM GAS  /tmp/ccI7Zqab.s 			page 88


 4581      5F436861 
 4581      6E6E656C 
 4581      375F4952 
 4581      516E00
 4582              	.LASF52:
 4583 0746 54687265 		.ascii	"ThreadsList\000"
 4583      6164734C 
 4583      69737400 
 4584              	.LASF252:
 4585 0752 41444344 		.ascii	"ADCD1\000"
 4585      3100
 4586              	.LASF131:
 4587 0758 444D4132 		.ascii	"DMA2_Channel4_IRQn\000"
 4587      5F436861 
 4587      6E6E656C 
 4587      345F4952 
 4587      516E00
 4588              	.LASF249:
 4589 076b 6164635F 		.ascii	"adc_lld_stop_conversion\000"
 4589      6C6C645F 
 4589      73746F70 
 4589      5F636F6E 
 4589      76657273 
 4590              	.LASF43:
 4591 0783 705F7469 		.ascii	"p_time\000"
 4591      6D6500
 4592              	.LASF186:
 4593 078a 43464752 		.ascii	"CFGR3\000"
 4593      3300
 4594              	.LASF244:
 4595 0790 6164635F 		.ascii	"adc_lld_serve_interrupt\000"
 4595      6C6C645F 
 4595      73657276 
 4595      655F696E 
 4595      74657272 
 4596              	.LASF256:
 4597 07a8 4952516E 		.ascii	"IRQn\000"
 4597      00
 4598              	.LASF49:
 4599 07ad 705F7265 		.ascii	"p_realprio\000"
 4599      616C7072 
 4599      696F00
 4600              	.LASF198:
 4601 07b8 4144435F 		.ascii	"ADC_ACTIVE\000"
 4601      41435449 
 4601      564500
 4602              	.LASF118:
 4603 07c3 54494D38 		.ascii	"TIM8_BRK_IRQn\000"
 4603      5F42524B 
 4603      5F495251 
 4603      6E00
 4604              	.LASF177:
 4605 07d1 444D415F 		.ascii	"DMA_Channel_TypeDef\000"
 4605      4368616E 
 4605      6E656C5F 
 4605      54797065 
 4605      44656600 
ARM GAS  /tmp/ccI7Zqab.s 			page 89


 4606              	.LASF194:
 4607 07e5 73746D33 		.ascii	"stm32_dmaisr_t\000"
 4607      325F646D 
 4607      61697372 
 4607      5F7400
 4608              	.LASF116:
 4609 07f4 5254435F 		.ascii	"RTC_Alarm_IRQn\000"
 4609      416C6172 
 4609      6D5F4952 
 4609      516E00
 4610              	.LASF182:
 4611 0803 41504231 		.ascii	"APB1ENR\000"
 4611      454E5200 
 4612              	.LASF115:
 4613 080b 45585449 		.ascii	"EXTI15_10_IRQn\000"
 4613      31355F31 
 4613      305F4952 
 4613      516E00
 4614              	.LASF14:
 4615 081a 6C6F6E67 		.ascii	"long long unsigned int\000"
 4615      206C6F6E 
 4615      6720756E 
 4615      7369676E 
 4615      65642069 
 4616              	.LASF134:
 4617 0831 434F4D50 		.ascii	"COMP1_2_3_IRQn\000"
 4617      315F325F 
 4617      335F4952 
 4617      516E00
 4618              	.LASF36:
 4619 0840 705F6F6C 		.ascii	"p_older\000"
 4619      64657200 
 4620              	.LASF16:
 4621 0848 75696E74 		.ascii	"uint16_t\000"
 4621      31365F74 
 4621      00
 4622              	.LASF238:
 4623 0851 6164635F 		.ascii	"adc_lld_calibrate\000"
 4623      6C6C645F 
 4623      63616C69 
 4623      62726174 
 4623      6500
 4624              	.LASF27:
 4625 0863 6D73675F 		.ascii	"msg_t\000"
 4625      7400
 4626              	.LASF158:
 4627 0869 4F465234 		.ascii	"OFR4\000"
 4627      00
 4628              	.LASF104:
 4629 086e 54494D33 		.ascii	"TIM3_IRQn\000"
 4629      5F495251 
 4629      6E00
 4630              	.LASF112:
 4631 0878 55534152 		.ascii	"USART1_IRQn\000"
 4631      54315F49 
 4631      52516E00 
 4632              	.LASF25:
ARM GAS  /tmp/ccI7Zqab.s 			page 90


 4633 0884 74736C69 		.ascii	"tslices_t\000"
 4633      6365735F 
 4633      7400
 4634              	.LASF243:
 4635 088e 68616C66 		.ascii	"half_index\000"
 4635      5F696E64 
 4635      657800
 4636              	.LASF210:
 4637 0899 41444344 		.ascii	"ADCDriver\000"
 4637      72697665 
 4637      7200
 4638              	.LASF257:
 4639 08a3 6164635F 		.ascii	"adc_lld_init\000"
 4639      6C6C645F 
 4639      696E6974 
 4639      00
 4640              	.LASF192:
 4641 08b0 76656374 		.ascii	"vector\000"
 4641      6F7200
 4642              	.LASF205:
 4643 08b7 4144435F 		.ascii	"ADC_ERR_OVERFLOW\000"
 4643      4552525F 
 4643      4F564552 
 4643      464C4F57 
 4643      00
 4644              	.LASF242:
 4645 08c8 68616C66 		.ascii	"half\000"
 4645      00
 4646              	.LASF120:
 4647 08cd 54494D38 		.ascii	"TIM8_TRG_COM_IRQn\000"
 4647      5F545247 
 4647      5F434F4D 
 4647      5F495251 
 4647      6E00
 4648              	.LASF76:
 4649 08df 5056445F 		.ascii	"PVD_IRQn\000"
 4649      4952516E 
 4649      00
 4650              	.LASF81:
 4651 08e8 45585449 		.ascii	"EXTI0_IRQn\000"
 4651      305F4952 
 4651      516E00
 4652              	.LASF22:
 4653 08f3 746D6F64 		.ascii	"tmode_t\000"
 4653      655F7400 
 4654              	.LASF231:
 4655 08fb 64756D6D 		.ascii	"dummy\000"
 4655      7900
 4656              	.LASF196:
 4657 0901 4144435F 		.ascii	"ADC_STOP\000"
 4657      53544F50 
 4657      00
 4658              	.LASF155:
 4659 090a 4F465231 		.ascii	"OFR1\000"
 4659      00
 4660              	.LASF156:
 4661 090f 4F465232 		.ascii	"OFR2\000"
ARM GAS  /tmp/ccI7Zqab.s 			page 91


 4661      00
 4662              	.LASF157:
 4663 0914 4F465233 		.ascii	"OFR3\000"
 4663      00
 4664              	.LASF254:
 4665 0919 474E5520 		.ascii	"GNU C 4.8.4 20141219 (release) -mcpu=cortex-m4 -mfl"
 4665      4320342E 
 4665      382E3420 
 4665      32303134 
 4665      31323139 
 4666 094c 6F61742D 		.ascii	"oat-abi=hard -mfpu=fpv4-sp-d16 -mno-thumb-interwork"
 4666      6162693D 
 4666      68617264 
 4666      202D6D66 
 4666      70753D66 
 4667 097f 202D6D74 		.ascii	" -mthumb -ggdb -O0 -fomit-frame-pointer -falign-fun"
 4667      68756D62 
 4667      202D6767 
 4667      6462202D 
 4667      4F30202D 
 4668 09b2 6374696F 		.ascii	"ctions=16 -ffunction-sections -fdata-sections -fno-"
 4668      6E733D31 
 4668      36202D66 
 4668      66756E63 
 4668      74696F6E 
 4669 09e5 636F6D6D 		.ascii	"common -fsingle-precision-constant\000"
 4669      6F6E202D 
 4669      6673696E 
 4669      676C652D 
 4669      70726563 
 4670              	.LASF72:
 4671 0a08 44656275 		.ascii	"DebugMonitor_IRQn\000"
 4671      674D6F6E 
 4671      69746F72 
 4671      5F495251 
 4671      6E00
 4672              	.LASF215:
 4673 0a1a 67727070 		.ascii	"grpp\000"
 4673      00
 4674              	.LASF216:
 4675 0a1f 74687265 		.ascii	"thread\000"
 4675      616400
 4676              	.LASF95:
 4677 0a26 5553425F 		.ascii	"USB_LP_CAN1_RX0_IRQn\000"
 4677      4C505F43 
 4677      414E315F 
 4677      5258305F 
 4677      4952516E 
 4678              	.LASF88:
 4679 0a3b 444D4131 		.ascii	"DMA1_Channel3_IRQn\000"
 4679      5F436861 
 4679      6E6E656C 
 4679      335F4952 
 4679      516E00
 4680              	.LASF187:
 4681 0a4e 5243435F 		.ascii	"RCC_TypeDef\000"
 4681      54797065 
ARM GAS  /tmp/ccI7Zqab.s 			page 92


 4681      44656600 
 4682              	.LASF170:
 4683 0a5a 43414C46 		.ascii	"CALFACT\000"
 4683      41435400 
 4684              	.LASF5:
 4685 0a62 73686F72 		.ascii	"short int\000"
 4685      7420696E 
 4685      7400
 4686              	.LASF19:
 4687 0a6c 75696E74 		.ascii	"uint64_t\000"
 4687      36345F74 
 4687      00
 4688              	.LASF80:
 4689 0a75 5243435F 		.ascii	"RCC_IRQn\000"
 4689      4952516E 
 4689      00
 4690              	.LASF206:
 4691 0a7e 4144435F 		.ascii	"ADC_ERR_AWD1\000"
 4691      4552525F 
 4691      41574431 
 4691      00
 4692              	.LASF207:
 4693 0a8b 4144435F 		.ascii	"ADC_ERR_AWD2\000"
 4693      4552525F 
 4693      41574432 
 4693      00
 4694              	.LASF208:
 4695 0a98 4144435F 		.ascii	"ADC_ERR_AWD3\000"
 4695      4552525F 
 4695      41574433 
 4695      00
 4696              	.LASF179:
 4697 0aa5 41504231 		.ascii	"APB1RSTR\000"
 4697      52535452 
 4697      00
 4698              	.LASF93:
 4699 0aae 41444331 		.ascii	"ADC1_2_IRQn\000"
 4699      5F325F49 
 4699      52516E00 
 4700              	.LASF180:
 4701 0aba 41484245 		.ascii	"AHBENR\000"
 4701      4E5200
 4702              	.LASF20:
 4703 0ac1 626F6F6C 		.ascii	"bool_t\000"
 4703      5F7400
 4704              	.LASF160:
 4705 0ac8 4A445231 		.ascii	"JDR1\000"
 4705      00
 4706              	.LASF161:
 4707 0acd 4A445232 		.ascii	"JDR2\000"
 4707      00
 4708              	.LASF162:
 4709 0ad2 4A445233 		.ascii	"JDR3\000"
 4709      00
 4710              	.LASF30:
 4711 0ad7 54687265 		.ascii	"Thread\000"
 4711      616400
ARM GAS  /tmp/ccI7Zqab.s 			page 93


 4712              	.LASF153:
 4713 0ade 4A535152 		.ascii	"JSQR\000"
 4713      00
 4714              	.LASF250:
 4715 0ae3 49544D5F 		.ascii	"ITM_RxBuffer\000"
 4715      52784275 
 4715      66666572 
 4715      00
 4716              	.LASF87:
 4717 0af0 444D4131 		.ascii	"DMA1_Channel2_IRQn\000"
 4717      5F436861 
 4717      6E6E656C 
 4717      325F4952 
 4717      516E00
 4718              	.LASF224:
 4719 0b03 63697263 		.ascii	"circular\000"
 4719      756C6172 
 4719      00
 4720              	.LASF83:
 4721 0b0c 45585449 		.ascii	"EXTI2_TS_IRQn\000"
 4721      325F5453 
 4721      5F495251 
 4721      6E00
 4722              	.LASF24:
 4723 0b1a 74726566 		.ascii	"trefs_t\000"
 4723      735F7400 
 4724              	.LASF100:
 4725 0b22 54494D31 		.ascii	"TIM1_UP_TIM16_IRQn\000"
 4725      5F55505F 
 4725      54494D31 
 4725      365F4952 
 4725      516E00
 4726              	.LASF78:
 4727 0b35 5254435F 		.ascii	"RTC_WKUP_IRQn\000"
 4727      574B5550 
 4727      5F495251 
 4727      6E00
 4728              	.LASF237:
 4729 0b43 6164635F 		.ascii	"adc_lld_analog_off\000"
 4729      6C6C645F 
 4729      616E616C 
 4729      6F675F6F 
 4729      666600
 4730              	.LASF18:
 4731 0b56 75696E74 		.ascii	"uint32_t\000"
 4731      33325F74 
 4731      00
 4732              	.LASF96:
 4733 0b5f 43414E31 		.ascii	"CAN1_RX1_IRQn\000"
 4733      5F525831 
 4733      5F495251 
 4733      6E00
 4734              	.LASF51:
 4735 0b6d 54687265 		.ascii	"ThreadsQueue\000"
 4735      61647351 
 4735      75657565 
 4735      00
ARM GAS  /tmp/ccI7Zqab.s 			page 94


 4736              	.LASF98:
 4737 0b7a 45585449 		.ascii	"EXTI9_5_IRQn\000"
 4737      395F355F 
 4737      4952516E 
 4737      00
 4738              	.LASF62:
 4739 0b87 7264796D 		.ascii	"rdymsg\000"
 4739      736700
 4740              	.LASF85:
 4741 0b8e 45585449 		.ascii	"EXTI4_IRQn\000"
 4741      345F4952 
 4741      516E00
 4742              	.LASF7:
 4743 0b99 73686F72 		.ascii	"short unsigned int\000"
 4743      7420756E 
 4743      7369676E 
 4743      65642069 
 4743      6E7400
 4744              	.LASF121:
 4745 0bac 54494D38 		.ascii	"TIM8_CC_IRQn\000"
 4745      5F43435F 
 4745      4952516E 
 4745      00
 4746              	.LASF84:
 4747 0bb9 45585449 		.ascii	"EXTI3_IRQn\000"
 4747      335F4952 
 4747      516E00
 4748              	.LASF73:
 4749 0bc4 50656E64 		.ascii	"PendSV_IRQn\000"
 4749      53565F49 
 4749      52516E00 
 4750              	.LASF38:
 4751 0bd0 705F7374 		.ascii	"p_stklimit\000"
 4751      6B6C696D 
 4751      697400
 4752              	.LASF8:
 4753 0bdb 5F5F696E 		.ascii	"__int32_t\000"
 4753      7433325F 
 4753      7400
 4754              	.LASF173:
 4755 0be5 4144435F 		.ascii	"ADC_Common_TypeDef\000"
 4755      436F6D6D 
 4755      6F6E5F54 
 4755      79706544 
 4755      656600
 4756              	.LASF189:
 4757 0bf8 69666372 		.ascii	"ifcr\000"
 4757      00
 4758              	.LASF37:
 4759 0bfd 705F6E61 		.ascii	"p_name\000"
 4759      6D6500
 4760              	.LASF91:
 4761 0c04 444D4131 		.ascii	"DMA1_Channel6_IRQn\000"
 4761      5F436861 
 4761      6E6E656C 
 4761      365F4952 
 4761      516E00
ARM GAS  /tmp/ccI7Zqab.s 			page 95


 4762              	.LASF61:
 4763 0c17 6D5F6E65 		.ascii	"m_next\000"
 4763      787400
 4764              	.LASF136:
 4765 0c1e 434F4D50 		.ascii	"COMP7_IRQn\000"
 4765      375F4952 
 4765      516E00
 4766              	.LASF46:
 4767 0c29 705F6D73 		.ascii	"p_msg\000"
 4767      6700
 4768              	.LASF130:
 4769 0c2f 444D4132 		.ascii	"DMA2_Channel3_IRQn\000"
 4769      5F436861 
 4769      6E6E656C 
 4769      335F4952 
 4769      516E00
 4770              	.LASF232:
 4771 0c42 41444343 		.ascii	"ADCConfig\000"
 4771      6F6E6669 
 4771      6700
 4772              	.LASF39:
 4773 0c4c 705F7374 		.ascii	"p_state\000"
 4773      61746500 
 4774              		.ident	"GCC: (4.8.4-1+11-1) 4.8.4 20141219 (release)"
ARM GAS  /tmp/ccI7Zqab.s 			page 96


DEFINED SYMBOLS
                            *ABS*:0000000000000000 adc_lld.c
     /tmp/ccI7Zqab.s:25     .data.diocane:0000000000000000 diocane
     /tmp/ccI7Zqab.s:22     .data.diocane:0000000000000000 $d
     /tmp/ccI7Zqab.s:32     .bss.ADCD1:0000000000000000 ADCD1
     /tmp/ccI7Zqab.s:29     .bss.ADCD1:0000000000000000 $d
     /tmp/ccI7Zqab.s:35     .text.adc_lld_vreg_on:0000000000000000 $t
     /tmp/ccI7Zqab.s:40     .text.adc_lld_vreg_on:0000000000000000 adc_lld_vreg_on
     /tmp/ccI7Zqab.s:74     .text.adc_lld_vreg_off:0000000000000000 $t
     /tmp/ccI7Zqab.s:79     .text.adc_lld_vreg_off:0000000000000000 adc_lld_vreg_off
     /tmp/ccI7Zqab.s:107    .text.adc_lld_analog_on:0000000000000000 $t
     /tmp/ccI7Zqab.s:112    .text.adc_lld_analog_on:0000000000000000 adc_lld_analog_on
     /tmp/ccI7Zqab.s:148    .text.adc_lld_analog_off:0000000000000000 $t
     /tmp/ccI7Zqab.s:153    .text.adc_lld_analog_off:0000000000000000 adc_lld_analog_off
     /tmp/ccI7Zqab.s:189    .rodata:0000000000000000 $d
     /tmp/ccI7Zqab.s:193    .text.adc_lld_calibrate:0000000000000000 $t
     /tmp/ccI7Zqab.s:198    .text.adc_lld_calibrate:0000000000000000 adc_lld_calibrate
     /tmp/ccI7Zqab.s:244    .text.adc_lld_calibrate:000000000000003c $d
     /tmp/ccI7Zqab.s:249    .text.adc_lld_stop_adc:0000000000000000 $t
     /tmp/ccI7Zqab.s:254    .text.adc_lld_stop_adc:0000000000000000 adc_lld_stop_adc
     /tmp/ccI7Zqab.s:298    .text.adc_lld_serve_dma_interrupt:0000000000000000 $t
     /tmp/ccI7Zqab.s:303    .text.adc_lld_serve_dma_interrupt:0000000000000000 adc_lld_serve_dma_interrupt
     /tmp/ccI7Zqab.s:1330   .text.adc_lld_stop_conversion:0000000000000000 adc_lld_stop_conversion
     /tmp/ccI7Zqab.s:562    .text.adc_lld_serve_interrupt:0000000000000000 $t
     /tmp/ccI7Zqab.s:567    .text.adc_lld_serve_interrupt:0000000000000000 adc_lld_serve_interrupt
     /tmp/ccI7Zqab.s:889    .text.Vector88:0000000000000000 $t
     /tmp/ccI7Zqab.s:895    .text.Vector88:0000000000000000 Vector88
     /tmp/ccI7Zqab.s:930    .text.Vector88:0000000000000030 $d
     /tmp/ccI7Zqab.s:935    .text.adc_lld_init:0000000000000000 $t
     /tmp/ccI7Zqab.s:941    .text.adc_lld_init:0000000000000000 adc_lld_init
     /tmp/ccI7Zqab.s:979    .text.adc_lld_init:0000000000000030 $d
     /tmp/ccI7Zqab.s:990    .text.adc_lld_start:0000000000000000 $t
     /tmp/ccI7Zqab.s:996    .text.adc_lld_start:0000000000000000 adc_lld_start
     /tmp/ccI7Zqab.s:1075   .text.adc_lld_start:0000000000000078 $d
     /tmp/ccI7Zqab.s:1083   .text.adc_lld_stop:0000000000000000 $t
     /tmp/ccI7Zqab.s:1089   .text.adc_lld_stop:0000000000000000 adc_lld_stop
     /tmp/ccI7Zqab.s:1139   .text.adc_lld_stop:0000000000000044 $d
     /tmp/ccI7Zqab.s:1145   .text.adc_lld_start_conversion:0000000000000000 $t
     /tmp/ccI7Zqab.s:1151   .text.adc_lld_start_conversion:0000000000000000 adc_lld_start_conversion
     /tmp/ccI7Zqab.s:1324   .text.adc_lld_stop_conversion:0000000000000000 $t
                     .debug_frame:0000000000000010 $d
     /tmp/ccI7Zqab.s:934    .text.Vector88:0000000000000034 $t
     /tmp/ccI7Zqab.s:985    .text.adc_lld_init:000000000000003c $t
     /tmp/ccI7Zqab.s:1082   .text.adc_lld_start:0000000000000088 $t
     /tmp/ccI7Zqab.s:1144   .text.adc_lld_stop:000000000000004c $t

UNDEFINED SYMBOLS
halPolledDelay
chDbgPanic
dbg_check_lock_from_isr
chSchReadyI
dbg_check_unlock_from_isr
dbg_check_enter_isr
dbg_check_leave_isr
_port_irq_epilogue
adcObjectInit
nvicEnableVector
ARM GAS  /tmp/ccI7Zqab.s 			page 97


_stm32_dma_streams
dmaStreamAllocate
dmaStreamRelease
