ARM GAS  /tmp/ccI7Zqab.s 			page 1


   1              		.syntax unified
   2              		.cpu cortex-m4
   3              		.eabi_attribute 27, 3
   4              		.eabi_attribute 28, 1
   5              		.fpu fpv4-sp-d16
   6              		.eabi_attribute 20, 1
   7              		.eabi_attribute 21, 1
   8              		.eabi_attribute 23, 3
   9              		.eabi_attribute 24, 1
  10              		.eabi_attribute 25, 1
  11              		.eabi_attribute 26, 1
  12              		.eabi_attribute 30, 6
  13              		.eabi_attribute 34, 1
  14              		.eabi_attribute 18, 4
  15              		.thumb
  16              		.file	"adc_lld.c"
  17              		.text
  18              	.Ltext0:
  19              		.cfi_sections	.debug_frame
  20              		.global	diocane
  21              		.section	.data.diocane,"aw",%progbits
  22              		.align	2
  23              		.type	diocane, %object
  24              		.size	diocane, 4
  25              	diocane:
  26 0000 7B000000 		.word	123
  27              		.global	ADCD1
  28              		.section	.bss.ADCD1,"aw",%nobits
  29              		.align	2
  30              		.type	ADCD1, %object
  31              		.size	ADCD1, 56
  32              	ADCD1:
  33 0000 00000000 		.space	56
  33      00000000 
  33      00000000 
  33      00000000 
  33      00000000 
  34              		.section	.text.adc_lld_vreg_on,"ax",%progbits
  35              		.align	2
  36              		.p2align 4,,15
  37              		.thumb
  38              		.thumb_func
  39              		.type	adc_lld_vreg_on, %function
  40              	adc_lld_vreg_on:
  41              	.LFB118:
  42              		.file 1 "/home/dave/r2p-sdk/core/ChibiOS/os/hal/platforms/STM32F30x/adc_lld.c"
  43              		.loc 1 86 0
  44              		.cfi_startproc
  45              		@ args = 0, pretend = 0, frame = 8
  46              		@ frame_needed = 0, uses_anonymous_args = 0
  47 0000 00B5     		push	{lr}
  48              		.cfi_def_cfa_offset 4
  49              		.cfi_offset 14, -4
  50 0002 83B0     		sub	sp, sp, #12
  51              		.cfi_def_cfa_offset 16
  52 0004 0190     		str	r0, [sp, #4]
  53              		.loc 1 88 0
ARM GAS  /tmp/ccI7Zqab.s 			page 2


  54 0006 019B     		ldr	r3, [sp, #4]
  55 0008 DB6A     		ldr	r3, [r3, #44]
  56 000a 0022     		movs	r2, #0
  57 000c 9A60     		str	r2, [r3, #8]
  58              		.loc 1 89 0
  59 000e 019B     		ldr	r3, [sp, #4]
  60 0010 DB6A     		ldr	r3, [r3, #44]
  61 0012 4FF08052 		mov	r2, #268435456
  62 0016 9A60     		str	r2, [r3, #8]
  63              		.loc 1 93 0
  64 0018 4FF43470 		mov	r0, #720
  65 001c FFF7FEFF 		bl	halPolledDelay
  66              		.loc 1 94 0
  67 0020 03B0     		add	sp, sp, #12
  68              		@ sp needed
  69 0022 5DF804FB 		ldr	pc, [sp], #4
  70              		.cfi_endproc
  71              	.LFE118:
  72              		.size	adc_lld_vreg_on, .-adc_lld_vreg_on
  73 0026 00BFAFF3 		.section	.text.adc_lld_vreg_off,"ax",%progbits
  73      0080AFF3 
  73      0080
  74              		.align	2
  75              		.p2align 4,,15
  76              		.thumb
  77              		.thumb_func
  78              		.type	adc_lld_vreg_off, %function
  79              	adc_lld_vreg_off:
  80              	.LFB119:
  81              		.loc 1 101 0
  82              		.cfi_startproc
  83              		@ args = 0, pretend = 0, frame = 8
  84              		@ frame_needed = 0, uses_anonymous_args = 0
  85              		@ link register save eliminated.
  86 0000 82B0     		sub	sp, sp, #8
  87              		.cfi_def_cfa_offset 8
  88 0002 0190     		str	r0, [sp, #4]
  89              		.loc 1 103 0
  90 0004 019B     		ldr	r3, [sp, #4]
  91 0006 DB6A     		ldr	r3, [r3, #44]
  92 0008 0022     		movs	r2, #0
  93 000a 9A60     		str	r2, [r3, #8]
  94              		.loc 1 104 0
  95 000c 019B     		ldr	r3, [sp, #4]
  96 000e DB6A     		ldr	r3, [r3, #44]
  97 0010 4FF00052 		mov	r2, #536870912
  98 0014 9A60     		str	r2, [r3, #8]
  99              		.loc 1 108 0
 100 0016 02B0     		add	sp, sp, #8
 101              		@ sp needed
 102 0018 7047     		bx	lr
 103              		.cfi_endproc
 104              	.LFE119:
 105              		.size	adc_lld_vreg_off, .-adc_lld_vreg_off
 106 001a 00BFAFF3 		.section	.text.adc_lld_analog_on,"ax",%progbits
 106      0080
 107              		.align	2
ARM GAS  /tmp/ccI7Zqab.s 			page 3


 108              		.p2align 4,,15
 109              		.thumb
 110              		.thumb_func
 111              		.type	adc_lld_analog_on, %function
 112              	adc_lld_analog_on:
 113              	.LFB120:
 114              		.loc 1 115 0
 115              		.cfi_startproc
 116              		@ args = 0, pretend = 0, frame = 8
 117              		@ frame_needed = 0, uses_anonymous_args = 0
 118              		@ link register save eliminated.
 119 0000 82B0     		sub	sp, sp, #8
 120              		.cfi_def_cfa_offset 8
 121 0002 0190     		str	r0, [sp, #4]
 122              		.loc 1 117 0
 123 0004 019B     		ldr	r3, [sp, #4]
 124 0006 DB6A     		ldr	r3, [r3, #44]
 125 0008 019A     		ldr	r2, [sp, #4]
 126 000a D26A     		ldr	r2, [r2, #44]
 127 000c 9268     		ldr	r2, [r2, #8]
 128 000e 42F00102 		orr	r2, r2, #1
 129 0012 9A60     		str	r2, [r3, #8]
 130              		.loc 1 118 0
 131 0014 00BF     		nop
 132              	.L4:
 133              		.loc 1 118 0 is_stmt 0 discriminator 1
 134 0016 019B     		ldr	r3, [sp, #4]
 135 0018 DB6A     		ldr	r3, [r3, #44]
 136 001a 1B68     		ldr	r3, [r3]
 137 001c 03F00103 		and	r3, r3, #1
 138 0020 002B     		cmp	r3, #0
 139 0022 F8D0     		beq	.L4
 140              		.loc 1 125 0 is_stmt 1
 141 0024 02B0     		add	sp, sp, #8
 142              		@ sp needed
 143 0026 7047     		bx	lr
 144              		.cfi_endproc
 145              	.LFE120:
 146              		.size	adc_lld_analog_on, .-adc_lld_analog_on
 147 0028 AFF30080 		.section	.text.adc_lld_analog_off,"ax",%progbits
 147      AFF30080 
 148              		.align	2
 149              		.p2align 4,,15
 150              		.thumb
 151              		.thumb_func
 152              		.type	adc_lld_analog_off, %function
 153              	adc_lld_analog_off:
 154              	.LFB121:
 155              		.loc 1 132 0
 156              		.cfi_startproc
 157              		@ args = 0, pretend = 0, frame = 8
 158              		@ frame_needed = 0, uses_anonymous_args = 0
 159              		@ link register save eliminated.
 160 0000 82B0     		sub	sp, sp, #8
 161              		.cfi_def_cfa_offset 8
 162 0002 0190     		str	r0, [sp, #4]
 163              		.loc 1 134 0
ARM GAS  /tmp/ccI7Zqab.s 			page 4


 164 0004 019B     		ldr	r3, [sp, #4]
 165 0006 DB6A     		ldr	r3, [r3, #44]
 166 0008 019A     		ldr	r2, [sp, #4]
 167 000a D26A     		ldr	r2, [r2, #44]
 168 000c 9268     		ldr	r2, [r2, #8]
 169 000e 42F00202 		orr	r2, r2, #2
 170 0012 9A60     		str	r2, [r3, #8]
 171              		.loc 1 135 0
 172 0014 00BF     		nop
 173              	.L6:
 174              		.loc 1 135 0 is_stmt 0 discriminator 1
 175 0016 019B     		ldr	r3, [sp, #4]
 176 0018 DB6A     		ldr	r3, [r3, #44]
 177 001a 9B68     		ldr	r3, [r3, #8]
 178 001c 03F00203 		and	r3, r3, #2
 179 0020 002B     		cmp	r3, #0
 180 0022 F8D1     		bne	.L6
 181              		.loc 1 142 0 is_stmt 1
 182 0024 02B0     		add	sp, sp, #8
 183              		@ sp needed
 184 0026 7047     		bx	lr
 185              		.cfi_endproc
 186              	.LFE121:
 187              		.size	adc_lld_analog_off, .-adc_lld_analog_off
 188 0028 AFF30080 		.section	.rodata
 188      AFF30080 
 189              		.align	2
 190              	.LC0:
 191 0000 6164635F 		.ascii	"adc_lld_calibrate(), #1\000"
 191      6C6C645F 
 191      63616C69 
 191      62726174 
 191      6528292C 
 192              		.section	.text.adc_lld_calibrate,"ax",%progbits
 193              		.align	2
 194              		.p2align 4,,15
 195              		.thumb
 196              		.thumb_func
 197              		.type	adc_lld_calibrate, %function
 198              	adc_lld_calibrate:
 199              	.LFB122:
 200              		.loc 1 149 0
 201              		.cfi_startproc
 202              		@ args = 0, pretend = 0, frame = 8
 203              		@ frame_needed = 0, uses_anonymous_args = 0
 204 0000 00B5     		push	{lr}
 205              		.cfi_def_cfa_offset 4
 206              		.cfi_offset 14, -4
 207 0002 83B0     		sub	sp, sp, #12
 208              		.cfi_def_cfa_offset 16
 209 0004 0190     		str	r0, [sp, #4]
 210              		.loc 1 151 0
 211 0006 019B     		ldr	r3, [sp, #4]
 212 0008 DB6A     		ldr	r3, [r3, #44]
 213 000a 9B68     		ldr	r3, [r3, #8]
 214 000c B3F1805F 		cmp	r3, #268435456
 215 0010 02D0     		beq	.L8
ARM GAS  /tmp/ccI7Zqab.s 			page 5


 216              		.loc 1 151 0 is_stmt 0 discriminator 1
 217 0012 0A48     		ldr	r0, .L10
 218 0014 FFF7FEFF 		bl	chDbgPanic
 219              	.L8:
 220              		.loc 1 153 0 is_stmt 1
 221 0018 019B     		ldr	r3, [sp, #4]
 222 001a DB6A     		ldr	r3, [r3, #44]
 223 001c 019A     		ldr	r2, [sp, #4]
 224 001e D26A     		ldr	r2, [r2, #44]
 225 0020 9268     		ldr	r2, [r2, #8]
 226 0022 42F00042 		orr	r2, r2, #-2147483648
 227 0026 9A60     		str	r2, [r3, #8]
 228              		.loc 1 154 0
 229 0028 00BF     		nop
 230              	.L9:
 231              		.loc 1 154 0 is_stmt 0 discriminator 1
 232 002a 019B     		ldr	r3, [sp, #4]
 233 002c DB6A     		ldr	r3, [r3, #44]
 234 002e 9B68     		ldr	r3, [r3, #8]
 235 0030 002B     		cmp	r3, #0
 236 0032 FADB     		blt	.L9
 237              		.loc 1 163 0 is_stmt 1
 238 0034 03B0     		add	sp, sp, #12
 239              		@ sp needed
 240 0036 5DF804FB 		ldr	pc, [sp], #4
 241              	.L11:
 242 003a 00BF     		.align	2
 243              	.L10:
 244 003c 00000000 		.word	.LC0
 245              		.cfi_endproc
 246              	.LFE122:
 247              		.size	adc_lld_calibrate, .-adc_lld_calibrate
 248              		.section	.text.adc_lld_stop_adc,"ax",%progbits
 249              		.align	2
 250              		.p2align 4,,15
 251              		.thumb
 252              		.thumb_func
 253              		.type	adc_lld_stop_adc, %function
 254              	adc_lld_stop_adc:
 255              	.LFB123:
 256              		.loc 1 170 0
 257              		.cfi_startproc
 258              		@ args = 0, pretend = 0, frame = 8
 259              		@ frame_needed = 0, uses_anonymous_args = 0
 260              		@ link register save eliminated.
 261 0000 82B0     		sub	sp, sp, #8
 262              		.cfi_def_cfa_offset 8
 263 0002 0190     		str	r0, [sp, #4]
 264              		.loc 1 172 0
 265 0004 019B     		ldr	r3, [sp, #4]
 266 0006 DB6A     		ldr	r3, [r3, #44]
 267 0008 9B68     		ldr	r3, [r3, #8]
 268 000a 03F00403 		and	r3, r3, #4
 269 000e 002B     		cmp	r3, #0
 270 0010 0FD0     		beq	.L12
 271              		.loc 1 173 0
 272 0012 019B     		ldr	r3, [sp, #4]
ARM GAS  /tmp/ccI7Zqab.s 			page 6


 273 0014 DB6A     		ldr	r3, [r3, #44]
 274 0016 019A     		ldr	r2, [sp, #4]
 275 0018 D26A     		ldr	r2, [r2, #44]
 276 001a 9268     		ldr	r2, [r2, #8]
 277 001c 42F01002 		orr	r2, r2, #16
 278 0020 9A60     		str	r2, [r3, #8]
 279              		.loc 1 174 0
 280 0022 00BF     		nop
 281              	.L14:
 282              		.loc 1 174 0 is_stmt 0 discriminator 1
 283 0024 019B     		ldr	r3, [sp, #4]
 284 0026 DB6A     		ldr	r3, [r3, #44]
 285 0028 9B68     		ldr	r3, [r3, #8]
 286 002a 03F01003 		and	r3, r3, #16
 287 002e 002B     		cmp	r3, #0
 288 0030 F8D1     		bne	.L14
 289              	.L12:
 290              		.loc 1 177 0 is_stmt 1
 291 0032 02B0     		add	sp, sp, #8
 292              		@ sp needed
 293 0034 7047     		bx	lr
 294              		.cfi_endproc
 295              	.LFE123:
 296              		.size	adc_lld_stop_adc, .-adc_lld_stop_adc
 297 0036 00BFAFF3 		.section	.text.adc_lld_serve_dma_interrupt,"ax",%progbits
 297      0080AFF3 
 297      0080
 298              		.align	2
 299              		.p2align 4,,15
 300              		.thumb
 301              		.thumb_func
 302              		.type	adc_lld_serve_dma_interrupt, %function
 303              	adc_lld_serve_dma_interrupt:
 304              	.LFB124:
 305              		.loc 1 185 0
 306              		.cfi_startproc
 307              		@ args = 0, pretend = 0, frame = 24
 308              		@ frame_needed = 0, uses_anonymous_args = 0
 309 0000 00B5     		push	{lr}
 310              		.cfi_def_cfa_offset 4
 311              		.cfi_offset 14, -4
 312 0002 87B0     		sub	sp, sp, #28
 313              		.cfi_def_cfa_offset 32
 314 0004 0190     		str	r0, [sp, #4]
 315 0006 0091     		str	r1, [sp]
 316              		.loc 1 188 0
 317 0008 009B     		ldr	r3, [sp]
 318 000a 03F00803 		and	r3, r3, #8
 319 000e 002B     		cmp	r3, #0
 320 0010 36D0     		beq	.L16
 321              		.loc 1 191 0
 322 0012 0198     		ldr	r0, [sp, #4]
 323 0014 FFF7FEFF 		bl	adc_lld_stop_conversion
 324 0018 019B     		ldr	r3, [sp, #4]
 325 001a 1B69     		ldr	r3, [r3, #16]
 326 001c 9B68     		ldr	r3, [r3, #8]
 327 001e 002B     		cmp	r3, #0
ARM GAS  /tmp/ccI7Zqab.s 			page 7


 328 0020 0FD0     		beq	.L17
 329              		.loc 1 191 0 is_stmt 0 discriminator 1
 330 0022 019B     		ldr	r3, [sp, #4]
 331 0024 0522     		movs	r2, #5
 332 0026 1A70     		strb	r2, [r3]
 333 0028 019B     		ldr	r3, [sp, #4]
 334 002a 1B69     		ldr	r3, [r3, #16]
 335 002c 9B68     		ldr	r3, [r3, #8]
 336 002e 0198     		ldr	r0, [sp, #4]
 337 0030 0021     		movs	r1, #0
 338 0032 9847     		blx	r3
 339 0034 019B     		ldr	r3, [sp, #4]
 340 0036 1B78     		ldrb	r3, [r3]	@ zero_extendqisi2
 341 0038 052B     		cmp	r3, #5
 342 003a 02D1     		bne	.L17
 343 003c 019B     		ldr	r3, [sp, #4]
 344 003e 0222     		movs	r2, #2
 345 0040 1A70     		strb	r2, [r3]
 346              	.L17:
 347              		.loc 1 191 0 discriminator 2
 348 0042 019B     		ldr	r3, [sp, #4]
 349 0044 0022     		movs	r2, #0
 350 0046 1A61     		str	r2, [r3, #16]
 351              	.LBB2:
 352 0048 2023     		movs	r3, #32
 353              	@ 191 "/home/dave/r2p-sdk/core/ChibiOS/os/hal/platforms/STM32F30x/adc_lld.c" 1
 354 004a 83F31188 		msr     BASEPRI, r3
 355              	@ 0 "" 2
 356              		.thumb
 357              	.LBE2:
 358 004e FFF7FEFF 		bl	dbg_check_lock_from_isr
 359 0052 019B     		ldr	r3, [sp, #4]
 360 0054 5B69     		ldr	r3, [r3, #20]
 361 0056 002B     		cmp	r3, #0
 362 0058 0CD0     		beq	.L18
 363              	.LBB3:
 364              		.loc 1 191 0 discriminator 1
 365 005a 019B     		ldr	r3, [sp, #4]
 366 005c 5B69     		ldr	r3, [r3, #20]
 367 005e 0593     		str	r3, [sp, #20]
 368 0060 019B     		ldr	r3, [sp, #4]
 369 0062 0022     		movs	r2, #0
 370 0064 5A61     		str	r2, [r3, #20]
 371 0066 059B     		ldr	r3, [sp, #20]
 372 0068 4FF0FF32 		mov	r2, #-1
 373 006c 9A62     		str	r2, [r3, #40]
 374 006e 0598     		ldr	r0, [sp, #20]
 375 0070 FFF7FEFF 		bl	chSchReadyI
 376              	.L18:
 377              	.LBE3:
 378              		.loc 1 191 0 discriminator 2
 379 0074 FFF7FEFF 		bl	dbg_check_unlock_from_isr
 380              	.LBB4:
 381 0078 0023     		movs	r3, #0
 382              	@ 191 "/home/dave/r2p-sdk/core/ChibiOS/os/hal/platforms/STM32F30x/adc_lld.c" 1
 383 007a 83F31188 		msr     BASEPRI, r3
 384              	@ 0 "" 2
ARM GAS  /tmp/ccI7Zqab.s 			page 8


 385              		.thumb
 386              	.LBE4:
 387 007e 8DE0     		b	.L15
 388              	.L16:
 389              		.loc 1 196 0 is_stmt 1
 390 0080 019B     		ldr	r3, [sp, #4]
 391 0082 1B69     		ldr	r3, [r3, #16]
 392 0084 002B     		cmp	r3, #0
 393 0086 00F08980 		beq	.L15
 394              		.loc 1 197 0
 395 008a 009B     		ldr	r3, [sp]
 396 008c 03F00203 		and	r3, r3, #2
 397 0090 002B     		cmp	r3, #0
 398 0092 6FD0     		beq	.L20
 399              		.loc 1 199 0
 400 0094 019B     		ldr	r3, [sp, #4]
 401 0096 1B69     		ldr	r3, [r3, #16]
 402 0098 1B78     		ldrb	r3, [r3]	@ zero_extendqisi2
 403 009a 002B     		cmp	r3, #0
 404 009c 2AD0     		beq	.L21
 405              		.loc 1 199 0 is_stmt 0 discriminator 1
 406 009e 019B     		ldr	r3, [sp, #4]
 407 00a0 1B69     		ldr	r3, [r3, #16]
 408 00a2 5B68     		ldr	r3, [r3, #4]
 409 00a4 002B     		cmp	r3, #0
 410 00a6 79D0     		beq	.L15
 411 00a8 019B     		ldr	r3, [sp, #4]
 412 00aa DB68     		ldr	r3, [r3, #12]
 413 00ac 012B     		cmp	r3, #1
 414 00ae 17D9     		bls	.L23
 415              	.LBB5:
 416 00b0 019B     		ldr	r3, [sp, #4]
 417 00b2 DB68     		ldr	r3, [r3, #12]
 418 00b4 5B08     		lsrs	r3, r3, #1
 419 00b6 0493     		str	r3, [sp, #16]
 420 00b8 019B     		ldr	r3, [sp, #4]
 421 00ba 1B69     		ldr	r3, [r3, #16]
 422 00bc 5B88     		ldrh	r3, [r3, #2]
 423 00be 049A     		ldr	r2, [sp, #16]
 424 00c0 02FB03F3 		mul	r3, r2, r3
 425 00c4 0393     		str	r3, [sp, #12]
 426 00c6 019B     		ldr	r3, [sp, #4]
 427 00c8 1B69     		ldr	r3, [r3, #16]
 428 00ca 5B68     		ldr	r3, [r3, #4]
 429 00cc 019A     		ldr	r2, [sp, #4]
 430 00ce 9168     		ldr	r1, [r2, #8]
 431 00d0 039A     		ldr	r2, [sp, #12]
 432 00d2 5200     		lsls	r2, r2, #1
 433 00d4 0A44     		add	r2, r2, r1
 434 00d6 0198     		ldr	r0, [sp, #4]
 435 00d8 1146     		mov	r1, r2
 436 00da 049A     		ldr	r2, [sp, #16]
 437 00dc 9847     		blx	r3
 438              	.LBE5:
 439 00de 5DE0     		b	.L15
 440              	.L23:
 441              		.loc 1 199 0 discriminator 2
ARM GAS  /tmp/ccI7Zqab.s 			page 9


 442 00e0 019B     		ldr	r3, [sp, #4]
 443 00e2 1B69     		ldr	r3, [r3, #16]
 444 00e4 5B68     		ldr	r3, [r3, #4]
 445 00e6 019A     		ldr	r2, [sp, #4]
 446 00e8 9168     		ldr	r1, [r2, #8]
 447 00ea 019A     		ldr	r2, [sp, #4]
 448 00ec D268     		ldr	r2, [r2, #12]
 449 00ee 0198     		ldr	r0, [sp, #4]
 450 00f0 9847     		blx	r3
 451 00f2 53E0     		b	.L15
 452              	.L21:
 453 00f4 0198     		ldr	r0, [sp, #4]
 454 00f6 FFF7FEFF 		bl	adc_lld_stop_conversion
 455 00fa 019B     		ldr	r3, [sp, #4]
 456 00fc 1B69     		ldr	r3, [r3, #16]
 457 00fe 5B68     		ldr	r3, [r3, #4]
 458 0100 002B     		cmp	r3, #0
 459 0102 16D0     		beq	.L25
 460              		.loc 1 199 0 discriminator 1
 461 0104 019B     		ldr	r3, [sp, #4]
 462 0106 0422     		movs	r2, #4
 463 0108 1A70     		strb	r2, [r3]
 464 010a 019B     		ldr	r3, [sp, #4]
 465 010c 1B69     		ldr	r3, [r3, #16]
 466 010e 5B68     		ldr	r3, [r3, #4]
 467 0110 019A     		ldr	r2, [sp, #4]
 468 0112 9168     		ldr	r1, [r2, #8]
 469 0114 019A     		ldr	r2, [sp, #4]
 470 0116 D268     		ldr	r2, [r2, #12]
 471 0118 0198     		ldr	r0, [sp, #4]
 472 011a 9847     		blx	r3
 473 011c 019B     		ldr	r3, [sp, #4]
 474 011e 1B78     		ldrb	r3, [r3]	@ zero_extendqisi2
 475 0120 042B     		cmp	r3, #4
 476 0122 0CD1     		bne	.L27
 477 0124 019B     		ldr	r3, [sp, #4]
 478 0126 0222     		movs	r2, #2
 479 0128 1A70     		strb	r2, [r3]
 480 012a 019B     		ldr	r3, [sp, #4]
 481 012c 0022     		movs	r2, #0
 482 012e 1A61     		str	r2, [r3, #16]
 483 0130 05E0     		b	.L27
 484              	.L25:
 485              		.loc 1 199 0 discriminator 2
 486 0132 019B     		ldr	r3, [sp, #4]
 487 0134 0222     		movs	r2, #2
 488 0136 1A70     		strb	r2, [r3]
 489 0138 019B     		ldr	r3, [sp, #4]
 490 013a 0022     		movs	r2, #0
 491 013c 1A61     		str	r2, [r3, #16]
 492              	.L27:
 493              	.LBB6:
 494              		.loc 1 199 0 discriminator 1
 495 013e 2023     		movs	r3, #32
 496              	@ 199 "/home/dave/r2p-sdk/core/ChibiOS/os/hal/platforms/STM32F30x/adc_lld.c" 1
 497 0140 83F31188 		msr     BASEPRI, r3
 498              	@ 0 "" 2
ARM GAS  /tmp/ccI7Zqab.s 			page 10


 499              		.thumb
 500              	.LBE6:
 501 0144 FFF7FEFF 		bl	dbg_check_lock_from_isr
 502 0148 019B     		ldr	r3, [sp, #4]
 503 014a 5B69     		ldr	r3, [r3, #20]
 504 014c 002B     		cmp	r3, #0
 505 014e 0BD0     		beq	.L28
 506              	.LBB7:
 507 0150 019B     		ldr	r3, [sp, #4]
 508 0152 5B69     		ldr	r3, [r3, #20]
 509 0154 0293     		str	r3, [sp, #8]
 510 0156 019B     		ldr	r3, [sp, #4]
 511 0158 0022     		movs	r2, #0
 512 015a 5A61     		str	r2, [r3, #20]
 513 015c 029B     		ldr	r3, [sp, #8]
 514 015e 0022     		movs	r2, #0
 515 0160 9A62     		str	r2, [r3, #40]
 516 0162 0298     		ldr	r0, [sp, #8]
 517 0164 FFF7FEFF 		bl	chSchReadyI
 518              	.L28:
 519              	.LBE7:
 520              		.loc 1 199 0 discriminator 2
 521 0168 FFF7FEFF 		bl	dbg_check_unlock_from_isr
 522              	.LBB8:
 523 016c 0023     		movs	r3, #0
 524              	@ 199 "/home/dave/r2p-sdk/core/ChibiOS/os/hal/platforms/STM32F30x/adc_lld.c" 1
 525 016e 83F31188 		msr     BASEPRI, r3
 526              	@ 0 "" 2
 527              		.thumb
 528 0172 13E0     		b	.L15
 529              	.L20:
 530              	.LBE8:
 531              		.loc 1 201 0 is_stmt 1
 532 0174 009B     		ldr	r3, [sp]
 533 0176 03F00403 		and	r3, r3, #4
 534 017a 002B     		cmp	r3, #0
 535 017c 0ED0     		beq	.L15
 536              		.loc 1 203 0
 537 017e 019B     		ldr	r3, [sp, #4]
 538 0180 1B69     		ldr	r3, [r3, #16]
 539 0182 5B68     		ldr	r3, [r3, #4]
 540 0184 002B     		cmp	r3, #0
 541 0186 09D0     		beq	.L15
 542              		.loc 1 203 0 is_stmt 0 discriminator 1
 543 0188 019B     		ldr	r3, [sp, #4]
 544 018a 1B69     		ldr	r3, [r3, #16]
 545 018c 5B68     		ldr	r3, [r3, #4]
 546 018e 019A     		ldr	r2, [sp, #4]
 547 0190 9168     		ldr	r1, [r2, #8]
 548 0192 019A     		ldr	r2, [sp, #4]
 549 0194 D268     		ldr	r2, [r2, #12]
 550 0196 5208     		lsrs	r2, r2, #1
 551 0198 0198     		ldr	r0, [sp, #4]
 552 019a 9847     		blx	r3
 553              	.L15:
 554              		.loc 1 207 0 is_stmt 1
 555 019c 07B0     		add	sp, sp, #28
ARM GAS  /tmp/ccI7Zqab.s 			page 11


 556              		@ sp needed
 557 019e 5DF804FB 		ldr	pc, [sp], #4
 558              		.cfi_endproc
 559              	.LFE124:
 560              		.size	adc_lld_serve_dma_interrupt, .-adc_lld_serve_dma_interrupt
 561 01a2 00BFAFF3 		.section	.text.adc_lld_serve_interrupt,"ax",%progbits
 561      0080AFF3 
 561      0080AFF3 
 561      0080
 562              		.align	2
 563              		.p2align 4,,15
 564              		.thumb
 565              		.thumb_func
 566              		.type	adc_lld_serve_interrupt, %function
 567              	adc_lld_serve_interrupt:
 568              	.LFB125:
 569              		.loc 1 215 0
 570              		.cfi_startproc
 571              		@ args = 0, pretend = 0, frame = 24
 572              		@ frame_needed = 0, uses_anonymous_args = 0
 573 0000 00B5     		push	{lr}
 574              		.cfi_def_cfa_offset 4
 575              		.cfi_offset 14, -4
 576 0002 87B0     		sub	sp, sp, #28
 577              		.cfi_def_cfa_offset 32
 578 0004 0190     		str	r0, [sp, #4]
 579 0006 0091     		str	r1, [sp]
 580              		.loc 1 219 0
 581 0008 019B     		ldr	r3, [sp, #4]
 582 000a 1B69     		ldr	r3, [r3, #16]
 583 000c 002B     		cmp	r3, #0
 584 000e 00F0F280 		beq	.L29
 585              		.loc 1 222 0
 586 0012 009B     		ldr	r3, [sp]
 587 0014 03F01003 		and	r3, r3, #16
 588 0018 002B     		cmp	r3, #0
 589 001a 3BD0     		beq	.L31
 590              		.loc 1 223 0 discriminator 1
 591 001c 019B     		ldr	r3, [sp, #4]
 592 001e 1B6B     		ldr	r3, [r3, #48]
 593 0020 1B68     		ldr	r3, [r3]
 594 0022 5B68     		ldr	r3, [r3, #4]
 595              		.loc 1 222 0 discriminator 1
 596 0024 002B     		cmp	r3, #0
 597 0026 35D0     		beq	.L31
 598              		.loc 1 226 0
 599 0028 0198     		ldr	r0, [sp, #4]
 600 002a FFF7FEFF 		bl	adc_lld_stop_conversion
 601 002e 019B     		ldr	r3, [sp, #4]
 602 0030 1B69     		ldr	r3, [r3, #16]
 603 0032 9B68     		ldr	r3, [r3, #8]
 604 0034 002B     		cmp	r3, #0
 605 0036 0FD0     		beq	.L32
 606              		.loc 1 226 0 is_stmt 0 discriminator 1
 607 0038 019B     		ldr	r3, [sp, #4]
 608 003a 0522     		movs	r2, #5
 609 003c 1A70     		strb	r2, [r3]
ARM GAS  /tmp/ccI7Zqab.s 			page 12


 610 003e 019B     		ldr	r3, [sp, #4]
 611 0040 1B69     		ldr	r3, [r3, #16]
 612 0042 9B68     		ldr	r3, [r3, #8]
 613 0044 0198     		ldr	r0, [sp, #4]
 614 0046 0121     		movs	r1, #1
 615 0048 9847     		blx	r3
 616 004a 019B     		ldr	r3, [sp, #4]
 617 004c 1B78     		ldrb	r3, [r3]	@ zero_extendqisi2
 618 004e 052B     		cmp	r3, #5
 619 0050 02D1     		bne	.L32
 620 0052 019B     		ldr	r3, [sp, #4]
 621 0054 0222     		movs	r2, #2
 622 0056 1A70     		strb	r2, [r3]
 623              	.L32:
 624              		.loc 1 226 0 discriminator 2
 625 0058 019B     		ldr	r3, [sp, #4]
 626 005a 0022     		movs	r2, #0
 627 005c 1A61     		str	r2, [r3, #16]
 628              	.LBB9:
 629 005e 2023     		movs	r3, #32
 630              	@ 226 "/home/dave/r2p-sdk/core/ChibiOS/os/hal/platforms/STM32F30x/adc_lld.c" 1
 631 0060 83F31188 		msr     BASEPRI, r3
 632              	@ 0 "" 2
 633              		.thumb
 634              	.LBE9:
 635 0064 FFF7FEFF 		bl	dbg_check_lock_from_isr
 636 0068 019B     		ldr	r3, [sp, #4]
 637 006a 5B69     		ldr	r3, [r3, #20]
 638 006c 002B     		cmp	r3, #0
 639 006e 0CD0     		beq	.L33
 640              	.LBB10:
 641              		.loc 1 226 0 discriminator 1
 642 0070 019B     		ldr	r3, [sp, #4]
 643 0072 5B69     		ldr	r3, [r3, #20]
 644 0074 0593     		str	r3, [sp, #20]
 645 0076 019B     		ldr	r3, [sp, #4]
 646 0078 0022     		movs	r2, #0
 647 007a 5A61     		str	r2, [r3, #20]
 648 007c 059B     		ldr	r3, [sp, #20]
 649 007e 4FF0FF32 		mov	r2, #-1
 650 0082 9A62     		str	r2, [r3, #40]
 651 0084 0598     		ldr	r0, [sp, #20]
 652 0086 FFF7FEFF 		bl	chSchReadyI
 653              	.L33:
 654              	.LBE10:
 655              		.loc 1 226 0 discriminator 2
 656 008a FFF7FEFF 		bl	dbg_check_unlock_from_isr
 657              	.LBB11:
 658 008e 0023     		movs	r3, #0
 659              	@ 226 "/home/dave/r2p-sdk/core/ChibiOS/os/hal/platforms/STM32F30x/adc_lld.c" 1
 660 0090 83F31188 		msr     BASEPRI, r3
 661              	@ 0 "" 2
 662              		.thumb
 663              	.L31:
 664              	.LBE11:
 665              		.loc 1 228 0 is_stmt 1
 666 0094 009B     		ldr	r3, [sp]
ARM GAS  /tmp/ccI7Zqab.s 			page 13


 667 0096 03F08003 		and	r3, r3, #128
 668 009a 002B     		cmp	r3, #0
 669 009c 35D0     		beq	.L34
 670              		.loc 1 230 0
 671 009e 0198     		ldr	r0, [sp, #4]
 672 00a0 FFF7FEFF 		bl	adc_lld_stop_conversion
 673 00a4 019B     		ldr	r3, [sp, #4]
 674 00a6 1B69     		ldr	r3, [r3, #16]
 675 00a8 9B68     		ldr	r3, [r3, #8]
 676 00aa 002B     		cmp	r3, #0
 677 00ac 0FD0     		beq	.L35
 678              		.loc 1 230 0 is_stmt 0 discriminator 1
 679 00ae 019B     		ldr	r3, [sp, #4]
 680 00b0 0522     		movs	r2, #5
 681 00b2 1A70     		strb	r2, [r3]
 682 00b4 019B     		ldr	r3, [sp, #4]
 683 00b6 1B69     		ldr	r3, [r3, #16]
 684 00b8 9B68     		ldr	r3, [r3, #8]
 685 00ba 0198     		ldr	r0, [sp, #4]
 686 00bc 0221     		movs	r1, #2
 687 00be 9847     		blx	r3
 688 00c0 019B     		ldr	r3, [sp, #4]
 689 00c2 1B78     		ldrb	r3, [r3]	@ zero_extendqisi2
 690 00c4 052B     		cmp	r3, #5
 691 00c6 02D1     		bne	.L35
 692 00c8 019B     		ldr	r3, [sp, #4]
 693 00ca 0222     		movs	r2, #2
 694 00cc 1A70     		strb	r2, [r3]
 695              	.L35:
 696              		.loc 1 230 0 discriminator 2
 697 00ce 019B     		ldr	r3, [sp, #4]
 698 00d0 0022     		movs	r2, #0
 699 00d2 1A61     		str	r2, [r3, #16]
 700              	.LBB12:
 701 00d4 2023     		movs	r3, #32
 702              	@ 230 "/home/dave/r2p-sdk/core/ChibiOS/os/hal/platforms/STM32F30x/adc_lld.c" 1
 703 00d6 83F31188 		msr     BASEPRI, r3
 704              	@ 0 "" 2
 705              		.thumb
 706              	.LBE12:
 707 00da FFF7FEFF 		bl	dbg_check_lock_from_isr
 708 00de 019B     		ldr	r3, [sp, #4]
 709 00e0 5B69     		ldr	r3, [r3, #20]
 710 00e2 002B     		cmp	r3, #0
 711 00e4 0CD0     		beq	.L36
 712              	.LBB13:
 713              		.loc 1 230 0 discriminator 1
 714 00e6 019B     		ldr	r3, [sp, #4]
 715 00e8 5B69     		ldr	r3, [r3, #20]
 716 00ea 0493     		str	r3, [sp, #16]
 717 00ec 019B     		ldr	r3, [sp, #4]
 718 00ee 0022     		movs	r2, #0
 719 00f0 5A61     		str	r2, [r3, #20]
 720 00f2 049B     		ldr	r3, [sp, #16]
 721 00f4 4FF0FF32 		mov	r2, #-1
 722 00f8 9A62     		str	r2, [r3, #40]
 723 00fa 0498     		ldr	r0, [sp, #16]
ARM GAS  /tmp/ccI7Zqab.s 			page 14


 724 00fc FFF7FEFF 		bl	chSchReadyI
 725              	.L36:
 726              	.LBE13:
 727              		.loc 1 230 0 discriminator 2
 728 0100 FFF7FEFF 		bl	dbg_check_unlock_from_isr
 729              	.LBB14:
 730 0104 0023     		movs	r3, #0
 731              	@ 230 "/home/dave/r2p-sdk/core/ChibiOS/os/hal/platforms/STM32F30x/adc_lld.c" 1
 732 0106 83F31188 		msr     BASEPRI, r3
 733              	@ 0 "" 2
 734              		.thumb
 735              	.L34:
 736              	.LBE14:
 737              		.loc 1 232 0 is_stmt 1
 738 010a 009B     		ldr	r3, [sp]
 739 010c 03F48073 		and	r3, r3, #256
 740 0110 002B     		cmp	r3, #0
 741 0112 35D0     		beq	.L37
 742              		.loc 1 234 0
 743 0114 0198     		ldr	r0, [sp, #4]
 744 0116 FFF7FEFF 		bl	adc_lld_stop_conversion
 745 011a 019B     		ldr	r3, [sp, #4]
 746 011c 1B69     		ldr	r3, [r3, #16]
 747 011e 9B68     		ldr	r3, [r3, #8]
 748 0120 002B     		cmp	r3, #0
 749 0122 0FD0     		beq	.L38
 750              		.loc 1 234 0 is_stmt 0 discriminator 1
 751 0124 019B     		ldr	r3, [sp, #4]
 752 0126 0522     		movs	r2, #5
 753 0128 1A70     		strb	r2, [r3]
 754 012a 019B     		ldr	r3, [sp, #4]
 755 012c 1B69     		ldr	r3, [r3, #16]
 756 012e 9B68     		ldr	r3, [r3, #8]
 757 0130 0198     		ldr	r0, [sp, #4]
 758 0132 0321     		movs	r1, #3
 759 0134 9847     		blx	r3
 760 0136 019B     		ldr	r3, [sp, #4]
 761 0138 1B78     		ldrb	r3, [r3]	@ zero_extendqisi2
 762 013a 052B     		cmp	r3, #5
 763 013c 02D1     		bne	.L38
 764 013e 019B     		ldr	r3, [sp, #4]
 765 0140 0222     		movs	r2, #2
 766 0142 1A70     		strb	r2, [r3]
 767              	.L38:
 768              		.loc 1 234 0 discriminator 2
 769 0144 019B     		ldr	r3, [sp, #4]
 770 0146 0022     		movs	r2, #0
 771 0148 1A61     		str	r2, [r3, #16]
 772              	.LBB15:
 773 014a 2023     		movs	r3, #32
 774              	@ 234 "/home/dave/r2p-sdk/core/ChibiOS/os/hal/platforms/STM32F30x/adc_lld.c" 1
 775 014c 83F31188 		msr     BASEPRI, r3
 776              	@ 0 "" 2
 777              		.thumb
 778              	.LBE15:
 779 0150 FFF7FEFF 		bl	dbg_check_lock_from_isr
 780 0154 019B     		ldr	r3, [sp, #4]
ARM GAS  /tmp/ccI7Zqab.s 			page 15


 781 0156 5B69     		ldr	r3, [r3, #20]
 782 0158 002B     		cmp	r3, #0
 783 015a 0CD0     		beq	.L39
 784              	.LBB16:
 785              		.loc 1 234 0 discriminator 1
 786 015c 019B     		ldr	r3, [sp, #4]
 787 015e 5B69     		ldr	r3, [r3, #20]
 788 0160 0393     		str	r3, [sp, #12]
 789 0162 019B     		ldr	r3, [sp, #4]
 790 0164 0022     		movs	r2, #0
 791 0166 5A61     		str	r2, [r3, #20]
 792 0168 039B     		ldr	r3, [sp, #12]
 793 016a 4FF0FF32 		mov	r2, #-1
 794 016e 9A62     		str	r2, [r3, #40]
 795 0170 0398     		ldr	r0, [sp, #12]
 796 0172 FFF7FEFF 		bl	chSchReadyI
 797              	.L39:
 798              	.LBE16:
 799              		.loc 1 234 0 discriminator 2
 800 0176 FFF7FEFF 		bl	dbg_check_unlock_from_isr
 801              	.LBB17:
 802 017a 0023     		movs	r3, #0
 803              	@ 234 "/home/dave/r2p-sdk/core/ChibiOS/os/hal/platforms/STM32F30x/adc_lld.c" 1
 804 017c 83F31188 		msr     BASEPRI, r3
 805              	@ 0 "" 2
 806              		.thumb
 807              	.L37:
 808              	.LBE17:
 809              		.loc 1 236 0 is_stmt 1
 810 0180 009B     		ldr	r3, [sp]
 811 0182 03F40073 		and	r3, r3, #512
 812 0186 002B     		cmp	r3, #0
 813 0188 35D0     		beq	.L29
 814              		.loc 1 238 0
 815 018a 0198     		ldr	r0, [sp, #4]
 816 018c FFF7FEFF 		bl	adc_lld_stop_conversion
 817 0190 019B     		ldr	r3, [sp, #4]
 818 0192 1B69     		ldr	r3, [r3, #16]
 819 0194 9B68     		ldr	r3, [r3, #8]
 820 0196 002B     		cmp	r3, #0
 821 0198 0FD0     		beq	.L40
 822              		.loc 1 238 0 is_stmt 0 discriminator 1
 823 019a 019B     		ldr	r3, [sp, #4]
 824 019c 0522     		movs	r2, #5
 825 019e 1A70     		strb	r2, [r3]
 826 01a0 019B     		ldr	r3, [sp, #4]
 827 01a2 1B69     		ldr	r3, [r3, #16]
 828 01a4 9B68     		ldr	r3, [r3, #8]
 829 01a6 0198     		ldr	r0, [sp, #4]
 830 01a8 0421     		movs	r1, #4
 831 01aa 9847     		blx	r3
 832 01ac 019B     		ldr	r3, [sp, #4]
 833 01ae 1B78     		ldrb	r3, [r3]	@ zero_extendqisi2
 834 01b0 052B     		cmp	r3, #5
 835 01b2 02D1     		bne	.L40
 836 01b4 019B     		ldr	r3, [sp, #4]
 837 01b6 0222     		movs	r2, #2
ARM GAS  /tmp/ccI7Zqab.s 			page 16


 838 01b8 1A70     		strb	r2, [r3]
 839              	.L40:
 840              		.loc 1 238 0 discriminator 2
 841 01ba 019B     		ldr	r3, [sp, #4]
 842 01bc 0022     		movs	r2, #0
 843 01be 1A61     		str	r2, [r3, #16]
 844              	.LBB18:
 845 01c0 2023     		movs	r3, #32
 846              	@ 238 "/home/dave/r2p-sdk/core/ChibiOS/os/hal/platforms/STM32F30x/adc_lld.c" 1
 847 01c2 83F31188 		msr     BASEPRI, r3
 848              	@ 0 "" 2
 849              		.thumb
 850              	.LBE18:
 851 01c6 FFF7FEFF 		bl	dbg_check_lock_from_isr
 852 01ca 019B     		ldr	r3, [sp, #4]
 853 01cc 5B69     		ldr	r3, [r3, #20]
 854 01ce 002B     		cmp	r3, #0
 855 01d0 0CD0     		beq	.L41
 856              	.LBB19:
 857              		.loc 1 238 0 discriminator 1
 858 01d2 019B     		ldr	r3, [sp, #4]
 859 01d4 5B69     		ldr	r3, [r3, #20]
 860 01d6 0293     		str	r3, [sp, #8]
 861 01d8 019B     		ldr	r3, [sp, #4]
 862 01da 0022     		movs	r2, #0
 863 01dc 5A61     		str	r2, [r3, #20]
 864 01de 029B     		ldr	r3, [sp, #8]
 865 01e0 4FF0FF32 		mov	r2, #-1
 866 01e4 9A62     		str	r2, [r3, #40]
 867 01e6 0298     		ldr	r0, [sp, #8]
 868 01e8 FFF7FEFF 		bl	chSchReadyI
 869              	.L41:
 870              	.LBE19:
 871              		.loc 1 238 0 discriminator 2
 872 01ec FFF7FEFF 		bl	dbg_check_unlock_from_isr
 873              	.LBB20:
 874 01f0 0023     		movs	r3, #0
 875              	@ 238 "/home/dave/r2p-sdk/core/ChibiOS/os/hal/platforms/STM32F30x/adc_lld.c" 1
 876 01f2 83F31188 		msr     BASEPRI, r3
 877              	@ 0 "" 2
 878              		.thumb
 879              	.L29:
 880              	.LBE20:
 881              		.loc 1 241 0 is_stmt 1
 882 01f6 07B0     		add	sp, sp, #28
 883              		@ sp needed
 884 01f8 5DF804FB 		ldr	pc, [sp], #4
 885              		.cfi_endproc
 886              	.LFE125:
 887              		.size	adc_lld_serve_interrupt, .-adc_lld_serve_interrupt
 888 01fc AFF30080 		.section	.text.Vector88,"ax",%progbits
 889              		.align	2
 890              		.p2align 4,,15
 891              		.global	Vector88
 892              		.thumb
 893              		.thumb_func
 894              		.type	Vector88, %function
ARM GAS  /tmp/ccI7Zqab.s 			page 17


 895              	Vector88:
 896              	.LFB126:
 897              		.loc 1 253 0
 898              		.cfi_startproc
 899              		@ args = 0, pretend = 0, frame = 8
 900              		@ frame_needed = 0, uses_anonymous_args = 0
 901 0000 00B5     		push	{lr}
 902              		.cfi_def_cfa_offset 4
 903              		.cfi_offset 14, -4
 904 0002 83B0     		sub	sp, sp, #12
 905              		.cfi_def_cfa_offset 16
 906              		.loc 1 256 0
 907 0004 FFF7FEFF 		bl	dbg_check_enter_isr
 908              		.loc 1 264 0
 909 0008 4FF0A043 		mov	r3, #1342177280
 910 000c 1B68     		ldr	r3, [r3]
 911 000e 0193     		str	r3, [sp, #4]
 912              		.loc 1 265 0
 913 0010 4FF0A043 		mov	r3, #1342177280
 914 0014 019A     		ldr	r2, [sp, #4]
 915 0016 1A60     		str	r2, [r3]
 916              		.loc 1 268 0
 917 0018 0548     		ldr	r0, .L43
 918 001a 0199     		ldr	r1, [sp, #4]
 919 001c FFF7FEFF 		bl	adc_lld_serve_interrupt
 920              		.loc 1 270 0
 921 0020 FFF7FEFF 		bl	dbg_check_leave_isr
 922 0024 FFF7FEFF 		bl	_port_irq_epilogue
 923              		.loc 1 271 0
 924 0028 03B0     		add	sp, sp, #12
 925              		@ sp needed
 926 002a 5DF804FB 		ldr	pc, [sp], #4
 927              	.L44:
 928 002e 00BF     		.align	2
 929              	.L43:
 930 0030 00000000 		.word	ADCD1
 931              		.cfi_endproc
 932              	.LFE126:
 933              		.size	Vector88, .-Vector88
 934 0034 AFF30080 		.section	.text.adc_lld_init,"ax",%progbits
 934      AFF30080 
 934      AFF30080 
 935              		.align	2
 936              		.p2align 4,,15
 937              		.global	adc_lld_init
 938              		.thumb
 939              		.thumb_func
 940              		.type	adc_lld_init, %function
 941              	adc_lld_init:
 942              	.LFB127:
 943              		.loc 1 323 0
 944              		.cfi_startproc
 945              		@ args = 0, pretend = 0, frame = 0
 946              		@ frame_needed = 0, uses_anonymous_args = 0
 947 0000 08B5     		push	{r3, lr}
 948              		.cfi_def_cfa_offset 8
 949              		.cfi_offset 3, -8
ARM GAS  /tmp/ccI7Zqab.s 			page 18


 950              		.cfi_offset 14, -4
 951              		.loc 1 327 0
 952 0002 0B48     		ldr	r0, .L46
 953 0004 FFF7FEFF 		bl	adcObjectInit
 954              		.loc 1 328 0
 955 0008 094B     		ldr	r3, .L46
 956 000a 0A4A     		ldr	r2, .L46+4
 957 000c 9A62     		str	r2, [r3, #40]
 958              		.loc 1 329 0
 959 000e 084B     		ldr	r3, .L46
 960 0010 4FF0A042 		mov	r2, #1342177280
 961 0014 DA62     		str	r2, [r3, #44]
 962              		.loc 1 333 0
 963 0016 064B     		ldr	r3, .L46
 964 0018 074A     		ldr	r2, .L46+8
 965 001a 1A63     		str	r2, [r3, #48]
 966              		.loc 1 334 0
 967 001c 044B     		ldr	r3, .L46
 968 001e 42F28A52 		movw	r2, #9610
 969 0022 5A63     		str	r2, [r3, #52]
 970              		.loc 1 339 0
 971 0024 1220     		movs	r0, #18
 972 0026 5021     		movs	r1, #80
 973 0028 FFF7FEFF 		bl	nvicEnableVector
 974              		.loc 1 364 0
 975 002c 08BD     		pop	{r3, pc}
 976              	.L47:
 977 002e 00BF     		.align	2
 978              	.L46:
 979 0030 00000000 		.word	ADCD1
 980 0034 00030050 		.word	1342178048
 981 0038 00000000 		.word	_stm32_dma_streams
 982              		.cfi_endproc
 983              	.LFE127:
 984              		.size	adc_lld_init, .-adc_lld_init
 985 003c AFF30080 		.section	.rodata
 986              		.align	2
 987              	.LC1:
 988 0018 6164635F 		.ascii	"adc_lld_start(), #1\000"
 988      6C6C645F 
 988      73746172 
 988      7428292C 
 988      20233100 
 989              		.section	.text.adc_lld_start,"ax",%progbits
 990              		.align	2
 991              		.p2align 4,,15
 992              		.global	adc_lld_start
 993              		.thumb
 994              		.thumb_func
 995              		.type	adc_lld_start, %function
 996              	adc_lld_start:
 997              	.LFB128:
 998              		.loc 1 373 0
 999              		.cfi_startproc
 1000              		@ args = 0, pretend = 0, frame = 16
 1001              		@ frame_needed = 0, uses_anonymous_args = 0
 1002 0000 00B5     		push	{lr}
ARM GAS  /tmp/ccI7Zqab.s 			page 19


 1003              		.cfi_def_cfa_offset 4
 1004              		.cfi_offset 14, -4
 1005 0002 85B0     		sub	sp, sp, #20
 1006              		.cfi_def_cfa_offset 24
 1007 0004 0190     		str	r0, [sp, #4]
 1008              		.loc 1 376 0
 1009 0006 019B     		ldr	r3, [sp, #4]
 1010 0008 1B78     		ldrb	r3, [r3]	@ zero_extendqisi2
 1011 000a 012B     		cmp	r3, #1
 1012 000c 30D1     		bne	.L48
 1013              		.loc 1 378 0
 1014 000e 019A     		ldr	r2, [sp, #4]
 1015 0010 194B     		ldr	r3, .L52
 1016 0012 9A42     		cmp	r2, r3
 1017 0014 17D1     		bne	.L50
 1018              	.LBB21:
 1019              		.loc 1 380 0
 1020 0016 019B     		ldr	r3, [sp, #4]
 1021 0018 1B6B     		ldr	r3, [r3, #48]
 1022 001a 1846     		mov	r0, r3
 1023 001c 0521     		movs	r1, #5
 1024 001e 174A     		ldr	r2, .L52+4
 1025 0020 019B     		ldr	r3, [sp, #4]
 1026 0022 FFF7FEFF 		bl	dmaStreamAllocate
 1027 0026 0346     		mov	r3, r0
 1028 0028 8DF80F30 		strb	r3, [sp, #15]
 1029              		.loc 1 384 0
 1030 002c 9DF80F30 		ldrb	r3, [sp, #15]	@ zero_extendqisi2
 1031 0030 002B     		cmp	r3, #0
 1032 0032 02D0     		beq	.L51
 1033              		.loc 1 384 0 is_stmt 0 discriminator 1
 1034 0034 1248     		ldr	r0, .L52+8
 1035 0036 FFF7FEFF 		bl	chDbgPanic
 1036              	.L51:
 1037              		.loc 1 385 0 is_stmt 1
 1038 003a 124B     		ldr	r3, .L52+12
 1039 003c 114A     		ldr	r2, .L52+12
 1040 003e 5269     		ldr	r2, [r2, #20]
 1041 0040 42F08052 		orr	r2, r2, #268435456
 1042 0044 5A61     		str	r2, [r3, #20]
 1043              	.L50:
 1044              	.LBE21:
 1045              		.loc 1 405 0
 1046 0046 019B     		ldr	r3, [sp, #4]
 1047 0048 1B6B     		ldr	r3, [r3, #48]
 1048 004a 1B68     		ldr	r3, [r3]
 1049 004c 019A     		ldr	r2, [sp, #4]
 1050 004e D26A     		ldr	r2, [r2, #44]
 1051 0050 4032     		adds	r2, r2, #64
 1052 0052 9A60     		str	r2, [r3, #8]
 1053              		.loc 1 409 0
 1054 0054 019B     		ldr	r3, [sp, #4]
 1055 0056 9B6A     		ldr	r3, [r3, #40]
 1056 0058 4FF48032 		mov	r2, #65536
 1057 005c 9A60     		str	r2, [r3, #8]
 1058              		.loc 1 412 0
 1059 005e 0198     		ldr	r0, [sp, #4]
ARM GAS  /tmp/ccI7Zqab.s 			page 20


 1060 0060 FFF7FEFF 		bl	adc_lld_vreg_on
 1061              		.loc 1 413 0
 1062 0064 0198     		ldr	r0, [sp, #4]
 1063 0066 FFF7FEFF 		bl	adc_lld_calibrate
 1064              		.loc 1 416 0
 1065 006a 0198     		ldr	r0, [sp, #4]
 1066 006c FFF7FEFF 		bl	adc_lld_analog_on
 1067              	.L48:
 1068              		.loc 1 418 0
 1069 0070 05B0     		add	sp, sp, #20
 1070              		@ sp needed
 1071 0072 5DF804FB 		ldr	pc, [sp], #4
 1072              	.L53:
 1073 0076 00BF     		.align	2
 1074              	.L52:
 1075 0078 00000000 		.word	ADCD1
 1076 007c 00000000 		.word	adc_lld_serve_dma_interrupt
 1077 0080 18000000 		.word	.LC1
 1078 0084 00100240 		.word	1073876992
 1079              		.cfi_endproc
 1080              	.LFE128:
 1081              		.size	adc_lld_start, .-adc_lld_start
 1082 0088 AFF30080 		.section	.text.adc_lld_stop,"ax",%progbits
 1082      AFF30080 
 1083              		.align	2
 1084              		.p2align 4,,15
 1085              		.global	adc_lld_stop
 1086              		.thumb
 1087              		.thumb_func
 1088              		.type	adc_lld_stop, %function
 1089              	adc_lld_stop:
 1090              	.LFB129:
 1091              		.loc 1 427 0
 1092              		.cfi_startproc
 1093              		@ args = 0, pretend = 0, frame = 8
 1094              		@ frame_needed = 0, uses_anonymous_args = 0
 1095 0000 00B5     		push	{lr}
 1096              		.cfi_def_cfa_offset 4
 1097              		.cfi_offset 14, -4
 1098 0002 83B0     		sub	sp, sp, #12
 1099              		.cfi_def_cfa_offset 16
 1100 0004 0190     		str	r0, [sp, #4]
 1101              		.loc 1 430 0
 1102 0006 019B     		ldr	r3, [sp, #4]
 1103 0008 1B78     		ldrb	r3, [r3]	@ zero_extendqisi2
 1104 000a 022B     		cmp	r3, #2
 1105 000c 17D1     		bne	.L54
 1106              		.loc 1 433 0
 1107 000e 019B     		ldr	r3, [sp, #4]
 1108 0010 1B6B     		ldr	r3, [r3, #48]
 1109 0012 1846     		mov	r0, r3
 1110 0014 FFF7FEFF 		bl	dmaStreamRelease
 1111              		.loc 1 436 0
 1112 0018 0198     		ldr	r0, [sp, #4]
 1113 001a FFF7FEFF 		bl	adc_lld_stop_adc
 1114              		.loc 1 439 0
 1115 001e 0198     		ldr	r0, [sp, #4]
ARM GAS  /tmp/ccI7Zqab.s 			page 21


 1116 0020 FFF7FEFF 		bl	adc_lld_analog_off
 1117              		.loc 1 440 0
 1118 0024 0198     		ldr	r0, [sp, #4]
 1119 0026 FFF7FEFF 		bl	adc_lld_vreg_off
 1120              		.loc 1 443 0
 1121 002a 019A     		ldr	r2, [sp, #4]
 1122 002c 054B     		ldr	r3, .L56
 1123 002e 9A42     		cmp	r2, r3
 1124 0030 05D1     		bne	.L54
 1125              		.loc 1 444 0
 1126 0032 054B     		ldr	r3, .L56+4
 1127 0034 044A     		ldr	r2, .L56+4
 1128 0036 5269     		ldr	r2, [r2, #20]
 1129 0038 22F08052 		bic	r2, r2, #268435456
 1130 003c 5A61     		str	r2, [r3, #20]
 1131              	.L54:
 1132              		.loc 1 452 0
 1133 003e 03B0     		add	sp, sp, #12
 1134              		@ sp needed
 1135 0040 5DF804FB 		ldr	pc, [sp], #4
 1136              	.L57:
 1137              		.align	2
 1138              	.L56:
 1139 0044 00000000 		.word	ADCD1
 1140 0048 00100240 		.word	1073876992
 1141              		.cfi_endproc
 1142              	.LFE129:
 1143              		.size	adc_lld_stop, .-adc_lld_stop
 1144 004c AFF30080 		.section	.text.adc_lld_start_conversion,"ax",%progbits
 1145              		.align	2
 1146              		.p2align 4,,15
 1147              		.global	adc_lld_start_conversion
 1148              		.thumb
 1149              		.thumb_func
 1150              		.type	adc_lld_start_conversion, %function
 1151              	adc_lld_start_conversion:
 1152              	.LFB130:
 1153              		.loc 1 461 0
 1154              		.cfi_startproc
 1155              		@ args = 0, pretend = 0, frame = 24
 1156              		@ frame_needed = 0, uses_anonymous_args = 0
 1157              		@ link register save eliminated.
 1158 0000 86B0     		sub	sp, sp, #24
 1159              		.cfi_def_cfa_offset 24
 1160 0002 0190     		str	r0, [sp, #4]
 1161              		.loc 1 463 0
 1162 0004 019B     		ldr	r3, [sp, #4]
 1163 0006 1B69     		ldr	r3, [r3, #16]
 1164 0008 0393     		str	r3, [sp, #12]
 1165              		.loc 1 470 0
 1166 000a 019B     		ldr	r3, [sp, #4]
 1167 000c 5B6B     		ldr	r3, [r3, #52]
 1168 000e 0593     		str	r3, [sp, #20]
 1169              		.loc 1 471 0
 1170 0010 039B     		ldr	r3, [sp, #12]
 1171 0012 5A69     		ldr	r2, [r3, #20]
 1172 0014 019B     		ldr	r3, [sp, #4]
ARM GAS  /tmp/ccI7Zqab.s 			page 22


 1173 0016 9B6A     		ldr	r3, [r3, #40]
 1174 0018 9B68     		ldr	r3, [r3, #8]
 1175 001a 03F47033 		and	r3, r3, #245760
 1176 001e 1343     		orrs	r3, r3, r2
 1177 0020 0293     		str	r3, [sp, #8]
 1178              		.loc 1 473 0
 1179 0022 039B     		ldr	r3, [sp, #12]
 1180 0024 DB68     		ldr	r3, [r3, #12]
 1181 0026 43F40053 		orr	r3, r3, #8192
 1182 002a 43F00103 		orr	r3, r3, #1
 1183 002e 0493     		str	r3, [sp, #16]
 1184              		.loc 1 474 0
 1185 0030 039B     		ldr	r3, [sp, #12]
 1186 0032 1B78     		ldrb	r3, [r3]	@ zero_extendqisi2
 1187 0034 002B     		cmp	r3, #0
 1188 0036 0FD0     		beq	.L59
 1189              		.loc 1 475 0
 1190 0038 059B     		ldr	r3, [sp, #20]
 1191 003a 43F02003 		orr	r3, r3, #32
 1192 003e 0593     		str	r3, [sp, #20]
 1193              		.loc 1 479 0
 1194 0040 049B     		ldr	r3, [sp, #16]
 1195 0042 43F00203 		orr	r3, r3, #2
 1196 0046 0493     		str	r3, [sp, #16]
 1197              		.loc 1 481 0
 1198 0048 019B     		ldr	r3, [sp, #4]
 1199 004a DB68     		ldr	r3, [r3, #12]
 1200 004c 012B     		cmp	r3, #1
 1201 004e 03D9     		bls	.L59
 1202              		.loc 1 484 0
 1203 0050 059B     		ldr	r3, [sp, #20]
 1204 0052 43F00403 		orr	r3, r3, #4
 1205 0056 0593     		str	r3, [sp, #20]
 1206              	.L59:
 1207              		.loc 1 489 0
 1208 0058 019B     		ldr	r3, [sp, #4]
 1209 005a 1B6B     		ldr	r3, [r3, #48]
 1210 005c 1B68     		ldr	r3, [r3]
 1211 005e 019A     		ldr	r2, [sp, #4]
 1212 0060 9268     		ldr	r2, [r2, #8]
 1213 0062 DA60     		str	r2, [r3, #12]
 1214              		.loc 1 494 0
 1215 0064 019B     		ldr	r3, [sp, #4]
 1216 0066 1B6B     		ldr	r3, [r3, #48]
 1217 0068 1B68     		ldr	r3, [r3]
 1218 006a 039A     		ldr	r2, [sp, #12]
 1219 006c 5288     		ldrh	r2, [r2, #2]
 1220 006e 0199     		ldr	r1, [sp, #4]
 1221 0070 C968     		ldr	r1, [r1, #12]
 1222 0072 01FB02F2 		mul	r2, r1, r2
 1223 0076 5A60     		str	r2, [r3, #4]
 1224              		.loc 1 497 0
 1225 0078 019B     		ldr	r3, [sp, #4]
 1226 007a 1B6B     		ldr	r3, [r3, #48]
 1227 007c 1B68     		ldr	r3, [r3]
 1228 007e 059A     		ldr	r2, [sp, #20]
 1229 0080 1A60     		str	r2, [r3]
ARM GAS  /tmp/ccI7Zqab.s 			page 23


 1230              		.loc 1 498 0
 1231 0082 019B     		ldr	r3, [sp, #4]
 1232 0084 1B6B     		ldr	r3, [r3, #48]
 1233 0086 1B68     		ldr	r3, [r3]
 1234 0088 019A     		ldr	r2, [sp, #4]
 1235 008a 126B     		ldr	r2, [r2, #48]
 1236 008c 1268     		ldr	r2, [r2]
 1237 008e 1268     		ldr	r2, [r2]
 1238 0090 42F00102 		orr	r2, r2, #1
 1239 0094 1A60     		str	r2, [r3]
 1240              		.loc 1 503 0
 1241 0096 019B     		ldr	r3, [sp, #4]
 1242 0098 9B6A     		ldr	r3, [r3, #40]
 1243 009a 029A     		ldr	r2, [sp, #8]
 1244 009c 9A60     		str	r2, [r3, #8]
 1245              		.loc 1 507 0
 1246 009e 019B     		ldr	r3, [sp, #4]
 1247 00a0 DB6A     		ldr	r3, [r3, #44]
 1248 00a2 019A     		ldr	r2, [sp, #4]
 1249 00a4 D26A     		ldr	r2, [r2, #44]
 1250 00a6 1268     		ldr	r2, [r2]
 1251 00a8 1A60     		str	r2, [r3]
 1252              		.loc 1 508 0
 1253 00aa 019B     		ldr	r3, [sp, #4]
 1254 00ac DB6A     		ldr	r3, [r3, #44]
 1255 00ae 9022     		movs	r2, #144
 1256 00b0 5A60     		str	r2, [r3, #4]
 1257              		.loc 1 509 0
 1258 00b2 019B     		ldr	r3, [sp, #4]
 1259 00b4 DB6A     		ldr	r3, [r3, #44]
 1260 00b6 039A     		ldr	r2, [sp, #12]
 1261 00b8 1269     		ldr	r2, [r2, #16]
 1262 00ba 1A62     		str	r2, [r3, #32]
 1263              		.loc 1 525 0
 1264 00bc 019B     		ldr	r3, [sp, #4]
 1265 00be DB6A     		ldr	r3, [r3, #44]
 1266 00c0 039A     		ldr	r2, [sp, #12]
 1267 00c2 9269     		ldr	r2, [r2, #24]
 1268 00c4 5A61     		str	r2, [r3, #20]
 1269              		.loc 1 526 0
 1270 00c6 019B     		ldr	r3, [sp, #4]
 1271 00c8 DB6A     		ldr	r3, [r3, #44]
 1272 00ca 039A     		ldr	r2, [sp, #12]
 1273 00cc D269     		ldr	r2, [r2, #28]
 1274 00ce 9A61     		str	r2, [r3, #24]
 1275              		.loc 1 527 0
 1276 00d0 019B     		ldr	r3, [sp, #4]
 1277 00d2 DB6A     		ldr	r3, [r3, #44]
 1278 00d4 039A     		ldr	r2, [sp, #12]
 1279 00d6 116A     		ldr	r1, [r2, #32]
 1280 00d8 039A     		ldr	r2, [sp, #12]
 1281 00da 5288     		ldrh	r2, [r2, #2]
 1282 00dc 013A     		subs	r2, r2, #1
 1283 00de 0A43     		orrs	r2, r2, r1
 1284 00e0 1A63     		str	r2, [r3, #48]
 1285              		.loc 1 528 0
 1286 00e2 019B     		ldr	r3, [sp, #4]
ARM GAS  /tmp/ccI7Zqab.s 			page 24


 1287 00e4 DB6A     		ldr	r3, [r3, #44]
 1288 00e6 039A     		ldr	r2, [sp, #12]
 1289 00e8 526A     		ldr	r2, [r2, #36]
 1290 00ea 5A63     		str	r2, [r3, #52]
 1291              		.loc 1 529 0
 1292 00ec 019B     		ldr	r3, [sp, #4]
 1293 00ee DB6A     		ldr	r3, [r3, #44]
 1294 00f0 039A     		ldr	r2, [sp, #12]
 1295 00f2 926A     		ldr	r2, [r2, #40]
 1296 00f4 9A63     		str	r2, [r3, #56]
 1297              		.loc 1 530 0
 1298 00f6 019B     		ldr	r3, [sp, #4]
 1299 00f8 DB6A     		ldr	r3, [r3, #44]
 1300 00fa 039A     		ldr	r2, [sp, #12]
 1301 00fc D26A     		ldr	r2, [r2, #44]
 1302 00fe DA63     		str	r2, [r3, #60]
 1303              		.loc 1 534 0
 1304 0100 019B     		ldr	r3, [sp, #4]
 1305 0102 DB6A     		ldr	r3, [r3, #44]
 1306 0104 049A     		ldr	r2, [sp, #16]
 1307 0106 DA60     		str	r2, [r3, #12]
 1308              		.loc 1 537 0
 1309 0108 019B     		ldr	r3, [sp, #4]
 1310 010a DB6A     		ldr	r3, [r3, #44]
 1311 010c 019A     		ldr	r2, [sp, #4]
 1312 010e D26A     		ldr	r2, [r2, #44]
 1313 0110 9268     		ldr	r2, [r2, #8]
 1314 0112 42F00402 		orr	r2, r2, #4
 1315 0116 9A60     		str	r2, [r3, #8]
 1316              		.loc 1 538 0
 1317 0118 06B0     		add	sp, sp, #24
 1318              		@ sp needed
 1319 011a 7047     		bx	lr
 1320              		.cfi_endproc
 1321              	.LFE130:
 1322              		.size	adc_lld_start_conversion, .-adc_lld_start_conversion
 1323 011c AFF30080 		.section	.text.adc_lld_stop_conversion,"ax",%progbits
 1324              		.align	2
 1325              		.p2align 4,,15
 1326              		.global	adc_lld_stop_conversion
 1327              		.thumb
 1328              		.thumb_func
 1329              		.type	adc_lld_stop_conversion, %function
 1330              	adc_lld_stop_conversion:
 1331              	.LFB131:
 1332              		.loc 1 547 0
 1333              		.cfi_startproc
 1334              		@ args = 0, pretend = 0, frame = 8
 1335              		@ frame_needed = 0, uses_anonymous_args = 0
 1336 0000 00B5     		push	{lr}
 1337              		.cfi_def_cfa_offset 4
 1338              		.cfi_offset 14, -4
 1339 0002 83B0     		sub	sp, sp, #12
 1340              		.cfi_def_cfa_offset 16
 1341 0004 0190     		str	r0, [sp, #4]
 1342              		.loc 1 549 0
 1343 0006 019B     		ldr	r3, [sp, #4]
ARM GAS  /tmp/ccI7Zqab.s 			page 25


 1344 0008 1B6B     		ldr	r3, [r3, #48]
 1345 000a 1B68     		ldr	r3, [r3]
 1346 000c 019A     		ldr	r2, [sp, #4]
 1347 000e 126B     		ldr	r2, [r2, #48]
 1348 0010 1268     		ldr	r2, [r2]
 1349 0012 1268     		ldr	r2, [r2]
 1350 0014 22F00F02 		bic	r2, r2, #15
 1351 0018 1A60     		str	r2, [r3]
 1352 001a 019B     		ldr	r3, [sp, #4]
 1353 001c 1B6B     		ldr	r3, [r3, #48]
 1354 001e 5B68     		ldr	r3, [r3, #4]
 1355 0020 019A     		ldr	r2, [sp, #4]
 1356 0022 126B     		ldr	r2, [r2, #48]
 1357 0024 127A     		ldrb	r2, [r2, #8]	@ zero_extendqisi2
 1358 0026 0F21     		movs	r1, #15
 1359 0028 01FA02F2 		lsl	r2, r1, r2
 1360 002c 1A60     		str	r2, [r3]
 1361              		.loc 1 550 0
 1362 002e 0198     		ldr	r0, [sp, #4]
 1363 0030 FFF7FEFF 		bl	adc_lld_stop_adc
 1364              		.loc 1 551 0
 1365 0034 03B0     		add	sp, sp, #12
 1366              		@ sp needed
 1367 0036 5DF804FB 		ldr	pc, [sp], #4
 1368              		.cfi_endproc
 1369              	.LFE131:
 1370              		.size	adc_lld_stop_conversion, .-adc_lld_stop_conversion
 1371 003a 00BFAFF3 		.text
 1371      0080
 1372              	.Letext0:
 1373              		.file 2 "/usr/lib/gcc/arm-none-eabi/4.8/include/stddef.h"
 1374              		.file 3 "/usr/include/newlib/machine/_default_types.h"
 1375              		.file 4 "/usr/include/newlib/stdint.h"
 1376              		.file 5 "/home/dave/r2p-sdk/core/ChibiOS/os/ports/GCC/ARMCMx/chtypes.h"
 1377              		.file 6 "/home/dave/r2p-sdk/core/ChibiOS/os/kernel/include/chlists.h"
 1378              		.file 7 "/home/dave/r2p-sdk/core/ChibiOS/os/kernel/include/chthreads.h"
 1379              		.file 8 "/home/dave/r2p-sdk/core/ChibiOS/os/ports/GCC/ARMCMx/chcore_v7m.h"
 1380              		.file 9 "/home/dave/r2p-sdk/core/ChibiOS/os/kernel/include/chmtx.h"
 1381              		.file 10 "/home/dave/r2p-sdk/core/ChibiOS/os/hal/platforms/STM32F30x/stm32f30x.h"
 1382              		.file 11 "/home/dave/r2p-sdk/core/ChibiOS/os/hal/platforms/STM32F30x/stm32_dma.h"
 1383              		.file 12 "/home/dave/r2p-sdk/core/ChibiOS/os/hal/include/adc.h"
 1384              		.file 13 "/home/dave/r2p-sdk/core/ChibiOS/os/hal/platforms/STM32F30x/adc_lld.h"
 1385              		.file 14 "/home/dave/r2p-sdk/core/ChibiOS/os/ports/common/ARMCMx/CMSIS/include/core_cm4.h"