ARM GAS  /tmp/ccw6Vt5X.s 			page 1


   1              		.syntax unified
   2              		.cpu cortex-m4
   3              		.eabi_attribute 27, 3
   4              		.eabi_attribute 28, 1
   5              		.fpu fpv4-sp-d16
   6              		.eabi_attribute 20, 1
   7              		.eabi_attribute 21, 1
   8              		.eabi_attribute 23, 3
   9              		.eabi_attribute 24, 1
  10              		.eabi_attribute 25, 1
  11              		.eabi_attribute 26, 1
  12              		.eabi_attribute 30, 6
  13              		.eabi_attribute 34, 1
  14              		.eabi_attribute 18, 4
  15              		.thumb
  16              		.file	"chcond.c"
  17              		.text
  18              	.Ltext0:
  19              		.cfi_sections	.debug_frame
  20              		.section	.text.prio_insert,"ax",%progbits
  21              		.align	2
  22              		.p2align 4,,15
  23              		.thumb
  24              		.thumb_func
  25              		.type	prio_insert, %function
  26              	prio_insert:
  27              	.LFB0:
  28              		.file 1 "/home/dave/r2p-sdk/core/ChibiOS/os/kernel/include/chinline.h"
  29              		.loc 1 41 0
  30              		.cfi_startproc
  31              		@ args = 0, pretend = 0, frame = 16
  32              		@ frame_needed = 0, uses_anonymous_args = 0
  33              		@ link register save eliminated.
  34 0000 84B0     		sub	sp, sp, #16
  35              		.cfi_def_cfa_offset 16
  36 0002 0190     		str	r0, [sp, #4]
  37 0004 0091     		str	r1, [sp]
  38              		.loc 1 43 0
  39 0006 009B     		ldr	r3, [sp]
  40 0008 0393     		str	r3, [sp, #12]
  41              	.L3:
  42              		.loc 1 45 0 discriminator 1
  43 000a 039B     		ldr	r3, [sp, #12]
  44 000c 1B68     		ldr	r3, [r3]
  45 000e 0393     		str	r3, [sp, #12]
  46              		.loc 1 46 0 discriminator 1
  47 0010 039A     		ldr	r2, [sp, #12]
  48 0012 009B     		ldr	r3, [sp]
  49 0014 9A42     		cmp	r2, r3
  50 0016 05D0     		beq	.L2
  51 0018 039B     		ldr	r3, [sp, #12]
  52 001a 9A68     		ldr	r2, [r3, #8]
  53 001c 019B     		ldr	r3, [sp, #4]
  54 001e 9B68     		ldr	r3, [r3, #8]
  55 0020 9A42     		cmp	r2, r3
  56 0022 F2D2     		bcs	.L3
  57              	.L2:
ARM GAS  /tmp/ccw6Vt5X.s 			page 2


  58              		.loc 1 47 0
  59 0024 019B     		ldr	r3, [sp, #4]
  60 0026 039A     		ldr	r2, [sp, #12]
  61 0028 1A60     		str	r2, [r3]
  62              		.loc 1 48 0
  63 002a 039B     		ldr	r3, [sp, #12]
  64 002c 5A68     		ldr	r2, [r3, #4]
  65 002e 019B     		ldr	r3, [sp, #4]
  66 0030 5A60     		str	r2, [r3, #4]
  67              		.loc 1 49 0
  68 0032 019B     		ldr	r3, [sp, #4]
  69 0034 5B68     		ldr	r3, [r3, #4]
  70 0036 039A     		ldr	r2, [sp, #12]
  71 0038 0199     		ldr	r1, [sp, #4]
  72 003a 5160     		str	r1, [r2, #4]
  73 003c 039A     		ldr	r2, [sp, #12]
  74 003e 5268     		ldr	r2, [r2, #4]
  75 0040 1A60     		str	r2, [r3]
  76              		.loc 1 50 0
  77 0042 04B0     		add	sp, sp, #16
  78              		@ sp needed
  79 0044 7047     		bx	lr
  80              		.cfi_endproc
  81              	.LFE0:
  82              		.size	prio_insert, .-prio_insert
  83 0046 00BFAFF3 		.section	.text.fifo_remove,"ax",%progbits
  83      0080AFF3 
  83      0080
  84              		.align	2
  85              		.p2align 4,,15
  86              		.thumb
  87              		.thumb_func
  88              		.type	fifo_remove, %function
  89              	fifo_remove:
  90              	.LFB2:
  91              		.loc 1 59 0
  92              		.cfi_startproc
  93              		@ args = 0, pretend = 0, frame = 16
  94              		@ frame_needed = 0, uses_anonymous_args = 0
  95              		@ link register save eliminated.
  96 0000 84B0     		sub	sp, sp, #16
  97              		.cfi_def_cfa_offset 16
  98 0002 0190     		str	r0, [sp, #4]
  99              		.loc 1 60 0
 100 0004 019B     		ldr	r3, [sp, #4]
 101 0006 1B68     		ldr	r3, [r3]
 102 0008 0393     		str	r3, [sp, #12]
 103              		.loc 1 62 0
 104 000a 039B     		ldr	r3, [sp, #12]
 105 000c 1A68     		ldr	r2, [r3]
 106 000e 019B     		ldr	r3, [sp, #4]
 107 0010 1A60     		str	r2, [r3]
 108 0012 019B     		ldr	r3, [sp, #4]
 109 0014 1B68     		ldr	r3, [r3]
 110 0016 019A     		ldr	r2, [sp, #4]
 111 0018 5A60     		str	r2, [r3, #4]
 112              		.loc 1 63 0
ARM GAS  /tmp/ccw6Vt5X.s 			page 3


 113 001a 039B     		ldr	r3, [sp, #12]
 114              		.loc 1 64 0
 115 001c 1846     		mov	r0, r3
 116 001e 04B0     		add	sp, sp, #16
 117              		@ sp needed
 118 0020 7047     		bx	lr
 119              		.cfi_endproc
 120              	.LFE2:
 121              		.size	fifo_remove, .-fifo_remove
 122 0022 00BFAFF3 		.section	.rodata
 122      0080AFF3 
 122      0080AFF3 
 122      0080
 123              		.align	2
 124              	.LC0:
 125 0000 22636843 		.ascii	"\"chCondInit\"()\000"
 125      6F6E6449 
 125      6E697422 
 125      282900
 126              		.section	.text.chCondInit,"ax",%progbits
 127              		.align	2
 128              		.p2align 4,,15
 129              		.global	chCondInit
 130              		.thumb
 131              		.thumb_func
 132              		.type	chCondInit, %function
 133              	chCondInit:
 134              	.LFB7:
 135              		.file 2 "/home/dave/r2p-sdk/core/ChibiOS/os/kernel/src/chcond.c"
 136              		.loc 2 59 0
 137              		.cfi_startproc
 138              		@ args = 0, pretend = 0, frame = 8
 139              		@ frame_needed = 0, uses_anonymous_args = 0
 140 0000 00B5     		push	{lr}
 141              		.cfi_def_cfa_offset 4
 142              		.cfi_offset 14, -4
 143 0002 83B0     		sub	sp, sp, #12
 144              		.cfi_def_cfa_offset 16
 145 0004 0190     		str	r0, [sp, #4]
 146              		.loc 2 61 0
 147 0006 019B     		ldr	r3, [sp, #4]
 148 0008 002B     		cmp	r3, #0
 149 000a 02D1     		bne	.L7
 150              		.loc 2 61 0 is_stmt 0 discriminator 1
 151 000c 0648     		ldr	r0, .L8
 152 000e FFF7FEFF 		bl	chDbgPanic
 153              	.L7:
 154              		.loc 2 63 0 is_stmt 1
 155 0012 019A     		ldr	r2, [sp, #4]
 156 0014 019B     		ldr	r3, [sp, #4]
 157 0016 5A60     		str	r2, [r3, #4]
 158 0018 019B     		ldr	r3, [sp, #4]
 159 001a 5A68     		ldr	r2, [r3, #4]
 160 001c 019B     		ldr	r3, [sp, #4]
 161 001e 1A60     		str	r2, [r3]
 162              		.loc 2 64 0
 163 0020 03B0     		add	sp, sp, #12
ARM GAS  /tmp/ccw6Vt5X.s 			page 4


 164              		@ sp needed
 165 0022 5DF804FB 		ldr	pc, [sp], #4
 166              	.L9:
 167 0026 00BF     		.align	2
 168              	.L8:
 169 0028 00000000 		.word	.LC0
 170              		.cfi_endproc
 171              	.LFE7:
 172              		.size	chCondInit, .-chCondInit
 173 002c AFF30080 		.section	.rodata
 174 000f 00       		.align	2
 175              	.LC1:
 176 0010 22636843 		.ascii	"\"chCondSignal\"()\000"
 176      6F6E6453 
 176      69676E61 
 176      6C222829 
 176      00
 177              		.section	.text.chCondSignal,"ax",%progbits
 178              		.align	2
 179              		.p2align 4,,15
 180              		.global	chCondSignal
 181              		.thumb
 182              		.thumb_func
 183              		.type	chCondSignal, %function
 184              	chCondSignal:
 185              	.LFB8:
 186              		.loc 2 73 0
 187              		.cfi_startproc
 188              		@ args = 0, pretend = 0, frame = 8
 189              		@ frame_needed = 0, uses_anonymous_args = 0
 190 0000 00B5     		push	{lr}
 191              		.cfi_def_cfa_offset 4
 192              		.cfi_offset 14, -4
 193 0002 83B0     		sub	sp, sp, #12
 194              		.cfi_def_cfa_offset 16
 195 0004 0190     		str	r0, [sp, #4]
 196              		.loc 2 75 0
 197 0006 019B     		ldr	r3, [sp, #4]
 198 0008 002B     		cmp	r3, #0
 199 000a 02D1     		bne	.L11
 200              		.loc 2 75 0 is_stmt 0 discriminator 1
 201 000c 0E48     		ldr	r0, .L13
 202 000e FFF7FEFF 		bl	chDbgPanic
 203              	.L11:
 204              	.LBB2:
 205              		.loc 2 77 0 is_stmt 1
 206 0012 2023     		movs	r3, #32
 207              	@ 77 "/home/dave/r2p-sdk/core/ChibiOS/os/kernel/src/chcond.c" 1
 208 0014 83F31188 		msr     BASEPRI, r3
 209              	@ 0 "" 2
 210              		.thumb
 211              	.LBE2:
 212 0018 FFF7FEFF 		bl	dbg_check_lock
 213              		.loc 2 78 0
 214 001c 019B     		ldr	r3, [sp, #4]
 215 001e 1A68     		ldr	r2, [r3]
 216 0020 019B     		ldr	r3, [sp, #4]
ARM GAS  /tmp/ccw6Vt5X.s 			page 5


 217 0022 9A42     		cmp	r2, r3
 218 0024 08D0     		beq	.L12
 219              		.loc 2 79 0
 220 0026 019B     		ldr	r3, [sp, #4]
 221 0028 1846     		mov	r0, r3
 222 002a FFF7FEFF 		bl	fifo_remove
 223 002e 0346     		mov	r3, r0
 224 0030 1846     		mov	r0, r3
 225 0032 0021     		movs	r1, #0
 226 0034 FFF7FEFF 		bl	chSchWakeupS
 227              	.L12:
 228              		.loc 2 80 0
 229 0038 FFF7FEFF 		bl	dbg_check_unlock
 230              	.LBB3:
 231 003c 0023     		movs	r3, #0
 232              	@ 80 "/home/dave/r2p-sdk/core/ChibiOS/os/kernel/src/chcond.c" 1
 233 003e 83F31188 		msr     BASEPRI, r3
 234              	@ 0 "" 2
 235              		.thumb
 236              	.LBE3:
 237              		.loc 2 81 0
 238 0042 03B0     		add	sp, sp, #12
 239              		@ sp needed
 240 0044 5DF804FB 		ldr	pc, [sp], #4
 241              	.L14:
 242              		.align	2
 243              	.L13:
 244 0048 10000000 		.word	.LC1
 245              		.cfi_endproc
 246              	.LFE8:
 247              		.size	chCondSignal, .-chCondSignal
 248 004c AFF30080 		.section	.rodata
 249 0021 000000   		.align	2
 250              	.LC2:
 251 0024 22636843 		.ascii	"\"chCondSignalI\"()\000"
 251      6F6E6453 
 251      69676E61 
 251      6C492228 
 251      2900
 252              		.section	.text.chCondSignalI,"ax",%progbits
 253              		.align	2
 254              		.p2align 4,,15
 255              		.global	chCondSignalI
 256              		.thumb
 257              		.thumb_func
 258              		.type	chCondSignalI, %function
 259              	chCondSignalI:
 260              	.LFB9:
 261              		.loc 2 94 0
 262              		.cfi_startproc
 263              		@ args = 0, pretend = 0, frame = 8
 264              		@ frame_needed = 0, uses_anonymous_args = 0
 265 0000 00B5     		push	{lr}
 266              		.cfi_def_cfa_offset 4
 267              		.cfi_offset 14, -4
 268 0002 83B0     		sub	sp, sp, #12
 269              		.cfi_def_cfa_offset 16
ARM GAS  /tmp/ccw6Vt5X.s 			page 6


 270 0004 0190     		str	r0, [sp, #4]
 271              		.loc 2 96 0
 272 0006 FFF7FEFF 		bl	chDbgCheckClassI
 273              		.loc 2 97 0
 274 000a 019B     		ldr	r3, [sp, #4]
 275 000c 002B     		cmp	r3, #0
 276 000e 02D1     		bne	.L16
 277              		.loc 2 97 0 is_stmt 0 discriminator 1
 278 0010 0A48     		ldr	r0, .L18
 279 0012 FFF7FEFF 		bl	chDbgPanic
 280              	.L16:
 281              		.loc 2 99 0 is_stmt 1
 282 0016 019B     		ldr	r3, [sp, #4]
 283 0018 1A68     		ldr	r2, [r3]
 284 001a 019B     		ldr	r3, [sp, #4]
 285 001c 9A42     		cmp	r2, r3
 286 001e 0AD0     		beq	.L15
 287              		.loc 2 100 0
 288 0020 019B     		ldr	r3, [sp, #4]
 289 0022 1846     		mov	r0, r3
 290 0024 FFF7FEFF 		bl	fifo_remove
 291 0028 0346     		mov	r3, r0
 292 002a 1846     		mov	r0, r3
 293 002c FFF7FEFF 		bl	chSchReadyI
 294 0030 0346     		mov	r3, r0
 295 0032 0022     		movs	r2, #0
 296 0034 9A62     		str	r2, [r3, #40]
 297              	.L15:
 298              		.loc 2 101 0
 299 0036 03B0     		add	sp, sp, #12
 300              		@ sp needed
 301 0038 5DF804FB 		ldr	pc, [sp], #4
 302              	.L19:
 303              		.align	2
 304              	.L18:
 305 003c 24000000 		.word	.LC2
 306              		.cfi_endproc
 307              	.LFE9:
 308              		.size	chCondSignalI, .-chCondSignalI
 309              		.section	.text.chCondBroadcast,"ax",%progbits
 310              		.align	2
 311              		.p2align 4,,15
 312              		.global	chCondBroadcast
 313              		.thumb
 314              		.thumb_func
 315              		.type	chCondBroadcast, %function
 316              	chCondBroadcast:
 317              	.LFB10:
 318              		.loc 2 110 0
 319              		.cfi_startproc
 320              		@ args = 0, pretend = 0, frame = 8
 321              		@ frame_needed = 0, uses_anonymous_args = 0
 322 0000 00B5     		push	{lr}
 323              		.cfi_def_cfa_offset 4
 324              		.cfi_offset 14, -4
 325 0002 83B0     		sub	sp, sp, #12
 326              		.cfi_def_cfa_offset 16
ARM GAS  /tmp/ccw6Vt5X.s 			page 7


 327 0004 0190     		str	r0, [sp, #4]
 328              	.LBB4:
 329              		.loc 2 112 0
 330 0006 2023     		movs	r3, #32
 331              	@ 112 "/home/dave/r2p-sdk/core/ChibiOS/os/kernel/src/chcond.c" 1
 332 0008 83F31188 		msr     BASEPRI, r3
 333              	@ 0 "" 2
 334              		.thumb
 335              	.LBE4:
 336 000c FFF7FEFF 		bl	dbg_check_lock
 337              		.loc 2 113 0
 338 0010 0198     		ldr	r0, [sp, #4]
 339 0012 FFF7FEFF 		bl	chCondBroadcastI
 340              		.loc 2 114 0
 341 0016 FFF7FEFF 		bl	chSchRescheduleS
 342              		.loc 2 115 0
 343 001a FFF7FEFF 		bl	dbg_check_unlock
 344              	.LBB5:
 345 001e 0023     		movs	r3, #0
 346              	@ 115 "/home/dave/r2p-sdk/core/ChibiOS/os/kernel/src/chcond.c" 1
 347 0020 83F31188 		msr     BASEPRI, r3
 348              	@ 0 "" 2
 349              		.thumb
 350              	.LBE5:
 351              		.loc 2 116 0
 352 0024 03B0     		add	sp, sp, #12
 353              		@ sp needed
 354 0026 5DF804FB 		ldr	pc, [sp], #4
 355              		.cfi_endproc
 356              	.LFE10:
 357              		.size	chCondBroadcast, .-chCondBroadcast
 358 002a 00BFAFF3 		.section	.rodata
 358      0080
 359 0036 0000     		.align	2
 360              	.LC3:
 361 0038 22636843 		.ascii	"\"chCondBroadcastI\"()\000"
 361      6F6E6442 
 361      726F6164 
 361      63617374 
 361      49222829 
 362              		.section	.text.chCondBroadcastI,"ax",%progbits
 363              		.align	2
 364              		.p2align 4,,15
 365              		.global	chCondBroadcastI
 366              		.thumb
 367              		.thumb_func
 368              		.type	chCondBroadcastI, %function
 369              	chCondBroadcastI:
 370              	.LFB11:
 371              		.loc 2 129 0
 372              		.cfi_startproc
 373              		@ args = 0, pretend = 0, frame = 8
 374              		@ frame_needed = 0, uses_anonymous_args = 0
 375 0000 00B5     		push	{lr}
 376              		.cfi_def_cfa_offset 4
 377              		.cfi_offset 14, -4
 378 0002 83B0     		sub	sp, sp, #12
ARM GAS  /tmp/ccw6Vt5X.s 			page 8


 379              		.cfi_def_cfa_offset 16
 380 0004 0190     		str	r0, [sp, #4]
 381              		.loc 2 131 0
 382 0006 FFF7FEFF 		bl	chDbgCheckClassI
 383              		.loc 2 132 0
 384 000a 019B     		ldr	r3, [sp, #4]
 385 000c 002B     		cmp	r3, #0
 386 000e 03D1     		bne	.L22
 387              		.loc 2 132 0 is_stmt 0 discriminator 1
 388 0010 0C48     		ldr	r0, .L25
 389 0012 FFF7FEFF 		bl	chDbgPanic
 390              		.loc 2 137 0 is_stmt 1 discriminator 1
 391 0016 0CE0     		b	.L23
 392              	.L22:
 393              		.loc 2 137 0 is_stmt 0
 394 0018 0BE0     		b	.L23
 395              	.L24:
 396              		.loc 2 138 0 is_stmt 1
 397 001a 019B     		ldr	r3, [sp, #4]
 398 001c 1846     		mov	r0, r3
 399 001e FFF7FEFF 		bl	fifo_remove
 400 0022 0346     		mov	r3, r0
 401 0024 1846     		mov	r0, r3
 402 0026 FFF7FEFF 		bl	chSchReadyI
 403 002a 0346     		mov	r3, r0
 404 002c 6FF00102 		mvn	r2, #1
 405 0030 9A62     		str	r2, [r3, #40]
 406              	.L23:
 407              		.loc 2 137 0 discriminator 1
 408 0032 019B     		ldr	r3, [sp, #4]
 409 0034 1A68     		ldr	r2, [r3]
 410 0036 019B     		ldr	r3, [sp, #4]
 411 0038 9A42     		cmp	r2, r3
 412 003a EED1     		bne	.L24
 413              		.loc 2 139 0
 414 003c 03B0     		add	sp, sp, #12
 415              		@ sp needed
 416 003e 5DF804FB 		ldr	pc, [sp], #4
 417              	.L26:
 418 0042 00BF     		.align	2
 419              	.L25:
 420 0044 38000000 		.word	.LC3
 421              		.cfi_endproc
 422              	.LFE11:
 423              		.size	chCondBroadcastI, .-chCondBroadcastI
 424 0048 AFF30080 		.section	.text.chCondWait,"ax",%progbits
 424      AFF30080 
 425              		.align	2
 426              		.p2align 4,,15
 427              		.global	chCondWait
 428              		.thumb
 429              		.thumb_func
 430              		.type	chCondWait, %function
 431              	chCondWait:
 432              	.LFB12:
 433              		.loc 2 158 0
 434              		.cfi_startproc
ARM GAS  /tmp/ccw6Vt5X.s 			page 9


 435              		@ args = 0, pretend = 0, frame = 16
 436              		@ frame_needed = 0, uses_anonymous_args = 0
 437 0000 00B5     		push	{lr}
 438              		.cfi_def_cfa_offset 4
 439              		.cfi_offset 14, -4
 440 0002 85B0     		sub	sp, sp, #20
 441              		.cfi_def_cfa_offset 24
 442 0004 0190     		str	r0, [sp, #4]
 443              	.LBB6:
 444              		.loc 2 161 0
 445 0006 2023     		movs	r3, #32
 446              	@ 161 "/home/dave/r2p-sdk/core/ChibiOS/os/kernel/src/chcond.c" 1
 447 0008 83F31188 		msr     BASEPRI, r3
 448              	@ 0 "" 2
 449              		.thumb
 450              	.LBE6:
 451 000c FFF7FEFF 		bl	dbg_check_lock
 452              		.loc 2 162 0
 453 0010 0198     		ldr	r0, [sp, #4]
 454 0012 FFF7FEFF 		bl	chCondWaitS
 455 0016 0390     		str	r0, [sp, #12]
 456              		.loc 2 163 0
 457 0018 FFF7FEFF 		bl	dbg_check_unlock
 458              	.LBB7:
 459 001c 0023     		movs	r3, #0
 460              	@ 163 "/home/dave/r2p-sdk/core/ChibiOS/os/kernel/src/chcond.c" 1
 461 001e 83F31188 		msr     BASEPRI, r3
 462              	@ 0 "" 2
 463              		.thumb
 464              	.LBE7:
 465              		.loc 2 164 0
 466 0022 039B     		ldr	r3, [sp, #12]
 467              		.loc 2 165 0
 468 0024 1846     		mov	r0, r3
 469 0026 05B0     		add	sp, sp, #20
 470              		@ sp needed
 471 0028 5DF804FB 		ldr	pc, [sp], #4
 472              		.cfi_endproc
 473              	.LFE12:
 474              		.size	chCondWait, .-chCondWait
 475 002c AFF30080 		.section	.rodata
 476 004d 000000   		.align	2
 477              	.LC4:
 478 0050 22636843 		.ascii	"\"chCondWaitS\"()\000"
 478      6F6E6457 
 478      61697453 
 478      22282900 
 479              		.align	2
 480              	.LC5:
 481 0060 6368436F 		.ascii	"chCondWaitS(), #1\000"
 481      6E645761 
 481      69745328 
 481      292C2023 
 481      3100
 482              		.section	.text.chCondWaitS,"ax",%progbits
 483              		.align	2
 484              		.p2align 4,,15
ARM GAS  /tmp/ccw6Vt5X.s 			page 10


 485              		.global	chCondWaitS
 486              		.thumb
 487              		.thumb_func
 488              		.type	chCondWaitS, %function
 489              	chCondWaitS:
 490              	.LFB13:
 491              		.loc 2 184 0
 492              		.cfi_startproc
 493              		@ args = 0, pretend = 0, frame = 24
 494              		@ frame_needed = 0, uses_anonymous_args = 0
 495 0000 00B5     		push	{lr}
 496              		.cfi_def_cfa_offset 4
 497              		.cfi_offset 14, -4
 498 0002 87B0     		sub	sp, sp, #28
 499              		.cfi_def_cfa_offset 32
 500 0004 0190     		str	r0, [sp, #4]
 501              		.loc 2 185 0
 502 0006 154B     		ldr	r3, .L33
 503 0008 9B69     		ldr	r3, [r3, #24]
 504 000a 0593     		str	r3, [sp, #20]
 505              		.loc 2 189 0
 506 000c FFF7FEFF 		bl	chDbgCheckClassS
 507              		.loc 2 190 0
 508 0010 019B     		ldr	r3, [sp, #4]
 509 0012 002B     		cmp	r3, #0
 510 0014 02D1     		bne	.L30
 511              		.loc 2 190 0 is_stmt 0 discriminator 1
 512 0016 1248     		ldr	r0, .L33+4
 513 0018 FFF7FEFF 		bl	chDbgPanic
 514              	.L30:
 515              		.loc 2 191 0 is_stmt 1
 516 001c 059B     		ldr	r3, [sp, #20]
 517 001e 1B6C     		ldr	r3, [r3, #64]
 518 0020 002B     		cmp	r3, #0
 519 0022 02D1     		bne	.L31
 520              		.loc 2 191 0 is_stmt 0 discriminator 1
 521 0024 0F48     		ldr	r0, .L33+8
 522 0026 FFF7FEFF 		bl	chDbgPanic
 523              	.L31:
 524              		.loc 2 195 0 is_stmt 1
 525 002a FFF7FEFF 		bl	chMtxUnlockS
 526 002e 0490     		str	r0, [sp, #16]
 527              		.loc 2 196 0
 528 0030 059B     		ldr	r3, [sp, #20]
 529 0032 019A     		ldr	r2, [sp, #4]
 530 0034 9A62     		str	r2, [r3, #40]
 531              		.loc 2 197 0
 532 0036 019B     		ldr	r3, [sp, #4]
 533 0038 0598     		ldr	r0, [sp, #20]
 534 003a 1946     		mov	r1, r3
 535 003c FFF7FEFF 		bl	prio_insert
 536              		.loc 2 198 0
 537 0040 0520     		movs	r0, #5
 538 0042 FFF7FEFF 		bl	chSchGoSleepS
 539              		.loc 2 199 0
 540 0046 059B     		ldr	r3, [sp, #20]
 541 0048 9B6A     		ldr	r3, [r3, #40]
ARM GAS  /tmp/ccw6Vt5X.s 			page 11


 542 004a 0393     		str	r3, [sp, #12]
 543              		.loc 2 200 0
 544 004c 0498     		ldr	r0, [sp, #16]
 545 004e FFF7FEFF 		bl	chMtxLockS
 546              		.loc 2 201 0
 547 0052 039B     		ldr	r3, [sp, #12]
 548              		.loc 2 202 0
 549 0054 1846     		mov	r0, r3
 550 0056 07B0     		add	sp, sp, #28
 551              		@ sp needed
 552 0058 5DF804FB 		ldr	pc, [sp], #4
 553              	.L34:
 554              		.align	2
 555              	.L33:
 556 005c 00000000 		.word	rlist
 557 0060 50000000 		.word	.LC4
 558 0064 60000000 		.word	.LC5
 559              		.cfi_endproc
 560              	.LFE13:
 561              		.size	chCondWaitS, .-chCondWaitS
 562 0068 AFF30080 		.section	.text.chCondWaitTimeout,"ax",%progbits
 562      AFF30080 
 563              		.align	2
 564              		.p2align 4,,15
 565              		.global	chCondWaitTimeout
 566              		.thumb
 567              		.thumb_func
 568              		.type	chCondWaitTimeout, %function
 569              	chCondWaitTimeout:
 570              	.LFB14:
 571              		.loc 2 233 0
 572              		.cfi_startproc
 573              		@ args = 0, pretend = 0, frame = 16
 574              		@ frame_needed = 0, uses_anonymous_args = 0
 575 0000 00B5     		push	{lr}
 576              		.cfi_def_cfa_offset 4
 577              		.cfi_offset 14, -4
 578 0002 85B0     		sub	sp, sp, #20
 579              		.cfi_def_cfa_offset 24
 580 0004 0190     		str	r0, [sp, #4]
 581 0006 0091     		str	r1, [sp]
 582              	.LBB8:
 583              		.loc 2 236 0
 584 0008 2023     		movs	r3, #32
 585              	@ 236 "/home/dave/r2p-sdk/core/ChibiOS/os/kernel/src/chcond.c" 1
 586 000a 83F31188 		msr     BASEPRI, r3
 587              	@ 0 "" 2
 588              		.thumb
 589              	.LBE8:
 590 000e FFF7FEFF 		bl	dbg_check_lock
 591              		.loc 2 237 0
 592 0012 0198     		ldr	r0, [sp, #4]
 593 0014 0099     		ldr	r1, [sp]
 594 0016 FFF7FEFF 		bl	chCondWaitTimeoutS
 595 001a 0390     		str	r0, [sp, #12]
 596              		.loc 2 238 0
 597 001c FFF7FEFF 		bl	dbg_check_unlock
ARM GAS  /tmp/ccw6Vt5X.s 			page 12


 598              	.LBB9:
 599 0020 0023     		movs	r3, #0
 600              	@ 238 "/home/dave/r2p-sdk/core/ChibiOS/os/kernel/src/chcond.c" 1
 601 0022 83F31188 		msr     BASEPRI, r3
 602              	@ 0 "" 2
 603              		.thumb
 604              	.LBE9:
 605              		.loc 2 239 0
 606 0026 039B     		ldr	r3, [sp, #12]
 607              		.loc 2 240 0
 608 0028 1846     		mov	r0, r3
 609 002a 05B0     		add	sp, sp, #20
 610              		@ sp needed
 611 002c 5DF804FB 		ldr	pc, [sp], #4
 612              		.cfi_endproc
 613              	.LFE14:
 614              		.size	chCondWaitTimeout, .-chCondWaitTimeout
 615              		.section	.rodata
 616 0072 0000     		.align	2
 617              	.LC6:
 618 0074 22636843 		.ascii	"\"chCondWaitTimeoutS\"()\000"
 618      6F6E6457 
 618      61697454 
 618      696D656F 
 618      75745322 
 619 008b 00       		.align	2
 620              	.LC7:
 621 008c 6368436F 		.ascii	"chCondWaitTimeoutS(), #1\000"
 621      6E645761 
 621      69745469 
 621      6D656F75 
 621      74532829 
 622 00a5 000000   		.section	.text.chCondWaitTimeoutS,"ax",%progbits
 623              		.align	2
 624              		.p2align 4,,15
 625              		.global	chCondWaitTimeoutS
 626              		.thumb
 627              		.thumb_func
 628              		.type	chCondWaitTimeoutS, %function
 629              	chCondWaitTimeoutS:
 630              	.LFB15:
 631              		.loc 2 270 0
 632              		.cfi_startproc
 633              		@ args = 0, pretend = 0, frame = 16
 634              		@ frame_needed = 0, uses_anonymous_args = 0
 635 0000 00B5     		push	{lr}
 636              		.cfi_def_cfa_offset 4
 637              		.cfi_offset 14, -4
 638 0002 85B0     		sub	sp, sp, #20
 639              		.cfi_def_cfa_offset 24
 640 0004 0190     		str	r0, [sp, #4]
 641 0006 0091     		str	r1, [sp]
 642              		.loc 2 274 0
 643 0008 FFF7FEFF 		bl	chDbgCheckClassS
 644              		.loc 2 275 0
 645 000c 019B     		ldr	r3, [sp, #4]
 646 000e 002B     		cmp	r3, #0
ARM GAS  /tmp/ccw6Vt5X.s 			page 13


 647 0010 02D0     		beq	.L38
 648              		.loc 2 275 0 is_stmt 0 discriminator 2
 649 0012 009B     		ldr	r3, [sp]
 650 0014 002B     		cmp	r3, #0
 651 0016 02D1     		bne	.L39
 652              	.L38:
 653              		.loc 2 275 0 discriminator 1
 654 0018 1448     		ldr	r0, .L43
 655 001a FFF7FEFF 		bl	chDbgPanic
 656              	.L39:
 657              		.loc 2 276 0 is_stmt 1
 658 001e 144B     		ldr	r3, .L43+4
 659 0020 9B69     		ldr	r3, [r3, #24]
 660 0022 1B6C     		ldr	r3, [r3, #64]
 661 0024 002B     		cmp	r3, #0
 662 0026 02D1     		bne	.L40
 663              		.loc 2 276 0 is_stmt 0 discriminator 1
 664 0028 1248     		ldr	r0, .L43+8
 665 002a FFF7FEFF 		bl	chDbgPanic
 666              	.L40:
 667              		.loc 2 280 0 is_stmt 1
 668 002e FFF7FEFF 		bl	chMtxUnlockS
 669 0032 0390     		str	r0, [sp, #12]
 670              		.loc 2 281 0
 671 0034 0E4B     		ldr	r3, .L43+4
 672 0036 9B69     		ldr	r3, [r3, #24]
 673 0038 019A     		ldr	r2, [sp, #4]
 674 003a 9A62     		str	r2, [r3, #40]
 675              		.loc 2 282 0
 676 003c 0C4B     		ldr	r3, .L43+4
 677 003e 9A69     		ldr	r2, [r3, #24]
 678 0040 019B     		ldr	r3, [sp, #4]
 679 0042 1046     		mov	r0, r2
 680 0044 1946     		mov	r1, r3
 681 0046 FFF7FEFF 		bl	prio_insert
 682              		.loc 2 283 0
 683 004a 0520     		movs	r0, #5
 684 004c 0099     		ldr	r1, [sp]
 685 004e FFF7FEFF 		bl	chSchGoSleepTimeoutS
 686 0052 0290     		str	r0, [sp, #8]
 687              		.loc 2 284 0
 688 0054 029B     		ldr	r3, [sp, #8]
 689 0056 B3F1FF3F 		cmp	r3, #-1
 690 005a 02D0     		beq	.L41
 691              		.loc 2 285 0
 692 005c 0398     		ldr	r0, [sp, #12]
 693 005e FFF7FEFF 		bl	chMtxLockS
 694              	.L41:
 695              		.loc 2 286 0
 696 0062 029B     		ldr	r3, [sp, #8]
 697              		.loc 2 287 0
 698 0064 1846     		mov	r0, r3
 699 0066 05B0     		add	sp, sp, #20
 700              		@ sp needed
 701 0068 5DF804FB 		ldr	pc, [sp], #4
 702              	.L44:
 703              		.align	2
ARM GAS  /tmp/ccw6Vt5X.s 			page 14


 704              	.L43:
 705 006c 74000000 		.word	.LC6
 706 0070 00000000 		.word	rlist
 707 0074 8C000000 		.word	.LC7
 708              		.cfi_endproc
 709              	.LFE15:
 710              		.size	chCondWaitTimeoutS, .-chCondWaitTimeoutS
 711 0078 AFF30080 		.text
 711      AFF30080 
 712              	.Letext0:
 713              		.file 3 "/usr/include/newlib/machine/_default_types.h"
 714              		.file 4 "/usr/include/newlib/stdint.h"
 715              		.file 5 "/home/dave/r2p-sdk/core/ChibiOS/os/ports/GCC/ARMCMx/chtypes.h"
 716              		.file 6 "/home/dave/r2p-sdk/core/ChibiOS/os/kernel/include/chlists.h"
 717              		.file 7 "/home/dave/r2p-sdk/core/ChibiOS/os/kernel/include/chthreads.h"
 718              		.file 8 "/home/dave/r2p-sdk/core/ChibiOS/os/ports/GCC/ARMCMx/chcore_v7m.h"
 719              		.file 9 "/home/dave/r2p-sdk/core/ChibiOS/os/kernel/include/chschd.h"
 720              		.file 10 "/home/dave/r2p-sdk/core/ChibiOS/os/kernel/include/chmtx.h"
 721              		.file 11 "/home/dave/r2p-sdk/core/ChibiOS/os/kernel/include/chcond.h"