ARM GAS  /tmp/ccAxjfy9.s 			page 1


   1              		.syntax unified
   2              		.cpu cortex-m4
   3              		.eabi_attribute 27, 3
   4              		.eabi_attribute 28, 1
   5              		.fpu fpv4-sp-d16
   6              		.eabi_attribute 20, 1
   7              		.eabi_attribute 21, 1
   8              		.eabi_attribute 23, 3
   9              		.eabi_attribute 24, 1
  10              		.eabi_attribute 25, 1
  11              		.eabi_attribute 26, 1
  12              		.eabi_attribute 30, 6
  13              		.eabi_attribute 34, 1
  14              		.eabi_attribute 18, 4
  15              		.thumb
  16              		.file	"chmemcore.c"
  17              		.text
  18              	.Ltext0:
  19              		.cfi_sections	.debug_frame
  20              		.section	.bss.nextmem,"aw",%nobits
  21              		.align	2
  22              		.type	nextmem, %object
  23              		.size	nextmem, 4
  24              	nextmem:
  25 0000 00000000 		.space	4
  26              		.section	.bss.endmem,"aw",%nobits
  27              		.align	2
  28              		.type	endmem, %object
  29              		.size	endmem, 4
  30              	endmem:
  31 0000 00000000 		.space	4
  32              		.section	.bss.realendmem,"aw",%nobits
  33              		.align	2
  34              		.type	realendmem, %object
  35              		.size	realendmem, 4
  36              	realendmem:
  37 0000 00000000 		.space	4
  38              		.section	.text._core_init,"ax",%progbits
  39              		.align	2
  40              		.p2align 4,,15
  41              		.global	_core_init
  42              		.thumb
  43              		.thumb_func
  44              		.type	_core_init, %function
  45              	_core_init:
  46              	.LFB7:
  47              		.file 1 "/home/dave/r2p-sdk/core/ChibiOS/os/kernel/src/chmemcore.c"
  48              		.loc 1 67 0
  49              		.cfi_startproc
  50              		@ args = 0, pretend = 0, frame = 0
  51              		@ frame_needed = 0, uses_anonymous_args = 0
  52              		@ link register save eliminated.
  53              		.loc 1 71 0
  54 0000 064B     		ldr	r3, .L2
  55 0002 0733     		adds	r3, r3, #7
  56 0004 23F00703 		bic	r3, r3, #7
  57 0008 1A46     		mov	r2, r3
ARM GAS  /tmp/ccAxjfy9.s 			page 2


  58 000a 054B     		ldr	r3, .L2+4
  59 000c 1A60     		str	r2, [r3]
  60              		.loc 1 72 0
  61 000e 054B     		ldr	r3, .L2+8
  62 0010 23F00703 		bic	r3, r3, #7
  63 0014 1A46     		mov	r2, r3
  64 0016 044B     		ldr	r3, .L2+12
  65 0018 1A60     		str	r2, [r3]
  66              		.loc 1 78 0
  67 001a 7047     		bx	lr
  68              	.L3:
  69              		.align	2
  70              	.L2:
  71 001c 00000000 		.word	__heap_base__
  72 0020 00000000 		.word	nextmem
  73 0024 00000000 		.word	__heap_end__
  74 0028 00000000 		.word	endmem
  75              		.cfi_endproc
  76              	.LFE7:
  77              		.size	_core_init, .-_core_init
  78 002c AFF30080 		.section	.text.chCoreAlloc,"ax",%progbits
  79              		.align	2
  80              		.p2align 4,,15
  81              		.global	chCoreAlloc
  82              		.thumb
  83              		.thumb_func
  84              		.type	chCoreAlloc, %function
  85              	chCoreAlloc:
  86              	.LFB8:
  87              		.loc 1 92 0
  88              		.cfi_startproc
  89              		@ args = 0, pretend = 0, frame = 16
  90              		@ frame_needed = 0, uses_anonymous_args = 0
  91 0000 00B5     		push	{lr}
  92              		.cfi_def_cfa_offset 4
  93              		.cfi_offset 14, -4
  94 0002 85B0     		sub	sp, sp, #20
  95              		.cfi_def_cfa_offset 24
  96 0004 0190     		str	r0, [sp, #4]
  97              	.LBB2:
  98              		.loc 1 95 0
  99 0006 2023     		movs	r3, #32
 100              	@ 95 "/home/dave/r2p-sdk/core/ChibiOS/os/kernel/src/chmemcore.c" 1
 101 0008 83F31188 		msr     BASEPRI, r3
 102              	@ 0 "" 2
 103              		.thumb
 104              	.LBE2:
 105 000c FFF7FEFF 		bl	dbg_check_lock
 106              		.loc 1 96 0
 107 0010 0198     		ldr	r0, [sp, #4]
 108 0012 FFF7FEFF 		bl	chCoreAllocI
 109 0016 0390     		str	r0, [sp, #12]
 110              		.loc 1 97 0
 111 0018 FFF7FEFF 		bl	dbg_check_unlock
 112              	.LBB3:
 113 001c 0023     		movs	r3, #0
 114              	@ 97 "/home/dave/r2p-sdk/core/ChibiOS/os/kernel/src/chmemcore.c" 1
ARM GAS  /tmp/ccAxjfy9.s 			page 3


 115 001e 83F31188 		msr     BASEPRI, r3
 116              	@ 0 "" 2
 117              		.thumb
 118              	.LBE3:
 119              		.loc 1 98 0
 120 0022 039B     		ldr	r3, [sp, #12]
 121              		.loc 1 99 0
 122 0024 1846     		mov	r0, r3
 123 0026 05B0     		add	sp, sp, #20
 124              		@ sp needed
 125 0028 5DF804FB 		ldr	pc, [sp], #4
 126              		.cfi_endproc
 127              	.LFE8:
 128              		.size	chCoreAlloc, .-chCoreAlloc
 129 002c AFF30080 		.section	.text.chCoreAllocI,"ax",%progbits
 130              		.align	2
 131              		.p2align 4,,15
 132              		.global	chCoreAllocI
 133              		.thumb
 134              		.thumb_func
 135              		.type	chCoreAllocI, %function
 136              	chCoreAllocI:
 137              	.LFB9:
 138              		.loc 1 113 0
 139              		.cfi_startproc
 140              		@ args = 0, pretend = 0, frame = 16
 141              		@ frame_needed = 0, uses_anonymous_args = 0
 142 0000 00B5     		push	{lr}
 143              		.cfi_def_cfa_offset 4
 144              		.cfi_offset 14, -4
 145 0002 85B0     		sub	sp, sp, #20
 146              		.cfi_def_cfa_offset 24
 147 0004 0190     		str	r0, [sp, #4]
 148              		.loc 1 116 0
 149 0006 FFF7FEFF 		bl	chDbgCheckClassI
 150              		.loc 1 118 0
 151 000a 019B     		ldr	r3, [sp, #4]
 152 000c 0733     		adds	r3, r3, #7
 153 000e 23F00703 		bic	r3, r3, #7
 154 0012 0193     		str	r3, [sp, #4]
 155              		.loc 1 119 0
 156 0014 0C4B     		ldr	r3, .L9
 157 0016 1B68     		ldr	r3, [r3]
 158 0018 1A46     		mov	r2, r3
 159 001a 0C4B     		ldr	r3, .L9+4
 160 001c 1B68     		ldr	r3, [r3]
 161 001e D31A     		subs	r3, r2, r3
 162 0020 1A46     		mov	r2, r3
 163 0022 019B     		ldr	r3, [sp, #4]
 164 0024 9A42     		cmp	r2, r3
 165 0026 01D2     		bcs	.L7
 166              		.loc 1 120 0
 167 0028 0023     		movs	r3, #0
 168 002a 09E0     		b	.L8
 169              	.L7:
 170              		.loc 1 121 0
 171 002c 074B     		ldr	r3, .L9+4
ARM GAS  /tmp/ccAxjfy9.s 			page 4


 172 002e 1B68     		ldr	r3, [r3]
 173 0030 0393     		str	r3, [sp, #12]
 174              		.loc 1 122 0
 175 0032 064B     		ldr	r3, .L9+4
 176 0034 1A68     		ldr	r2, [r3]
 177 0036 019B     		ldr	r3, [sp, #4]
 178 0038 1A44     		add	r2, r2, r3
 179 003a 044B     		ldr	r3, .L9+4
 180 003c 1A60     		str	r2, [r3]
 181              		.loc 1 123 0
 182 003e 039B     		ldr	r3, [sp, #12]
 183              	.L8:
 184              		.loc 1 124 0
 185 0040 1846     		mov	r0, r3
 186 0042 05B0     		add	sp, sp, #20
 187              		@ sp needed
 188 0044 5DF804FB 		ldr	pc, [sp], #4
 189              	.L10:
 190              		.align	2
 191              	.L9:
 192 0048 00000000 		.word	endmem
 193 004c 00000000 		.word	nextmem
 194              		.cfi_endproc
 195              	.LFE9:
 196              		.size	chCoreAllocI, .-chCoreAllocI
 197              		.section	.text.chCoreStatus,"ax",%progbits
 198              		.align	2
 199              		.p2align 4,,15
 200              		.global	chCoreStatus
 201              		.thumb
 202              		.thumb_func
 203              		.type	chCoreStatus, %function
 204              	chCoreStatus:
 205              	.LFB10:
 206              		.loc 1 133 0
 207              		.cfi_startproc
 208              		@ args = 0, pretend = 0, frame = 0
 209              		@ frame_needed = 0, uses_anonymous_args = 0
 210              		@ link register save eliminated.
 211              		.loc 1 135 0
 212 0000 034B     		ldr	r3, .L13
 213 0002 1B68     		ldr	r3, [r3]
 214 0004 1A46     		mov	r2, r3
 215 0006 034B     		ldr	r3, .L13+4
 216 0008 1B68     		ldr	r3, [r3]
 217 000a D31A     		subs	r3, r2, r3
 218              		.loc 1 136 0
 219 000c 1846     		mov	r0, r3
 220 000e 7047     		bx	lr
 221              	.L14:
 222              		.align	2
 223              	.L13:
 224 0010 00000000 		.word	endmem
 225 0014 00000000 		.word	nextmem
 226              		.cfi_endproc
 227              	.LFE10:
 228              		.size	chCoreStatus, .-chCoreStatus
ARM GAS  /tmp/ccAxjfy9.s 			page 5


 229 0018 AFF30080 		.section	.text.chCoreReserve,"ax",%progbits
 229      AFF30080 
 230              		.align	2
 231              		.p2align 4,,15
 232              		.global	chCoreReserve
 233              		.thumb
 234              		.thumb_func
 235              		.type	chCoreReserve, %function
 236              	chCoreReserve:
 237              	.LFB11:
 238              		.loc 1 138 0
 239              		.cfi_startproc
 240              		@ args = 0, pretend = 0, frame = 16
 241              		@ frame_needed = 0, uses_anonymous_args = 0
 242 0000 00B5     		push	{lr}
 243              		.cfi_def_cfa_offset 4
 244              		.cfi_offset 14, -4
 245 0002 85B0     		sub	sp, sp, #20
 246              		.cfi_def_cfa_offset 24
 247 0004 0190     		str	r0, [sp, #4]
 248              	.LBB4:
 249              		.loc 1 141 0
 250 0006 2023     		movs	r3, #32
 251              	@ 141 "/home/dave/r2p-sdk/core/ChibiOS/os/kernel/src/chmemcore.c" 1
 252 0008 83F31188 		msr     BASEPRI, r3
 253              	@ 0 "" 2
 254              		.thumb
 255              	.LBE4:
 256 000c FFF7FEFF 		bl	dbg_check_lock
 257              		.loc 1 142 0
 258 0010 0198     		ldr	r0, [sp, #4]
 259 0012 FFF7FEFF 		bl	chCoreReserveI
 260 0016 0390     		str	r0, [sp, #12]
 261              		.loc 1 143 0
 262 0018 FFF7FEFF 		bl	dbg_check_unlock
 263              	.LBB5:
 264 001c 0023     		movs	r3, #0
 265              	@ 143 "/home/dave/r2p-sdk/core/ChibiOS/os/kernel/src/chmemcore.c" 1
 266 001e 83F31188 		msr     BASEPRI, r3
 267              	@ 0 "" 2
 268              		.thumb
 269              	.LBE5:
 270              		.loc 1 144 0
 271 0022 039B     		ldr	r3, [sp, #12]
 272              		.loc 1 145 0
 273 0024 1846     		mov	r0, r3
 274 0026 05B0     		add	sp, sp, #20
 275              		@ sp needed
 276 0028 5DF804FB 		ldr	pc, [sp], #4
 277              		.cfi_endproc
 278              	.LFE11:
 279              		.size	chCoreReserve, .-chCoreReserve
 280 002c AFF30080 		.section	.text.chCoreReserveI,"ax",%progbits
 281              		.align	2
 282              		.p2align 4,,15
 283              		.global	chCoreReserveI
 284              		.thumb
ARM GAS  /tmp/ccAxjfy9.s 			page 6


 285              		.thumb_func
 286              		.type	chCoreReserveI, %function
 287              	chCoreReserveI:
 288              	.LFB12:
 289              		.loc 1 147 0
 290              		.cfi_startproc
 291              		@ args = 0, pretend = 0, frame = 8
 292              		@ frame_needed = 0, uses_anonymous_args = 0
 293 0000 00B5     		push	{lr}
 294              		.cfi_def_cfa_offset 4
 295              		.cfi_offset 14, -4
 296 0002 83B0     		sub	sp, sp, #12
 297              		.cfi_def_cfa_offset 16
 298 0004 0190     		str	r0, [sp, #4]
 299              		.loc 1 149 0
 300 0006 FFF7FEFF 		bl	chDbgCheckClassI
 301              		.loc 1 151 0
 302 000a 019B     		ldr	r3, [sp, #4]
 303 000c 0733     		adds	r3, r3, #7
 304 000e 23F00703 		bic	r3, r3, #7
 305 0012 0193     		str	r3, [sp, #4]
 306              		.loc 1 152 0
 307 0014 0C4B     		ldr	r3, .L20
 308 0016 1B68     		ldr	r3, [r3]
 309 0018 1A46     		mov	r2, r3
 310 001a 0C4B     		ldr	r3, .L20+4
 311 001c 1B68     		ldr	r3, [r3]
 312 001e D31A     		subs	r3, r2, r3
 313 0020 1A46     		mov	r2, r3
 314 0022 019B     		ldr	r3, [sp, #4]
 315 0024 9A42     		cmp	r2, r3
 316 0026 01D2     		bcs	.L18
 317              		.loc 1 153 0
 318 0028 0023     		movs	r3, #0
 319 002a 08E0     		b	.L19
 320              	.L18:
 321              		.loc 1 154 0
 322 002c 064B     		ldr	r3, .L20
 323 002e 1A68     		ldr	r2, [r3]
 324 0030 019B     		ldr	r3, [sp, #4]
 325 0032 5B42     		negs	r3, r3
 326 0034 1A44     		add	r2, r2, r3
 327 0036 044B     		ldr	r3, .L20
 328 0038 1A60     		str	r2, [r3]
 329              		.loc 1 155 0
 330 003a 034B     		ldr	r3, .L20
 331 003c 1B68     		ldr	r3, [r3]
 332              	.L19:
 333              		.loc 1 156 0
 334 003e 1846     		mov	r0, r3
 335 0040 03B0     		add	sp, sp, #12
 336              		@ sp needed
 337 0042 5DF804FB 		ldr	pc, [sp], #4
 338              	.L21:
 339 0046 00BF     		.align	2
 340              	.L20:
 341 0048 00000000 		.word	endmem
ARM GAS  /tmp/ccAxjfy9.s 			page 7


 342 004c 00000000 		.word	nextmem
 343              		.cfi_endproc
 344              	.LFE12:
 345              		.size	chCoreReserveI, .-chCoreReserveI
 346              		.section	.text.chCoreUnreserve,"ax",%progbits
 347              		.align	2
 348              		.p2align 4,,15
 349              		.global	chCoreUnreserve
 350              		.thumb
 351              		.thumb_func
 352              		.type	chCoreUnreserve, %function
 353              	chCoreUnreserve:
 354              	.LFB13:
 355              		.loc 1 158 0
 356              		.cfi_startproc
 357              		@ args = 0, pretend = 0, frame = 16
 358              		@ frame_needed = 0, uses_anonymous_args = 0
 359 0000 00B5     		push	{lr}
 360              		.cfi_def_cfa_offset 4
 361              		.cfi_offset 14, -4
 362 0002 85B0     		sub	sp, sp, #20
 363              		.cfi_def_cfa_offset 24
 364 0004 0190     		str	r0, [sp, #4]
 365              	.LBB6:
 366              		.loc 1 161 0
 367 0006 2023     		movs	r3, #32
 368              	@ 161 "/home/dave/r2p-sdk/core/ChibiOS/os/kernel/src/chmemcore.c" 1
 369 0008 83F31188 		msr     BASEPRI, r3
 370              	@ 0 "" 2
 371              		.thumb
 372              	.LBE6:
 373 000c FFF7FEFF 		bl	dbg_check_lock
 374              		.loc 1 162 0
 375 0010 0198     		ldr	r0, [sp, #4]
 376 0012 FFF7FEFF 		bl	chCoreUnreserveI
 377 0016 0390     		str	r0, [sp, #12]
 378              		.loc 1 163 0
 379 0018 FFF7FEFF 		bl	dbg_check_unlock
 380              	.LBB7:
 381 001c 0023     		movs	r3, #0
 382              	@ 163 "/home/dave/r2p-sdk/core/ChibiOS/os/kernel/src/chmemcore.c" 1
 383 001e 83F31188 		msr     BASEPRI, r3
 384              	@ 0 "" 2
 385              		.thumb
 386              	.LBE7:
 387              		.loc 1 164 0
 388 0022 039B     		ldr	r3, [sp, #12]
 389              		.loc 1 165 0
 390 0024 1846     		mov	r0, r3
 391 0026 05B0     		add	sp, sp, #20
 392              		@ sp needed
 393 0028 5DF804FB 		ldr	pc, [sp], #4
 394              		.cfi_endproc
 395              	.LFE13:
 396              		.size	chCoreUnreserve, .-chCoreUnreserve
 397 002c AFF30080 		.section	.text.chCoreUnreserveI,"ax",%progbits
 398              		.align	2
ARM GAS  /tmp/ccAxjfy9.s 			page 8


 399              		.p2align 4,,15
 400              		.global	chCoreUnreserveI
 401              		.thumb
 402              		.thumb_func
 403              		.type	chCoreUnreserveI, %function
 404              	chCoreUnreserveI:
 405              	.LFB14:
 406              		.loc 1 167 0
 407              		.cfi_startproc
 408              		@ args = 0, pretend = 0, frame = 8
 409              		@ frame_needed = 0, uses_anonymous_args = 0
 410 0000 00B5     		push	{lr}
 411              		.cfi_def_cfa_offset 4
 412              		.cfi_offset 14, -4
 413 0002 83B0     		sub	sp, sp, #12
 414              		.cfi_def_cfa_offset 16
 415 0004 0190     		str	r0, [sp, #4]
 416              		.loc 1 169 0
 417 0006 FFF7FEFF 		bl	chDbgCheckClassI
 418              		.loc 1 171 0
 419 000a 019B     		ldr	r3, [sp, #4]
 420 000c 0733     		adds	r3, r3, #7
 421 000e 23F00703 		bic	r3, r3, #7
 422 0012 0193     		str	r3, [sp, #4]
 423              		.loc 1 172 0
 424 0014 0B4B     		ldr	r3, .L27
 425 0016 1B68     		ldr	r3, [r3]
 426 0018 1A46     		mov	r2, r3
 427 001a 0B4B     		ldr	r3, .L27+4
 428 001c 1B68     		ldr	r3, [r3]
 429 001e D31A     		subs	r3, r2, r3
 430 0020 1A46     		mov	r2, r3
 431 0022 019B     		ldr	r3, [sp, #4]
 432 0024 9A42     		cmp	r2, r3
 433 0026 01D2     		bcs	.L25
 434              		.loc 1 173 0
 435 0028 0023     		movs	r3, #0
 436 002a 07E0     		b	.L26
 437              	.L25:
 438              		.loc 1 174 0
 439 002c 064B     		ldr	r3, .L27+4
 440 002e 1A68     		ldr	r2, [r3]
 441 0030 019B     		ldr	r3, [sp, #4]
 442 0032 1A44     		add	r2, r2, r3
 443 0034 044B     		ldr	r3, .L27+4
 444 0036 1A60     		str	r2, [r3]
 445              		.loc 1 175 0
 446 0038 034B     		ldr	r3, .L27+4
 447 003a 1B68     		ldr	r3, [r3]
 448              	.L26:
 449              		.loc 1 176 0
 450 003c 1846     		mov	r0, r3
 451 003e 03B0     		add	sp, sp, #12
 452              		@ sp needed
 453 0040 5DF804FB 		ldr	pc, [sp], #4
 454              	.L28:
 455              		.align	2
ARM GAS  /tmp/ccAxjfy9.s 			page 9


 456              	.L27:
 457 0044 00000000 		.word	realendmem
 458 0048 00000000 		.word	endmem
 459              		.cfi_endproc
 460              	.LFE14:
 461              		.size	chCoreUnreserveI, .-chCoreUnreserveI
 462 004c AFF30080 		.text
 463              	.Letext0:
 464              		.file 2 "/usr/lib/gcc/arm-none-eabi/4.8/include/stddef.h"
 465              		.file 3 "/usr/include/newlib/machine/_default_types.h"
 466              		.file 4 "/usr/include/newlib/stdint.h"