ARM GAS  /tmp/ccUBR7C3.s 			page 1


   1              		.syntax unified
   2              		.cpu cortex-m4
   3              		.eabi_attribute 27, 3
   4              		.eabi_attribute 28, 1
   5              		.fpu fpv4-sp-d16
   6              		.eabi_attribute 20, 1
   7              		.eabi_attribute 21, 1
   8              		.eabi_attribute 23, 3
   9              		.eabi_attribute 24, 1
  10              		.eabi_attribute 25, 1
  11              		.eabi_attribute 26, 1
  12              		.eabi_attribute 30, 6
  13              		.eabi_attribute 34, 1
  14              		.eabi_attribute 18, 4
  15              		.thumb
  16              		.file	"chmsg.c"
  17              		.text
  18              	.Ltext0:
  19              		.cfi_sections	.debug_frame
  20              		.section	.text.queue_insert,"ax",%progbits
  21              		.align	2
  22              		.p2align 4,,15
  23              		.thumb
  24              		.thumb_func
  25              		.type	queue_insert, %function
  26              	queue_insert:
  27              	.LFB1:
  28              		.file 1 "/home/dave/r2p-sdk/core/ChibiOS/os/kernel/include/chinline.h"
  29              		.loc 1 52 0
  30              		.cfi_startproc
  31              		@ args = 0, pretend = 0, frame = 8
  32              		@ frame_needed = 0, uses_anonymous_args = 0
  33              		@ link register save eliminated.
  34 0000 82B0     		sub	sp, sp, #8
  35              		.cfi_def_cfa_offset 8
  36 0002 0190     		str	r0, [sp, #4]
  37 0004 0091     		str	r1, [sp]
  38              		.loc 1 54 0
  39 0006 019B     		ldr	r3, [sp, #4]
  40 0008 009A     		ldr	r2, [sp]
  41 000a 1A60     		str	r2, [r3]
  42              		.loc 1 55 0
  43 000c 009B     		ldr	r3, [sp]
  44 000e 5A68     		ldr	r2, [r3, #4]
  45 0010 019B     		ldr	r3, [sp, #4]
  46 0012 5A60     		str	r2, [r3, #4]
  47              		.loc 1 56 0
  48 0014 019B     		ldr	r3, [sp, #4]
  49 0016 5B68     		ldr	r3, [r3, #4]
  50 0018 009A     		ldr	r2, [sp]
  51 001a 0199     		ldr	r1, [sp, #4]
  52 001c 5160     		str	r1, [r2, #4]
  53 001e 009A     		ldr	r2, [sp]
  54 0020 5268     		ldr	r2, [r2, #4]
  55 0022 1A60     		str	r2, [r3]
  56              		.loc 1 57 0
  57 0024 02B0     		add	sp, sp, #8
ARM GAS  /tmp/ccUBR7C3.s 			page 2


  58              		@ sp needed
  59 0026 7047     		bx	lr
  60              		.cfi_endproc
  61              	.LFE1:
  62              		.size	queue_insert, .-queue_insert
  63 0028 AFF30080 		.section	.text.fifo_remove,"ax",%progbits
  63      AFF30080 
  64              		.align	2
  65              		.p2align 4,,15
  66              		.thumb
  67              		.thumb_func
  68              		.type	fifo_remove, %function
  69              	fifo_remove:
  70              	.LFB2:
  71              		.loc 1 59 0
  72              		.cfi_startproc
  73              		@ args = 0, pretend = 0, frame = 16
  74              		@ frame_needed = 0, uses_anonymous_args = 0
  75              		@ link register save eliminated.
  76 0000 84B0     		sub	sp, sp, #16
  77              		.cfi_def_cfa_offset 16
  78 0002 0190     		str	r0, [sp, #4]
  79              		.loc 1 60 0
  80 0004 019B     		ldr	r3, [sp, #4]
  81 0006 1B68     		ldr	r3, [r3]
  82 0008 0393     		str	r3, [sp, #12]
  83              		.loc 1 62 0
  84 000a 039B     		ldr	r3, [sp, #12]
  85 000c 1A68     		ldr	r2, [r3]
  86 000e 019B     		ldr	r3, [sp, #4]
  87 0010 1A60     		str	r2, [r3]
  88 0012 019B     		ldr	r3, [sp, #4]
  89 0014 1B68     		ldr	r3, [r3]
  90 0016 019A     		ldr	r2, [sp, #4]
  91 0018 5A60     		str	r2, [r3, #4]
  92              		.loc 1 63 0
  93 001a 039B     		ldr	r3, [sp, #12]
  94              		.loc 1 64 0
  95 001c 1846     		mov	r0, r3
  96 001e 04B0     		add	sp, sp, #16
  97              		@ sp needed
  98 0020 7047     		bx	lr
  99              		.cfi_endproc
 100              	.LFE2:
 101              		.size	fifo_remove, .-fifo_remove
 102 0022 00BFAFF3 		.section	.rodata
 102      0080AFF3 
 102      0080AFF3 
 102      0080
 103              		.align	2
 104              	.LC0:
 105 0000 2263684D 		.ascii	"\"chMsgSend\"()\000"
 105      73675365 
 105      6E642228 
 105      2900
 106              		.section	.text.chMsgSend,"ax",%progbits
 107              		.align	2
ARM GAS  /tmp/ccUBR7C3.s 			page 3


 108              		.p2align 4,,15
 109              		.global	chMsgSend
 110              		.thumb
 111              		.thumb_func
 112              		.type	chMsgSend, %function
 113              	chMsgSend:
 114              	.LFB7:
 115              		.file 2 "/home/dave/r2p-sdk/core/ChibiOS/os/kernel/src/chmsg.c"
 116              		.loc 2 75 0
 117              		.cfi_startproc
 118              		@ args = 0, pretend = 0, frame = 16
 119              		@ frame_needed = 0, uses_anonymous_args = 0
 120 0000 00B5     		push	{lr}
 121              		.cfi_def_cfa_offset 4
 122              		.cfi_offset 14, -4
 123 0002 85B0     		sub	sp, sp, #20
 124              		.cfi_def_cfa_offset 24
 125 0004 0190     		str	r0, [sp, #4]
 126 0006 0091     		str	r1, [sp]
 127              		.loc 2 76 0
 128 0008 194B     		ldr	r3, .L8
 129 000a 9B69     		ldr	r3, [r3, #24]
 130 000c 0393     		str	r3, [sp, #12]
 131              		.loc 2 78 0
 132 000e 019B     		ldr	r3, [sp, #4]
 133 0010 002B     		cmp	r3, #0
 134 0012 02D1     		bne	.L5
 135              		.loc 2 78 0 is_stmt 0 discriminator 1
 136 0014 1748     		ldr	r0, .L8+4
 137 0016 FFF7FEFF 		bl	chDbgPanic
 138              	.L5:
 139              	.LBB2:
 140              		.loc 2 80 0 is_stmt 1
 141 001a 2023     		movs	r3, #32
 142              	@ 80 "/home/dave/r2p-sdk/core/ChibiOS/os/kernel/src/chmsg.c" 1
 143 001c 83F31188 		msr     BASEPRI, r3
 144              	@ 0 "" 2
 145              		.thumb
 146              	.LBE2:
 147 0020 FFF7FEFF 		bl	dbg_check_lock
 148              		.loc 2 81 0
 149 0024 039B     		ldr	r3, [sp, #12]
 150 0026 009A     		ldr	r2, [sp]
 151 0028 9A63     		str	r2, [r3, #56]
 152              		.loc 2 82 0
 153 002a 019B     		ldr	r3, [sp, #4]
 154 002c 03F13002 		add	r2, r3, #48
 155 0030 039B     		ldr	r3, [sp, #12]
 156 0032 9A62     		str	r2, [r3, #40]
 157              		.loc 2 83 0
 158 0034 019B     		ldr	r3, [sp, #4]
 159 0036 3033     		adds	r3, r3, #48
 160 0038 0398     		ldr	r0, [sp, #12]
 161 003a 1946     		mov	r1, r3
 162 003c FFF7FEFF 		bl	queue_insert
 163              		.loc 2 84 0
 164 0040 019B     		ldr	r3, [sp, #4]
ARM GAS  /tmp/ccUBR7C3.s 			page 4


 165 0042 93F82030 		ldrb	r3, [r3, #32]	@ zero_extendqisi2
 166 0046 0C2B     		cmp	r3, #12
 167 0048 02D1     		bne	.L6
 168              		.loc 2 85 0
 169 004a 0198     		ldr	r0, [sp, #4]
 170 004c FFF7FEFF 		bl	chSchReadyI
 171              	.L6:
 172              		.loc 2 86 0
 173 0050 0A20     		movs	r0, #10
 174 0052 FFF7FEFF 		bl	chSchGoSleepS
 175              		.loc 2 87 0
 176 0056 039B     		ldr	r3, [sp, #12]
 177 0058 9B6A     		ldr	r3, [r3, #40]
 178 005a 0093     		str	r3, [sp]
 179              		.loc 2 88 0
 180 005c FFF7FEFF 		bl	dbg_check_unlock
 181              	.LBB3:
 182 0060 0023     		movs	r3, #0
 183              	@ 88 "/home/dave/r2p-sdk/core/ChibiOS/os/kernel/src/chmsg.c" 1
 184 0062 83F31188 		msr     BASEPRI, r3
 185              	@ 0 "" 2
 186              		.thumb
 187              	.LBE3:
 188              		.loc 2 89 0
 189 0066 009B     		ldr	r3, [sp]
 190              		.loc 2 90 0
 191 0068 1846     		mov	r0, r3
 192 006a 05B0     		add	sp, sp, #20
 193              		@ sp needed
 194 006c 5DF804FB 		ldr	pc, [sp], #4
 195              	.L9:
 196              		.align	2
 197              	.L8:
 198 0070 00000000 		.word	rlist
 199 0074 00000000 		.word	.LC0
 200              		.cfi_endproc
 201              	.LFE7:
 202              		.size	chMsgSend, .-chMsgSend
 203 0078 AFF30080 		.section	.text.chMsgWait,"ax",%progbits
 203      AFF30080 
 204              		.align	2
 205              		.p2align 4,,15
 206              		.global	chMsgWait
 207              		.thumb
 208              		.thumb_func
 209              		.type	chMsgWait, %function
 210              	chMsgWait:
 211              	.LFB8:
 212              		.loc 2 106 0
 213              		.cfi_startproc
 214              		@ args = 0, pretend = 0, frame = 8
 215              		@ frame_needed = 0, uses_anonymous_args = 0
 216 0000 00B5     		push	{lr}
 217              		.cfi_def_cfa_offset 4
 218              		.cfi_offset 14, -4
 219 0002 83B0     		sub	sp, sp, #12
 220              		.cfi_def_cfa_offset 16
ARM GAS  /tmp/ccUBR7C3.s 			page 5


 221              	.LBB4:
 222              		.loc 2 109 0
 223 0004 2023     		movs	r3, #32
 224              	@ 109 "/home/dave/r2p-sdk/core/ChibiOS/os/kernel/src/chmsg.c" 1
 225 0006 83F31188 		msr     BASEPRI, r3
 226              	@ 0 "" 2
 227              		.thumb
 228              	.LBE4:
 229 000a FFF7FEFF 		bl	dbg_check_lock
 230              		.loc 2 110 0
 231 000e 104B     		ldr	r3, .L13
 232 0010 9B69     		ldr	r3, [r3, #24]
 233 0012 1A6B     		ldr	r2, [r3, #48]
 234 0014 0E4B     		ldr	r3, .L13
 235 0016 9B69     		ldr	r3, [r3, #24]
 236 0018 3033     		adds	r3, r3, #48
 237 001a 9A42     		cmp	r2, r3
 238 001c 02D1     		bne	.L11
 239              		.loc 2 111 0
 240 001e 0C20     		movs	r0, #12
 241 0020 FFF7FEFF 		bl	chSchGoSleepS
 242              	.L11:
 243              		.loc 2 112 0
 244 0024 0A4B     		ldr	r3, .L13
 245 0026 9B69     		ldr	r3, [r3, #24]
 246 0028 3033     		adds	r3, r3, #48
 247 002a 1846     		mov	r0, r3
 248 002c FFF7FEFF 		bl	fifo_remove
 249 0030 0190     		str	r0, [sp, #4]
 250              		.loc 2 113 0
 251 0032 019B     		ldr	r3, [sp, #4]
 252 0034 0B22     		movs	r2, #11
 253 0036 83F82020 		strb	r2, [r3, #32]
 254              		.loc 2 114 0
 255 003a FFF7FEFF 		bl	dbg_check_unlock
 256              	.LBB5:
 257 003e 0023     		movs	r3, #0
 258              	@ 114 "/home/dave/r2p-sdk/core/ChibiOS/os/kernel/src/chmsg.c" 1
 259 0040 83F31188 		msr     BASEPRI, r3
 260              	@ 0 "" 2
 261              		.thumb
 262              	.LBE5:
 263              		.loc 2 115 0
 264 0044 019B     		ldr	r3, [sp, #4]
 265              		.loc 2 116 0
 266 0046 1846     		mov	r0, r3
 267 0048 03B0     		add	sp, sp, #12
 268              		@ sp needed
 269 004a 5DF804FB 		ldr	pc, [sp], #4
 270              	.L14:
 271 004e 00BF     		.align	2
 272              	.L13:
 273 0050 00000000 		.word	rlist
 274              		.cfi_endproc
 275              	.LFE8:
 276              		.size	chMsgWait, .-chMsgWait
 277 0054 AFF30080 		.section	.rodata
ARM GAS  /tmp/ccUBR7C3.s 			page 6


 277      AFF30080 
 277      AFF30080 
 278 000e 0000     		.align	2
 279              	.LC1:
 280 0010 63684D73 		.ascii	"chMsgRelease(), #1\000"
 280      6752656C 
 280      65617365 
 280      28292C20 
 280      233100
 281 0023 00       		.section	.text.chMsgRelease,"ax",%progbits
 282              		.align	2
 283              		.p2align 4,,15
 284              		.global	chMsgRelease
 285              		.thumb
 286              		.thumb_func
 287              		.type	chMsgRelease, %function
 288              	chMsgRelease:
 289              	.LFB9:
 290              		.loc 2 128 0
 291              		.cfi_startproc
 292              		@ args = 0, pretend = 0, frame = 8
 293              		@ frame_needed = 0, uses_anonymous_args = 0
 294 0000 00B5     		push	{lr}
 295              		.cfi_def_cfa_offset 4
 296              		.cfi_offset 14, -4
 297 0002 83B0     		sub	sp, sp, #12
 298              		.cfi_def_cfa_offset 16
 299 0004 0190     		str	r0, [sp, #4]
 300 0006 0091     		str	r1, [sp]
 301              	.LBB6:
 302              		.loc 2 130 0
 303 0008 2023     		movs	r3, #32
 304              	@ 130 "/home/dave/r2p-sdk/core/ChibiOS/os/kernel/src/chmsg.c" 1
 305 000a 83F31188 		msr     BASEPRI, r3
 306              	@ 0 "" 2
 307              		.thumb
 308              	.LBE6:
 309 000e FFF7FEFF 		bl	dbg_check_lock
 310              		.loc 2 131 0
 311 0012 019B     		ldr	r3, [sp, #4]
 312 0014 93F82030 		ldrb	r3, [r3, #32]	@ zero_extendqisi2
 313 0018 0B2B     		cmp	r3, #11
 314 001a 02D0     		beq	.L16
 315              		.loc 2 131 0 is_stmt 0 discriminator 1
 316 001c 0748     		ldr	r0, .L17
 317 001e FFF7FEFF 		bl	chDbgPanic
 318              	.L16:
 319              		.loc 2 133 0 is_stmt 1
 320 0022 0198     		ldr	r0, [sp, #4]
 321 0024 0099     		ldr	r1, [sp]
 322 0026 FFF7FEFF 		bl	chSchWakeupS
 323              		.loc 2 134 0
 324 002a FFF7FEFF 		bl	dbg_check_unlock
 325              	.LBB7:
 326 002e 0023     		movs	r3, #0
 327              	@ 134 "/home/dave/r2p-sdk/core/ChibiOS/os/kernel/src/chmsg.c" 1
 328 0030 83F31188 		msr     BASEPRI, r3
ARM GAS  /tmp/ccUBR7C3.s 			page 7


 329              	@ 0 "" 2
 330              		.thumb
 331              	.LBE7:
 332              		.loc 2 135 0
 333 0034 03B0     		add	sp, sp, #12
 334              		@ sp needed
 335 0036 5DF804FB 		ldr	pc, [sp], #4
 336              	.L18:
 337 003a 00BF     		.align	2
 338              	.L17:
 339 003c 10000000 		.word	.LC1
 340              		.cfi_endproc
 341              	.LFE9:
 342              		.size	chMsgRelease, .-chMsgRelease
 343              		.text
 344              	.Letext0:
 345              		.file 3 "/usr/include/newlib/machine/_default_types.h"
 346              		.file 4 "/usr/include/newlib/stdint.h"
 347              		.file 5 "/home/dave/r2p-sdk/core/ChibiOS/os/ports/GCC/ARMCMx/chtypes.h"
 348              		.file 6 "/home/dave/r2p-sdk/core/ChibiOS/os/kernel/include/chlists.h"
 349              		.file 7 "/home/dave/r2p-sdk/core/ChibiOS/os/kernel/include/chthreads.h"
 350              		.file 8 "/home/dave/r2p-sdk/core/ChibiOS/os/ports/GCC/ARMCMx/chcore_v7m.h"
 351              		.file 9 "/home/dave/r2p-sdk/core/ChibiOS/os/kernel/include/chschd.h"
 352              		.file 10 "/home/dave/r2p-sdk/core/ChibiOS/os/kernel/include/chmtx.h"
 353              		.section	.debug_info,"",%progbits
 354              	.Ldebug_info0:
 355 0000 AB060000 		.4byte	0x6ab
 356 0004 0400     		.2byte	0x4
 357 0006 00000000 		.4byte	.Ldebug_abbrev0
 358 000a 04       		.byte	0x4
 359 000b 01       		.uleb128 0x1
 360 000c 1B020000 		.4byte	.LASF72
 361 0010 01       		.byte	0x1
 362 0011 75000000 		.4byte	.LASF73
 363 0015 00000000 		.4byte	.Ldebug_ranges0+0
 364 0019 00000000 		.4byte	0
 365 001d 00000000 		.4byte	.Ldebug_line0
 366 0021 02       		.uleb128 0x2
 367 0022 04       		.byte	0x4
 368 0023 05       		.byte	0x5
 369 0024 696E7400 		.ascii	"int\000"
 370 0028 03       		.uleb128 0x3
 371 0029 04       		.byte	0x4
 372 002a 07       		.byte	0x7
 373 002b 01010000 		.4byte	.LASF0
 374 002f 03       		.uleb128 0x3
 375 0030 01       		.byte	0x1
 376 0031 06       		.byte	0x6
 377 0032 59000000 		.4byte	.LASF1
 378 0036 04       		.uleb128 0x4
 379 0037 23000000 		.4byte	.LASF5
 380 003b 03       		.byte	0x3
 381 003c 1D       		.byte	0x1d
 382 003d 41000000 		.4byte	0x41
 383 0041 03       		.uleb128 0x3
 384 0042 01       		.byte	0x1
 385 0043 08       		.byte	0x8
ARM GAS  /tmp/ccUBR7C3.s 			page 8


 386 0044 E0010000 		.4byte	.LASF2
 387 0048 03       		.uleb128 0x3
 388 0049 02       		.byte	0x2
 389 004a 05       		.byte	0x5
 390 004b F8010000 		.4byte	.LASF3
 391 004f 03       		.uleb128 0x3
 392 0050 02       		.byte	0x2
 393 0051 07       		.byte	0x7
 394 0052 28010000 		.4byte	.LASF4
 395 0056 04       		.uleb128 0x4
 396 0057 76030000 		.4byte	.LASF6
 397 005b 03       		.byte	0x3
 398 005c 3F       		.byte	0x3f
 399 005d 61000000 		.4byte	0x61
 400 0061 03       		.uleb128 0x3
 401 0062 04       		.byte	0x4
 402 0063 05       		.byte	0x5
 403 0064 B5000000 		.4byte	.LASF7
 404 0068 04       		.uleb128 0x4
 405 0069 E2000000 		.4byte	.LASF8
 406 006d 03       		.byte	0x3
 407 006e 41       		.byte	0x41
 408 006f 73000000 		.4byte	0x73
 409 0073 03       		.uleb128 0x3
 410 0074 04       		.byte	0x4
 411 0075 07       		.byte	0x7
 412 0076 0E010000 		.4byte	.LASF9
 413 007a 03       		.uleb128 0x3
 414 007b 08       		.byte	0x8
 415 007c 05       		.byte	0x5
 416 007d 4B000000 		.4byte	.LASF10
 417 0081 04       		.uleb128 0x4
 418 0082 B0010000 		.4byte	.LASF11
 419 0086 03       		.byte	0x3
 420 0087 5B       		.byte	0x5b
 421 0088 8C000000 		.4byte	0x8c
 422 008c 03       		.uleb128 0x3
 423 008d 08       		.byte	0x8
 424 008e 07       		.byte	0x7
 425 008f 2D000000 		.4byte	.LASF12
 426 0093 04       		.uleb128 0x4
 427 0094 BA030000 		.4byte	.LASF13
 428 0098 04       		.byte	0x4
 429 0099 2A       		.byte	0x2a
 430 009a 36000000 		.4byte	0x36
 431 009e 04       		.uleb128 0x4
 432 009f D8010000 		.4byte	.LASF14
 433 00a3 04       		.byte	0x4
 434 00a4 41       		.byte	0x41
 435 00a5 56000000 		.4byte	0x56
 436 00a9 04       		.uleb128 0x4
 437 00aa 38030000 		.4byte	.LASF15
 438 00ae 04       		.byte	0x4
 439 00af 42       		.byte	0x42
 440 00b0 68000000 		.4byte	0x68
 441 00b4 04       		.uleb128 0x4
 442 00b5 1A000000 		.4byte	.LASF16
ARM GAS  /tmp/ccUBR7C3.s 			page 9


 443 00b9 04       		.byte	0x4
 444 00ba 4E       		.byte	0x4e
 445 00bb 81000000 		.4byte	0x81
 446 00bf 03       		.uleb128 0x3
 447 00c0 01       		.byte	0x1
 448 00c1 02       		.byte	0x2
 449 00c2 D2010000 		.4byte	.LASF17
 450 00c6 04       		.uleb128 0x4
 451 00c7 49010000 		.4byte	.LASF18
 452 00cb 05       		.byte	0x5
 453 00cc 2C       		.byte	0x2c
 454 00cd 93000000 		.4byte	0x93
 455 00d1 04       		.uleb128 0x4
 456 00d2 C8000000 		.4byte	.LASF19
 457 00d6 05       		.byte	0x5
 458 00d7 2D       		.byte	0x2d
 459 00d8 93000000 		.4byte	0x93
 460 00dc 04       		.uleb128 0x4
 461 00dd BB010000 		.4byte	.LASF20
 462 00e1 05       		.byte	0x5
 463 00e2 2E       		.byte	0x2e
 464 00e3 93000000 		.4byte	0x93
 465 00e7 04       		.uleb128 0x4
 466 00e8 AB000000 		.4byte	.LASF21
 467 00ec 05       		.byte	0x5
 468 00ed 2F       		.byte	0x2f
 469 00ee 93000000 		.4byte	0x93
 470 00f2 04       		.uleb128 0x4
 471 00f3 CA010000 		.4byte	.LASF22
 472 00f7 05       		.byte	0x5
 473 00f8 30       		.byte	0x30
 474 00f9 A9000000 		.4byte	0xa9
 475 00fd 04       		.uleb128 0x4
 476 00fe 3B010000 		.4byte	.LASF23
 477 0102 05       		.byte	0x5
 478 0103 31       		.byte	0x31
 479 0104 9E000000 		.4byte	0x9e
 480 0108 04       		.uleb128 0x4
 481 0109 5D010000 		.4byte	.LASF24
 482 010d 05       		.byte	0x5
 483 010e 33       		.byte	0x33
 484 010f A9000000 		.4byte	0xa9
 485 0113 04       		.uleb128 0x4
 486 0114 61030000 		.4byte	.LASF25
 487 0118 05       		.byte	0x5
 488 0119 35       		.byte	0x35
 489 011a A9000000 		.4byte	0xa9
 490 011e 04       		.uleb128 0x4
 491 011f 19030000 		.4byte	.LASF26
 492 0123 06       		.byte	0x6
 493 0124 2A       		.byte	0x2a
 494 0125 29010000 		.4byte	0x129
 495 0129 05       		.uleb128 0x5
 496 012a 19030000 		.4byte	.LASF26
 497 012e 4C       		.byte	0x4c
 498 012f 07       		.byte	0x7
 499 0130 5E       		.byte	0x5e
ARM GAS  /tmp/ccUBR7C3.s 			page 10


 500 0131 32020000 		.4byte	0x232
 501 0135 06       		.uleb128 0x6
 502 0136 0A030000 		.4byte	.LASF27
 503 013a 07       		.byte	0x7
 504 013b 5F       		.byte	0x5f
 505 013c 53020000 		.4byte	0x253
 506 0140 00       		.byte	0
 507 0141 06       		.uleb128 0x6
 508 0142 C3010000 		.4byte	.LASF28
 509 0146 07       		.byte	0x7
 510 0147 61       		.byte	0x61
 511 0148 53020000 		.4byte	0x253
 512 014c 04       		.byte	0x4
 513 014d 06       		.uleb128 0x6
 514 014e 44000000 		.4byte	.LASF29
 515 0152 07       		.byte	0x7
 516 0153 63       		.byte	0x63
 517 0154 F2000000 		.4byte	0xf2
 518 0158 08       		.byte	0x8
 519 0159 06       		.uleb128 0x6
 520 015a DF030000 		.4byte	.LASF30
 521 015e 07       		.byte	0x7
 522 015f 64       		.byte	0x64
 523 0160 E8030000 		.4byte	0x3e8
 524 0164 0C       		.byte	0xc
 525 0165 06       		.uleb128 0x6
 526 0166 D1000000 		.4byte	.LASF31
 527 016a 07       		.byte	0x7
 528 016b 66       		.byte	0x66
 529 016c 53020000 		.4byte	0x253
 530 0170 10       		.byte	0x10
 531 0171 06       		.uleb128 0x6
 532 0172 83010000 		.4byte	.LASF32
 533 0176 07       		.byte	0x7
 534 0177 67       		.byte	0x67
 535 0178 53020000 		.4byte	0x253
 536 017c 14       		.byte	0x14
 537 017d 06       		.uleb128 0x6
 538 017e D0030000 		.4byte	.LASF33
 539 0182 07       		.byte	0x7
 540 0183 6E       		.byte	0x6e
 541 0184 E8040000 		.4byte	0x4e8
 542 0188 18       		.byte	0x18
 543 0189 06       		.uleb128 0x6
 544 018a F6000000 		.4byte	.LASF34
 545 018e 07       		.byte	0x7
 546 018f 74       		.byte	0x74
 547 0190 FA040000 		.4byte	0x4fa
 548 0194 1C       		.byte	0x1c
 549 0195 06       		.uleb128 0x6
 550 0196 02020000 		.4byte	.LASF35
 551 019a 07       		.byte	0x7
 552 019b 79       		.byte	0x79
 553 019c D1000000 		.4byte	0xd1
 554 01a0 20       		.byte	0x20
 555 01a1 06       		.uleb128 0x6
 556 01a2 11030000 		.4byte	.LASF36
ARM GAS  /tmp/ccUBR7C3.s 			page 11


 557 01a6 07       		.byte	0x7
 558 01a7 7D       		.byte	0x7d
 559 01a8 C6000000 		.4byte	0xc6
 560 01ac 21       		.byte	0x21
 561 01ad 06       		.uleb128 0x6
 562 01ae A3030000 		.4byte	.LASF37
 563 01b2 07       		.byte	0x7
 564 01b3 82       		.byte	0x82
 565 01b4 DC000000 		.4byte	0xdc
 566 01b8 22       		.byte	0x22
 567 01b9 06       		.uleb128 0x6
 568 01ba 0A020000 		.4byte	.LASF38
 569 01be 07       		.byte	0x7
 570 01bf 88       		.byte	0x88
 571 01c0 E7000000 		.4byte	0xe7
 572 01c4 23       		.byte	0x23
 573 01c5 06       		.uleb128 0x6
 574 01c6 80030000 		.4byte	.LASF39
 575 01ca 07       		.byte	0x7
 576 01cb 8F       		.byte	0x8f
 577 01cc 10040000 		.4byte	0x410
 578 01d0 24       		.byte	0x24
 579 01d1 07       		.uleb128 0x7
 580 01d2 705F7500 		.ascii	"p_u\000"
 581 01d6 07       		.byte	0x7
 582 01d7 B4       		.byte	0xb4
 583 01d8 B3040000 		.4byte	0x4b3
 584 01dc 28       		.byte	0x28
 585 01dd 06       		.uleb128 0x6
 586 01de E5030000 		.4byte	.LASF40
 587 01e2 07       		.byte	0x7
 588 01e3 B9       		.byte	0xb9
 589 01e4 79020000 		.4byte	0x279
 590 01e8 2C       		.byte	0x2c
 591 01e9 06       		.uleb128 0x6
 592 01ea 8E030000 		.4byte	.LASF41
 593 01ee 07       		.byte	0x7
 594 01ef BF       		.byte	0xbf
 595 01f0 59020000 		.4byte	0x259
 596 01f4 30       		.byte	0x30
 597 01f5 06       		.uleb128 0x6
 598 01f6 00000000 		.4byte	.LASF42
 599 01fa 07       		.byte	0x7
 600 01fb C3       		.byte	0xc3
 601 01fc FD000000 		.4byte	0xfd
 602 0200 38       		.byte	0x38
 603 0201 06       		.uleb128 0x6
 604 0202 2D030000 		.4byte	.LASF43
 605 0206 07       		.byte	0x7
 606 0207 C9       		.byte	0xc9
 607 0208 08010000 		.4byte	0x108
 608 020c 3C       		.byte	0x3c
 609 020d 06       		.uleb128 0x6
 610 020e EE010000 		.4byte	.LASF44
 611 0212 07       		.byte	0x7
 612 0213 D0       		.byte	0xd0
 613 0214 00050000 		.4byte	0x500
ARM GAS  /tmp/ccUBR7C3.s 			page 12


 614 0218 40       		.byte	0x40
 615 0219 06       		.uleb128 0x6
 616 021a 6B030000 		.4byte	.LASF45
 617 021e 07       		.byte	0x7
 618 021f D4       		.byte	0xd4
 619 0220 F2000000 		.4byte	0xf2
 620 0224 44       		.byte	0x44
 621 0225 06       		.uleb128 0x6
 622 0226 65000000 		.4byte	.LASF46
 623 022a 07       		.byte	0x7
 624 022b DA       		.byte	0xda
 625 022c 8F020000 		.4byte	0x28f
 626 0230 48       		.byte	0x48
 627 0231 00       		.byte	0
 628 0232 08       		.uleb128 0x8
 629 0233 08       		.byte	0x8
 630 0234 06       		.byte	0x6
 631 0235 61       		.byte	0x61
 632 0236 53020000 		.4byte	0x253
 633 023a 06       		.uleb128 0x6
 634 023b 0A030000 		.4byte	.LASF27
 635 023f 06       		.byte	0x6
 636 0240 62       		.byte	0x62
 637 0241 53020000 		.4byte	0x253
 638 0245 00       		.byte	0
 639 0246 06       		.uleb128 0x6
 640 0247 C3010000 		.4byte	.LASF28
 641 024b 06       		.byte	0x6
 642 024c 64       		.byte	0x64
 643 024d 53020000 		.4byte	0x253
 644 0251 04       		.byte	0x4
 645 0252 00       		.byte	0
 646 0253 09       		.uleb128 0x9
 647 0254 04       		.byte	0x4
 648 0255 1E010000 		.4byte	0x11e
 649 0259 04       		.uleb128 0x4
 650 025a 91010000 		.4byte	.LASF47
 651 025e 06       		.byte	0x6
 652 025f 66       		.byte	0x66
 653 0260 32020000 		.4byte	0x232
 654 0264 08       		.uleb128 0x8
 655 0265 04       		.byte	0x4
 656 0266 06       		.byte	0x6
 657 0267 6B       		.byte	0x6b
 658 0268 79020000 		.4byte	0x279
 659 026c 06       		.uleb128 0x6
 660 026d 0A030000 		.4byte	.LASF27
 661 0271 06       		.byte	0x6
 662 0272 6D       		.byte	0x6d
 663 0273 53020000 		.4byte	0x253
 664 0277 00       		.byte	0
 665 0278 00       		.byte	0
 666 0279 04       		.uleb128 0x4
 667 027a 51010000 		.4byte	.LASF48
 668 027e 06       		.byte	0x6
 669 027f 70       		.byte	0x70
 670 0280 64020000 		.4byte	0x264
ARM GAS  /tmp/ccUBR7C3.s 			page 13


 671 0284 04       		.uleb128 0x4
 672 0285 ED000000 		.4byte	.LASF49
 673 0289 08       		.byte	0x8
 674 028a E5       		.byte	0xe5
 675 028b 8F020000 		.4byte	0x28f
 676 028f 0A       		.uleb128 0xa
 677 0290 04       		.byte	0x4
 678 0291 04       		.uleb128 0x4
 679 0292 6F010000 		.4byte	.LASF50
 680 0296 08       		.byte	0x8
 681 0297 EB       		.byte	0xeb
 682 0298 B4000000 		.4byte	0xb4
 683 029c 0B       		.uleb128 0xb
 684 029d 87030000 		.4byte	.LASF51
 685 02a1 64       		.byte	0x64
 686 02a2 08       		.byte	0x8
 687 02a3 0C01     		.2byte	0x10c
 688 02a5 E8030000 		.4byte	0x3e8
 689 02a9 0C       		.uleb128 0xc
 690 02aa 73313600 		.ascii	"s16\000"
 691 02ae 08       		.byte	0x8
 692 02af 0E01     		.2byte	0x10e
 693 02b1 84020000 		.4byte	0x284
 694 02b5 00       		.byte	0
 695 02b6 0C       		.uleb128 0xc
 696 02b7 73313700 		.ascii	"s17\000"
 697 02bb 08       		.byte	0x8
 698 02bc 0F01     		.2byte	0x10f
 699 02be 84020000 		.4byte	0x284
 700 02c2 04       		.byte	0x4
 701 02c3 0C       		.uleb128 0xc
 702 02c4 73313800 		.ascii	"s18\000"
 703 02c8 08       		.byte	0x8
 704 02c9 1001     		.2byte	0x110
 705 02cb 84020000 		.4byte	0x284
 706 02cf 08       		.byte	0x8
 707 02d0 0C       		.uleb128 0xc
 708 02d1 73313900 		.ascii	"s19\000"
 709 02d5 08       		.byte	0x8
 710 02d6 1101     		.2byte	0x111
 711 02d8 84020000 		.4byte	0x284
 712 02dc 0C       		.byte	0xc
 713 02dd 0C       		.uleb128 0xc
 714 02de 73323000 		.ascii	"s20\000"
 715 02e2 08       		.byte	0x8
 716 02e3 1201     		.2byte	0x112
 717 02e5 84020000 		.4byte	0x284
 718 02e9 10       		.byte	0x10
 719 02ea 0C       		.uleb128 0xc
 720 02eb 73323100 		.ascii	"s21\000"
 721 02ef 08       		.byte	0x8
 722 02f0 1301     		.2byte	0x113
 723 02f2 84020000 		.4byte	0x284
 724 02f6 14       		.byte	0x14
 725 02f7 0C       		.uleb128 0xc
 726 02f8 73323200 		.ascii	"s22\000"
 727 02fc 08       		.byte	0x8
ARM GAS  /tmp/ccUBR7C3.s 			page 14


 728 02fd 1401     		.2byte	0x114
 729 02ff 84020000 		.4byte	0x284
 730 0303 18       		.byte	0x18
 731 0304 0C       		.uleb128 0xc
 732 0305 73323300 		.ascii	"s23\000"
 733 0309 08       		.byte	0x8
 734 030a 1501     		.2byte	0x115
 735 030c 84020000 		.4byte	0x284
 736 0310 1C       		.byte	0x1c
 737 0311 0C       		.uleb128 0xc
 738 0312 73323400 		.ascii	"s24\000"
 739 0316 08       		.byte	0x8
 740 0317 1601     		.2byte	0x116
 741 0319 84020000 		.4byte	0x284
 742 031d 20       		.byte	0x20
 743 031e 0C       		.uleb128 0xc
 744 031f 73323500 		.ascii	"s25\000"
 745 0323 08       		.byte	0x8
 746 0324 1701     		.2byte	0x117
 747 0326 84020000 		.4byte	0x284
 748 032a 24       		.byte	0x24
 749 032b 0C       		.uleb128 0xc
 750 032c 73323600 		.ascii	"s26\000"
 751 0330 08       		.byte	0x8
 752 0331 1801     		.2byte	0x118
 753 0333 84020000 		.4byte	0x284
 754 0337 28       		.byte	0x28
 755 0338 0C       		.uleb128 0xc
 756 0339 73323700 		.ascii	"s27\000"
 757 033d 08       		.byte	0x8
 758 033e 1901     		.2byte	0x119
 759 0340 84020000 		.4byte	0x284
 760 0344 2C       		.byte	0x2c
 761 0345 0C       		.uleb128 0xc
 762 0346 73323800 		.ascii	"s28\000"
 763 034a 08       		.byte	0x8
 764 034b 1A01     		.2byte	0x11a
 765 034d 84020000 		.4byte	0x284
 766 0351 30       		.byte	0x30
 767 0352 0C       		.uleb128 0xc
 768 0353 73323900 		.ascii	"s29\000"
 769 0357 08       		.byte	0x8
 770 0358 1B01     		.2byte	0x11b
 771 035a 84020000 		.4byte	0x284
 772 035e 34       		.byte	0x34
 773 035f 0C       		.uleb128 0xc
 774 0360 73333000 		.ascii	"s30\000"
 775 0364 08       		.byte	0x8
 776 0365 1C01     		.2byte	0x11c
 777 0367 84020000 		.4byte	0x284
 778 036b 38       		.byte	0x38
 779 036c 0C       		.uleb128 0xc
 780 036d 73333100 		.ascii	"s31\000"
 781 0371 08       		.byte	0x8
 782 0372 1D01     		.2byte	0x11d
 783 0374 84020000 		.4byte	0x284
 784 0378 3C       		.byte	0x3c
ARM GAS  /tmp/ccUBR7C3.s 			page 15


 785 0379 0C       		.uleb128 0xc
 786 037a 723400   		.ascii	"r4\000"
 787 037d 08       		.byte	0x8
 788 037e 1F01     		.2byte	0x11f
 789 0380 84020000 		.4byte	0x284
 790 0384 40       		.byte	0x40
 791 0385 0C       		.uleb128 0xc
 792 0386 723500   		.ascii	"r5\000"
 793 0389 08       		.byte	0x8
 794 038a 2001     		.2byte	0x120
 795 038c 84020000 		.4byte	0x284
 796 0390 44       		.byte	0x44
 797 0391 0C       		.uleb128 0xc
 798 0392 723600   		.ascii	"r6\000"
 799 0395 08       		.byte	0x8
 800 0396 2101     		.2byte	0x121
 801 0398 84020000 		.4byte	0x284
 802 039c 48       		.byte	0x48
 803 039d 0C       		.uleb128 0xc
 804 039e 723700   		.ascii	"r7\000"
 805 03a1 08       		.byte	0x8
 806 03a2 2201     		.2byte	0x122
 807 03a4 84020000 		.4byte	0x284
 808 03a8 4C       		.byte	0x4c
 809 03a9 0C       		.uleb128 0xc
 810 03aa 723800   		.ascii	"r8\000"
 811 03ad 08       		.byte	0x8
 812 03ae 2301     		.2byte	0x123
 813 03b0 84020000 		.4byte	0x284
 814 03b4 50       		.byte	0x50
 815 03b5 0C       		.uleb128 0xc
 816 03b6 723900   		.ascii	"r9\000"
 817 03b9 08       		.byte	0x8
 818 03ba 2401     		.2byte	0x124
 819 03bc 84020000 		.4byte	0x284
 820 03c0 54       		.byte	0x54
 821 03c1 0C       		.uleb128 0xc
 822 03c2 72313000 		.ascii	"r10\000"
 823 03c6 08       		.byte	0x8
 824 03c7 2501     		.2byte	0x125
 825 03c9 84020000 		.4byte	0x284
 826 03cd 58       		.byte	0x58
 827 03ce 0C       		.uleb128 0xc
 828 03cf 72313100 		.ascii	"r11\000"
 829 03d3 08       		.byte	0x8
 830 03d4 2601     		.2byte	0x126
 831 03d6 84020000 		.4byte	0x284
 832 03da 5C       		.byte	0x5c
 833 03db 0C       		.uleb128 0xc
 834 03dc 6C7200   		.ascii	"lr\000"
 835 03df 08       		.byte	0x8
 836 03e0 2701     		.2byte	0x127
 837 03e2 84020000 		.4byte	0x284
 838 03e6 60       		.byte	0x60
 839 03e7 00       		.byte	0
 840 03e8 0B       		.uleb128 0xb
 841 03e9 20010000 		.4byte	.LASF52
ARM GAS  /tmp/ccUBR7C3.s 			page 16


 842 03ed 04       		.byte	0x4
 843 03ee 08       		.byte	0x8
 844 03ef 3101     		.2byte	0x131
 845 03f1 03040000 		.4byte	0x403
 846 03f5 0C       		.uleb128 0xc
 847 03f6 72313300 		.ascii	"r13\000"
 848 03fa 08       		.byte	0x8
 849 03fb 3201     		.2byte	0x132
 850 03fd 03040000 		.4byte	0x403
 851 0401 00       		.byte	0
 852 0402 00       		.byte	0
 853 0403 09       		.uleb128 0x9
 854 0404 04       		.byte	0x4
 855 0405 9C020000 		.4byte	0x29c
 856 0409 03       		.uleb128 0x3
 857 040a 04       		.byte	0x4
 858 040b 07       		.byte	0x7
 859 040c 7A010000 		.4byte	.LASF53
 860 0410 0D       		.uleb128 0xd
 861 0411 13010000 		.4byte	0x113
 862 0415 08       		.uleb128 0x8
 863 0416 1C       		.byte	0x1c
 864 0417 09       		.byte	0x9
 865 0418 5E       		.byte	0x5e
 866 0419 66040000 		.4byte	0x466
 867 041d 06       		.uleb128 0x6
 868 041e 41030000 		.4byte	.LASF54
 869 0422 09       		.byte	0x9
 870 0423 5F       		.byte	0x5f
 871 0424 59020000 		.4byte	0x259
 872 0428 00       		.byte	0
 873 0429 06       		.uleb128 0x6
 874 042a 14020000 		.4byte	.LASF55
 875 042e 09       		.byte	0x9
 876 042f 60       		.byte	0x60
 877 0430 F2000000 		.4byte	0xf2
 878 0434 08       		.byte	0x8
 879 0435 06       		.uleb128 0x6
 880 0436 8B010000 		.4byte	.LASF56
 881 043a 09       		.byte	0x9
 882 043b 62       		.byte	0x62
 883 043c E8030000 		.4byte	0x3e8
 884 0440 0C       		.byte	0xc
 885 0441 06       		.uleb128 0x6
 886 0442 41010000 		.4byte	.LASF57
 887 0446 09       		.byte	0x9
 888 0447 65       		.byte	0x65
 889 0448 53020000 		.4byte	0x253
 890 044c 10       		.byte	0x10
 891 044d 06       		.uleb128 0x6
 892 044e A8010000 		.4byte	.LASF58
 893 0452 09       		.byte	0x9
 894 0453 66       		.byte	0x66
 895 0454 53020000 		.4byte	0x253
 896 0458 14       		.byte	0x14
 897 0459 06       		.uleb128 0x6
 898 045a 9E010000 		.4byte	.LASF59
ARM GAS  /tmp/ccUBR7C3.s 			page 17


 899 045e 09       		.byte	0x9
 900 045f 69       		.byte	0x69
 901 0460 53020000 		.4byte	0x253
 902 0464 18       		.byte	0x18
 903 0465 00       		.byte	0
 904 0466 04       		.uleb128 0x4
 905 0467 AA030000 		.4byte	.LASF60
 906 046b 09       		.byte	0x9
 907 046c 6B       		.byte	0x6b
 908 046d 15040000 		.4byte	0x415
 909 0471 05       		.uleb128 0x5
 910 0472 69010000 		.4byte	.LASF61
 911 0476 10       		.byte	0x10
 912 0477 0A       		.byte	0xa
 913 0478 2C       		.byte	0x2c
 914 0479 A2040000 		.4byte	0x4a2
 915 047d 06       		.uleb128 0x6
 916 047e 6D000000 		.4byte	.LASF62
 917 0482 0A       		.byte	0xa
 918 0483 2D       		.byte	0x2d
 919 0484 59020000 		.4byte	0x259
 920 0488 00       		.byte	0
 921 0489 06       		.uleb128 0x6
 922 048a D7030000 		.4byte	.LASF63
 923 048e 0A       		.byte	0xa
 924 048f 2F       		.byte	0x2f
 925 0490 53020000 		.4byte	0x253
 926 0494 08       		.byte	0x8
 927 0495 06       		.uleb128 0x6
 928 0496 5A030000 		.4byte	.LASF64
 929 049a 0A       		.byte	0xa
 930 049b 31       		.byte	0x31
 931 049c A2040000 		.4byte	0x4a2
 932 04a0 0C       		.byte	0xc
 933 04a1 00       		.byte	0
 934 04a2 09       		.uleb128 0x9
 935 04a3 04       		.byte	0x4
 936 04a4 71040000 		.4byte	0x471
 937 04a8 04       		.uleb128 0x4
 938 04a9 69010000 		.4byte	.LASF61
 939 04ad 0A       		.byte	0xa
 940 04ae 33       		.byte	0x33
 941 04af 71040000 		.4byte	0x471
 942 04b3 0E       		.uleb128 0xe
 943 04b4 04       		.byte	0x4
 944 04b5 07       		.byte	0x7
 945 04b6 96       		.byte	0x96
 946 04b7 E8040000 		.4byte	0x4e8
 947 04bb 0F       		.uleb128 0xf
 948 04bc 13000000 		.4byte	.LASF65
 949 04c0 07       		.byte	0x7
 950 04c1 9D       		.byte	0x9d
 951 04c2 FD000000 		.4byte	0xfd
 952 04c6 0F       		.uleb128 0xf
 953 04c7 D9000000 		.4byte	.LASF66
 954 04cb 07       		.byte	0x7
 955 04cc A4       		.byte	0xa4
ARM GAS  /tmp/ccUBR7C3.s 			page 18


 956 04cd FD000000 		.4byte	0xfd
 957 04d1 0F       		.uleb128 0xf
 958 04d2 C9030000 		.4byte	.LASF67
 959 04d6 07       		.byte	0x7
 960 04d7 AB       		.byte	0xab
 961 04d8 8F020000 		.4byte	0x28f
 962 04dc 0F       		.uleb128 0xf
 963 04dd C2030000 		.4byte	.LASF68
 964 04e1 07       		.byte	0x7
 965 04e2 B2       		.byte	0xb2
 966 04e3 08010000 		.4byte	0x108
 967 04e7 00       		.byte	0
 968 04e8 09       		.uleb128 0x9
 969 04e9 04       		.byte	0x4
 970 04ea EE040000 		.4byte	0x4ee
 971 04ee 10       		.uleb128 0x10
 972 04ef F3040000 		.4byte	0x4f3
 973 04f3 03       		.uleb128 0x3
 974 04f4 01       		.byte	0x1
 975 04f5 08       		.byte	0x8
 976 04f6 49030000 		.4byte	.LASF69
 977 04fa 09       		.uleb128 0x9
 978 04fb 04       		.byte	0x4
 979 04fc 91020000 		.4byte	0x291
 980 0500 09       		.uleb128 0x9
 981 0501 04       		.byte	0x4
 982 0502 A8040000 		.4byte	0x4a8
 983 0506 11       		.uleb128 0x11
 984 0507 06000000 		.4byte	.LASF74
 985 050b 01       		.byte	0x1
 986 050c 34       		.byte	0x34
 987 050d 00000000 		.4byte	.LFB1
 988 0511 28000000 		.4byte	.LFE1-.LFB1
 989 0515 01       		.uleb128 0x1
 990 0516 9C       		.byte	0x9c
 991 0517 37050000 		.4byte	0x537
 992 051b 12       		.uleb128 0x12
 993 051c 747000   		.ascii	"tp\000"
 994 051f 01       		.byte	0x1
 995 0520 34       		.byte	0x34
 996 0521 53020000 		.4byte	0x253
 997 0525 02       		.uleb128 0x2
 998 0526 91       		.byte	0x91
 999 0527 7C       		.sleb128 -4
 1000 0528 12       		.uleb128 0x12
 1001 0529 74717000 		.ascii	"tqp\000"
 1002 052d 01       		.byte	0x1
 1003 052e 34       		.byte	0x34
 1004 052f 37050000 		.4byte	0x537
 1005 0533 02       		.uleb128 0x2
 1006 0534 91       		.byte	0x91
 1007 0535 78       		.sleb128 -8
 1008 0536 00       		.byte	0
 1009 0537 09       		.uleb128 0x9
 1010 0538 04       		.byte	0x4
 1011 0539 59020000 		.4byte	0x259
 1012 053d 13       		.uleb128 0x13
ARM GAS  /tmp/ccUBR7C3.s 			page 19


 1013 053e 4E030000 		.4byte	.LASF75
 1014 0542 01       		.byte	0x1
 1015 0543 3B       		.byte	0x3b
 1016 0544 53020000 		.4byte	0x253
 1017 0548 00000000 		.4byte	.LFB2
 1018 054c 22000000 		.4byte	.LFE2-.LFB2
 1019 0550 01       		.uleb128 0x1
 1020 0551 9C       		.byte	0x9c
 1021 0552 72050000 		.4byte	0x572
 1022 0556 12       		.uleb128 0x12
 1023 0557 74717000 		.ascii	"tqp\000"
 1024 055b 01       		.byte	0x1
 1025 055c 3B       		.byte	0x3b
 1026 055d 37050000 		.4byte	0x537
 1027 0561 02       		.uleb128 0x2
 1028 0562 91       		.byte	0x91
 1029 0563 74       		.sleb128 -12
 1030 0564 14       		.uleb128 0x14
 1031 0565 747000   		.ascii	"tp\000"
 1032 0568 01       		.byte	0x1
 1033 0569 3C       		.byte	0x3c
 1034 056a 53020000 		.4byte	0x253
 1035 056e 02       		.uleb128 0x2
 1036 056f 91       		.byte	0x91
 1037 0570 7C       		.sleb128 -4
 1038 0571 00       		.byte	0
 1039 0572 15       		.uleb128 0x15
 1040 0573 BE000000 		.4byte	.LASF70
 1041 0577 02       		.byte	0x2
 1042 0578 4B       		.byte	0x4b
 1043 0579 FD000000 		.4byte	0xfd
 1044 057d 00000000 		.4byte	.LFB7
 1045 0581 78000000 		.4byte	.LFE7-.LFB7
 1046 0585 01       		.uleb128 0x1
 1047 0586 9C       		.byte	0x9c
 1048 0587 E7050000 		.4byte	0x5e7
 1049 058b 12       		.uleb128 0x12
 1050 058c 747000   		.ascii	"tp\000"
 1051 058f 02       		.byte	0x2
 1052 0590 4B       		.byte	0x4b
 1053 0591 53020000 		.4byte	0x253
 1054 0595 02       		.uleb128 0x2
 1055 0596 91       		.byte	0x91
 1056 0597 6C       		.sleb128 -20
 1057 0598 12       		.uleb128 0x12
 1058 0599 6D736700 		.ascii	"msg\000"
 1059 059d 02       		.byte	0x2
 1060 059e 4B       		.byte	0x4b
 1061 059f FD000000 		.4byte	0xfd
 1062 05a3 02       		.uleb128 0x2
 1063 05a4 91       		.byte	0x91
 1064 05a5 68       		.sleb128 -24
 1065 05a6 14       		.uleb128 0x14
 1066 05a7 63747000 		.ascii	"ctp\000"
 1067 05ab 02       		.byte	0x2
 1068 05ac 4C       		.byte	0x4c
 1069 05ad 53020000 		.4byte	0x253
ARM GAS  /tmp/ccUBR7C3.s 			page 20


 1070 05b1 02       		.uleb128 0x2
 1071 05b2 91       		.byte	0x91
 1072 05b3 74       		.sleb128 -12
 1073 05b4 16       		.uleb128 0x16
 1074 05b5 1A000000 		.4byte	.LBB2
 1075 05b9 06000000 		.4byte	.LBE2-.LBB2
 1076 05bd CF050000 		.4byte	0x5cf
 1077 05c1 14       		.uleb128 0x14
 1078 05c2 746D7000 		.ascii	"tmp\000"
 1079 05c6 02       		.byte	0x2
 1080 05c7 50       		.byte	0x50
 1081 05c8 A9000000 		.4byte	0xa9
 1082 05cc 01       		.uleb128 0x1
 1083 05cd 53       		.byte	0x53
 1084 05ce 00       		.byte	0
 1085 05cf 17       		.uleb128 0x17
 1086 05d0 60000000 		.4byte	.LBB3
 1087 05d4 06000000 		.4byte	.LBE3-.LBB3
 1088 05d8 14       		.uleb128 0x14
 1089 05d9 746D7000 		.ascii	"tmp\000"
 1090 05dd 02       		.byte	0x2
 1091 05de 58       		.byte	0x58
 1092 05df A9000000 		.4byte	0xa9
 1093 05e3 01       		.uleb128 0x1
 1094 05e4 53       		.byte	0x53
 1095 05e5 00       		.byte	0
 1096 05e6 00       		.byte	0
 1097 05e7 15       		.uleb128 0x15
 1098 05e8 99030000 		.4byte	.LASF71
 1099 05ec 02       		.byte	0x2
 1100 05ed 6A       		.byte	0x6a
 1101 05ee 53020000 		.4byte	0x253
 1102 05f2 00000000 		.4byte	.LFB8
 1103 05f6 54000000 		.4byte	.LFE8-.LFB8
 1104 05fa 01       		.uleb128 0x1
 1105 05fb 9C       		.byte	0x9c
 1106 05fc 40060000 		.4byte	0x640
 1107 0600 14       		.uleb128 0x14
 1108 0601 747000   		.ascii	"tp\000"
 1109 0604 02       		.byte	0x2
 1110 0605 6B       		.byte	0x6b
 1111 0606 53020000 		.4byte	0x253
 1112 060a 02       		.uleb128 0x2
 1113 060b 91       		.byte	0x91
 1114 060c 74       		.sleb128 -12
 1115 060d 16       		.uleb128 0x16
 1116 060e 04000000 		.4byte	.LBB4
 1117 0612 06000000 		.4byte	.LBE4-.LBB4
 1118 0616 28060000 		.4byte	0x628
 1119 061a 14       		.uleb128 0x14
 1120 061b 746D7000 		.ascii	"tmp\000"
 1121 061f 02       		.byte	0x2
 1122 0620 6D       		.byte	0x6d
 1123 0621 A9000000 		.4byte	0xa9
 1124 0625 01       		.uleb128 0x1
 1125 0626 53       		.byte	0x53
 1126 0627 00       		.byte	0
ARM GAS  /tmp/ccUBR7C3.s 			page 21


 1127 0628 17       		.uleb128 0x17
 1128 0629 3E000000 		.4byte	.LBB5
 1129 062d 06000000 		.4byte	.LBE5-.LBB5
 1130 0631 14       		.uleb128 0x14
 1131 0632 746D7000 		.ascii	"tmp\000"
 1132 0636 02       		.byte	0x2
 1133 0637 72       		.byte	0x72
 1134 0638 A9000000 		.4byte	0xa9
 1135 063c 01       		.uleb128 0x1
 1136 063d 53       		.byte	0x53
 1137 063e 00       		.byte	0
 1138 063f 00       		.byte	0
 1139 0640 18       		.uleb128 0x18
 1140 0641 20030000 		.4byte	.LASF76
 1141 0645 02       		.byte	0x2
 1142 0646 80       		.byte	0x80
 1143 0647 00000000 		.4byte	.LFB9
 1144 064b 40000000 		.4byte	.LFE9-.LFB9
 1145 064f 01       		.uleb128 0x1
 1146 0650 9C       		.byte	0x9c
 1147 0651 A3060000 		.4byte	0x6a3
 1148 0655 12       		.uleb128 0x12
 1149 0656 747000   		.ascii	"tp\000"
 1150 0659 02       		.byte	0x2
 1151 065a 80       		.byte	0x80
 1152 065b 53020000 		.4byte	0x253
 1153 065f 02       		.uleb128 0x2
 1154 0660 91       		.byte	0x91
 1155 0661 74       		.sleb128 -12
 1156 0662 12       		.uleb128 0x12
 1157 0663 6D736700 		.ascii	"msg\000"
 1158 0667 02       		.byte	0x2
 1159 0668 80       		.byte	0x80
 1160 0669 FD000000 		.4byte	0xfd
 1161 066d 02       		.uleb128 0x2
 1162 066e 91       		.byte	0x91
 1163 066f 70       		.sleb128 -16
 1164 0670 16       		.uleb128 0x16
 1165 0671 08000000 		.4byte	.LBB6
 1166 0675 06000000 		.4byte	.LBE6-.LBB6
 1167 0679 8B060000 		.4byte	0x68b
 1168 067d 14       		.uleb128 0x14
 1169 067e 746D7000 		.ascii	"tmp\000"
 1170 0682 02       		.byte	0x2
 1171 0683 82       		.byte	0x82
 1172 0684 A9000000 		.4byte	0xa9
 1173 0688 01       		.uleb128 0x1
 1174 0689 53       		.byte	0x53
 1175 068a 00       		.byte	0
 1176 068b 17       		.uleb128 0x17
 1177 068c 2E000000 		.4byte	.LBB7
 1178 0690 06000000 		.4byte	.LBE7-.LBB7
 1179 0694 14       		.uleb128 0x14
 1180 0695 746D7000 		.ascii	"tmp\000"
 1181 0699 02       		.byte	0x2
 1182 069a 86       		.byte	0x86
 1183 069b A9000000 		.4byte	0xa9
ARM GAS  /tmp/ccUBR7C3.s 			page 22


 1184 069f 01       		.uleb128 0x1
 1185 06a0 53       		.byte	0x53
 1186 06a1 00       		.byte	0
 1187 06a2 00       		.byte	0
 1188 06a3 19       		.uleb128 0x19
 1189 06a4 B4030000 		.4byte	.LASF77
 1190 06a8 09       		.byte	0x9
 1191 06a9 6F       		.byte	0x6f
 1192 06aa 66040000 		.4byte	0x466
 1193 06ae 00       		.byte	0
 1194              		.section	.debug_abbrev,"",%progbits
 1195              	.Ldebug_abbrev0:
 1196 0000 01       		.uleb128 0x1
 1197 0001 11       		.uleb128 0x11
 1198 0002 01       		.byte	0x1
 1199 0003 25       		.uleb128 0x25
 1200 0004 0E       		.uleb128 0xe
 1201 0005 13       		.uleb128 0x13
 1202 0006 0B       		.uleb128 0xb
 1203 0007 03       		.uleb128 0x3
 1204 0008 0E       		.uleb128 0xe
 1205 0009 55       		.uleb128 0x55
 1206 000a 17       		.uleb128 0x17
 1207 000b 11       		.uleb128 0x11
 1208 000c 01       		.uleb128 0x1
 1209 000d 10       		.uleb128 0x10
 1210 000e 17       		.uleb128 0x17
 1211 000f 00       		.byte	0
 1212 0010 00       		.byte	0
 1213 0011 02       		.uleb128 0x2
 1214 0012 24       		.uleb128 0x24
 1215 0013 00       		.byte	0
 1216 0014 0B       		.uleb128 0xb
 1217 0015 0B       		.uleb128 0xb
 1218 0016 3E       		.uleb128 0x3e
 1219 0017 0B       		.uleb128 0xb
 1220 0018 03       		.uleb128 0x3
 1221 0019 08       		.uleb128 0x8
 1222 001a 00       		.byte	0
 1223 001b 00       		.byte	0
 1224 001c 03       		.uleb128 0x3
 1225 001d 24       		.uleb128 0x24
 1226 001e 00       		.byte	0
 1227 001f 0B       		.uleb128 0xb
 1228 0020 0B       		.uleb128 0xb
 1229 0021 3E       		.uleb128 0x3e
 1230 0022 0B       		.uleb128 0xb
 1231 0023 03       		.uleb128 0x3
 1232 0024 0E       		.uleb128 0xe
 1233 0025 00       		.byte	0
 1234 0026 00       		.byte	0
 1235 0027 04       		.uleb128 0x4
 1236 0028 16       		.uleb128 0x16
 1237 0029 00       		.byte	0
 1238 002a 03       		.uleb128 0x3
 1239 002b 0E       		.uleb128 0xe
 1240 002c 3A       		.uleb128 0x3a
ARM GAS  /tmp/ccUBR7C3.s 			page 23


 1241 002d 0B       		.uleb128 0xb
 1242 002e 3B       		.uleb128 0x3b
 1243 002f 0B       		.uleb128 0xb
 1244 0030 49       		.uleb128 0x49
 1245 0031 13       		.uleb128 0x13
 1246 0032 00       		.byte	0
 1247 0033 00       		.byte	0
 1248 0034 05       		.uleb128 0x5
 1249 0035 13       		.uleb128 0x13
 1250 0036 01       		.byte	0x1
 1251 0037 03       		.uleb128 0x3
 1252 0038 0E       		.uleb128 0xe
 1253 0039 0B       		.uleb128 0xb
 1254 003a 0B       		.uleb128 0xb
 1255 003b 3A       		.uleb128 0x3a
 1256 003c 0B       		.uleb128 0xb
 1257 003d 3B       		.uleb128 0x3b
 1258 003e 0B       		.uleb128 0xb
 1259 003f 01       		.uleb128 0x1
 1260 0040 13       		.uleb128 0x13
 1261 0041 00       		.byte	0
 1262 0042 00       		.byte	0
 1263 0043 06       		.uleb128 0x6
 1264 0044 0D       		.uleb128 0xd
 1265 0045 00       		.byte	0
 1266 0046 03       		.uleb128 0x3
 1267 0047 0E       		.uleb128 0xe
 1268 0048 3A       		.uleb128 0x3a
 1269 0049 0B       		.uleb128 0xb
 1270 004a 3B       		.uleb128 0x3b
 1271 004b 0B       		.uleb128 0xb
 1272 004c 49       		.uleb128 0x49
 1273 004d 13       		.uleb128 0x13
 1274 004e 38       		.uleb128 0x38
 1275 004f 0B       		.uleb128 0xb
 1276 0050 00       		.byte	0
 1277 0051 00       		.byte	0
 1278 0052 07       		.uleb128 0x7
 1279 0053 0D       		.uleb128 0xd
 1280 0054 00       		.byte	0
 1281 0055 03       		.uleb128 0x3
 1282 0056 08       		.uleb128 0x8
 1283 0057 3A       		.uleb128 0x3a
 1284 0058 0B       		.uleb128 0xb
 1285 0059 3B       		.uleb128 0x3b
 1286 005a 0B       		.uleb128 0xb
 1287 005b 49       		.uleb128 0x49
 1288 005c 13       		.uleb128 0x13
 1289 005d 38       		.uleb128 0x38
 1290 005e 0B       		.uleb128 0xb
 1291 005f 00       		.byte	0
 1292 0060 00       		.byte	0
 1293 0061 08       		.uleb128 0x8
 1294 0062 13       		.uleb128 0x13
 1295 0063 01       		.byte	0x1
 1296 0064 0B       		.uleb128 0xb
 1297 0065 0B       		.uleb128 0xb
ARM GAS  /tmp/ccUBR7C3.s 			page 24


 1298 0066 3A       		.uleb128 0x3a
 1299 0067 0B       		.uleb128 0xb
 1300 0068 3B       		.uleb128 0x3b
 1301 0069 0B       		.uleb128 0xb
 1302 006a 01       		.uleb128 0x1
 1303 006b 13       		.uleb128 0x13
 1304 006c 00       		.byte	0
 1305 006d 00       		.byte	0
 1306 006e 09       		.uleb128 0x9
 1307 006f 0F       		.uleb128 0xf
 1308 0070 00       		.byte	0
 1309 0071 0B       		.uleb128 0xb
 1310 0072 0B       		.uleb128 0xb
 1311 0073 49       		.uleb128 0x49
 1312 0074 13       		.uleb128 0x13
 1313 0075 00       		.byte	0
 1314 0076 00       		.byte	0
 1315 0077 0A       		.uleb128 0xa
 1316 0078 0F       		.uleb128 0xf
 1317 0079 00       		.byte	0
 1318 007a 0B       		.uleb128 0xb
 1319 007b 0B       		.uleb128 0xb
 1320 007c 00       		.byte	0
 1321 007d 00       		.byte	0
 1322 007e 0B       		.uleb128 0xb
 1323 007f 13       		.uleb128 0x13
 1324 0080 01       		.byte	0x1
 1325 0081 03       		.uleb128 0x3
 1326 0082 0E       		.uleb128 0xe
 1327 0083 0B       		.uleb128 0xb
 1328 0084 0B       		.uleb128 0xb
 1329 0085 3A       		.uleb128 0x3a
 1330 0086 0B       		.uleb128 0xb
 1331 0087 3B       		.uleb128 0x3b
 1332 0088 05       		.uleb128 0x5
 1333 0089 01       		.uleb128 0x1
 1334 008a 13       		.uleb128 0x13
 1335 008b 00       		.byte	0
 1336 008c 00       		.byte	0
 1337 008d 0C       		.uleb128 0xc
 1338 008e 0D       		.uleb128 0xd
 1339 008f 00       		.byte	0
 1340 0090 03       		.uleb128 0x3
 1341 0091 08       		.uleb128 0x8
 1342 0092 3A       		.uleb128 0x3a
 1343 0093 0B       		.uleb128 0xb
 1344 0094 3B       		.uleb128 0x3b
 1345 0095 05       		.uleb128 0x5
 1346 0096 49       		.uleb128 0x49
 1347 0097 13       		.uleb128 0x13
 1348 0098 38       		.uleb128 0x38
 1349 0099 0B       		.uleb128 0xb
 1350 009a 00       		.byte	0
 1351 009b 00       		.byte	0
 1352 009c 0D       		.uleb128 0xd
 1353 009d 35       		.uleb128 0x35
 1354 009e 00       		.byte	0
ARM GAS  /tmp/ccUBR7C3.s 			page 25


 1355 009f 49       		.uleb128 0x49
 1356 00a0 13       		.uleb128 0x13
 1357 00a1 00       		.byte	0
 1358 00a2 00       		.byte	0
 1359 00a3 0E       		.uleb128 0xe
 1360 00a4 17       		.uleb128 0x17
 1361 00a5 01       		.byte	0x1
 1362 00a6 0B       		.uleb128 0xb
 1363 00a7 0B       		.uleb128 0xb
 1364 00a8 3A       		.uleb128 0x3a
 1365 00a9 0B       		.uleb128 0xb
 1366 00aa 3B       		.uleb128 0x3b
 1367 00ab 0B       		.uleb128 0xb
 1368 00ac 01       		.uleb128 0x1
 1369 00ad 13       		.uleb128 0x13
 1370 00ae 00       		.byte	0
 1371 00af 00       		.byte	0
 1372 00b0 0F       		.uleb128 0xf
 1373 00b1 0D       		.uleb128 0xd
 1374 00b2 00       		.byte	0
 1375 00b3 03       		.uleb128 0x3
 1376 00b4 0E       		.uleb128 0xe
 1377 00b5 3A       		.uleb128 0x3a
 1378 00b6 0B       		.uleb128 0xb
 1379 00b7 3B       		.uleb128 0x3b
 1380 00b8 0B       		.uleb128 0xb
 1381 00b9 49       		.uleb128 0x49
 1382 00ba 13       		.uleb128 0x13
 1383 00bb 00       		.byte	0
 1384 00bc 00       		.byte	0
 1385 00bd 10       		.uleb128 0x10
 1386 00be 26       		.uleb128 0x26
 1387 00bf 00       		.byte	0
 1388 00c0 49       		.uleb128 0x49
 1389 00c1 13       		.uleb128 0x13
 1390 00c2 00       		.byte	0
 1391 00c3 00       		.byte	0
 1392 00c4 11       		.uleb128 0x11
 1393 00c5 2E       		.uleb128 0x2e
 1394 00c6 01       		.byte	0x1
 1395 00c7 03       		.uleb128 0x3
 1396 00c8 0E       		.uleb128 0xe
 1397 00c9 3A       		.uleb128 0x3a
 1398 00ca 0B       		.uleb128 0xb
 1399 00cb 3B       		.uleb128 0x3b
 1400 00cc 0B       		.uleb128 0xb
 1401 00cd 27       		.uleb128 0x27
 1402 00ce 19       		.uleb128 0x19
 1403 00cf 11       		.uleb128 0x11
 1404 00d0 01       		.uleb128 0x1
 1405 00d1 12       		.uleb128 0x12
 1406 00d2 06       		.uleb128 0x6
 1407 00d3 40       		.uleb128 0x40
 1408 00d4 18       		.uleb128 0x18
 1409 00d5 9742     		.uleb128 0x2117
 1410 00d7 19       		.uleb128 0x19
 1411 00d8 01       		.uleb128 0x1
ARM GAS  /tmp/ccUBR7C3.s 			page 26


 1412 00d9 13       		.uleb128 0x13
 1413 00da 00       		.byte	0
 1414 00db 00       		.byte	0
 1415 00dc 12       		.uleb128 0x12
 1416 00dd 05       		.uleb128 0x5
 1417 00de 00       		.byte	0
 1418 00df 03       		.uleb128 0x3
 1419 00e0 08       		.uleb128 0x8
 1420 00e1 3A       		.uleb128 0x3a
 1421 00e2 0B       		.uleb128 0xb
 1422 00e3 3B       		.uleb128 0x3b
 1423 00e4 0B       		.uleb128 0xb
 1424 00e5 49       		.uleb128 0x49
 1425 00e6 13       		.uleb128 0x13
 1426 00e7 02       		.uleb128 0x2
 1427 00e8 18       		.uleb128 0x18
 1428 00e9 00       		.byte	0
 1429 00ea 00       		.byte	0
 1430 00eb 13       		.uleb128 0x13
 1431 00ec 2E       		.uleb128 0x2e
 1432 00ed 01       		.byte	0x1
 1433 00ee 03       		.uleb128 0x3
 1434 00ef 0E       		.uleb128 0xe
 1435 00f0 3A       		.uleb128 0x3a
 1436 00f1 0B       		.uleb128 0xb
 1437 00f2 3B       		.uleb128 0x3b
 1438 00f3 0B       		.uleb128 0xb
 1439 00f4 27       		.uleb128 0x27
 1440 00f5 19       		.uleb128 0x19
 1441 00f6 49       		.uleb128 0x49
 1442 00f7 13       		.uleb128 0x13
 1443 00f8 11       		.uleb128 0x11
 1444 00f9 01       		.uleb128 0x1
 1445 00fa 12       		.uleb128 0x12
 1446 00fb 06       		.uleb128 0x6
 1447 00fc 40       		.uleb128 0x40
 1448 00fd 18       		.uleb128 0x18
 1449 00fe 9742     		.uleb128 0x2117
 1450 0100 19       		.uleb128 0x19
 1451 0101 01       		.uleb128 0x1
 1452 0102 13       		.uleb128 0x13
 1453 0103 00       		.byte	0
 1454 0104 00       		.byte	0
 1455 0105 14       		.uleb128 0x14
 1456 0106 34       		.uleb128 0x34
 1457 0107 00       		.byte	0
 1458 0108 03       		.uleb128 0x3
 1459 0109 08       		.uleb128 0x8
 1460 010a 3A       		.uleb128 0x3a
 1461 010b 0B       		.uleb128 0xb
 1462 010c 3B       		.uleb128 0x3b
 1463 010d 0B       		.uleb128 0xb
 1464 010e 49       		.uleb128 0x49
 1465 010f 13       		.uleb128 0x13
 1466 0110 02       		.uleb128 0x2
 1467 0111 18       		.uleb128 0x18
 1468 0112 00       		.byte	0
ARM GAS  /tmp/ccUBR7C3.s 			page 27


 1469 0113 00       		.byte	0
 1470 0114 15       		.uleb128 0x15
 1471 0115 2E       		.uleb128 0x2e
 1472 0116 01       		.byte	0x1
 1473 0117 3F       		.uleb128 0x3f
 1474 0118 19       		.uleb128 0x19
 1475 0119 03       		.uleb128 0x3
 1476 011a 0E       		.uleb128 0xe
 1477 011b 3A       		.uleb128 0x3a
 1478 011c 0B       		.uleb128 0xb
 1479 011d 3B       		.uleb128 0x3b
 1480 011e 0B       		.uleb128 0xb
 1481 011f 27       		.uleb128 0x27
 1482 0120 19       		.uleb128 0x19
 1483 0121 49       		.uleb128 0x49
 1484 0122 13       		.uleb128 0x13
 1485 0123 11       		.uleb128 0x11
 1486 0124 01       		.uleb128 0x1
 1487 0125 12       		.uleb128 0x12
 1488 0126 06       		.uleb128 0x6
 1489 0127 40       		.uleb128 0x40
 1490 0128 18       		.uleb128 0x18
 1491 0129 9642     		.uleb128 0x2116
 1492 012b 19       		.uleb128 0x19
 1493 012c 01       		.uleb128 0x1
 1494 012d 13       		.uleb128 0x13
 1495 012e 00       		.byte	0
 1496 012f 00       		.byte	0
 1497 0130 16       		.uleb128 0x16
 1498 0131 0B       		.uleb128 0xb
 1499 0132 01       		.byte	0x1
 1500 0133 11       		.uleb128 0x11
 1501 0134 01       		.uleb128 0x1
 1502 0135 12       		.uleb128 0x12
 1503 0136 06       		.uleb128 0x6
 1504 0137 01       		.uleb128 0x1
 1505 0138 13       		.uleb128 0x13
 1506 0139 00       		.byte	0
 1507 013a 00       		.byte	0
 1508 013b 17       		.uleb128 0x17
 1509 013c 0B       		.uleb128 0xb
 1510 013d 01       		.byte	0x1
 1511 013e 11       		.uleb128 0x11
 1512 013f 01       		.uleb128 0x1
 1513 0140 12       		.uleb128 0x12
 1514 0141 06       		.uleb128 0x6
 1515 0142 00       		.byte	0
 1516 0143 00       		.byte	0
 1517 0144 18       		.uleb128 0x18
 1518 0145 2E       		.uleb128 0x2e
 1519 0146 01       		.byte	0x1
 1520 0147 3F       		.uleb128 0x3f
 1521 0148 19       		.uleb128 0x19
 1522 0149 03       		.uleb128 0x3
 1523 014a 0E       		.uleb128 0xe
 1524 014b 3A       		.uleb128 0x3a
 1525 014c 0B       		.uleb128 0xb
ARM GAS  /tmp/ccUBR7C3.s 			page 28


 1526 014d 3B       		.uleb128 0x3b
 1527 014e 0B       		.uleb128 0xb
 1528 014f 27       		.uleb128 0x27
 1529 0150 19       		.uleb128 0x19
 1530 0151 11       		.uleb128 0x11
 1531 0152 01       		.uleb128 0x1
 1532 0153 12       		.uleb128 0x12
 1533 0154 06       		.uleb128 0x6
 1534 0155 40       		.uleb128 0x40
 1535 0156 18       		.uleb128 0x18
 1536 0157 9642     		.uleb128 0x2116
 1537 0159 19       		.uleb128 0x19
 1538 015a 01       		.uleb128 0x1
 1539 015b 13       		.uleb128 0x13
 1540 015c 00       		.byte	0
 1541 015d 00       		.byte	0
 1542 015e 19       		.uleb128 0x19
 1543 015f 34       		.uleb128 0x34
 1544 0160 00       		.byte	0
 1545 0161 03       		.uleb128 0x3
 1546 0162 0E       		.uleb128 0xe
 1547 0163 3A       		.uleb128 0x3a
 1548 0164 0B       		.uleb128 0xb
 1549 0165 3B       		.uleb128 0x3b
 1550 0166 0B       		.uleb128 0xb
 1551 0167 49       		.uleb128 0x49
 1552 0168 13       		.uleb128 0x13
 1553 0169 3F       		.uleb128 0x3f
 1554 016a 19       		.uleb128 0x19
 1555 016b 3C       		.uleb128 0x3c
 1556 016c 19       		.uleb128 0x19
 1557 016d 00       		.byte	0
 1558 016e 00       		.byte	0
 1559 016f 00       		.byte	0
 1560              		.section	.debug_aranges,"",%progbits
 1561 0000 3C000000 		.4byte	0x3c
 1562 0004 0200     		.2byte	0x2
 1563 0006 00000000 		.4byte	.Ldebug_info0
 1564 000a 04       		.byte	0x4
 1565 000b 00       		.byte	0
 1566 000c 0000     		.2byte	0
 1567 000e 0000     		.2byte	0
 1568 0010 00000000 		.4byte	.LFB1
 1569 0014 28000000 		.4byte	.LFE1-.LFB1
 1570 0018 00000000 		.4byte	.LFB2
 1571 001c 22000000 		.4byte	.LFE2-.LFB2
 1572 0020 00000000 		.4byte	.LFB7
 1573 0024 78000000 		.4byte	.LFE7-.LFB7
 1574 0028 00000000 		.4byte	.LFB8
 1575 002c 54000000 		.4byte	.LFE8-.LFB8
 1576 0030 00000000 		.4byte	.LFB9
 1577 0034 40000000 		.4byte	.LFE9-.LFB9
 1578 0038 00000000 		.4byte	0
 1579 003c 00000000 		.4byte	0
 1580              		.section	.debug_ranges,"",%progbits
 1581              	.Ldebug_ranges0:
 1582 0000 00000000 		.4byte	.LFB1
ARM GAS  /tmp/ccUBR7C3.s 			page 29


 1583 0004 28000000 		.4byte	.LFE1
 1584 0008 00000000 		.4byte	.LFB2
 1585 000c 22000000 		.4byte	.LFE2
 1586 0010 00000000 		.4byte	.LFB7
 1587 0014 78000000 		.4byte	.LFE7
 1588 0018 00000000 		.4byte	.LFB8
 1589 001c 54000000 		.4byte	.LFE8
 1590 0020 00000000 		.4byte	.LFB9
 1591 0024 40000000 		.4byte	.LFE9
 1592 0028 00000000 		.4byte	0
 1593 002c 00000000 		.4byte	0
 1594              		.section	.debug_line,"",%progbits
 1595              	.Ldebug_line0:
 1596 0000 EA010000 		.section	.debug_str,"MS",%progbits,1
 1596      02006001 
 1596      00000201 
 1596      FB0E0D00 
 1596      01010101 
 1597              	.LASF42:
 1598 0000 705F6D73 		.ascii	"p_msg\000"
 1598      6700
 1599              	.LASF74:
 1600 0006 71756575 		.ascii	"queue_insert\000"
 1600      655F696E 
 1600      73657274 
 1600      00
 1601              	.LASF65:
 1602 0013 7264796D 		.ascii	"rdymsg\000"
 1602      736700
 1603              	.LASF16:
 1604 001a 75696E74 		.ascii	"uint64_t\000"
 1604      36345F74 
 1604      00
 1605              	.LASF5:
 1606 0023 5F5F7569 		.ascii	"__uint8_t\000"
 1606      6E74385F 
 1606      7400
 1607              	.LASF12:
 1608 002d 6C6F6E67 		.ascii	"long long unsigned int\000"
 1608      206C6F6E 
 1608      6720756E 
 1608      7369676E 
 1608      65642069 
 1609              	.LASF29:
 1610 0044 705F7072 		.ascii	"p_prio\000"
 1610      696F00
 1611              	.LASF10:
 1612 004b 6C6F6E67 		.ascii	"long long int\000"
 1612      206C6F6E 
 1612      6720696E 
 1612      7400
 1613              	.LASF1:
 1614 0059 7369676E 		.ascii	"signed char\000"
 1614      65642063 
 1614      68617200 
 1615              	.LASF46:
 1616 0065 705F6D70 		.ascii	"p_mpool\000"
ARM GAS  /tmp/ccUBR7C3.s 			page 30


 1616      6F6F6C00 
 1617              	.LASF62:
 1618 006d 6D5F7175 		.ascii	"m_queue\000"
 1618      65756500 
 1619              	.LASF73:
 1620 0075 2F686F6D 		.ascii	"/home/dave/r2p-sdk/core/ChibiOS/os/kernel/src/chmsg"
 1620      652F6461 
 1620      76652F72 
 1620      32702D73 
 1620      646B2F63 
 1621 00a8 2E6300   		.ascii	".c\000"
 1622              	.LASF21:
 1623 00ab 74736C69 		.ascii	"tslices_t\000"
 1623      6365735F 
 1623      7400
 1624              	.LASF7:
 1625 00b5 6C6F6E67 		.ascii	"long int\000"
 1625      20696E74 
 1625      00
 1626              	.LASF70:
 1627 00be 63684D73 		.ascii	"chMsgSend\000"
 1627      6753656E 
 1627      6400
 1628              	.LASF19:
 1629 00c8 74737461 		.ascii	"tstate_t\000"
 1629      74655F74 
 1629      00
 1630              	.LASF31:
 1631 00d1 705F6E65 		.ascii	"p_newer\000"
 1631      77657200 
 1632              	.LASF66:
 1633 00d9 65786974 		.ascii	"exitcode\000"
 1633      636F6465 
 1633      00
 1634              	.LASF8:
 1635 00e2 5F5F7569 		.ascii	"__uint32_t\000"
 1635      6E743332 
 1635      5F7400
 1636              	.LASF49:
 1637 00ed 72656761 		.ascii	"regarm_t\000"
 1637      726D5F74 
 1637      00
 1638              	.LASF34:
 1639 00f6 705F7374 		.ascii	"p_stklimit\000"
 1639      6B6C696D 
 1639      697400
 1640              	.LASF0:
 1641 0101 756E7369 		.ascii	"unsigned int\000"
 1641      676E6564 
 1641      20696E74 
 1641      00
 1642              	.LASF9:
 1643 010e 6C6F6E67 		.ascii	"long unsigned int\000"
 1643      20756E73 
 1643      69676E65 
 1643      6420696E 
 1643      7400
ARM GAS  /tmp/ccUBR7C3.s 			page 31


 1644              	.LASF52:
 1645 0120 636F6E74 		.ascii	"context\000"
 1645      65787400 
 1646              	.LASF4:
 1647 0128 73686F72 		.ascii	"short unsigned int\000"
 1647      7420756E 
 1647      7369676E 
 1647      65642069 
 1647      6E7400
 1648              	.LASF23:
 1649 013b 6D73675F 		.ascii	"msg_t\000"
 1649      7400
 1650              	.LASF57:
 1651 0141 725F6E65 		.ascii	"r_newer\000"
 1651      77657200 
 1652              	.LASF18:
 1653 0149 746D6F64 		.ascii	"tmode_t\000"
 1653      655F7400 
 1654              	.LASF48:
 1655 0151 54687265 		.ascii	"ThreadsList\000"
 1655      6164734C 
 1655      69737400 
 1656              	.LASF24:
 1657 015d 6576656E 		.ascii	"eventmask_t\000"
 1657      746D6173 
 1657      6B5F7400 
 1658              	.LASF61:
 1659 0169 4D757465 		.ascii	"Mutex\000"
 1659      7800
 1660              	.LASF50:
 1661 016f 73746B61 		.ascii	"stkalign_t\000"
 1661      6C69676E 
 1661      5F7400
 1662              	.LASF53:
 1663 017a 73697A65 		.ascii	"sizetype\000"
 1663      74797065 
 1663      00
 1664              	.LASF32:
 1665 0183 705F6F6C 		.ascii	"p_older\000"
 1665      64657200 
 1666              	.LASF56:
 1667 018b 725F6374 		.ascii	"r_ctx\000"
 1667      7800
 1668              	.LASF47:
 1669 0191 54687265 		.ascii	"ThreadsQueue\000"
 1669      61647351 
 1669      75657565 
 1669      00
 1670              	.LASF59:
 1671 019e 725F6375 		.ascii	"r_current\000"
 1671      7272656E 
 1671      7400
 1672              	.LASF58:
 1673 01a8 725F6F6C 		.ascii	"r_older\000"
 1673      64657200 
 1674              	.LASF11:
 1675 01b0 5F5F7569 		.ascii	"__uint64_t\000"
ARM GAS  /tmp/ccUBR7C3.s 			page 32


 1675      6E743634 
 1675      5F7400
 1676              	.LASF20:
 1677 01bb 74726566 		.ascii	"trefs_t\000"
 1677      735F7400 
 1678              	.LASF28:
 1679 01c3 705F7072 		.ascii	"p_prev\000"
 1679      657600
 1680              	.LASF22:
 1681 01ca 74707269 		.ascii	"tprio_t\000"
 1681      6F5F7400 
 1682              	.LASF17:
 1683 01d2 5F426F6F 		.ascii	"_Bool\000"
 1683      6C00
 1684              	.LASF14:
 1685 01d8 696E7433 		.ascii	"int32_t\000"
 1685      325F7400 
 1686              	.LASF2:
 1687 01e0 756E7369 		.ascii	"unsigned char\000"
 1687      676E6564 
 1687      20636861 
 1687      7200
 1688              	.LASF44:
 1689 01ee 705F6D74 		.ascii	"p_mtxlist\000"
 1689      786C6973 
 1689      7400
 1690              	.LASF3:
 1691 01f8 73686F72 		.ascii	"short int\000"
 1691      7420696E 
 1691      7400
 1692              	.LASF35:
 1693 0202 705F7374 		.ascii	"p_state\000"
 1693      61746500 
 1694              	.LASF38:
 1695 020a 705F7072 		.ascii	"p_preempt\000"
 1695      65656D70 
 1695      7400
 1696              	.LASF55:
 1697 0214 725F7072 		.ascii	"r_prio\000"
 1697      696F00
 1698              	.LASF72:
 1699 021b 474E5520 		.ascii	"GNU C 4.8.4 20141219 (release) -mcpu=cortex-m4 -mfl"
 1699      4320342E 
 1699      382E3420 
 1699      32303134 
 1699      31323139 
 1700 024e 6F61742D 		.ascii	"oat-abi=hard -mfpu=fpv4-sp-d16 -mno-thumb-interwork"
 1700      6162693D 
 1700      68617264 
 1700      202D6D66 
 1700      70753D66 
 1701 0281 202D6D74 		.ascii	" -mthumb -ggdb -O0 -fomit-frame-pointer -falign-fun"
 1701      68756D62 
 1701      202D6767 
 1701      6462202D 
 1701      4F30202D 
 1702 02b4 6374696F 		.ascii	"ctions=16 -ffunction-sections -fdata-sections -fno-"
ARM GAS  /tmp/ccUBR7C3.s 			page 33


 1702      6E733D31 
 1702      36202D66 
 1702      66756E63 
 1702      74696F6E 
 1703 02e7 636F6D6D 		.ascii	"common -fsingle-precision-constant\000"
 1703      6F6E202D 
 1703      6673696E 
 1703      676C652D 
 1703      70726563 
 1704              	.LASF27:
 1705 030a 705F6E65 		.ascii	"p_next\000"
 1705      787400
 1706              	.LASF36:
 1707 0311 705F666C 		.ascii	"p_flags\000"
 1707      61677300 
 1708              	.LASF26:
 1709 0319 54687265 		.ascii	"Thread\000"
 1709      616400
 1710              	.LASF76:
 1711 0320 63684D73 		.ascii	"chMsgRelease\000"
 1711      6752656C 
 1711      65617365 
 1711      00
 1712              	.LASF43:
 1713 032d 705F6570 		.ascii	"p_epending\000"
 1713      656E6469 
 1713      6E6700
 1714              	.LASF15:
 1715 0338 75696E74 		.ascii	"uint32_t\000"
 1715      33325F74 
 1715      00
 1716              	.LASF54:
 1717 0341 725F7175 		.ascii	"r_queue\000"
 1717      65756500 
 1718              	.LASF69:
 1719 0349 63686172 		.ascii	"char\000"
 1719      00
 1720              	.LASF75:
 1721 034e 6669666F 		.ascii	"fifo_remove\000"
 1721      5F72656D 
 1721      6F766500 
 1722              	.LASF64:
 1723 035a 6D5F6E65 		.ascii	"m_next\000"
 1723      787400
 1724              	.LASF25:
 1725 0361 73797374 		.ascii	"systime_t\000"
 1725      696D655F 
 1725      7400
 1726              	.LASF45:
 1727 036b 705F7265 		.ascii	"p_realprio\000"
 1727      616C7072 
 1727      696F00
 1728              	.LASF6:
 1729 0376 5F5F696E 		.ascii	"__int32_t\000"
 1729      7433325F 
 1729      7400
 1730              	.LASF39:
ARM GAS  /tmp/ccUBR7C3.s 			page 34


 1731 0380 705F7469 		.ascii	"p_time\000"
 1731      6D6500
 1732              	.LASF51:
 1733 0387 696E7463 		.ascii	"intctx\000"
 1733      747800
 1734              	.LASF41:
 1735 038e 705F6D73 		.ascii	"p_msgqueue\000"
 1735      67717565 
 1735      756500
 1736              	.LASF71:
 1737 0399 63684D73 		.ascii	"chMsgWait\000"
 1737      67576169 
 1737      7400
 1738              	.LASF37:
 1739 03a3 705F7265 		.ascii	"p_refs\000"
 1739      667300
 1740              	.LASF60:
 1741 03aa 52656164 		.ascii	"ReadyList\000"
 1741      794C6973 
 1741      7400
 1742              	.LASF77:
 1743 03b4 726C6973 		.ascii	"rlist\000"
 1743      7400
 1744              	.LASF13:
 1745 03ba 75696E74 		.ascii	"uint8_t\000"
 1745      385F7400 
 1746              	.LASF68:
 1747 03c2 65776D61 		.ascii	"ewmask\000"
 1747      736B00
 1748              	.LASF67:
 1749 03c9 77746F62 		.ascii	"wtobjp\000"
 1749      6A7000
 1750              	.LASF33:
 1751 03d0 705F6E61 		.ascii	"p_name\000"
 1751      6D6500
 1752              	.LASF63:
 1753 03d7 6D5F6F77 		.ascii	"m_owner\000"
 1753      6E657200 
 1754              	.LASF30:
 1755 03df 705F6374 		.ascii	"p_ctx\000"
 1755      7800
 1756              	.LASF40:
 1757 03e5 705F7761 		.ascii	"p_waiting\000"
 1757      6974696E 
 1757      6700
 1758              		.ident	"GCC: (4.8.4-1+11-1) 4.8.4 20141219 (release)"
ARM GAS  /tmp/ccUBR7C3.s 			page 35


DEFINED SYMBOLS
                            *ABS*:0000000000000000 chmsg.c
     /tmp/ccUBR7C3.s:21     .text.queue_insert:0000000000000000 $t
     /tmp/ccUBR7C3.s:26     .text.queue_insert:0000000000000000 queue_insert
     /tmp/ccUBR7C3.s:64     .text.fifo_remove:0000000000000000 $t
     /tmp/ccUBR7C3.s:69     .text.fifo_remove:0000000000000000 fifo_remove
     /tmp/ccUBR7C3.s:103    .rodata:0000000000000000 $d
     /tmp/ccUBR7C3.s:107    .text.chMsgSend:0000000000000000 $t
     /tmp/ccUBR7C3.s:113    .text.chMsgSend:0000000000000000 chMsgSend
     /tmp/ccUBR7C3.s:198    .text.chMsgSend:0000000000000070 $d
     /tmp/ccUBR7C3.s:204    .text.chMsgWait:0000000000000000 $t
     /tmp/ccUBR7C3.s:210    .text.chMsgWait:0000000000000000 chMsgWait
     /tmp/ccUBR7C3.s:273    .text.chMsgWait:0000000000000050 $d
     /tmp/ccUBR7C3.s:282    .text.chMsgRelease:0000000000000000 $t
     /tmp/ccUBR7C3.s:288    .text.chMsgRelease:0000000000000000 chMsgRelease
     /tmp/ccUBR7C3.s:339    .text.chMsgRelease:000000000000003c $d
                     .debug_frame:0000000000000010 $d
     /tmp/ccUBR7C3.s:203    .text.chMsgSend:0000000000000078 $t
     /tmp/ccUBR7C3.s:277    .text.chMsgWait:0000000000000054 $t

UNDEFINED SYMBOLS
chDbgPanic
dbg_check_lock
chSchReadyI
chSchGoSleepS
dbg_check_unlock
rlist
chSchWakeupS
