ARM GAS  /tmp/ccUBR7C3.s 			page 1


   1              		.syntax unified
   2              		.cpu cortex-m4
   3              		.eabi_attribute 27, 3
   4              		.eabi_attribute 28, 1
   5              		.fpu fpv4-sp-d16
   6              		.eabi_attribute 20, 1
   7              		.eabi_attribute 21, 1
   8              		.eabi_attribute 23, 3
   9              		.eabi_attribute 24, 1
  10              		.eabi_attribute 25, 1
  11              		.eabi_attribute 26, 1
  12              		.eabi_attribute 30, 6
  13              		.eabi_attribute 34, 1
  14              		.eabi_attribute 18, 4
  15              		.thumb
  16              		.file	"chmsg.c"
  17              		.text
  18              	.Ltext0:
  19              		.cfi_sections	.debug_frame
  20              		.section	.text.queue_insert,"ax",%progbits
  21              		.align	2
  22              		.p2align 4,,15
  23              		.thumb
  24              		.thumb_func
  25              		.type	queue_insert, %function
  26              	queue_insert:
  27              	.LFB1:
  28              		.file 1 "/home/dave/r2p-sdk/core/ChibiOS/os/kernel/include/chinline.h"
  29              		.loc 1 52 0
  30              		.cfi_startproc
  31              		@ args = 0, pretend = 0, frame = 8
  32              		@ frame_needed = 0, uses_anonymous_args = 0
  33              		@ link register save eliminated.
  34 0000 82B0     		sub	sp, sp, #8
  35              		.cfi_def_cfa_offset 8
  36 0002 0190     		str	r0, [sp, #4]
  37 0004 0091     		str	r1, [sp]
  38              		.loc 1 54 0
  39 0006 019B     		ldr	r3, [sp, #4]
  40 0008 009A     		ldr	r2, [sp]
  41 000a 1A60     		str	r2, [r3]
  42              		.loc 1 55 0
  43 000c 009B     		ldr	r3, [sp]
  44 000e 5A68     		ldr	r2, [r3, #4]
  45 0010 019B     		ldr	r3, [sp, #4]
  46 0012 5A60     		str	r2, [r3, #4]
  47              		.loc 1 56 0
  48 0014 019B     		ldr	r3, [sp, #4]
  49 0016 5B68     		ldr	r3, [r3, #4]
  50 0018 009A     		ldr	r2, [sp]
  51 001a 0199     		ldr	r1, [sp, #4]
  52 001c 5160     		str	r1, [r2, #4]
  53 001e 009A     		ldr	r2, [sp]
  54 0020 5268     		ldr	r2, [r2, #4]
  55 0022 1A60     		str	r2, [r3]
  56              		.loc 1 57 0
  57 0024 02B0     		add	sp, sp, #8
ARM GAS  /tmp/ccUBR7C3.s 			page 2


  58              		@ sp needed
  59 0026 7047     		bx	lr
  60              		.cfi_endproc
  61              	.LFE1:
  62              		.size	queue_insert, .-queue_insert
  63 0028 AFF30080 		.section	.text.fifo_remove,"ax",%progbits
  63      AFF30080 
  64              		.align	2
  65              		.p2align 4,,15
  66              		.thumb
  67              		.thumb_func
  68              		.type	fifo_remove, %function
  69              	fifo_remove:
  70              	.LFB2:
  71              		.loc 1 59 0
  72              		.cfi_startproc
  73              		@ args = 0, pretend = 0, frame = 16
  74              		@ frame_needed = 0, uses_anonymous_args = 0
  75              		@ link register save eliminated.
  76 0000 84B0     		sub	sp, sp, #16
  77              		.cfi_def_cfa_offset 16
  78 0002 0190     		str	r0, [sp, #4]
  79              		.loc 1 60 0
  80 0004 019B     		ldr	r3, [sp, #4]
  81 0006 1B68     		ldr	r3, [r3]
  82 0008 0393     		str	r3, [sp, #12]
  83              		.loc 1 62 0
  84 000a 039B     		ldr	r3, [sp, #12]
  85 000c 1A68     		ldr	r2, [r3]
  86 000e 019B     		ldr	r3, [sp, #4]
  87 0010 1A60     		str	r2, [r3]
  88 0012 019B     		ldr	r3, [sp, #4]
  89 0014 1B68     		ldr	r3, [r3]
  90 0016 019A     		ldr	r2, [sp, #4]
  91 0018 5A60     		str	r2, [r3, #4]
  92              		.loc 1 63 0
  93 001a 039B     		ldr	r3, [sp, #12]
  94              		.loc 1 64 0
  95 001c 1846     		mov	r0, r3
  96 001e 04B0     		add	sp, sp, #16
  97              		@ sp needed
  98 0020 7047     		bx	lr
  99              		.cfi_endproc
 100              	.LFE2:
 101              		.size	fifo_remove, .-fifo_remove
 102 0022 00BFAFF3 		.section	.rodata
 102      0080AFF3 
 102      0080AFF3 
 102      0080
 103              		.align	2
 104              	.LC0:
 105 0000 2263684D 		.ascii	"\"chMsgSend\"()\000"
 105      73675365 
 105      6E642228 
 105      2900
 106              		.section	.text.chMsgSend,"ax",%progbits
 107              		.align	2
ARM GAS  /tmp/ccUBR7C3.s 			page 3


 108              		.p2align 4,,15
 109              		.global	chMsgSend
 110              		.thumb
 111              		.thumb_func
 112              		.type	chMsgSend, %function
 113              	chMsgSend:
 114              	.LFB7:
 115              		.file 2 "/home/dave/r2p-sdk/core/ChibiOS/os/kernel/src/chmsg.c"
 116              		.loc 2 75 0
 117              		.cfi_startproc
 118              		@ args = 0, pretend = 0, frame = 16
 119              		@ frame_needed = 0, uses_anonymous_args = 0
 120 0000 00B5     		push	{lr}
 121              		.cfi_def_cfa_offset 4
 122              		.cfi_offset 14, -4
 123 0002 85B0     		sub	sp, sp, #20
 124              		.cfi_def_cfa_offset 24
 125 0004 0190     		str	r0, [sp, #4]
 126 0006 0091     		str	r1, [sp]
 127              		.loc 2 76 0
 128 0008 194B     		ldr	r3, .L8
 129 000a 9B69     		ldr	r3, [r3, #24]
 130 000c 0393     		str	r3, [sp, #12]
 131              		.loc 2 78 0
 132 000e 019B     		ldr	r3, [sp, #4]
 133 0010 002B     		cmp	r3, #0
 134 0012 02D1     		bne	.L5
 135              		.loc 2 78 0 is_stmt 0 discriminator 1
 136 0014 1748     		ldr	r0, .L8+4
 137 0016 FFF7FEFF 		bl	chDbgPanic
 138              	.L5:
 139              	.LBB2:
 140              		.loc 2 80 0 is_stmt 1
 141 001a 2023     		movs	r3, #32
 142              	@ 80 "/home/dave/r2p-sdk/core/ChibiOS/os/kernel/src/chmsg.c" 1
 143 001c 83F31188 		msr     BASEPRI, r3
 144              	@ 0 "" 2
 145              		.thumb
 146              	.LBE2:
 147 0020 FFF7FEFF 		bl	dbg_check_lock
 148              		.loc 2 81 0
 149 0024 039B     		ldr	r3, [sp, #12]
 150 0026 009A     		ldr	r2, [sp]
 151 0028 9A63     		str	r2, [r3, #56]
 152              		.loc 2 82 0
 153 002a 019B     		ldr	r3, [sp, #4]
 154 002c 03F13002 		add	r2, r3, #48
 155 0030 039B     		ldr	r3, [sp, #12]
 156 0032 9A62     		str	r2, [r3, #40]
 157              		.loc 2 83 0
 158 0034 019B     		ldr	r3, [sp, #4]
 159 0036 3033     		adds	r3, r3, #48
 160 0038 0398     		ldr	r0, [sp, #12]
 161 003a 1946     		mov	r1, r3
 162 003c FFF7FEFF 		bl	queue_insert
 163              		.loc 2 84 0
 164 0040 019B     		ldr	r3, [sp, #4]
ARM GAS  /tmp/ccUBR7C3.s 			page 4


 165 0042 93F82030 		ldrb	r3, [r3, #32]	@ zero_extendqisi2
 166 0046 0C2B     		cmp	r3, #12
 167 0048 02D1     		bne	.L6
 168              		.loc 2 85 0
 169 004a 0198     		ldr	r0, [sp, #4]
 170 004c FFF7FEFF 		bl	chSchReadyI
 171              	.L6:
 172              		.loc 2 86 0
 173 0050 0A20     		movs	r0, #10
 174 0052 FFF7FEFF 		bl	chSchGoSleepS
 175              		.loc 2 87 0
 176 0056 039B     		ldr	r3, [sp, #12]
 177 0058 9B6A     		ldr	r3, [r3, #40]
 178 005a 0093     		str	r3, [sp]
 179              		.loc 2 88 0
 180 005c FFF7FEFF 		bl	dbg_check_unlock
 181              	.LBB3:
 182 0060 0023     		movs	r3, #0
 183              	@ 88 "/home/dave/r2p-sdk/core/ChibiOS/os/kernel/src/chmsg.c" 1
 184 0062 83F31188 		msr     BASEPRI, r3
 185              	@ 0 "" 2
 186              		.thumb
 187              	.LBE3:
 188              		.loc 2 89 0
 189 0066 009B     		ldr	r3, [sp]
 190              		.loc 2 90 0
 191 0068 1846     		mov	r0, r3
 192 006a 05B0     		add	sp, sp, #20
 193              		@ sp needed
 194 006c 5DF804FB 		ldr	pc, [sp], #4
 195              	.L9:
 196              		.align	2
 197              	.L8:
 198 0070 00000000 		.word	rlist
 199 0074 00000000 		.word	.LC0
 200              		.cfi_endproc
 201              	.LFE7:
 202              		.size	chMsgSend, .-chMsgSend
 203 0078 AFF30080 		.section	.text.chMsgWait,"ax",%progbits
 203      AFF30080 
 204              		.align	2
 205              		.p2align 4,,15
 206              		.global	chMsgWait
 207              		.thumb
 208              		.thumb_func
 209              		.type	chMsgWait, %function
 210              	chMsgWait:
 211              	.LFB8:
 212              		.loc 2 106 0
 213              		.cfi_startproc
 214              		@ args = 0, pretend = 0, frame = 8
 215              		@ frame_needed = 0, uses_anonymous_args = 0
 216 0000 00B5     		push	{lr}
 217              		.cfi_def_cfa_offset 4
 218              		.cfi_offset 14, -4
 219 0002 83B0     		sub	sp, sp, #12
 220              		.cfi_def_cfa_offset 16
ARM GAS  /tmp/ccUBR7C3.s 			page 5


 221              	.LBB4:
 222              		.loc 2 109 0
 223 0004 2023     		movs	r3, #32
 224              	@ 109 "/home/dave/r2p-sdk/core/ChibiOS/os/kernel/src/chmsg.c" 1
 225 0006 83F31188 		msr     BASEPRI, r3
 226              	@ 0 "" 2
 227              		.thumb
 228              	.LBE4:
 229 000a FFF7FEFF 		bl	dbg_check_lock
 230              		.loc 2 110 0
 231 000e 104B     		ldr	r3, .L13
 232 0010 9B69     		ldr	r3, [r3, #24]
 233 0012 1A6B     		ldr	r2, [r3, #48]
 234 0014 0E4B     		ldr	r3, .L13
 235 0016 9B69     		ldr	r3, [r3, #24]
 236 0018 3033     		adds	r3, r3, #48
 237 001a 9A42     		cmp	r2, r3
 238 001c 02D1     		bne	.L11
 239              		.loc 2 111 0
 240 001e 0C20     		movs	r0, #12
 241 0020 FFF7FEFF 		bl	chSchGoSleepS
 242              	.L11:
 243              		.loc 2 112 0
 244 0024 0A4B     		ldr	r3, .L13
 245 0026 9B69     		ldr	r3, [r3, #24]
 246 0028 3033     		adds	r3, r3, #48
 247 002a 1846     		mov	r0, r3
 248 002c FFF7FEFF 		bl	fifo_remove
 249 0030 0190     		str	r0, [sp, #4]
 250              		.loc 2 113 0
 251 0032 019B     		ldr	r3, [sp, #4]
 252 0034 0B22     		movs	r2, #11
 253 0036 83F82020 		strb	r2, [r3, #32]
 254              		.loc 2 114 0
 255 003a FFF7FEFF 		bl	dbg_check_unlock
 256              	.LBB5:
 257 003e 0023     		movs	r3, #0
 258              	@ 114 "/home/dave/r2p-sdk/core/ChibiOS/os/kernel/src/chmsg.c" 1
 259 0040 83F31188 		msr     BASEPRI, r3
 260              	@ 0 "" 2
 261              		.thumb
 262              	.LBE5:
 263              		.loc 2 115 0
 264 0044 019B     		ldr	r3, [sp, #4]
 265              		.loc 2 116 0
 266 0046 1846     		mov	r0, r3
 267 0048 03B0     		add	sp, sp, #12
 268              		@ sp needed
 269 004a 5DF804FB 		ldr	pc, [sp], #4
 270              	.L14:
 271 004e 00BF     		.align	2
 272              	.L13:
 273 0050 00000000 		.word	rlist
 274              		.cfi_endproc
 275              	.LFE8:
 276              		.size	chMsgWait, .-chMsgWait
 277 0054 AFF30080 		.section	.rodata
ARM GAS  /tmp/ccUBR7C3.s 			page 6


 277      AFF30080 
 277      AFF30080 
 278 000e 0000     		.align	2
 279              	.LC1:
 280 0010 63684D73 		.ascii	"chMsgRelease(), #1\000"
 280      6752656C 
 280      65617365 
 280      28292C20 
 280      233100
 281 0023 00       		.section	.text.chMsgRelease,"ax",%progbits
 282              		.align	2
 283              		.p2align 4,,15
 284              		.global	chMsgRelease
 285              		.thumb
 286              		.thumb_func
 287              		.type	chMsgRelease, %function
 288              	chMsgRelease:
 289              	.LFB9:
 290              		.loc 2 128 0
 291              		.cfi_startproc
 292              		@ args = 0, pretend = 0, frame = 8
 293              		@ frame_needed = 0, uses_anonymous_args = 0
 294 0000 00B5     		push	{lr}
 295              		.cfi_def_cfa_offset 4
 296              		.cfi_offset 14, -4
 297 0002 83B0     		sub	sp, sp, #12
 298              		.cfi_def_cfa_offset 16
 299 0004 0190     		str	r0, [sp, #4]
 300 0006 0091     		str	r1, [sp]
 301              	.LBB6:
 302              		.loc 2 130 0
 303 0008 2023     		movs	r3, #32
 304              	@ 130 "/home/dave/r2p-sdk/core/ChibiOS/os/kernel/src/chmsg.c" 1
 305 000a 83F31188 		msr     BASEPRI, r3
 306              	@ 0 "" 2
 307              		.thumb
 308              	.LBE6:
 309 000e FFF7FEFF 		bl	dbg_check_lock
 310              		.loc 2 131 0
 311 0012 019B     		ldr	r3, [sp, #4]
 312 0014 93F82030 		ldrb	r3, [r3, #32]	@ zero_extendqisi2
 313 0018 0B2B     		cmp	r3, #11
 314 001a 02D0     		beq	.L16
 315              		.loc 2 131 0 is_stmt 0 discriminator 1
 316 001c 0748     		ldr	r0, .L17
 317 001e FFF7FEFF 		bl	chDbgPanic
 318              	.L16:
 319              		.loc 2 133 0 is_stmt 1
 320 0022 0198     		ldr	r0, [sp, #4]
 321 0024 0099     		ldr	r1, [sp]
 322 0026 FFF7FEFF 		bl	chSchWakeupS
 323              		.loc 2 134 0
 324 002a FFF7FEFF 		bl	dbg_check_unlock
 325              	.LBB7:
 326 002e 0023     		movs	r3, #0
 327              	@ 134 "/home/dave/r2p-sdk/core/ChibiOS/os/kernel/src/chmsg.c" 1
 328 0030 83F31188 		msr     BASEPRI, r3
ARM GAS  /tmp/ccUBR7C3.s 			page 7


 329              	@ 0 "" 2
 330              		.thumb
 331              	.LBE7:
 332              		.loc 2 135 0
 333 0034 03B0     		add	sp, sp, #12
 334              		@ sp needed
 335 0036 5DF804FB 		ldr	pc, [sp], #4
 336              	.L18:
 337 003a 00BF     		.align	2
 338              	.L17:
 339 003c 10000000 		.word	.LC1
 340              		.cfi_endproc
 341              	.LFE9:
 342              		.size	chMsgRelease, .-chMsgRelease
 343              		.text
 344              	.Letext0:
 345              		.file 3 "/usr/include/newlib/machine/_default_types.h"
 346              		.file 4 "/usr/include/newlib/stdint.h"
 347              		.file 5 "/home/dave/r2p-sdk/core/ChibiOS/os/ports/GCC/ARMCMx/chtypes.h"
 348              		.file 6 "/home/dave/r2p-sdk/core/ChibiOS/os/kernel/include/chlists.h"
 349              		.file 7 "/home/dave/r2p-sdk/core/ChibiOS/os/kernel/include/chthreads.h"
 350              		.file 8 "/home/dave/r2p-sdk/core/ChibiOS/os/ports/GCC/ARMCMx/chcore_v7m.h"
 351              		.file 9 "/home/dave/r2p-sdk/core/ChibiOS/os/kernel/include/chschd.h"
 352              		.file 10 "/home/dave/r2p-sdk/core/ChibiOS/os/kernel/include/chmtx.h"