ARM GAS  /tmp/ccff51QV.s 			page 1


   1              		.syntax unified
   2              		.cpu cortex-m4
   3              		.eabi_attribute 27, 3
   4              		.eabi_attribute 28, 1
   5              		.fpu fpv4-sp-d16
   6              		.eabi_attribute 20, 1
   7              		.eabi_attribute 21, 1
   8              		.eabi_attribute 23, 3
   9              		.eabi_attribute 24, 1
  10              		.eabi_attribute 25, 1
  11              		.eabi_attribute 26, 1
  12              		.eabi_attribute 30, 6
  13              		.eabi_attribute 34, 1
  14              		.eabi_attribute 18, 4
  15              		.thumb
  16              		.file	"chmtx.c"
  17              		.text
  18              	.Ltext0:
  19              		.cfi_sections	.debug_frame
  20              		.section	.text.prio_insert,"ax",%progbits
  21              		.align	2
  22              		.p2align 4,,15
  23              		.thumb
  24              		.thumb_func
  25              		.type	prio_insert, %function
  26              	prio_insert:
  27              	.LFB0:
  28              		.file 1 "/home/dave/r2p-sdk/core/ChibiOS/os/kernel/include/chinline.h"
  29              		.loc 1 41 0
  30              		.cfi_startproc
  31              		@ args = 0, pretend = 0, frame = 16
  32              		@ frame_needed = 0, uses_anonymous_args = 0
  33              		@ link register save eliminated.
  34 0000 84B0     		sub	sp, sp, #16
  35              		.cfi_def_cfa_offset 16
  36 0002 0190     		str	r0, [sp, #4]
  37 0004 0091     		str	r1, [sp]
  38              		.loc 1 43 0
  39 0006 009B     		ldr	r3, [sp]
  40 0008 0393     		str	r3, [sp, #12]
  41              	.L3:
  42              		.loc 1 45 0 discriminator 1
  43 000a 039B     		ldr	r3, [sp, #12]
  44 000c 1B68     		ldr	r3, [r3]
  45 000e 0393     		str	r3, [sp, #12]
  46              		.loc 1 46 0 discriminator 1
  47 0010 039A     		ldr	r2, [sp, #12]
  48 0012 009B     		ldr	r3, [sp]
  49 0014 9A42     		cmp	r2, r3
  50 0016 05D0     		beq	.L2
  51 0018 039B     		ldr	r3, [sp, #12]
  52 001a 9A68     		ldr	r2, [r3, #8]
  53 001c 019B     		ldr	r3, [sp, #4]
  54 001e 9B68     		ldr	r3, [r3, #8]
  55 0020 9A42     		cmp	r2, r3
  56 0022 F2D2     		bcs	.L3
  57              	.L2:
ARM GAS  /tmp/ccff51QV.s 			page 2


  58              		.loc 1 47 0
  59 0024 019B     		ldr	r3, [sp, #4]
  60 0026 039A     		ldr	r2, [sp, #12]
  61 0028 1A60     		str	r2, [r3]
  62              		.loc 1 48 0
  63 002a 039B     		ldr	r3, [sp, #12]
  64 002c 5A68     		ldr	r2, [r3, #4]
  65 002e 019B     		ldr	r3, [sp, #4]
  66 0030 5A60     		str	r2, [r3, #4]
  67              		.loc 1 49 0
  68 0032 019B     		ldr	r3, [sp, #4]
  69 0034 5B68     		ldr	r3, [r3, #4]
  70 0036 039A     		ldr	r2, [sp, #12]
  71 0038 0199     		ldr	r1, [sp, #4]
  72 003a 5160     		str	r1, [r2, #4]
  73 003c 039A     		ldr	r2, [sp, #12]
  74 003e 5268     		ldr	r2, [r2, #4]
  75 0040 1A60     		str	r2, [r3]
  76              		.loc 1 50 0
  77 0042 04B0     		add	sp, sp, #16
  78              		@ sp needed
  79 0044 7047     		bx	lr
  80              		.cfi_endproc
  81              	.LFE0:
  82              		.size	prio_insert, .-prio_insert
  83 0046 00BFAFF3 		.section	.text.fifo_remove,"ax",%progbits
  83      0080AFF3 
  83      0080
  84              		.align	2
  85              		.p2align 4,,15
  86              		.thumb
  87              		.thumb_func
  88              		.type	fifo_remove, %function
  89              	fifo_remove:
  90              	.LFB2:
  91              		.loc 1 59 0
  92              		.cfi_startproc
  93              		@ args = 0, pretend = 0, frame = 16
  94              		@ frame_needed = 0, uses_anonymous_args = 0
  95              		@ link register save eliminated.
  96 0000 84B0     		sub	sp, sp, #16
  97              		.cfi_def_cfa_offset 16
  98 0002 0190     		str	r0, [sp, #4]
  99              		.loc 1 60 0
 100 0004 019B     		ldr	r3, [sp, #4]
 101 0006 1B68     		ldr	r3, [r3]
 102 0008 0393     		str	r3, [sp, #12]
 103              		.loc 1 62 0
 104 000a 039B     		ldr	r3, [sp, #12]
 105 000c 1A68     		ldr	r2, [r3]
 106 000e 019B     		ldr	r3, [sp, #4]
 107 0010 1A60     		str	r2, [r3]
 108 0012 019B     		ldr	r3, [sp, #4]
 109 0014 1B68     		ldr	r3, [r3]
 110 0016 019A     		ldr	r2, [sp, #4]
 111 0018 5A60     		str	r2, [r3, #4]
 112              		.loc 1 63 0
ARM GAS  /tmp/ccff51QV.s 			page 3


 113 001a 039B     		ldr	r3, [sp, #12]
 114              		.loc 1 64 0
 115 001c 1846     		mov	r0, r3
 116 001e 04B0     		add	sp, sp, #16
 117              		@ sp needed
 118 0020 7047     		bx	lr
 119              		.cfi_endproc
 120              	.LFE2:
 121              		.size	fifo_remove, .-fifo_remove
 122 0022 00BFAFF3 		.section	.text.dequeue,"ax",%progbits
 122      0080AFF3 
 122      0080AFF3 
 122      0080
 123              		.align	2
 124              		.p2align 4,,15
 125              		.thumb
 126              		.thumb_func
 127              		.type	dequeue, %function
 128              	dequeue:
 129              	.LFB4:
 130              		.loc 1 73 0
 131              		.cfi_startproc
 132              		@ args = 0, pretend = 0, frame = 8
 133              		@ frame_needed = 0, uses_anonymous_args = 0
 134              		@ link register save eliminated.
 135 0000 82B0     		sub	sp, sp, #8
 136              		.cfi_def_cfa_offset 8
 137 0002 0190     		str	r0, [sp, #4]
 138              		.loc 1 75 0
 139 0004 019B     		ldr	r3, [sp, #4]
 140 0006 5B68     		ldr	r3, [r3, #4]
 141 0008 019A     		ldr	r2, [sp, #4]
 142 000a 1268     		ldr	r2, [r2]
 143 000c 1A60     		str	r2, [r3]
 144              		.loc 1 76 0
 145 000e 019B     		ldr	r3, [sp, #4]
 146 0010 1B68     		ldr	r3, [r3]
 147 0012 019A     		ldr	r2, [sp, #4]
 148 0014 5268     		ldr	r2, [r2, #4]
 149 0016 5A60     		str	r2, [r3, #4]
 150              		.loc 1 77 0
 151 0018 019B     		ldr	r3, [sp, #4]
 152              		.loc 1 78 0
 153 001a 1846     		mov	r0, r3
 154 001c 02B0     		add	sp, sp, #8
 155              		@ sp needed
 156 001e 7047     		bx	lr
 157              		.cfi_endproc
 158              	.LFE4:
 159              		.size	dequeue, .-dequeue
 160              		.section	.rodata
 161              		.align	2
 162              	.LC0:
 163 0000 2263684D 		.ascii	"\"chMtxInit\"()\000"
 163      7478496E 
 163      69742228 
 163      2900
ARM GAS  /tmp/ccff51QV.s 			page 4


 164              		.section	.text.chMtxInit,"ax",%progbits
 165              		.align	2
 166              		.p2align 4,,15
 167              		.global	chMtxInit
 168              		.thumb
 169              		.thumb_func
 170              		.type	chMtxInit, %function
 171              	chMtxInit:
 172              	.LFB7:
 173              		.file 2 "/home/dave/r2p-sdk/core/ChibiOS/os/kernel/src/chmtx.c"
 174              		.loc 2 86 0
 175              		.cfi_startproc
 176              		@ args = 0, pretend = 0, frame = 8
 177              		@ frame_needed = 0, uses_anonymous_args = 0
 178 0000 00B5     		push	{lr}
 179              		.cfi_def_cfa_offset 4
 180              		.cfi_offset 14, -4
 181 0002 83B0     		sub	sp, sp, #12
 182              		.cfi_def_cfa_offset 16
 183 0004 0190     		str	r0, [sp, #4]
 184              		.loc 2 88 0
 185 0006 019B     		ldr	r3, [sp, #4]
 186 0008 002B     		cmp	r3, #0
 187 000a 02D1     		bne	.L9
 188              		.loc 2 88 0 is_stmt 0 discriminator 1
 189 000c 0748     		ldr	r0, .L10
 190 000e FFF7FEFF 		bl	chDbgPanic
 191              	.L9:
 192              		.loc 2 90 0 is_stmt 1
 193 0012 019A     		ldr	r2, [sp, #4]
 194 0014 019B     		ldr	r3, [sp, #4]
 195 0016 5A60     		str	r2, [r3, #4]
 196 0018 019B     		ldr	r3, [sp, #4]
 197 001a 5A68     		ldr	r2, [r3, #4]
 198 001c 019B     		ldr	r3, [sp, #4]
 199 001e 1A60     		str	r2, [r3]
 200              		.loc 2 91 0
 201 0020 019B     		ldr	r3, [sp, #4]
 202 0022 0022     		movs	r2, #0
 203 0024 9A60     		str	r2, [r3, #8]
 204              		.loc 2 92 0
 205 0026 03B0     		add	sp, sp, #12
 206              		@ sp needed
 207 0028 5DF804FB 		ldr	pc, [sp], #4
 208              	.L11:
 209              		.align	2
 210              	.L10:
 211 002c 00000000 		.word	.LC0
 212              		.cfi_endproc
 213              	.LFE7:
 214              		.size	chMtxInit, .-chMtxInit
 215              		.section	.text.chMtxLock,"ax",%progbits
 216              		.align	2
 217              		.p2align 4,,15
 218              		.global	chMtxLock
 219              		.thumb
 220              		.thumb_func
ARM GAS  /tmp/ccff51QV.s 			page 5


 221              		.type	chMtxLock, %function
 222              	chMtxLock:
 223              	.LFB8:
 224              		.loc 2 103 0
 225              		.cfi_startproc
 226              		@ args = 0, pretend = 0, frame = 8
 227              		@ frame_needed = 0, uses_anonymous_args = 0
 228 0000 00B5     		push	{lr}
 229              		.cfi_def_cfa_offset 4
 230              		.cfi_offset 14, -4
 231 0002 83B0     		sub	sp, sp, #12
 232              		.cfi_def_cfa_offset 16
 233 0004 0190     		str	r0, [sp, #4]
 234              	.LBB2:
 235              		.loc 2 105 0
 236 0006 2023     		movs	r3, #32
 237              	@ 105 "/home/dave/r2p-sdk/core/ChibiOS/os/kernel/src/chmtx.c" 1
 238 0008 83F31188 		msr     BASEPRI, r3
 239              	@ 0 "" 2
 240              		.thumb
 241              	.LBE2:
 242 000c FFF7FEFF 		bl	dbg_check_lock
 243              		.loc 2 107 0
 244 0010 0198     		ldr	r0, [sp, #4]
 245 0012 FFF7FEFF 		bl	chMtxLockS
 246              		.loc 2 109 0
 247 0016 FFF7FEFF 		bl	dbg_check_unlock
 248              	.LBB3:
 249 001a 0023     		movs	r3, #0
 250              	@ 109 "/home/dave/r2p-sdk/core/ChibiOS/os/kernel/src/chmtx.c" 1
 251 001c 83F31188 		msr     BASEPRI, r3
 252              	@ 0 "" 2
 253              		.thumb
 254              	.LBE3:
 255              		.loc 2 110 0
 256 0020 03B0     		add	sp, sp, #12
 257              		@ sp needed
 258 0022 5DF804FB 		ldr	pc, [sp], #4
 259              		.cfi_endproc
 260              	.LFE8:
 261              		.size	chMtxLock, .-chMtxLock
 262 0026 00BFAFF3 		.section	.rodata
 262      0080AFF3 
 262      0080
 263 000e 0000     		.align	2
 264              	.LC1:
 265 0010 2263684D 		.ascii	"\"chMtxLockS\"()\000"
 265      74784C6F 
 265      636B5322 
 265      282900
 266 001f 00       		.align	2
 267              	.LC2:
 268 0020 63684D74 		.ascii	"chMtxLockS(), #1\000"
 268      784C6F63 
 268      6B532829 
 268      2C202331 
 268      00
ARM GAS  /tmp/ccff51QV.s 			page 6


 269 0031 000000   		.align	2
 270              	.LC3:
 271 0034 63684D74 		.ascii	"chMtxLockS(), #2\000"
 271      784C6F63 
 271      6B532829 
 271      2C202332 
 271      00
 272              		.section	.text.chMtxLockS,"ax",%progbits
 273              		.align	2
 274              		.p2align 4,,15
 275              		.global	chMtxLockS
 276              		.thumb
 277              		.thumb_func
 278              		.type	chMtxLockS, %function
 279              	chMtxLockS:
 280              	.LFB9:
 281              		.loc 2 121 0
 282              		.cfi_startproc
 283              		@ args = 0, pretend = 0, frame = 16
 284              		@ frame_needed = 0, uses_anonymous_args = 0
 285 0000 00B5     		push	{lr}
 286              		.cfi_def_cfa_offset 4
 287              		.cfi_offset 14, -4
 288 0002 85B0     		sub	sp, sp, #20
 289              		.cfi_def_cfa_offset 24
 290 0004 0190     		str	r0, [sp, #4]
 291              		.loc 2 122 0
 292 0006 3C4B     		ldr	r3, .L26
 293 0008 9B69     		ldr	r3, [r3, #24]
 294 000a 0293     		str	r3, [sp, #8]
 295              		.loc 2 124 0
 296 000c FFF7FEFF 		bl	chDbgCheckClassS
 297              		.loc 2 125 0
 298 0010 019B     		ldr	r3, [sp, #4]
 299 0012 002B     		cmp	r3, #0
 300 0014 02D1     		bne	.L14
 301              		.loc 2 125 0 is_stmt 0 discriminator 1
 302 0016 3948     		ldr	r0, .L26+4
 303 0018 FFF7FEFF 		bl	chDbgPanic
 304              	.L14:
 305              		.loc 2 128 0 is_stmt 1
 306 001c 019B     		ldr	r3, [sp, #4]
 307 001e 9B68     		ldr	r3, [r3, #8]
 308 0020 002B     		cmp	r3, #0
 309 0022 5BD0     		beq	.L15
 310              	.LBB4:
 311              		.loc 2 132 0
 312 0024 019B     		ldr	r3, [sp, #4]
 313 0026 9B68     		ldr	r3, [r3, #8]
 314 0028 0393     		str	r3, [sp, #12]
 315              		.loc 2 135 0
 316 002a 34E0     		b	.L16
 317              	.L22:
 318              		.loc 2 137 0
 319 002c 029B     		ldr	r3, [sp, #8]
 320 002e 9A68     		ldr	r2, [r3, #8]
 321 0030 039B     		ldr	r3, [sp, #12]
ARM GAS  /tmp/ccff51QV.s 			page 7


 322 0032 9A60     		str	r2, [r3, #8]
 323              		.loc 2 139 0
 324 0034 039B     		ldr	r3, [sp, #12]
 325 0036 93F82030 		ldrb	r3, [r3, #32]	@ zero_extendqisi2
 326 003a 042B     		cmp	r3, #4
 327 003c 04D0     		beq	.L18
 328 003e 052B     		cmp	r3, #5
 329 0040 11D0     		beq	.L19
 330 0042 002B     		cmp	r3, #0
 331 0044 1AD0     		beq	.L20
 332              		.loc 2 170 0
 333 0046 2CE0     		b	.L21
 334              	.L18:
 335              		.loc 2 142 0
 336 0048 0398     		ldr	r0, [sp, #12]
 337 004a FFF7FEFF 		bl	dequeue
 338 004e 0246     		mov	r2, r0
 339 0050 039B     		ldr	r3, [sp, #12]
 340 0052 9B6A     		ldr	r3, [r3, #40]
 341 0054 1046     		mov	r0, r2
 342 0056 1946     		mov	r1, r3
 343 0058 FFF7FEFF 		bl	prio_insert
 344              		.loc 2 143 0
 345 005c 039B     		ldr	r3, [sp, #12]
 346 005e 9B6A     		ldr	r3, [r3, #40]
 347 0060 9B68     		ldr	r3, [r3, #8]
 348 0062 0393     		str	r3, [sp, #12]
 349              		.loc 2 144 0
 350 0064 17E0     		b	.L16
 351              	.L19:
 352              		.loc 2 158 0
 353 0066 0398     		ldr	r0, [sp, #12]
 354 0068 FFF7FEFF 		bl	dequeue
 355 006c 0246     		mov	r2, r0
 356 006e 039B     		ldr	r3, [sp, #12]
 357 0070 9B6A     		ldr	r3, [r3, #40]
 358 0072 1046     		mov	r0, r2
 359 0074 1946     		mov	r1, r3
 360 0076 FFF7FEFF 		bl	prio_insert
 361              		.loc 2 159 0
 362 007a 0BE0     		b	.L17
 363              	.L20:
 364              		.loc 2 164 0
 365 007c 039B     		ldr	r3, [sp, #12]
 366 007e 0122     		movs	r2, #1
 367 0080 83F82020 		strb	r2, [r3, #32]
 368              		.loc 2 167 0
 369 0084 0398     		ldr	r0, [sp, #12]
 370 0086 FFF7FEFF 		bl	dequeue
 371 008a 0346     		mov	r3, r0
 372 008c 1846     		mov	r0, r3
 373 008e FFF7FEFF 		bl	chSchReadyI
 374              		.loc 2 168 0
 375 0092 00BF     		nop
 376              	.L17:
 377              		.loc 2 170 0
 378 0094 05E0     		b	.L21
ARM GAS  /tmp/ccff51QV.s 			page 8


 379              	.L16:
 380              		.loc 2 135 0 discriminator 1
 381 0096 039B     		ldr	r3, [sp, #12]
 382 0098 9A68     		ldr	r2, [r3, #8]
 383 009a 029B     		ldr	r3, [sp, #8]
 384 009c 9B68     		ldr	r3, [r3, #8]
 385 009e 9A42     		cmp	r2, r3
 386 00a0 C4D3     		bcc	.L22
 387              	.L21:
 388              		.loc 2 173 0
 389 00a2 019B     		ldr	r3, [sp, #4]
 390 00a4 0298     		ldr	r0, [sp, #8]
 391 00a6 1946     		mov	r1, r3
 392 00a8 FFF7FEFF 		bl	prio_insert
 393              		.loc 2 174 0
 394 00ac 029B     		ldr	r3, [sp, #8]
 395 00ae 019A     		ldr	r2, [sp, #4]
 396 00b0 9A62     		str	r2, [r3, #40]
 397              		.loc 2 175 0
 398 00b2 0420     		movs	r0, #4
 399 00b4 FFF7FEFF 		bl	chSchGoSleepS
 400              		.loc 2 178 0
 401 00b8 019B     		ldr	r3, [sp, #4]
 402 00ba 9A68     		ldr	r2, [r3, #8]
 403 00bc 029B     		ldr	r3, [sp, #8]
 404 00be 9A42     		cmp	r2, r3
 405 00c0 02D0     		beq	.L23
 406              		.loc 2 178 0 is_stmt 0 discriminator 1
 407 00c2 0F48     		ldr	r0, .L26+8
 408 00c4 FFF7FEFF 		bl	chDbgPanic
 409              	.L23:
 410              		.loc 2 179 0 is_stmt 1
 411 00c8 029B     		ldr	r3, [sp, #8]
 412 00ca 1A6C     		ldr	r2, [r3, #64]
 413 00cc 019B     		ldr	r3, [sp, #4]
 414 00ce 9A42     		cmp	r2, r3
 415 00d0 03D0     		beq	.L24
 416              		.loc 2 179 0 is_stmt 0 discriminator 1
 417 00d2 0C48     		ldr	r0, .L26+12
 418 00d4 FFF7FEFF 		bl	chDbgPanic
 419              	.LBE4:
 420 00d8 0AE0     		b	.L13
 421              	.L24:
 422 00da 09E0     		b	.L13
 423              	.L15:
 424              		.loc 2 183 0 is_stmt 1
 425 00dc 019B     		ldr	r3, [sp, #4]
 426 00de 029A     		ldr	r2, [sp, #8]
 427 00e0 9A60     		str	r2, [r3, #8]
 428              		.loc 2 184 0
 429 00e2 029B     		ldr	r3, [sp, #8]
 430 00e4 1A6C     		ldr	r2, [r3, #64]
 431 00e6 019B     		ldr	r3, [sp, #4]
 432 00e8 DA60     		str	r2, [r3, #12]
 433              		.loc 2 185 0
 434 00ea 029B     		ldr	r3, [sp, #8]
 435 00ec 019A     		ldr	r2, [sp, #4]
ARM GAS  /tmp/ccff51QV.s 			page 9


 436 00ee 1A64     		str	r2, [r3, #64]
 437              	.L13:
 438              		.loc 2 187 0
 439 00f0 05B0     		add	sp, sp, #20
 440              		@ sp needed
 441 00f2 5DF804FB 		ldr	pc, [sp], #4
 442              	.L27:
 443 00f6 00BF     		.align	2
 444              	.L26:
 445 00f8 00000000 		.word	rlist
 446 00fc 10000000 		.word	.LC1
 447 0100 20000000 		.word	.LC2
 448 0104 34000000 		.word	.LC3
 449              		.cfi_endproc
 450              	.LFE9:
 451              		.size	chMtxLockS, .-chMtxLockS
 452 0108 AFF30080 		.section	.text.chMtxTryLock,"ax",%progbits
 452      AFF30080 
 453              		.align	2
 454              		.p2align 4,,15
 455              		.global	chMtxTryLock
 456              		.thumb
 457              		.thumb_func
 458              		.type	chMtxTryLock, %function
 459              	chMtxTryLock:
 460              	.LFB10:
 461              		.loc 2 206 0
 462              		.cfi_startproc
 463              		@ args = 0, pretend = 0, frame = 16
 464              		@ frame_needed = 0, uses_anonymous_args = 0
 465 0000 00B5     		push	{lr}
 466              		.cfi_def_cfa_offset 4
 467              		.cfi_offset 14, -4
 468 0002 85B0     		sub	sp, sp, #20
 469              		.cfi_def_cfa_offset 24
 470 0004 0190     		str	r0, [sp, #4]
 471              	.LBB5:
 472              		.loc 2 209 0
 473 0006 2023     		movs	r3, #32
 474              	@ 209 "/home/dave/r2p-sdk/core/ChibiOS/os/kernel/src/chmtx.c" 1
 475 0008 83F31188 		msr     BASEPRI, r3
 476              	@ 0 "" 2
 477              		.thumb
 478              	.LBE5:
 479 000c FFF7FEFF 		bl	dbg_check_lock
 480              		.loc 2 211 0
 481 0010 0198     		ldr	r0, [sp, #4]
 482 0012 FFF7FEFF 		bl	chMtxTryLockS
 483 0016 0346     		mov	r3, r0
 484 0018 8DF80F30 		strb	r3, [sp, #15]
 485              		.loc 2 213 0
 486 001c FFF7FEFF 		bl	dbg_check_unlock
 487              	.LBB6:
 488 0020 0023     		movs	r3, #0
 489              	@ 213 "/home/dave/r2p-sdk/core/ChibiOS/os/kernel/src/chmtx.c" 1
 490 0022 83F31188 		msr     BASEPRI, r3
 491              	@ 0 "" 2
ARM GAS  /tmp/ccff51QV.s 			page 10


 492              		.thumb
 493              	.LBE6:
 494              		.loc 2 214 0
 495 0026 9DF80F30 		ldrb	r3, [sp, #15]	@ zero_extendqisi2
 496              		.loc 2 215 0
 497 002a 1846     		mov	r0, r3
 498 002c 05B0     		add	sp, sp, #20
 499              		@ sp needed
 500 002e 5DF804FB 		ldr	pc, [sp], #4
 501              		.cfi_endproc
 502              	.LFE10:
 503              		.size	chMtxTryLock, .-chMtxTryLock
 504 0032 00BFAFF3 		.section	.rodata
 504      0080AFF3 
 504      0080AFF3 
 504      0080
 505 0045 000000   		.align	2
 506              	.LC4:
 507 0048 2263684D 		.ascii	"\"chMtxTryLockS\"()\000"
 507      74785472 
 507      794C6F63 
 507      6B532228 
 507      2900
 508              		.section	.text.chMtxTryLockS,"ax",%progbits
 509              		.align	2
 510              		.p2align 4,,15
 511              		.global	chMtxTryLockS
 512              		.thumb
 513              		.thumb_func
 514              		.type	chMtxTryLockS, %function
 515              	chMtxTryLockS:
 516              	.LFB11:
 517              		.loc 2 234 0
 518              		.cfi_startproc
 519              		@ args = 0, pretend = 0, frame = 8
 520              		@ frame_needed = 0, uses_anonymous_args = 0
 521 0000 00B5     		push	{lr}
 522              		.cfi_def_cfa_offset 4
 523              		.cfi_offset 14, -4
 524 0002 83B0     		sub	sp, sp, #12
 525              		.cfi_def_cfa_offset 16
 526 0004 0190     		str	r0, [sp, #4]
 527              		.loc 2 236 0
 528 0006 FFF7FEFF 		bl	chDbgCheckClassS
 529              		.loc 2 237 0
 530 000a 019B     		ldr	r3, [sp, #4]
 531 000c 002B     		cmp	r3, #0
 532 000e 02D1     		bne	.L31
 533              		.loc 2 237 0 is_stmt 0 discriminator 1
 534 0010 0D48     		ldr	r0, .L34
 535 0012 FFF7FEFF 		bl	chDbgPanic
 536              	.L31:
 537              		.loc 2 239 0 is_stmt 1
 538 0016 019B     		ldr	r3, [sp, #4]
 539 0018 9B68     		ldr	r3, [r3, #8]
 540 001a 002B     		cmp	r3, #0
 541 001c 01D0     		beq	.L32
ARM GAS  /tmp/ccff51QV.s 			page 11


 542              		.loc 2 240 0
 543 001e 0023     		movs	r3, #0
 544 0020 0DE0     		b	.L33
 545              	.L32:
 546              		.loc 2 241 0
 547 0022 0A4B     		ldr	r3, .L34+4
 548 0024 9A69     		ldr	r2, [r3, #24]
 549 0026 019B     		ldr	r3, [sp, #4]
 550 0028 9A60     		str	r2, [r3, #8]
 551              		.loc 2 242 0
 552 002a 084B     		ldr	r3, .L34+4
 553 002c 9B69     		ldr	r3, [r3, #24]
 554 002e 1A6C     		ldr	r2, [r3, #64]
 555 0030 019B     		ldr	r3, [sp, #4]
 556 0032 DA60     		str	r2, [r3, #12]
 557              		.loc 2 243 0
 558 0034 054B     		ldr	r3, .L34+4
 559 0036 9B69     		ldr	r3, [r3, #24]
 560 0038 019A     		ldr	r2, [sp, #4]
 561 003a 1A64     		str	r2, [r3, #64]
 562              		.loc 2 244 0
 563 003c 0123     		movs	r3, #1
 564              	.L33:
 565              		.loc 2 245 0
 566 003e 1846     		mov	r0, r3
 567 0040 03B0     		add	sp, sp, #12
 568              		@ sp needed
 569 0042 5DF804FB 		ldr	pc, [sp], #4
 570              	.L35:
 571 0046 00BF     		.align	2
 572              	.L34:
 573 0048 48000000 		.word	.LC4
 574 004c 00000000 		.word	rlist
 575              		.cfi_endproc
 576              	.LFE11:
 577              		.size	chMtxTryLockS, .-chMtxTryLockS
 578              		.section	.rodata
 579 005a 0000     		.align	2
 580              	.LC5:
 581 005c 63684D74 		.ascii	"chMtxUnlock(), #1\000"
 581      78556E6C 
 581      6F636B28 
 581      292C2023 
 581      3100
 582 006e 0000     		.align	2
 583              	.LC6:
 584 0070 63684D74 		.ascii	"chMtxUnlock(), #2\000"
 584      78556E6C 
 584      6F636B28 
 584      292C2023 
 584      3200
 585              		.section	.text.chMtxUnlock,"ax",%progbits
 586              		.align	2
 587              		.p2align 4,,15
 588              		.global	chMtxUnlock
 589              		.thumb
 590              		.thumb_func
ARM GAS  /tmp/ccff51QV.s 			page 12


 591              		.type	chMtxUnlock, %function
 592              	chMtxUnlock:
 593              	.LFB12:
 594              		.loc 2 257 0
 595              		.cfi_startproc
 596              		@ args = 0, pretend = 0, frame = 24
 597              		@ frame_needed = 0, uses_anonymous_args = 0
 598 0000 00B5     		push	{lr}
 599              		.cfi_def_cfa_offset 4
 600              		.cfi_offset 14, -4
 601 0002 87B0     		sub	sp, sp, #28
 602              		.cfi_def_cfa_offset 32
 603              		.loc 2 258 0
 604 0004 314B     		ldr	r3, .L45
 605 0006 9B69     		ldr	r3, [r3, #24]
 606 0008 0393     		str	r3, [sp, #12]
 607              	.LBB7:
 608              		.loc 2 261 0
 609 000a 2023     		movs	r3, #32
 610              	@ 261 "/home/dave/r2p-sdk/core/ChibiOS/os/kernel/src/chmtx.c" 1
 611 000c 83F31188 		msr     BASEPRI, r3
 612              	@ 0 "" 2
 613              		.thumb
 614              	.LBE7:
 615 0010 FFF7FEFF 		bl	dbg_check_lock
 616              		.loc 2 262 0
 617 0014 039B     		ldr	r3, [sp, #12]
 618 0016 1B6C     		ldr	r3, [r3, #64]
 619 0018 002B     		cmp	r3, #0
 620 001a 02D1     		bne	.L37
 621              		.loc 2 262 0 is_stmt 0 discriminator 1
 622 001c 2C48     		ldr	r0, .L45+4
 623 001e FFF7FEFF 		bl	chDbgPanic
 624              	.L37:
 625              		.loc 2 265 0 is_stmt 1
 626 0022 039B     		ldr	r3, [sp, #12]
 627 0024 1B6C     		ldr	r3, [r3, #64]
 628 0026 9A68     		ldr	r2, [r3, #8]
 629 0028 039B     		ldr	r3, [sp, #12]
 630 002a 9A42     		cmp	r2, r3
 631 002c 02D0     		beq	.L38
 632              		.loc 2 265 0 is_stmt 0 discriminator 1
 633 002e 2948     		ldr	r0, .L45+8
 634 0030 FFF7FEFF 		bl	chDbgPanic
 635              	.L38:
 636              		.loc 2 270 0 is_stmt 1
 637 0034 039B     		ldr	r3, [sp, #12]
 638 0036 1B6C     		ldr	r3, [r3, #64]
 639 0038 0293     		str	r3, [sp, #8]
 640              		.loc 2 271 0
 641 003a 029B     		ldr	r3, [sp, #8]
 642 003c DA68     		ldr	r2, [r3, #12]
 643 003e 039B     		ldr	r3, [sp, #12]
 644 0040 1A64     		str	r2, [r3, #64]
 645              		.loc 2 273 0
 646 0042 029B     		ldr	r3, [sp, #8]
 647 0044 1A68     		ldr	r2, [r3]
ARM GAS  /tmp/ccff51QV.s 			page 13


 648 0046 029B     		ldr	r3, [sp, #8]
 649 0048 9A42     		cmp	r2, r3
 650 004a 32D0     		beq	.L39
 651              	.LBB8:
 652              		.loc 2 278 0
 653 004c 039B     		ldr	r3, [sp, #12]
 654 004e 5B6C     		ldr	r3, [r3, #68]
 655 0050 0493     		str	r3, [sp, #16]
 656              		.loc 2 279 0
 657 0052 039B     		ldr	r3, [sp, #12]
 658 0054 1B6C     		ldr	r3, [r3, #64]
 659 0056 0593     		str	r3, [sp, #20]
 660              		.loc 2 280 0
 661 0058 11E0     		b	.L40
 662              	.L42:
 663              		.loc 2 284 0
 664 005a 059B     		ldr	r3, [sp, #20]
 665 005c 1A68     		ldr	r2, [r3]
 666 005e 059B     		ldr	r3, [sp, #20]
 667 0060 9A42     		cmp	r2, r3
 668 0062 09D0     		beq	.L41
 669              		.loc 2 284 0 is_stmt 0 discriminator 1
 670 0064 059B     		ldr	r3, [sp, #20]
 671 0066 1B68     		ldr	r3, [r3]
 672 0068 9A68     		ldr	r2, [r3, #8]
 673 006a 049B     		ldr	r3, [sp, #16]
 674 006c 9A42     		cmp	r2, r3
 675 006e 03D9     		bls	.L41
 676              		.loc 2 285 0 is_stmt 1
 677 0070 059B     		ldr	r3, [sp, #20]
 678 0072 1B68     		ldr	r3, [r3]
 679 0074 9B68     		ldr	r3, [r3, #8]
 680 0076 0493     		str	r3, [sp, #16]
 681              	.L41:
 682              		.loc 2 286 0
 683 0078 059B     		ldr	r3, [sp, #20]
 684 007a DB68     		ldr	r3, [r3, #12]
 685 007c 0593     		str	r3, [sp, #20]
 686              	.L40:
 687              		.loc 2 280 0 discriminator 1
 688 007e 059B     		ldr	r3, [sp, #20]
 689 0080 002B     		cmp	r3, #0
 690 0082 EAD1     		bne	.L42
 691              		.loc 2 290 0
 692 0084 039B     		ldr	r3, [sp, #12]
 693 0086 049A     		ldr	r2, [sp, #16]
 694 0088 9A60     		str	r2, [r3, #8]
 695              		.loc 2 293 0
 696 008a 029B     		ldr	r3, [sp, #8]
 697 008c 1846     		mov	r0, r3
 698 008e FFF7FEFF 		bl	fifo_remove
 699 0092 0190     		str	r0, [sp, #4]
 700              		.loc 2 294 0
 701 0094 029B     		ldr	r3, [sp, #8]
 702 0096 019A     		ldr	r2, [sp, #4]
 703 0098 9A60     		str	r2, [r3, #8]
 704              		.loc 2 295 0
ARM GAS  /tmp/ccff51QV.s 			page 14


 705 009a 019B     		ldr	r3, [sp, #4]
 706 009c 1A6C     		ldr	r2, [r3, #64]
 707 009e 029B     		ldr	r3, [sp, #8]
 708 00a0 DA60     		str	r2, [r3, #12]
 709              		.loc 2 296 0
 710 00a2 019B     		ldr	r3, [sp, #4]
 711 00a4 029A     		ldr	r2, [sp, #8]
 712 00a6 1A64     		str	r2, [r3, #64]
 713              		.loc 2 297 0
 714 00a8 0198     		ldr	r0, [sp, #4]
 715 00aa 0021     		movs	r1, #0
 716 00ac FFF7FEFF 		bl	chSchWakeupS
 717              	.LBE8:
 718 00b0 02E0     		b	.L43
 719              	.L39:
 720              		.loc 2 300 0
 721 00b2 029B     		ldr	r3, [sp, #8]
 722 00b4 0022     		movs	r2, #0
 723 00b6 9A60     		str	r2, [r3, #8]
 724              	.L43:
 725              		.loc 2 301 0
 726 00b8 FFF7FEFF 		bl	dbg_check_unlock
 727              	.LBB9:
 728 00bc 0023     		movs	r3, #0
 729              	@ 301 "/home/dave/r2p-sdk/core/ChibiOS/os/kernel/src/chmtx.c" 1
 730 00be 83F31188 		msr     BASEPRI, r3
 731              	@ 0 "" 2
 732              		.thumb
 733              	.LBE9:
 734              		.loc 2 302 0
 735 00c2 029B     		ldr	r3, [sp, #8]
 736              		.loc 2 303 0
 737 00c4 1846     		mov	r0, r3
 738 00c6 07B0     		add	sp, sp, #28
 739              		@ sp needed
 740 00c8 5DF804FB 		ldr	pc, [sp], #4
 741              	.L46:
 742              		.align	2
 743              	.L45:
 744 00cc 00000000 		.word	rlist
 745 00d0 5C000000 		.word	.LC5
 746 00d4 70000000 		.word	.LC6
 747              		.cfi_endproc
 748              	.LFE12:
 749              		.size	chMtxUnlock, .-chMtxUnlock
 750 00d8 AFF30080 		.section	.rodata
 750      AFF30080 
 751 0082 0000     		.align	2
 752              	.LC7:
 753 0084 63684D74 		.ascii	"chMtxUnlockS(), #1\000"
 753      78556E6C 
 753      6F636B53 
 753      28292C20 
 753      233100
 754 0097 00       		.align	2
 755              	.LC8:
 756 0098 63684D74 		.ascii	"chMtxUnlockS(), #2\000"
ARM GAS  /tmp/ccff51QV.s 			page 15


 756      78556E6C 
 756      6F636B53 
 756      28292C20 
 756      233200
 757 00ab 00       		.section	.text.chMtxUnlockS,"ax",%progbits
 758              		.align	2
 759              		.p2align 4,,15
 760              		.global	chMtxUnlockS
 761              		.thumb
 762              		.thumb_func
 763              		.type	chMtxUnlockS, %function
 764              	chMtxUnlockS:
 765              	.LFB13:
 766              		.loc 2 317 0
 767              		.cfi_startproc
 768              		@ args = 0, pretend = 0, frame = 24
 769              		@ frame_needed = 0, uses_anonymous_args = 0
 770 0000 00B5     		push	{lr}
 771              		.cfi_def_cfa_offset 4
 772              		.cfi_offset 14, -4
 773 0002 87B0     		sub	sp, sp, #28
 774              		.cfi_def_cfa_offset 32
 775              		.loc 2 318 0
 776 0004 2D4B     		ldr	r3, .L56
 777 0006 9B69     		ldr	r3, [r3, #24]
 778 0008 0393     		str	r3, [sp, #12]
 779              		.loc 2 321 0
 780 000a FFF7FEFF 		bl	chDbgCheckClassS
 781              		.loc 2 322 0
 782 000e 039B     		ldr	r3, [sp, #12]
 783 0010 1B6C     		ldr	r3, [r3, #64]
 784 0012 002B     		cmp	r3, #0
 785 0014 02D1     		bne	.L48
 786              		.loc 2 322 0 is_stmt 0 discriminator 1
 787 0016 2A48     		ldr	r0, .L56+4
 788 0018 FFF7FEFF 		bl	chDbgPanic
 789              	.L48:
 790              		.loc 2 325 0 is_stmt 1
 791 001c 039B     		ldr	r3, [sp, #12]
 792 001e 1B6C     		ldr	r3, [r3, #64]
 793 0020 9A68     		ldr	r2, [r3, #8]
 794 0022 039B     		ldr	r3, [sp, #12]
 795 0024 9A42     		cmp	r2, r3
 796 0026 02D0     		beq	.L49
 797              		.loc 2 325 0 is_stmt 0 discriminator 1
 798 0028 2648     		ldr	r0, .L56+8
 799 002a FFF7FEFF 		bl	chDbgPanic
 800              	.L49:
 801              		.loc 2 331 0 is_stmt 1
 802 002e 039B     		ldr	r3, [sp, #12]
 803 0030 1B6C     		ldr	r3, [r3, #64]
 804 0032 0293     		str	r3, [sp, #8]
 805              		.loc 2 332 0
 806 0034 029B     		ldr	r3, [sp, #8]
 807 0036 DA68     		ldr	r2, [r3, #12]
 808 0038 039B     		ldr	r3, [sp, #12]
 809 003a 1A64     		str	r2, [r3, #64]
ARM GAS  /tmp/ccff51QV.s 			page 16


 810              		.loc 2 334 0
 811 003c 029B     		ldr	r3, [sp, #8]
 812 003e 1A68     		ldr	r2, [r3]
 813 0040 029B     		ldr	r3, [sp, #8]
 814 0042 9A42     		cmp	r2, r3
 815 0044 31D0     		beq	.L50
 816              	.LBB10:
 817              		.loc 2 339 0
 818 0046 039B     		ldr	r3, [sp, #12]
 819 0048 5B6C     		ldr	r3, [r3, #68]
 820 004a 0493     		str	r3, [sp, #16]
 821              		.loc 2 340 0
 822 004c 039B     		ldr	r3, [sp, #12]
 823 004e 1B6C     		ldr	r3, [r3, #64]
 824 0050 0593     		str	r3, [sp, #20]
 825              		.loc 2 341 0
 826 0052 11E0     		b	.L51
 827              	.L53:
 828              		.loc 2 345 0
 829 0054 059B     		ldr	r3, [sp, #20]
 830 0056 1A68     		ldr	r2, [r3]
 831 0058 059B     		ldr	r3, [sp, #20]
 832 005a 9A42     		cmp	r2, r3
 833 005c 09D0     		beq	.L52
 834              		.loc 2 345 0 is_stmt 0 discriminator 1
 835 005e 059B     		ldr	r3, [sp, #20]
 836 0060 1B68     		ldr	r3, [r3]
 837 0062 9A68     		ldr	r2, [r3, #8]
 838 0064 049B     		ldr	r3, [sp, #16]
 839 0066 9A42     		cmp	r2, r3
 840 0068 03D9     		bls	.L52
 841              		.loc 2 346 0 is_stmt 1
 842 006a 059B     		ldr	r3, [sp, #20]
 843 006c 1B68     		ldr	r3, [r3]
 844 006e 9B68     		ldr	r3, [r3, #8]
 845 0070 0493     		str	r3, [sp, #16]
 846              	.L52:
 847              		.loc 2 347 0
 848 0072 059B     		ldr	r3, [sp, #20]
 849 0074 DB68     		ldr	r3, [r3, #12]
 850 0076 0593     		str	r3, [sp, #20]
 851              	.L51:
 852              		.loc 2 341 0 discriminator 1
 853 0078 059B     		ldr	r3, [sp, #20]
 854 007a 002B     		cmp	r3, #0
 855 007c EAD1     		bne	.L53
 856              		.loc 2 349 0
 857 007e 039B     		ldr	r3, [sp, #12]
 858 0080 049A     		ldr	r2, [sp, #16]
 859 0082 9A60     		str	r2, [r3, #8]
 860              		.loc 2 352 0
 861 0084 029B     		ldr	r3, [sp, #8]
 862 0086 1846     		mov	r0, r3
 863 0088 FFF7FEFF 		bl	fifo_remove
 864 008c 0190     		str	r0, [sp, #4]
 865              		.loc 2 353 0
 866 008e 029B     		ldr	r3, [sp, #8]
ARM GAS  /tmp/ccff51QV.s 			page 17


 867 0090 019A     		ldr	r2, [sp, #4]
 868 0092 9A60     		str	r2, [r3, #8]
 869              		.loc 2 354 0
 870 0094 019B     		ldr	r3, [sp, #4]
 871 0096 1A6C     		ldr	r2, [r3, #64]
 872 0098 029B     		ldr	r3, [sp, #8]
 873 009a DA60     		str	r2, [r3, #12]
 874              		.loc 2 355 0
 875 009c 019B     		ldr	r3, [sp, #4]
 876 009e 029A     		ldr	r2, [sp, #8]
 877 00a0 1A64     		str	r2, [r3, #64]
 878              		.loc 2 356 0
 879 00a2 0198     		ldr	r0, [sp, #4]
 880 00a4 FFF7FEFF 		bl	chSchReadyI
 881              	.LBE10:
 882 00a8 02E0     		b	.L54
 883              	.L50:
 884              		.loc 2 359 0
 885 00aa 029B     		ldr	r3, [sp, #8]
 886 00ac 0022     		movs	r2, #0
 887 00ae 9A60     		str	r2, [r3, #8]
 888              	.L54:
 889              		.loc 2 360 0
 890 00b0 029B     		ldr	r3, [sp, #8]
 891              		.loc 2 361 0
 892 00b2 1846     		mov	r0, r3
 893 00b4 07B0     		add	sp, sp, #28
 894              		@ sp needed
 895 00b6 5DF804FB 		ldr	pc, [sp], #4
 896              	.L57:
 897 00ba 00BF     		.align	2
 898              	.L56:
 899 00bc 00000000 		.word	rlist
 900 00c0 84000000 		.word	.LC7
 901 00c4 98000000 		.word	.LC8
 902              		.cfi_endproc
 903              	.LFE13:
 904              		.size	chMtxUnlockS, .-chMtxUnlockS
 905 00c8 AFF30080 		.section	.text.chMtxUnlockAll,"ax",%progbits
 905      AFF30080 
 906              		.align	2
 907              		.p2align 4,,15
 908              		.global	chMtxUnlockAll
 909              		.thumb
 910              		.thumb_func
 911              		.type	chMtxUnlockAll, %function
 912              	chMtxUnlockAll:
 913              	.LFB14:
 914              		.loc 2 374 0
 915              		.cfi_startproc
 916              		@ args = 0, pretend = 0, frame = 16
 917              		@ frame_needed = 0, uses_anonymous_args = 0
 918 0000 00B5     		push	{lr}
 919              		.cfi_def_cfa_offset 4
 920              		.cfi_offset 14, -4
 921 0002 85B0     		sub	sp, sp, #20
 922              		.cfi_def_cfa_offset 24
ARM GAS  /tmp/ccff51QV.s 			page 18


 923              		.loc 2 375 0
 924 0004 1F4B     		ldr	r3, .L63
 925 0006 9B69     		ldr	r3, [r3, #24]
 926 0008 0393     		str	r3, [sp, #12]
 927              	.LBB11:
 928              		.loc 2 377 0
 929 000a 2023     		movs	r3, #32
 930              	@ 377 "/home/dave/r2p-sdk/core/ChibiOS/os/kernel/src/chmtx.c" 1
 931 000c 83F31188 		msr     BASEPRI, r3
 932              	@ 0 "" 2
 933              		.thumb
 934              	.LBE11:
 935 0010 FFF7FEFF 		bl	dbg_check_lock
 936              		.loc 2 378 0
 937 0014 039B     		ldr	r3, [sp, #12]
 938 0016 1B6C     		ldr	r3, [r3, #64]
 939 0018 002B     		cmp	r3, #0
 940 001a 2BD0     		beq	.L59
 941              	.L62:
 942              	.LBB12:
 943              		.loc 2 380 0
 944 001c 039B     		ldr	r3, [sp, #12]
 945 001e 1B6C     		ldr	r3, [r3, #64]
 946 0020 0293     		str	r3, [sp, #8]
 947              		.loc 2 381 0
 948 0022 029B     		ldr	r3, [sp, #8]
 949 0024 DA68     		ldr	r2, [r3, #12]
 950 0026 039B     		ldr	r3, [sp, #12]
 951 0028 1A64     		str	r2, [r3, #64]
 952              		.loc 2 382 0
 953 002a 029B     		ldr	r3, [sp, #8]
 954 002c 1A68     		ldr	r2, [r3]
 955 002e 029B     		ldr	r3, [sp, #8]
 956 0030 9A42     		cmp	r2, r3
 957 0032 12D0     		beq	.L60
 958              	.LBB13:
 959              		.loc 2 383 0
 960 0034 029B     		ldr	r3, [sp, #8]
 961 0036 1846     		mov	r0, r3
 962 0038 FFF7FEFF 		bl	fifo_remove
 963 003c 0190     		str	r0, [sp, #4]
 964              		.loc 2 384 0
 965 003e 029B     		ldr	r3, [sp, #8]
 966 0040 019A     		ldr	r2, [sp, #4]
 967 0042 9A60     		str	r2, [r3, #8]
 968              		.loc 2 385 0
 969 0044 019B     		ldr	r3, [sp, #4]
 970 0046 1A6C     		ldr	r2, [r3, #64]
 971 0048 029B     		ldr	r3, [sp, #8]
 972 004a DA60     		str	r2, [r3, #12]
 973              		.loc 2 386 0
 974 004c 019B     		ldr	r3, [sp, #4]
 975 004e 029A     		ldr	r2, [sp, #8]
 976 0050 1A64     		str	r2, [r3, #64]
 977              		.loc 2 387 0
 978 0052 0198     		ldr	r0, [sp, #4]
 979 0054 FFF7FEFF 		bl	chSchReadyI
ARM GAS  /tmp/ccff51QV.s 			page 19


 980              	.LBE13:
 981 0058 02E0     		b	.L61
 982              	.L60:
 983              		.loc 2 390 0
 984 005a 029B     		ldr	r3, [sp, #8]
 985 005c 0022     		movs	r2, #0
 986 005e 9A60     		str	r2, [r3, #8]
 987              	.L61:
 988              	.LBE12:
 989              		.loc 2 391 0
 990 0060 039B     		ldr	r3, [sp, #12]
 991 0062 1B6C     		ldr	r3, [r3, #64]
 992 0064 002B     		cmp	r3, #0
 993 0066 D9D1     		bne	.L62
 994              		.loc 2 392 0
 995 0068 039B     		ldr	r3, [sp, #12]
 996 006a 5A6C     		ldr	r2, [r3, #68]
 997 006c 039B     		ldr	r3, [sp, #12]
 998 006e 9A60     		str	r2, [r3, #8]
 999              		.loc 2 393 0
 1000 0070 FFF7FEFF 		bl	chSchRescheduleS
 1001              	.L59:
 1002              		.loc 2 395 0
 1003 0074 FFF7FEFF 		bl	dbg_check_unlock
 1004              	.LBB14:
 1005 0078 0023     		movs	r3, #0
 1006              	@ 395 "/home/dave/r2p-sdk/core/ChibiOS/os/kernel/src/chmtx.c" 1
 1007 007a 83F31188 		msr     BASEPRI, r3
 1008              	@ 0 "" 2
 1009              		.thumb
 1010              	.LBE14:
 1011              		.loc 2 396 0
 1012 007e 05B0     		add	sp, sp, #20
 1013              		@ sp needed
 1014 0080 5DF804FB 		ldr	pc, [sp], #4
 1015              	.L64:
 1016              		.align	2
 1017              	.L63:
 1018 0084 00000000 		.word	rlist
 1019              		.cfi_endproc
 1020              	.LFE14:
 1021              		.size	chMtxUnlockAll, .-chMtxUnlockAll
 1022 0088 AFF30080 		.text
 1022      AFF30080 
 1023              	.Letext0:
 1024              		.file 3 "/usr/include/newlib/machine/_default_types.h"
 1025              		.file 4 "/usr/include/newlib/stdint.h"
 1026              		.file 5 "/home/dave/r2p-sdk/core/ChibiOS/os/ports/GCC/ARMCMx/chtypes.h"
 1027              		.file 6 "/home/dave/r2p-sdk/core/ChibiOS/os/kernel/include/chlists.h"
 1028              		.file 7 "/home/dave/r2p-sdk/core/ChibiOS/os/kernel/include/chthreads.h"
 1029              		.file 8 "/home/dave/r2p-sdk/core/ChibiOS/os/ports/GCC/ARMCMx/chcore_v7m.h"
 1030              		.file 9 "/home/dave/r2p-sdk/core/ChibiOS/os/kernel/include/chschd.h"
 1031              		.file 10 "/home/dave/r2p-sdk/core/ChibiOS/os/kernel/include/chmtx.h"