ARM GAS  /tmp/ccMckAAe.s 			page 1


   1              		.syntax unified
   2              		.cpu cortex-m4
   3              		.eabi_attribute 27, 3
   4              		.eabi_attribute 28, 1
   5              		.fpu fpv4-sp-d16
   6              		.eabi_attribute 20, 1
   7              		.eabi_attribute 21, 1
   8              		.eabi_attribute 23, 3
   9              		.eabi_attribute 24, 1
  10              		.eabi_attribute 25, 1
  11              		.eabi_attribute 26, 1
  12              		.eabi_attribute 30, 6
  13              		.eabi_attribute 34, 1
  14              		.eabi_attribute 18, 4
  15              		.thumb
  16              		.file	"ext_lld_isr.c"
  17              		.text
  18              	.Ltext0:
  19              		.cfi_sections	.debug_frame
  20              		.section	.text.Vector58,"ax",%progbits
  21              		.align	2
  22              		.p2align 4,,15
  23              		.global	Vector58
  24              		.thumb
  25              		.thumb_func
  26              		.type	Vector58, %function
  27              	Vector58:
  28              	.LFB118:
  29              		.file 1 "/home/dave/r2p-sdk/core/ChibiOS/os/hal/platforms/STM32F30x/ext_lld_isr.c"
  30              		.loc 1 58 0
  31              		.cfi_startproc
  32              		@ args = 0, pretend = 0, frame = 0
  33              		@ frame_needed = 0, uses_anonymous_args = 0
  34 0000 08B5     		push	{r3, lr}
  35              		.cfi_def_cfa_offset 8
  36              		.cfi_offset 3, -8
  37              		.cfi_offset 14, -4
  38              		.loc 1 60 0
  39 0002 FFF7FEFF 		bl	dbg_check_enter_isr
  40              		.loc 1 62 0
  41 0006 074B     		ldr	r3, .L2
  42 0008 0122     		movs	r2, #1
  43 000a 5A61     		str	r2, [r3, #20]
  44              		.loc 1 63 0
  45 000c 064B     		ldr	r3, .L2+4
  46 000e 5B68     		ldr	r3, [r3, #4]
  47 0010 5B68     		ldr	r3, [r3, #4]
  48 0012 0548     		ldr	r0, .L2+4
  49 0014 0021     		movs	r1, #0
  50 0016 9847     		blx	r3
  51              		.loc 1 65 0
  52 0018 FFF7FEFF 		bl	dbg_check_leave_isr
  53 001c FFF7FEFF 		bl	_port_irq_epilogue
  54              		.loc 1 66 0
  55 0020 08BD     		pop	{r3, pc}
  56              	.L3:
  57 0022 00BF     		.align	2
ARM GAS  /tmp/ccMckAAe.s 			page 2


  58              	.L2:
  59 0024 00040140 		.word	1073808384
  60 0028 00000000 		.word	EXTD1
  61              		.cfi_endproc
  62              	.LFE118:
  63              		.size	Vector58, .-Vector58
  64 002c AFF30080 		.section	.text.Vector5C,"ax",%progbits
  65              		.align	2
  66              		.p2align 4,,15
  67              		.global	Vector5C
  68              		.thumb
  69              		.thumb_func
  70              		.type	Vector5C, %function
  71              	Vector5C:
  72              	.LFB119:
  73              		.loc 1 75 0
  74              		.cfi_startproc
  75              		@ args = 0, pretend = 0, frame = 0
  76              		@ frame_needed = 0, uses_anonymous_args = 0
  77 0000 08B5     		push	{r3, lr}
  78              		.cfi_def_cfa_offset 8
  79              		.cfi_offset 3, -8
  80              		.cfi_offset 14, -4
  81              		.loc 1 77 0
  82 0002 FFF7FEFF 		bl	dbg_check_enter_isr
  83              		.loc 1 79 0
  84 0006 074B     		ldr	r3, .L5
  85 0008 0222     		movs	r2, #2
  86 000a 5A61     		str	r2, [r3, #20]
  87              		.loc 1 80 0
  88 000c 064B     		ldr	r3, .L5+4
  89 000e 5B68     		ldr	r3, [r3, #4]
  90 0010 DB68     		ldr	r3, [r3, #12]
  91 0012 0548     		ldr	r0, .L5+4
  92 0014 0121     		movs	r1, #1
  93 0016 9847     		blx	r3
  94              		.loc 1 82 0
  95 0018 FFF7FEFF 		bl	dbg_check_leave_isr
  96 001c FFF7FEFF 		bl	_port_irq_epilogue
  97              		.loc 1 83 0
  98 0020 08BD     		pop	{r3, pc}
  99              	.L6:
 100 0022 00BF     		.align	2
 101              	.L5:
 102 0024 00040140 		.word	1073808384
 103 0028 00000000 		.word	EXTD1
 104              		.cfi_endproc
 105              	.LFE119:
 106              		.size	Vector5C, .-Vector5C
 107 002c AFF30080 		.section	.text.Vector60,"ax",%progbits
 108              		.align	2
 109              		.p2align 4,,15
 110              		.global	Vector60
 111              		.thumb
 112              		.thumb_func
 113              		.type	Vector60, %function
 114              	Vector60:
ARM GAS  /tmp/ccMckAAe.s 			page 3


 115              	.LFB120:
 116              		.loc 1 92 0
 117              		.cfi_startproc
 118              		@ args = 0, pretend = 0, frame = 0
 119              		@ frame_needed = 0, uses_anonymous_args = 0
 120 0000 08B5     		push	{r3, lr}
 121              		.cfi_def_cfa_offset 8
 122              		.cfi_offset 3, -8
 123              		.cfi_offset 14, -4
 124              		.loc 1 94 0
 125 0002 FFF7FEFF 		bl	dbg_check_enter_isr
 126              		.loc 1 96 0
 127 0006 074B     		ldr	r3, .L8
 128 0008 0422     		movs	r2, #4
 129 000a 5A61     		str	r2, [r3, #20]
 130              		.loc 1 97 0
 131 000c 064B     		ldr	r3, .L8+4
 132 000e 5B68     		ldr	r3, [r3, #4]
 133 0010 5B69     		ldr	r3, [r3, #20]
 134 0012 0548     		ldr	r0, .L8+4
 135 0014 0221     		movs	r1, #2
 136 0016 9847     		blx	r3
 137              		.loc 1 99 0
 138 0018 FFF7FEFF 		bl	dbg_check_leave_isr
 139 001c FFF7FEFF 		bl	_port_irq_epilogue
 140              		.loc 1 100 0
 141 0020 08BD     		pop	{r3, pc}
 142              	.L9:
 143 0022 00BF     		.align	2
 144              	.L8:
 145 0024 00040140 		.word	1073808384
 146 0028 00000000 		.word	EXTD1
 147              		.cfi_endproc
 148              	.LFE120:
 149              		.size	Vector60, .-Vector60
 150 002c AFF30080 		.section	.text.Vector64,"ax",%progbits
 151              		.align	2
 152              		.p2align 4,,15
 153              		.global	Vector64
 154              		.thumb
 155              		.thumb_func
 156              		.type	Vector64, %function
 157              	Vector64:
 158              	.LFB121:
 159              		.loc 1 109 0
 160              		.cfi_startproc
 161              		@ args = 0, pretend = 0, frame = 0
 162              		@ frame_needed = 0, uses_anonymous_args = 0
 163 0000 08B5     		push	{r3, lr}
 164              		.cfi_def_cfa_offset 8
 165              		.cfi_offset 3, -8
 166              		.cfi_offset 14, -4
 167              		.loc 1 111 0
 168 0002 FFF7FEFF 		bl	dbg_check_enter_isr
 169              		.loc 1 113 0
 170 0006 074B     		ldr	r3, .L11
 171 0008 0822     		movs	r2, #8
ARM GAS  /tmp/ccMckAAe.s 			page 4


 172 000a 5A61     		str	r2, [r3, #20]
 173              		.loc 1 114 0
 174 000c 064B     		ldr	r3, .L11+4
 175 000e 5B68     		ldr	r3, [r3, #4]
 176 0010 DB69     		ldr	r3, [r3, #28]
 177 0012 0548     		ldr	r0, .L11+4
 178 0014 0321     		movs	r1, #3
 179 0016 9847     		blx	r3
 180              		.loc 1 116 0
 181 0018 FFF7FEFF 		bl	dbg_check_leave_isr
 182 001c FFF7FEFF 		bl	_port_irq_epilogue
 183              		.loc 1 117 0
 184 0020 08BD     		pop	{r3, pc}
 185              	.L12:
 186 0022 00BF     		.align	2
 187              	.L11:
 188 0024 00040140 		.word	1073808384
 189 0028 00000000 		.word	EXTD1
 190              		.cfi_endproc
 191              	.LFE121:
 192              		.size	Vector64, .-Vector64
 193 002c AFF30080 		.section	.text.Vector68,"ax",%progbits
 194              		.align	2
 195              		.p2align 4,,15
 196              		.global	Vector68
 197              		.thumb
 198              		.thumb_func
 199              		.type	Vector68, %function
 200              	Vector68:
 201              	.LFB122:
 202              		.loc 1 126 0
 203              		.cfi_startproc
 204              		@ args = 0, pretend = 0, frame = 0
 205              		@ frame_needed = 0, uses_anonymous_args = 0
 206 0000 08B5     		push	{r3, lr}
 207              		.cfi_def_cfa_offset 8
 208              		.cfi_offset 3, -8
 209              		.cfi_offset 14, -4
 210              		.loc 1 128 0
 211 0002 FFF7FEFF 		bl	dbg_check_enter_isr
 212              		.loc 1 130 0
 213 0006 074B     		ldr	r3, .L14
 214 0008 1022     		movs	r2, #16
 215 000a 5A61     		str	r2, [r3, #20]
 216              		.loc 1 131 0
 217 000c 064B     		ldr	r3, .L14+4
 218 000e 5B68     		ldr	r3, [r3, #4]
 219 0010 5B6A     		ldr	r3, [r3, #36]
 220 0012 0548     		ldr	r0, .L14+4
 221 0014 0421     		movs	r1, #4
 222 0016 9847     		blx	r3
 223              		.loc 1 133 0
 224 0018 FFF7FEFF 		bl	dbg_check_leave_isr
 225 001c FFF7FEFF 		bl	_port_irq_epilogue
 226              		.loc 1 134 0
 227 0020 08BD     		pop	{r3, pc}
 228              	.L15:
ARM GAS  /tmp/ccMckAAe.s 			page 5


 229 0022 00BF     		.align	2
 230              	.L14:
 231 0024 00040140 		.word	1073808384
 232 0028 00000000 		.word	EXTD1
 233              		.cfi_endproc
 234              	.LFE122:
 235              		.size	Vector68, .-Vector68
 236 002c AFF30080 		.section	.text.Vector9C,"ax",%progbits
 237              		.align	2
 238              		.p2align 4,,15
 239              		.global	Vector9C
 240              		.thumb
 241              		.thumb_func
 242              		.type	Vector9C, %function
 243              	Vector9C:
 244              	.LFB123:
 245              		.loc 1 143 0
 246              		.cfi_startproc
 247              		@ args = 0, pretend = 0, frame = 8
 248              		@ frame_needed = 0, uses_anonymous_args = 0
 249 0000 00B5     		push	{lr}
 250              		.cfi_def_cfa_offset 4
 251              		.cfi_offset 14, -4
 252 0002 83B0     		sub	sp, sp, #12
 253              		.cfi_def_cfa_offset 16
 254              		.loc 1 146 0
 255 0004 FFF7FEFF 		bl	dbg_check_enter_isr
 256              		.loc 1 148 0
 257 0008 224B     		ldr	r3, .L22
 258 000a 5B69     		ldr	r3, [r3, #20]
 259 000c 03F47873 		and	r3, r3, #992
 260 0010 0193     		str	r3, [sp, #4]
 261              		.loc 1 149 0
 262 0012 204B     		ldr	r3, .L22
 263 0014 019A     		ldr	r2, [sp, #4]
 264 0016 5A61     		str	r2, [r3, #20]
 265              		.loc 1 150 0
 266 0018 019B     		ldr	r3, [sp, #4]
 267 001a 03F02003 		and	r3, r3, #32
 268 001e 002B     		cmp	r3, #0
 269 0020 05D0     		beq	.L17
 270              		.loc 1 151 0
 271 0022 1D4B     		ldr	r3, .L22+4
 272 0024 5B68     		ldr	r3, [r3, #4]
 273 0026 DB6A     		ldr	r3, [r3, #44]
 274 0028 1B48     		ldr	r0, .L22+4
 275 002a 0521     		movs	r1, #5
 276 002c 9847     		blx	r3
 277              	.L17:
 278              		.loc 1 152 0
 279 002e 019B     		ldr	r3, [sp, #4]
 280 0030 03F04003 		and	r3, r3, #64
 281 0034 002B     		cmp	r3, #0
 282 0036 05D0     		beq	.L18
 283              		.loc 1 153 0
 284 0038 174B     		ldr	r3, .L22+4
 285 003a 5B68     		ldr	r3, [r3, #4]
ARM GAS  /tmp/ccMckAAe.s 			page 6


 286 003c 5B6B     		ldr	r3, [r3, #52]
 287 003e 1648     		ldr	r0, .L22+4
 288 0040 0621     		movs	r1, #6
 289 0042 9847     		blx	r3
 290              	.L18:
 291              		.loc 1 154 0
 292 0044 019B     		ldr	r3, [sp, #4]
 293 0046 03F08003 		and	r3, r3, #128
 294 004a 002B     		cmp	r3, #0
 295 004c 05D0     		beq	.L19
 296              		.loc 1 155 0
 297 004e 124B     		ldr	r3, .L22+4
 298 0050 5B68     		ldr	r3, [r3, #4]
 299 0052 DB6B     		ldr	r3, [r3, #60]
 300 0054 1048     		ldr	r0, .L22+4
 301 0056 0721     		movs	r1, #7
 302 0058 9847     		blx	r3
 303              	.L19:
 304              		.loc 1 156 0
 305 005a 019B     		ldr	r3, [sp, #4]
 306 005c 03F48073 		and	r3, r3, #256
 307 0060 002B     		cmp	r3, #0
 308 0062 05D0     		beq	.L20
 309              		.loc 1 157 0
 310 0064 0C4B     		ldr	r3, .L22+4
 311 0066 5B68     		ldr	r3, [r3, #4]
 312 0068 5B6C     		ldr	r3, [r3, #68]
 313 006a 0B48     		ldr	r0, .L22+4
 314 006c 0821     		movs	r1, #8
 315 006e 9847     		blx	r3
 316              	.L20:
 317              		.loc 1 158 0
 318 0070 019B     		ldr	r3, [sp, #4]
 319 0072 03F40073 		and	r3, r3, #512
 320 0076 002B     		cmp	r3, #0
 321 0078 05D0     		beq	.L21
 322              		.loc 1 159 0
 323 007a 074B     		ldr	r3, .L22+4
 324 007c 5B68     		ldr	r3, [r3, #4]
 325 007e DB6C     		ldr	r3, [r3, #76]
 326 0080 0548     		ldr	r0, .L22+4
 327 0082 0921     		movs	r1, #9
 328 0084 9847     		blx	r3
 329              	.L21:
 330              		.loc 1 161 0
 331 0086 FFF7FEFF 		bl	dbg_check_leave_isr
 332 008a FFF7FEFF 		bl	_port_irq_epilogue
 333              		.loc 1 162 0
 334 008e 03B0     		add	sp, sp, #12
 335              		@ sp needed
 336 0090 5DF804FB 		ldr	pc, [sp], #4
 337              	.L23:
 338              		.align	2
 339              	.L22:
 340 0094 00040140 		.word	1073808384
 341 0098 00000000 		.word	EXTD1
 342              		.cfi_endproc
ARM GAS  /tmp/ccMckAAe.s 			page 7


 343              	.LFE123:
 344              		.size	Vector9C, .-Vector9C
 345 009c AFF30080 		.section	.text.VectorE0,"ax",%progbits
 346              		.align	2
 347              		.p2align 4,,15
 348              		.global	VectorE0
 349              		.thumb
 350              		.thumb_func
 351              		.type	VectorE0, %function
 352              	VectorE0:
 353              	.LFB124:
 354              		.loc 1 171 0
 355              		.cfi_startproc
 356              		@ args = 0, pretend = 0, frame = 8
 357              		@ frame_needed = 0, uses_anonymous_args = 0
 358 0000 00B5     		push	{lr}
 359              		.cfi_def_cfa_offset 4
 360              		.cfi_offset 14, -4
 361 0002 83B0     		sub	sp, sp, #12
 362              		.cfi_def_cfa_offset 16
 363              		.loc 1 174 0
 364 0004 FFF7FEFF 		bl	dbg_check_enter_isr
 365              		.loc 1 176 0
 366 0008 284B     		ldr	r3, .L31
 367 000a 5B69     		ldr	r3, [r3, #20]
 368 000c 03F47C43 		and	r3, r3, #64512
 369 0010 0193     		str	r3, [sp, #4]
 370              		.loc 1 178 0
 371 0012 264B     		ldr	r3, .L31
 372 0014 019A     		ldr	r2, [sp, #4]
 373 0016 5A61     		str	r2, [r3, #20]
 374              		.loc 1 179 0
 375 0018 019B     		ldr	r3, [sp, #4]
 376 001a 03F48063 		and	r3, r3, #1024
 377 001e 002B     		cmp	r3, #0
 378 0020 05D0     		beq	.L25
 379              		.loc 1 180 0
 380 0022 234B     		ldr	r3, .L31+4
 381 0024 5B68     		ldr	r3, [r3, #4]
 382 0026 5B6D     		ldr	r3, [r3, #84]
 383 0028 2148     		ldr	r0, .L31+4
 384 002a 0A21     		movs	r1, #10
 385 002c 9847     		blx	r3
 386              	.L25:
 387              		.loc 1 181 0
 388 002e 019B     		ldr	r3, [sp, #4]
 389 0030 03F40063 		and	r3, r3, #2048
 390 0034 002B     		cmp	r3, #0
 391 0036 05D0     		beq	.L26
 392              		.loc 1 182 0
 393 0038 1D4B     		ldr	r3, .L31+4
 394 003a 5B68     		ldr	r3, [r3, #4]
 395 003c DB6D     		ldr	r3, [r3, #92]
 396 003e 1C48     		ldr	r0, .L31+4
 397 0040 0B21     		movs	r1, #11
 398 0042 9847     		blx	r3
 399              	.L26:
ARM GAS  /tmp/ccMckAAe.s 			page 8


 400              		.loc 1 183 0
 401 0044 019B     		ldr	r3, [sp, #4]
 402 0046 03F48053 		and	r3, r3, #4096
 403 004a 002B     		cmp	r3, #0
 404 004c 05D0     		beq	.L27
 405              		.loc 1 184 0
 406 004e 184B     		ldr	r3, .L31+4
 407 0050 5B68     		ldr	r3, [r3, #4]
 408 0052 5B6E     		ldr	r3, [r3, #100]
 409 0054 1648     		ldr	r0, .L31+4
 410 0056 0C21     		movs	r1, #12
 411 0058 9847     		blx	r3
 412              	.L27:
 413              		.loc 1 185 0
 414 005a 019B     		ldr	r3, [sp, #4]
 415 005c 03F40053 		and	r3, r3, #8192
 416 0060 002B     		cmp	r3, #0
 417 0062 05D0     		beq	.L28
 418              		.loc 1 186 0
 419 0064 124B     		ldr	r3, .L31+4
 420 0066 5B68     		ldr	r3, [r3, #4]
 421 0068 DB6E     		ldr	r3, [r3, #108]
 422 006a 1148     		ldr	r0, .L31+4
 423 006c 0D21     		movs	r1, #13
 424 006e 9847     		blx	r3
 425              	.L28:
 426              		.loc 1 187 0
 427 0070 019B     		ldr	r3, [sp, #4]
 428 0072 03F48043 		and	r3, r3, #16384
 429 0076 002B     		cmp	r3, #0
 430 0078 05D0     		beq	.L29
 431              		.loc 1 188 0
 432 007a 0D4B     		ldr	r3, .L31+4
 433 007c 5B68     		ldr	r3, [r3, #4]
 434 007e 5B6F     		ldr	r3, [r3, #116]
 435 0080 0B48     		ldr	r0, .L31+4
 436 0082 0E21     		movs	r1, #14
 437 0084 9847     		blx	r3
 438              	.L29:
 439              		.loc 1 189 0
 440 0086 019B     		ldr	r3, [sp, #4]
 441 0088 03F40043 		and	r3, r3, #32768
 442 008c 002B     		cmp	r3, #0
 443 008e 05D0     		beq	.L30
 444              		.loc 1 190 0
 445 0090 074B     		ldr	r3, .L31+4
 446 0092 5B68     		ldr	r3, [r3, #4]
 447 0094 DB6F     		ldr	r3, [r3, #124]
 448 0096 0648     		ldr	r0, .L31+4
 449 0098 0F21     		movs	r1, #15
 450 009a 9847     		blx	r3
 451              	.L30:
 452              		.loc 1 192 0
 453 009c FFF7FEFF 		bl	dbg_check_leave_isr
 454 00a0 FFF7FEFF 		bl	_port_irq_epilogue
 455              		.loc 1 193 0
 456 00a4 03B0     		add	sp, sp, #12
ARM GAS  /tmp/ccMckAAe.s 			page 9


 457              		@ sp needed
 458 00a6 5DF804FB 		ldr	pc, [sp], #4
 459              	.L32:
 460 00aa 00BF     		.align	2
 461              	.L31:
 462 00ac 00040140 		.word	1073808384
 463 00b0 00000000 		.word	EXTD1
 464              		.cfi_endproc
 465              	.LFE124:
 466              		.size	VectorE0, .-VectorE0
 467 00b4 AFF30080 		.section	.text.Vector44,"ax",%progbits
 467      AFF30080 
 467      AFF30080 
 468              		.align	2
 469              		.p2align 4,,15
 470              		.global	Vector44
 471              		.thumb
 472              		.thumb_func
 473              		.type	Vector44, %function
 474              	Vector44:
 475              	.LFB125:
 476              		.loc 1 202 0
 477              		.cfi_startproc
 478              		@ args = 0, pretend = 0, frame = 0
 479              		@ frame_needed = 0, uses_anonymous_args = 0
 480 0000 08B5     		push	{r3, lr}
 481              		.cfi_def_cfa_offset 8
 482              		.cfi_offset 3, -8
 483              		.cfi_offset 14, -4
 484              		.loc 1 204 0
 485 0002 FFF7FEFF 		bl	dbg_check_enter_isr
 486              		.loc 1 206 0
 487 0006 084B     		ldr	r3, .L34
 488 0008 4FF48032 		mov	r2, #65536
 489 000c 5A61     		str	r2, [r3, #20]
 490              		.loc 1 207 0
 491 000e 074B     		ldr	r3, .L34+4
 492 0010 5B68     		ldr	r3, [r3, #4]
 493 0012 D3F88430 		ldr	r3, [r3, #132]
 494 0016 0548     		ldr	r0, .L34+4
 495 0018 1021     		movs	r1, #16
 496 001a 9847     		blx	r3
 497              		.loc 1 209 0
 498 001c FFF7FEFF 		bl	dbg_check_leave_isr
 499 0020 FFF7FEFF 		bl	_port_irq_epilogue
 500              		.loc 1 210 0
 501 0024 08BD     		pop	{r3, pc}
 502              	.L35:
 503 0026 00BF     		.align	2
 504              	.L34:
 505 0028 00040140 		.word	1073808384
 506 002c 00000000 		.word	EXTD1
 507              		.cfi_endproc
 508              	.LFE125:
 509              		.size	Vector44, .-Vector44
 510              		.section	.text.VectorE4,"ax",%progbits
 511              		.align	2
ARM GAS  /tmp/ccMckAAe.s 			page 10


 512              		.p2align 4,,15
 513              		.global	VectorE4
 514              		.thumb
 515              		.thumb_func
 516              		.type	VectorE4, %function
 517              	VectorE4:
 518              	.LFB126:
 519              		.loc 1 219 0
 520              		.cfi_startproc
 521              		@ args = 0, pretend = 0, frame = 0
 522              		@ frame_needed = 0, uses_anonymous_args = 0
 523 0000 08B5     		push	{r3, lr}
 524              		.cfi_def_cfa_offset 8
 525              		.cfi_offset 3, -8
 526              		.cfi_offset 14, -4
 527              		.loc 1 221 0
 528 0002 FFF7FEFF 		bl	dbg_check_enter_isr
 529              		.loc 1 223 0
 530 0006 084B     		ldr	r3, .L37
 531 0008 4FF40032 		mov	r2, #131072
 532 000c 5A61     		str	r2, [r3, #20]
 533              		.loc 1 224 0
 534 000e 074B     		ldr	r3, .L37+4
 535 0010 5B68     		ldr	r3, [r3, #4]
 536 0012 D3F88C30 		ldr	r3, [r3, #140]
 537 0016 0548     		ldr	r0, .L37+4
 538 0018 1121     		movs	r1, #17
 539 001a 9847     		blx	r3
 540              		.loc 1 226 0
 541 001c FFF7FEFF 		bl	dbg_check_leave_isr
 542 0020 FFF7FEFF 		bl	_port_irq_epilogue
 543              		.loc 1 227 0
 544 0024 08BD     		pop	{r3, pc}
 545              	.L38:
 546 0026 00BF     		.align	2
 547              	.L37:
 548 0028 00040140 		.word	1073808384
 549 002c 00000000 		.word	EXTD1
 550              		.cfi_endproc
 551              	.LFE126:
 552              		.size	VectorE4, .-VectorE4
 553              		.section	.text.VectorE8,"ax",%progbits
 554              		.align	2
 555              		.p2align 4,,15
 556              		.global	VectorE8
 557              		.thumb
 558              		.thumb_func
 559              		.type	VectorE8, %function
 560              	VectorE8:
 561              	.LFB127:
 562              		.loc 1 236 0
 563              		.cfi_startproc
 564              		@ args = 0, pretend = 0, frame = 0
 565              		@ frame_needed = 0, uses_anonymous_args = 0
 566 0000 08B5     		push	{r3, lr}
 567              		.cfi_def_cfa_offset 8
 568              		.cfi_offset 3, -8
ARM GAS  /tmp/ccMckAAe.s 			page 11


 569              		.cfi_offset 14, -4
 570              		.loc 1 238 0
 571 0002 FFF7FEFF 		bl	dbg_check_enter_isr
 572              		.loc 1 240 0
 573 0006 084B     		ldr	r3, .L40
 574 0008 4FF48022 		mov	r2, #262144
 575 000c 5A61     		str	r2, [r3, #20]
 576              		.loc 1 241 0
 577 000e 074B     		ldr	r3, .L40+4
 578 0010 5B68     		ldr	r3, [r3, #4]
 579 0012 D3F89430 		ldr	r3, [r3, #148]
 580 0016 0548     		ldr	r0, .L40+4
 581 0018 1221     		movs	r1, #18
 582 001a 9847     		blx	r3
 583              		.loc 1 243 0
 584 001c FFF7FEFF 		bl	dbg_check_leave_isr
 585 0020 FFF7FEFF 		bl	_port_irq_epilogue
 586              		.loc 1 244 0
 587 0024 08BD     		pop	{r3, pc}
 588              	.L41:
 589 0026 00BF     		.align	2
 590              	.L40:
 591 0028 00040140 		.word	1073808384
 592 002c 00000000 		.word	EXTD1
 593              		.cfi_endproc
 594              	.LFE127:
 595              		.size	VectorE8, .-VectorE8
 596              		.section	.text.Vector48,"ax",%progbits
 597              		.align	2
 598              		.p2align 4,,15
 599              		.global	Vector48
 600              		.thumb
 601              		.thumb_func
 602              		.type	Vector48, %function
 603              	Vector48:
 604              	.LFB128:
 605              		.loc 1 253 0
 606              		.cfi_startproc
 607              		@ args = 0, pretend = 0, frame = 0
 608              		@ frame_needed = 0, uses_anonymous_args = 0
 609 0000 08B5     		push	{r3, lr}
 610              		.cfi_def_cfa_offset 8
 611              		.cfi_offset 3, -8
 612              		.cfi_offset 14, -4
 613              		.loc 1 255 0
 614 0002 FFF7FEFF 		bl	dbg_check_enter_isr
 615              		.loc 1 257 0
 616 0006 084B     		ldr	r3, .L43
 617 0008 4FF40022 		mov	r2, #524288
 618 000c 5A61     		str	r2, [r3, #20]
 619              		.loc 1 258 0
 620 000e 074B     		ldr	r3, .L43+4
 621 0010 5B68     		ldr	r3, [r3, #4]
 622 0012 D3F89C30 		ldr	r3, [r3, #156]
 623 0016 0548     		ldr	r0, .L43+4
 624 0018 1321     		movs	r1, #19
 625 001a 9847     		blx	r3
ARM GAS  /tmp/ccMckAAe.s 			page 12


 626              		.loc 1 260 0
 627 001c FFF7FEFF 		bl	dbg_check_leave_isr
 628 0020 FFF7FEFF 		bl	_port_irq_epilogue
 629              		.loc 1 261 0
 630 0024 08BD     		pop	{r3, pc}
 631              	.L44:
 632 0026 00BF     		.align	2
 633              	.L43:
 634 0028 00040140 		.word	1073808384
 635 002c 00000000 		.word	EXTD1
 636              		.cfi_endproc
 637              	.LFE128:
 638              		.size	Vector48, .-Vector48
 639              		.section	.text.Vector4C,"ax",%progbits
 640              		.align	2
 641              		.p2align 4,,15
 642              		.global	Vector4C
 643              		.thumb
 644              		.thumb_func
 645              		.type	Vector4C, %function
 646              	Vector4C:
 647              	.LFB129:
 648              		.loc 1 270 0
 649              		.cfi_startproc
 650              		@ args = 0, pretend = 0, frame = 0
 651              		@ frame_needed = 0, uses_anonymous_args = 0
 652 0000 08B5     		push	{r3, lr}
 653              		.cfi_def_cfa_offset 8
 654              		.cfi_offset 3, -8
 655              		.cfi_offset 14, -4
 656              		.loc 1 272 0
 657 0002 FFF7FEFF 		bl	dbg_check_enter_isr
 658              		.loc 1 274 0
 659 0006 084B     		ldr	r3, .L46
 660 0008 4FF48012 		mov	r2, #1048576
 661 000c 5A61     		str	r2, [r3, #20]
 662              		.loc 1 275 0
 663 000e 074B     		ldr	r3, .L46+4
 664 0010 5B68     		ldr	r3, [r3, #4]
 665 0012 D3F8A430 		ldr	r3, [r3, #164]
 666 0016 0548     		ldr	r0, .L46+4
 667 0018 1421     		movs	r1, #20
 668 001a 9847     		blx	r3
 669              		.loc 1 277 0
 670 001c FFF7FEFF 		bl	dbg_check_leave_isr
 671 0020 FFF7FEFF 		bl	_port_irq_epilogue
 672              		.loc 1 278 0
 673 0024 08BD     		pop	{r3, pc}
 674              	.L47:
 675 0026 00BF     		.align	2
 676              	.L46:
 677 0028 00040140 		.word	1073808384
 678 002c 00000000 		.word	EXTD1
 679              		.cfi_endproc
 680              	.LFE129:
 681              		.size	Vector4C, .-Vector4C
 682              		.section	.text.Vector140,"ax",%progbits
ARM GAS  /tmp/ccMckAAe.s 			page 13


 683              		.align	2
 684              		.p2align 4,,15
 685              		.global	Vector140
 686              		.thumb
 687              		.thumb_func
 688              		.type	Vector140, %function
 689              	Vector140:
 690              	.LFB130:
 691              		.loc 1 287 0
 692              		.cfi_startproc
 693              		@ args = 0, pretend = 0, frame = 8
 694              		@ frame_needed = 0, uses_anonymous_args = 0
 695 0000 00B5     		push	{lr}
 696              		.cfi_def_cfa_offset 4
 697              		.cfi_offset 14, -4
 698 0002 83B0     		sub	sp, sp, #12
 699              		.cfi_def_cfa_offset 16
 700              		.loc 1 290 0
 701 0004 FFF7FEFF 		bl	dbg_check_enter_isr
 702              		.loc 1 292 0
 703 0008 194B     		ldr	r3, .L52
 704 000a 5A69     		ldr	r2, [r3, #20]
 705 000c 194B     		ldr	r3, .L52+4
 706 000e 1340     		ands	r3, r3, r2
 707 0010 0193     		str	r3, [sp, #4]
 708              		.loc 1 293 0
 709 0012 174B     		ldr	r3, .L52
 710 0014 019A     		ldr	r2, [sp, #4]
 711 0016 5A61     		str	r2, [r3, #20]
 712              		.loc 1 294 0
 713 0018 019B     		ldr	r3, [sp, #4]
 714 001a 03F40013 		and	r3, r3, #2097152
 715 001e 002B     		cmp	r3, #0
 716 0020 06D0     		beq	.L49
 717              		.loc 1 295 0
 718 0022 154B     		ldr	r3, .L52+8
 719 0024 5B68     		ldr	r3, [r3, #4]
 720 0026 D3F8AC30 		ldr	r3, [r3, #172]
 721 002a 1348     		ldr	r0, .L52+8
 722 002c 1521     		movs	r1, #21
 723 002e 9847     		blx	r3
 724              	.L49:
 725              		.loc 1 296 0
 726 0030 019B     		ldr	r3, [sp, #4]
 727 0032 03F48003 		and	r3, r3, #4194304
 728 0036 002B     		cmp	r3, #0
 729 0038 06D0     		beq	.L50
 730              		.loc 1 297 0
 731 003a 0F4B     		ldr	r3, .L52+8
 732 003c 5B68     		ldr	r3, [r3, #4]
 733 003e D3F8B430 		ldr	r3, [r3, #180]
 734 0042 0D48     		ldr	r0, .L52+8
 735 0044 1621     		movs	r1, #22
 736 0046 9847     		blx	r3
 737              	.L50:
 738              		.loc 1 298 0
 739 0048 019B     		ldr	r3, [sp, #4]
ARM GAS  /tmp/ccMckAAe.s 			page 14


 740 004a 03F00053 		and	r3, r3, #536870912
 741 004e 002B     		cmp	r3, #0
 742 0050 06D0     		beq	.L51
 743              		.loc 1 299 0
 744 0052 094B     		ldr	r3, .L52+8
 745 0054 5B68     		ldr	r3, [r3, #4]
 746 0056 D3F8EC30 		ldr	r3, [r3, #236]
 747 005a 0748     		ldr	r0, .L52+8
 748 005c 1D21     		movs	r1, #29
 749 005e 9847     		blx	r3
 750              	.L51:
 751              		.loc 1 301 0
 752 0060 FFF7FEFF 		bl	dbg_check_leave_isr
 753 0064 FFF7FEFF 		bl	_port_irq_epilogue
 754              		.loc 1 302 0
 755 0068 03B0     		add	sp, sp, #12
 756              		@ sp needed
 757 006a 5DF804FB 		ldr	pc, [sp], #4
 758              	.L53:
 759 006e 00BF     		.align	2
 760              	.L52:
 761 0070 00040140 		.word	1073808384
 762 0074 00006020 		.word	543162368
 763 0078 00000000 		.word	EXTD1
 764              		.cfi_endproc
 765              	.LFE130:
 766              		.size	Vector140, .-Vector140
 767 007c AFF30080 		.section	.text.Vector144,"ax",%progbits
 768              		.align	2
 769              		.p2align 4,,15
 770              		.global	Vector144
 771              		.thumb
 772              		.thumb_func
 773              		.type	Vector144, %function
 774              	Vector144:
 775              	.LFB131:
 776              		.loc 1 311 0
 777              		.cfi_startproc
 778              		@ args = 0, pretend = 0, frame = 8
 779              		@ frame_needed = 0, uses_anonymous_args = 0
 780 0000 00B5     		push	{lr}
 781              		.cfi_def_cfa_offset 4
 782              		.cfi_offset 14, -4
 783 0002 83B0     		sub	sp, sp, #12
 784              		.cfi_def_cfa_offset 16
 785              		.loc 1 314 0
 786 0004 FFF7FEFF 		bl	dbg_check_enter_isr
 787              		.loc 1 316 0
 788 0008 1C4B     		ldr	r3, .L58
 789 000a 5B69     		ldr	r3, [r3, #20]
 790 000c 03F04043 		and	r3, r3, #-1073741824
 791 0010 0193     		str	r3, [sp, #4]
 792              		.loc 1 317 0
 793 0012 1A4B     		ldr	r3, .L58
 794 0014 019A     		ldr	r2, [sp, #4]
 795 0016 5A61     		str	r2, [r3, #20]
 796              		.loc 1 318 0
ARM GAS  /tmp/ccMckAAe.s 			page 15


 797 0018 019B     		ldr	r3, [sp, #4]
 798 001a 03F08043 		and	r3, r3, #1073741824
 799 001e 002B     		cmp	r3, #0
 800 0020 06D0     		beq	.L55
 801              		.loc 1 319 0
 802 0022 174B     		ldr	r3, .L58+4
 803 0024 5B68     		ldr	r3, [r3, #4]
 804 0026 D3F8F430 		ldr	r3, [r3, #244]
 805 002a 1548     		ldr	r0, .L58+4
 806 002c 1E21     		movs	r1, #30
 807 002e 9847     		blx	r3
 808              	.L55:
 809              		.loc 1 320 0
 810 0030 019B     		ldr	r3, [sp, #4]
 811 0032 002B     		cmp	r3, #0
 812 0034 06DA     		bge	.L56
 813              		.loc 1 321 0
 814 0036 124B     		ldr	r3, .L58+4
 815 0038 5B68     		ldr	r3, [r3, #4]
 816 003a D3F8FC30 		ldr	r3, [r3, #252]
 817 003e 1048     		ldr	r0, .L58+4
 818 0040 1F21     		movs	r1, #31
 819 0042 9847     		blx	r3
 820              	.L56:
 821              		.loc 1 323 0
 822 0044 0D4B     		ldr	r3, .L58
 823 0046 5B6B     		ldr	r3, [r3, #52]
 824 0048 03F00103 		and	r3, r3, #1
 825 004c 0193     		str	r3, [sp, #4]
 826              		.loc 1 324 0
 827 004e 0B4B     		ldr	r3, .L58
 828 0050 019A     		ldr	r2, [sp, #4]
 829 0052 5A63     		str	r2, [r3, #52]
 830              		.loc 1 325 0
 831 0054 019B     		ldr	r3, [sp, #4]
 832 0056 03F00103 		and	r3, r3, #1
 833 005a 002B     		cmp	r3, #0
 834 005c 06D0     		beq	.L57
 835              		.loc 1 326 0
 836 005e 084B     		ldr	r3, .L58+4
 837 0060 5B68     		ldr	r3, [r3, #4]
 838 0062 D3F80431 		ldr	r3, [r3, #260]
 839 0066 0648     		ldr	r0, .L58+4
 840 0068 2021     		movs	r1, #32
 841 006a 9847     		blx	r3
 842              	.L57:
 843              		.loc 1 328 0
 844 006c FFF7FEFF 		bl	dbg_check_leave_isr
 845 0070 FFF7FEFF 		bl	_port_irq_epilogue
 846              		.loc 1 329 0
 847 0074 03B0     		add	sp, sp, #12
 848              		@ sp needed
 849 0076 5DF804FB 		ldr	pc, [sp], #4
 850              	.L59:
 851 007a 00BF     		.align	2
 852              	.L58:
 853 007c 00040140 		.word	1073808384
ARM GAS  /tmp/ccMckAAe.s 			page 16


 854 0080 00000000 		.word	EXTD1
 855              		.cfi_endproc
 856              	.LFE131:
 857              		.size	Vector144, .-Vector144
 858 0084 AFF30080 		.section	.text.RTC_WKUP_IRQHandler,"ax",%progbits
 858      AFF30080 
 858      AFF30080 
 859              		.align	2
 860              		.p2align 4,,15
 861              		.global	RTC_WKUP_IRQHandler
 862              		.thumb
 863              		.thumb_func
 864              		.type	RTC_WKUP_IRQHandler, %function
 865              	RTC_WKUP_IRQHandler:
 866              	.LFB132:
 867              		.loc 1 338 0
 868              		.cfi_startproc
 869              		@ args = 0, pretend = 0, frame = 0
 870              		@ frame_needed = 0, uses_anonymous_args = 0
 871 0000 08B5     		push	{r3, lr}
 872              		.cfi_def_cfa_offset 8
 873              		.cfi_offset 3, -8
 874              		.cfi_offset 14, -4
 875              		.loc 1 340 0
 876 0002 FFF7FEFF 		bl	dbg_check_enter_isr
 877              		.loc 1 342 0
 878 0006 074B     		ldr	r3, .L61
 879 0008 0222     		movs	r2, #2
 880 000a 5A63     		str	r2, [r3, #52]
 881              		.loc 1 343 0
 882 000c 064B     		ldr	r3, .L61+4
 883 000e 5B68     		ldr	r3, [r3, #4]
 884 0010 D3F80C31 		ldr	r3, [r3, #268]
 885 0014 0448     		ldr	r0, .L61+4
 886 0016 2121     		movs	r1, #33
 887 0018 9847     		blx	r3
 888              		.loc 1 345 0
 889 001a FFF7FEFF 		bl	dbg_check_leave_isr
 890 001e FFF7FEFF 		bl	_port_irq_epilogue
 891              		.loc 1 346 0
 892 0022 08BD     		pop	{r3, pc}
 893              	.L62:
 894              		.align	2
 895              	.L61:
 896 0024 00040140 		.word	1073808384
 897 0028 00000000 		.word	EXTD1
 898              		.cfi_endproc
 899              	.LFE132:
 900              		.size	RTC_WKUP_IRQHandler, .-RTC_WKUP_IRQHandler
 901 002c AFF30080 		.section	.text.ext_lld_exti_irq_enable,"ax",%progbits
 902              		.align	2
 903              		.p2align 4,,15
 904              		.global	ext_lld_exti_irq_enable
 905              		.thumb
 906              		.thumb_func
 907              		.type	ext_lld_exti_irq_enable, %function
 908              	ext_lld_exti_irq_enable:
ARM GAS  /tmp/ccMckAAe.s 			page 17


 909              	.LFB133:
 910              		.loc 1 358 0
 911              		.cfi_startproc
 912              		@ args = 0, pretend = 0, frame = 0
 913              		@ frame_needed = 0, uses_anonymous_args = 0
 914 0000 08B5     		push	{r3, lr}
 915              		.cfi_def_cfa_offset 8
 916              		.cfi_offset 3, -8
 917              		.cfi_offset 14, -4
 918              		.loc 1 360 0
 919 0002 0620     		movs	r0, #6
 920 0004 6021     		movs	r1, #96
 921 0006 FFF7FEFF 		bl	nvicEnableVector
 922              		.loc 1 362 0
 923 000a 0720     		movs	r0, #7
 924 000c 6021     		movs	r1, #96
 925 000e FFF7FEFF 		bl	nvicEnableVector
 926              		.loc 1 364 0
 927 0012 0820     		movs	r0, #8
 928 0014 6021     		movs	r1, #96
 929 0016 FFF7FEFF 		bl	nvicEnableVector
 930              		.loc 1 366 0
 931 001a 0920     		movs	r0, #9
 932 001c 6021     		movs	r1, #96
 933 001e FFF7FEFF 		bl	nvicEnableVector
 934              		.loc 1 368 0
 935 0022 0A20     		movs	r0, #10
 936 0024 6021     		movs	r1, #96
 937 0026 FFF7FEFF 		bl	nvicEnableVector
 938              		.loc 1 370 0
 939 002a 1720     		movs	r0, #23
 940 002c 6021     		movs	r1, #96
 941 002e FFF7FEFF 		bl	nvicEnableVector
 942              		.loc 1 372 0
 943 0032 2820     		movs	r0, #40
 944 0034 6021     		movs	r1, #96
 945 0036 FFF7FEFF 		bl	nvicEnableVector
 946              		.loc 1 374 0
 947 003a 0120     		movs	r0, #1
 948 003c 6021     		movs	r1, #96
 949 003e FFF7FEFF 		bl	nvicEnableVector
 950              		.loc 1 376 0
 951 0042 2920     		movs	r0, #41
 952 0044 6021     		movs	r1, #96
 953 0046 FFF7FEFF 		bl	nvicEnableVector
 954              		.loc 1 378 0
 955 004a 2A20     		movs	r0, #42
 956 004c 6021     		movs	r1, #96
 957 004e FFF7FEFF 		bl	nvicEnableVector
 958              		.loc 1 380 0
 959 0052 0220     		movs	r0, #2
 960 0054 6021     		movs	r1, #96
 961 0056 FFF7FEFF 		bl	nvicEnableVector
 962              		.loc 1 382 0
 963 005a 0320     		movs	r0, #3
 964 005c 6021     		movs	r1, #96
 965 005e FFF7FEFF 		bl	nvicEnableVector
ARM GAS  /tmp/ccMckAAe.s 			page 18


 966              		.loc 1 384 0
 967 0062 4020     		movs	r0, #64
 968 0064 6021     		movs	r1, #96
 969 0066 FFF7FEFF 		bl	nvicEnableVector
 970              		.loc 1 386 0
 971 006a 4120     		movs	r0, #65
 972 006c 6021     		movs	r1, #96
 973 006e FFF7FEFF 		bl	nvicEnableVector
 974              		.loc 1 388 0
 975 0072 4220     		movs	r0, #66
 976 0074 6021     		movs	r1, #96
 977 0076 FFF7FEFF 		bl	nvicEnableVector
 978              		.loc 1 390 0
 979 007a 08BD     		pop	{r3, pc}
 980              		.cfi_endproc
 981              	.LFE133:
 982              		.size	ext_lld_exti_irq_enable, .-ext_lld_exti_irq_enable
 983 007c AFF30080 		.section	.text.ext_lld_exti_irq_disable,"ax",%progbits
 984              		.align	2
 985              		.p2align 4,,15
 986              		.global	ext_lld_exti_irq_disable
 987              		.thumb
 988              		.thumb_func
 989              		.type	ext_lld_exti_irq_disable, %function
 990              	ext_lld_exti_irq_disable:
 991              	.LFB134:
 992              		.loc 1 397 0
 993              		.cfi_startproc
 994              		@ args = 0, pretend = 0, frame = 0
 995              		@ frame_needed = 0, uses_anonymous_args = 0
 996 0000 08B5     		push	{r3, lr}
 997              		.cfi_def_cfa_offset 8
 998              		.cfi_offset 3, -8
 999              		.cfi_offset 14, -4
 1000              		.loc 1 399 0
 1001 0002 0620     		movs	r0, #6
 1002 0004 FFF7FEFF 		bl	nvicDisableVector
 1003              		.loc 1 400 0
 1004 0008 0720     		movs	r0, #7
 1005 000a FFF7FEFF 		bl	nvicDisableVector
 1006              		.loc 1 401 0
 1007 000e 0820     		movs	r0, #8
 1008 0010 FFF7FEFF 		bl	nvicDisableVector
 1009              		.loc 1 402 0
 1010 0014 0920     		movs	r0, #9
 1011 0016 FFF7FEFF 		bl	nvicDisableVector
 1012              		.loc 1 403 0
 1013 001a 0A20     		movs	r0, #10
 1014 001c FFF7FEFF 		bl	nvicDisableVector
 1015              		.loc 1 404 0
 1016 0020 1720     		movs	r0, #23
 1017 0022 FFF7FEFF 		bl	nvicDisableVector
 1018              		.loc 1 405 0
 1019 0026 2820     		movs	r0, #40
 1020 0028 FFF7FEFF 		bl	nvicDisableVector
 1021              		.loc 1 406 0
 1022 002c 0120     		movs	r0, #1
ARM GAS  /tmp/ccMckAAe.s 			page 19


 1023 002e FFF7FEFF 		bl	nvicDisableVector
 1024              		.loc 1 407 0
 1025 0032 2920     		movs	r0, #41
 1026 0034 FFF7FEFF 		bl	nvicDisableVector
 1027              		.loc 1 408 0
 1028 0038 2A20     		movs	r0, #42
 1029 003a FFF7FEFF 		bl	nvicDisableVector
 1030              		.loc 1 409 0
 1031 003e 0220     		movs	r0, #2
 1032 0040 FFF7FEFF 		bl	nvicDisableVector
 1033              		.loc 1 410 0
 1034 0044 0320     		movs	r0, #3
 1035 0046 FFF7FEFF 		bl	nvicDisableVector
 1036              		.loc 1 411 0
 1037 004a 4020     		movs	r0, #64
 1038 004c FFF7FEFF 		bl	nvicDisableVector
 1039              		.loc 1 412 0
 1040 0050 4120     		movs	r0, #65
 1041 0052 FFF7FEFF 		bl	nvicDisableVector
 1042              		.loc 1 413 0
 1043 0056 4220     		movs	r0, #66
 1044 0058 FFF7FEFF 		bl	nvicDisableVector
 1045              		.loc 1 414 0
 1046 005c 08BD     		pop	{r3, pc}
 1047              		.cfi_endproc
 1048              	.LFE134:
 1049              		.size	ext_lld_exti_irq_disable, .-ext_lld_exti_irq_disable
 1050 005e 00BF     		.text
 1051              	.Letext0:
 1052              		.file 2 "/usr/include/newlib/machine/_default_types.h"
 1053              		.file 3 "/usr/include/newlib/stdint.h"
 1054              		.file 4 "/home/dave/r2p-sdk/core/ChibiOS/os/hal/platforms/STM32F30x/stm32f30x.h"
 1055              		.file 5 "/home/dave/r2p-sdk/core/ChibiOS/os/hal/include/ext.h"
 1056              		.file 6 "/home/dave/r2p-sdk/core/ChibiOS/os/hal/platforms/STM32/ext_lld.h"
 1057              		.file 7 "/home/dave/r2p-sdk/core/ChibiOS/os/ports/common/ARMCMx/CMSIS/include/core_cm4.h"