ARM GAS  /tmp/ccS6P8yq.s 			page 1


   1              		.syntax unified
   2              		.cpu cortex-m4
   3              		.eabi_attribute 27, 3
   4              		.eabi_attribute 28, 1
   5              		.fpu fpv4-sp-d16
   6              		.eabi_attribute 20, 1
   7              		.eabi_attribute 21, 1
   8              		.eabi_attribute 23, 3
   9              		.eabi_attribute 24, 1
  10              		.eabi_attribute 25, 1
  11              		.eabi_attribute 26, 1
  12              		.eabi_attribute 30, 6
  13              		.eabi_attribute 34, 1
  14              		.eabi_attribute 18, 4
  15              		.thumb
  16              		.file	"led.cpp"
  17              		.text
  18              	.Ltext0:
  19              		.cfi_sections	.debug_frame
  20              		.section	.text._ZN3r2p8SysLock_7acquireEv,"axG",%progbits,_ZN3r2p8SysLock_7acquireEv,comdat
  21              		.align	2
  22              		.p2align 4,,15
  23              		.weak	_ZN3r2p8SysLock_7acquireEv
  24              		.thumb
  25              		.thumb_func
  26              		.type	_ZN3r2p8SysLock_7acquireEv, %function
  27              	_ZN3r2p8SysLock_7acquireEv:
  28              	.LFB129:
  29              		.file 1 "/home/dave/r2p-sdk/core/Middleware/port/chibios/include/r2p/impl/SysLock_.hpp"
  30              		.loc 1 20 0
  31              		.cfi_startproc
  32              		@ args = 0, pretend = 0, frame = 0
  33              		@ frame_needed = 0, uses_anonymous_args = 0
  34 0000 08B5     		push	{r3, lr}
  35              		.cfi_def_cfa_offset 8
  36              		.cfi_offset 3, -8
  37              		.cfi_offset 14, -4
  38              	.LBB24:
  39              	.LBB25:
  40              	.LBB26:
  41              		.loc 1 22 0
  42 0002 2023     		movs	r3, #32
  43              	@ 22 "/home/dave/r2p-sdk/core/Middleware/port/chibios/include/r2p/impl/SysLock_.hpp" 1
  44 0004 83F31188 		msr     BASEPRI, r3
  45              	@ 0 "" 2
  46              		.thumb
  47              	.LBE26:
  48 0008 FFF7FEFF 		bl	dbg_check_lock
  49              	.LBE25:
  50              	.LBE24:
  51              		.loc 1 23 0
  52 000c 08BD     		pop	{r3, pc}
  53              		.cfi_endproc
  54              	.LFE129:
  55              		.size	_ZN3r2p8SysLock_7acquireEv, .-_ZN3r2p8SysLock_7acquireEv
  56 000e 00BF     		.section	.text._ZN3r2p8SysLock_7releaseEv,"axG",%progbits,_ZN3r2p8SysLock_7releaseEv,comdat
  57              		.align	2
ARM GAS  /tmp/ccS6P8yq.s 			page 2


  58              		.p2align 4,,15
  59              		.weak	_ZN3r2p8SysLock_7releaseEv
  60              		.thumb
  61              		.thumb_func
  62              		.type	_ZN3r2p8SysLock_7releaseEv, %function
  63              	_ZN3r2p8SysLock_7releaseEv:
  64              	.LFB130:
  65              		.loc 1 27 0
  66              		.cfi_startproc
  67              		@ args = 0, pretend = 0, frame = 0
  68              		@ frame_needed = 0, uses_anonymous_args = 0
  69 0000 08B5     		push	{r3, lr}
  70              		.cfi_def_cfa_offset 8
  71              		.cfi_offset 3, -8
  72              		.cfi_offset 14, -4
  73              	.LBB27:
  74              	.LBB28:
  75              		.loc 1 29 0
  76 0002 FFF7FEFF 		bl	dbg_check_unlock
  77              	.LBB29:
  78 0006 0023     		movs	r3, #0
  79              	@ 29 "/home/dave/r2p-sdk/core/Middleware/port/chibios/include/r2p/impl/SysLock_.hpp" 1
  80 0008 83F31188 		msr     BASEPRI, r3
  81              	@ 0 "" 2
  82              		.thumb
  83              	.LBE29:
  84              	.LBE28:
  85              	.LBE27:
  86              		.loc 1 30 0
  87 000c 08BD     		pop	{r3, pc}
  88              		.cfi_endproc
  89              	.LFE130:
  90              		.size	_ZN3r2p8SysLock_7releaseEv, .-_ZN3r2p8SysLock_7releaseEv
  91 000e 00BF     		.section	.text._ZN3r2p7SysLock7acquireEv,"axG",%progbits,_ZN3r2p7SysLock7acquireEv,comdat
  92              		.align	2
  93              		.p2align 4,,15
  94              		.weak	_ZN3r2p7SysLock7acquireEv
  95              		.thumb
  96              		.thumb_func
  97              		.type	_ZN3r2p7SysLock7acquireEv, %function
  98              	_ZN3r2p7SysLock7acquireEv:
  99              	.LFB137:
 100              		.file 2 "/home/dave/r2p-sdk/core/Middleware/include/r2p/SysLock.hpp"
 101              		.loc 2 27 0
 102              		.cfi_startproc
 103              		@ args = 0, pretend = 0, frame = 0
 104              		@ frame_needed = 0, uses_anonymous_args = 0
 105 0000 08B5     		push	{r3, lr}
 106              		.cfi_def_cfa_offset 8
 107              		.cfi_offset 3, -8
 108              		.cfi_offset 14, -4
 109              		.loc 2 29 0
 110 0002 FFF7FEFF 		bl	_ZN3r2p8SysLock_7acquireEv
 111              		.loc 2 30 0
 112 0006 08BD     		pop	{r3, pc}
 113              		.cfi_endproc
 114              	.LFE137:
ARM GAS  /tmp/ccS6P8yq.s 			page 3


 115              		.size	_ZN3r2p7SysLock7acquireEv, .-_ZN3r2p7SysLock7acquireEv
 116 0008 AFF30080 		.section	.text._ZN3r2p7SysLock7releaseEv,"axG",%progbits,_ZN3r2p7SysLock7releaseEv,comdat
 116      AFF30080 
 117              		.align	2
 118              		.p2align 4,,15
 119              		.weak	_ZN3r2p7SysLock7releaseEv
 120              		.thumb
 121              		.thumb_func
 122              		.type	_ZN3r2p7SysLock7releaseEv, %function
 123              	_ZN3r2p7SysLock7releaseEv:
 124              	.LFB138:
 125              		.loc 2 34 0
 126              		.cfi_startproc
 127              		@ args = 0, pretend = 0, frame = 0
 128              		@ frame_needed = 0, uses_anonymous_args = 0
 129 0000 08B5     		push	{r3, lr}
 130              		.cfi_def_cfa_offset 8
 131              		.cfi_offset 3, -8
 132              		.cfi_offset 14, -4
 133              		.loc 2 36 0
 134 0002 FFF7FEFF 		bl	_ZN3r2p8SysLock_7releaseEv
 135              		.loc 2 37 0
 136 0006 08BD     		pop	{r3, pc}
 137              		.cfi_endproc
 138              	.LFE138:
 139              		.size	_ZN3r2p7SysLock7releaseEv, .-_ZN3r2p7SysLock7releaseEv
 140 0008 AFF30080 		.section	.text._ZN3r2p11MemoryPool_12alloc_unsafeEv,"axG",%progbits,_ZN3r2p11MemoryPool_12alloc_un
 140      AFF30080 
 141              		.align	2
 142              		.p2align 4,,15
 143              		.weak	_ZN3r2p11MemoryPool_12alloc_unsafeEv
 144              		.thumb
 145              		.thumb_func
 146              		.type	_ZN3r2p11MemoryPool_12alloc_unsafeEv, %function
 147              	_ZN3r2p11MemoryPool_12alloc_unsafeEv:
 148              	.LFB236:
 149              		.file 3 "/home/dave/r2p-sdk/core/Middleware/port/chibios/include/r2p/impl/MemoryPool_.hpp"
 150              		.loc 3 53 0
 151              		.cfi_startproc
 152              		@ args = 0, pretend = 0, frame = 8
 153              		@ frame_needed = 0, uses_anonymous_args = 0
 154 0000 00B5     		push	{lr}
 155              		.cfi_def_cfa_offset 4
 156              		.cfi_offset 14, -4
 157 0002 83B0     		sub	sp, sp, #12
 158              		.cfi_def_cfa_offset 16
 159 0004 0190     		str	r0, [sp, #4]
 160              		.loc 3 55 0
 161 0006 019B     		ldr	r3, [sp, #4]
 162 0008 1846     		mov	r0, r3
 163 000a FFF7FEFF 		bl	chPoolAllocI
 164 000e 0346     		mov	r3, r0
 165              		.loc 3 56 0
 166 0010 1846     		mov	r0, r3
 167 0012 03B0     		add	sp, sp, #12
 168              		@ sp needed
 169 0014 5DF804FB 		ldr	pc, [sp], #4
ARM GAS  /tmp/ccS6P8yq.s 			page 4


 170              		.cfi_endproc
 171              	.LFE236:
 172              		.size	_ZN3r2p11MemoryPool_12alloc_unsafeEv, .-_ZN3r2p11MemoryPool_12alloc_unsafeEv
 173 0018 AFF30080 		.section	.text._ZN3r2p4TimeaSERKS0_,"axG",%progbits,_ZN3r2p4TimeaSERKS0_,comdat
 173      AFF30080 
 174              		.align	2
 175              		.p2align 4,,15
 176              		.weak	_ZN3r2p4TimeaSERKS0_
 177              		.thumb
 178              		.thumb_func
 179              		.type	_ZN3r2p4TimeaSERKS0_, %function
 180              	_ZN3r2p4TimeaSERKS0_:
 181              	.LFB262:
 182              		.file 4 "/home/dave/r2p-sdk/core/Middleware/include/r2p/Time.hpp"
 183              		.loc 4 131 0
 184              		.cfi_startproc
 185              		@ args = 0, pretend = 0, frame = 8
 186              		@ frame_needed = 0, uses_anonymous_args = 0
 187              		@ link register save eliminated.
 188 0000 82B0     		sub	sp, sp, #8
 189              		.cfi_def_cfa_offset 8
 190 0002 0190     		str	r0, [sp, #4]
 191 0004 0091     		str	r1, [sp]
 192              		.loc 4 133 0
 193 0006 009B     		ldr	r3, [sp]
 194 0008 1A68     		ldr	r2, [r3]
 195 000a 019B     		ldr	r3, [sp, #4]
 196 000c 1A60     		str	r2, [r3]
 197              		.loc 4 134 0
 198 000e 019B     		ldr	r3, [sp, #4]
 199              		.loc 4 135 0
 200 0010 1846     		mov	r0, r3
 201 0012 02B0     		add	sp, sp, #8
 202              		@ sp needed
 203 0014 7047     		bx	lr
 204              		.cfi_endproc
 205              	.LFE262:
 206              		.size	_ZN3r2p4TimeaSERKS0_, .-_ZN3r2p4TimeaSERKS0_
 207 0016 00BFAFF3 		.section	.text._ZN3r2p4Time2msEl,"axG",%progbits,_ZN3r2p4Time2msEl,comdat
 207      0080AFF3 
 207      0080
 208              		.align	2
 209              		.p2align 4,,15
 210              		.weak	_ZN3r2p4Time2msEl
 211              		.thumb
 212              		.thumb_func
 213              		.type	_ZN3r2p4Time2msEl, %function
 214              	_ZN3r2p4Time2msEl:
 215              	.LFB276:
 216              		.loc 4 184 0
 217              		.cfi_startproc
 218              		@ args = 0, pretend = 0, frame = 8
 219              		@ frame_needed = 0, uses_anonymous_args = 0
 220 0000 00B5     		push	{lr}
 221              		.cfi_def_cfa_offset 4
 222              		.cfi_offset 14, -4
 223 0002 83B0     		sub	sp, sp, #12
ARM GAS  /tmp/ccS6P8yq.s 			page 5


 224              		.cfi_def_cfa_offset 16
 225 0004 0190     		str	r0, [sp, #4]
 226 0006 0091     		str	r1, [sp]
 227              		.loc 4 186 0
 228 0008 009B     		ldr	r3, [sp]
 229 000a 4FF47A72 		mov	r2, #1000
 230 000e 02FB03F3 		mul	r3, r2, r3
 231 0012 0198     		ldr	r0, [sp, #4]
 232 0014 1946     		mov	r1, r3
 233 0016 FFF7FEFF 		bl	_ZN3r2p4TimeC1IlEET_
 234              		.loc 4 187 0
 235 001a 0198     		ldr	r0, [sp, #4]
 236 001c 03B0     		add	sp, sp, #12
 237              		@ sp needed
 238 001e 5DF804FB 		ldr	pc, [sp], #4
 239              		.cfi_endproc
 240              	.LFE276:
 241              		.size	_ZN3r2p4Time2msEl, .-_ZN3r2p4Time2msEl
 242 0022 00BFAFF3 		.section	.text._ZN3r2p7Message12reset_unsafeEv,"axG",%progbits,_ZN3r2p7Message12reset_unsafeEv,com
 242      0080AFF3 
 242      0080AFF3 
 242      0080
 243              		.align	2
 244              		.p2align 4,,15
 245              		.weak	_ZN3r2p7Message12reset_unsafeEv
 246              		.thumb
 247              		.thumb_func
 248              		.type	_ZN3r2p7Message12reset_unsafeEv, %function
 249              	_ZN3r2p7Message12reset_unsafeEv:
 250              	.LFB292:
 251              		.file 5 "/home/dave/r2p-sdk/core/Middleware/include/r2p/Message.hpp"
 252              		.loc 5 122 0
 253              		.cfi_startproc
 254              		@ args = 0, pretend = 0, frame = 8
 255              		@ frame_needed = 0, uses_anonymous_args = 0
 256              		@ link register save eliminated.
 257 0000 82B0     		sub	sp, sp, #8
 258              		.cfi_def_cfa_offset 8
 259 0002 0190     		str	r0, [sp, #4]
 260              		.loc 5 127 0
 261 0004 019B     		ldr	r3, [sp, #4]
 262 0006 0022     		movs	r2, #0
 263 0008 1A70     		strb	r2, [r3]
 264 000a 0022     		movs	r2, #0
 265 000c 5A70     		strb	r2, [r3, #1]
 266              		.loc 5 128 0
 267 000e 02B0     		add	sp, sp, #8
 268              		@ sp needed
 269 0010 7047     		bx	lr
 270              		.cfi_endproc
 271              	.LFE292:
 272              		.size	_ZN3r2p7Message12reset_unsafeEv, .-_ZN3r2p7Message12reset_unsafeEv
 273 0012 00BFAFF3 		.section	.text._ZN3r2p7MessageC2Ev,"axG",%progbits,_ZN3r2p7MessageC5Ev,comdat
 273      0080AFF3 
 273      0080AFF3 
 273      0080
 274              		.align	2
ARM GAS  /tmp/ccS6P8yq.s 			page 6


 275              		.p2align 4,,15
 276              		.weak	_ZN3r2p7MessageC2Ev
 277              		.thumb
 278              		.thumb_func
 279              		.type	_ZN3r2p7MessageC2Ev, %function
 280              	_ZN3r2p7MessageC2Ev:
 281              	.LFB294:
 282              		.loc 5 132 0
 283              		.cfi_startproc
 284              		@ args = 0, pretend = 0, frame = 8
 285              		@ frame_needed = 0, uses_anonymous_args = 0
 286              		@ link register save eliminated.
 287 0000 82B0     		sub	sp, sp, #8
 288              		.cfi_def_cfa_offset 8
 289 0002 0190     		str	r0, [sp, #4]
 290              	.LBB30:
 291              		.loc 5 137 0
 292 0004 019B     		ldr	r3, [sp, #4]
 293 0006 0022     		movs	r2, #0
 294 0008 1A70     		strb	r2, [r3]
 295 000a 0022     		movs	r2, #0
 296 000c 5A70     		strb	r2, [r3, #1]
 297              	.LBE30:
 298              		.loc 5 138 0
 299 000e 019B     		ldr	r3, [sp, #4]
 300 0010 1846     		mov	r0, r3
 301 0012 02B0     		add	sp, sp, #8
 302              		@ sp needed
 303 0014 7047     		bx	lr
 304              		.cfi_endproc
 305              	.LFE294:
 306              		.size	_ZN3r2p7MessageC2Ev, .-_ZN3r2p7MessageC2Ev
 307              		.weak	_ZN3r2p7MessageC1Ev
 308              		.thumb_set _ZN3r2p7MessageC1Ev,_ZN3r2p7MessageC2Ev
 309 0016 00BFAFF3 		.section	.rodata
 309      0080AFF3 
 309      0080
 310              		.align	2
 311              	.LC0:
 312 0000 5232505F 		.ascii	"R2P_ASSERT()\000"
 312      41535345 
 312      52542829 
 312      00
 313              		.section	.text._ZN3r2p13BasePublisher12alloc_unsafeERPNS_7MessageE,"axG",%progbits,_ZN3r2p13BasePu
 314              		.align	2
 315              		.p2align 4,,15
 316              		.weak	_ZN3r2p13BasePublisher12alloc_unsafeERPNS_7MessageE
 317              		.thumb
 318              		.thumb_func
 319              		.type	_ZN3r2p13BasePublisher12alloc_unsafeERPNS_7MessageE, %function
 320              	_ZN3r2p13BasePublisher12alloc_unsafeERPNS_7MessageE:
 321              	.LFB303:
 322              		.file 6 "/home/dave/r2p-sdk/core/Middleware/include/r2p/BasePublisher.hpp"
 323              		.loc 6 64 0
 324              		.cfi_startproc
 325              		@ args = 0, pretend = 0, frame = 8
 326              		@ frame_needed = 0, uses_anonymous_args = 0
ARM GAS  /tmp/ccS6P8yq.s 			page 7


 327 0000 00B5     		push	{lr}
 328              		.cfi_def_cfa_offset 4
 329              		.cfi_offset 14, -4
 330 0002 83B0     		sub	sp, sp, #12
 331              		.cfi_def_cfa_offset 16
 332 0004 0190     		str	r0, [sp, #4]
 333 0006 0091     		str	r1, [sp]
 334              		.loc 6 66 0
 335 0008 019B     		ldr	r3, [sp, #4]
 336 000a 5B68     		ldr	r3, [r3, #4]
 337 000c 002B     		cmp	r3, #0
 338 000e 02D1     		bne	.L16
 339              		.loc 6 66 0 is_stmt 0 discriminator 1
 340 0010 0A48     		ldr	r0, .L18
 341 0012 FFF7FEFF 		bl	chDbgPanic
 342              	.L16:
 343              		.loc 6 68 0 is_stmt 1
 344 0016 019B     		ldr	r3, [sp, #4]
 345 0018 5B68     		ldr	r3, [r3, #4]
 346 001a 1846     		mov	r0, r3
 347 001c FFF7FEFF 		bl	_ZN3r2p5Topic12alloc_unsafeEv
 348 0020 0246     		mov	r2, r0
 349 0022 009B     		ldr	r3, [sp]
 350 0024 1A60     		str	r2, [r3]
 351              		.loc 6 69 0
 352 0026 009B     		ldr	r3, [sp]
 353 0028 1B68     		ldr	r3, [r3]
 354 002a 002B     		cmp	r3, #0
 355 002c 0CBF     		ite	eq
 356 002e 0023     		moveq	r3, #0
 357 0030 0123     		movne	r3, #1
 358 0032 DBB2     		uxtb	r3, r3
 359              		.loc 6 70 0
 360 0034 1846     		mov	r0, r3
 361 0036 03B0     		add	sp, sp, #12
 362              		@ sp needed
 363 0038 5DF804FB 		ldr	pc, [sp], #4
 364              	.L19:
 365              		.align	2
 366              	.L18:
 367 003c 00000000 		.word	.LC0
 368              		.cfi_endproc
 369              	.LFE303:
 370              		.size	_ZN3r2p13BasePublisher12alloc_unsafeERPNS_7MessageE, .-_ZN3r2p13BasePublisher12alloc_unsafeE
 371              		.section	.text._ZN3r2p13BasePublisher5allocERPNS_7MessageE,"axG",%progbits,_ZN3r2p13BasePublisher5
 372              		.align	2
 373              		.p2align 4,,15
 374              		.weak	_ZN3r2p13BasePublisher5allocERPNS_7MessageE
 375              		.thumb
 376              		.thumb_func
 377              		.type	_ZN3r2p13BasePublisher5allocERPNS_7MessageE, %function
 378              	_ZN3r2p13BasePublisher5allocERPNS_7MessageE:
 379              	.LFB304:
 380              		.loc 6 74 0
 381              		.cfi_startproc
 382              		@ args = 0, pretend = 0, frame = 16
 383              		@ frame_needed = 0, uses_anonymous_args = 0
ARM GAS  /tmp/ccS6P8yq.s 			page 8


 384 0000 00B5     		push	{lr}
 385              		.cfi_def_cfa_offset 4
 386              		.cfi_offset 14, -4
 387 0002 85B0     		sub	sp, sp, #20
 388              		.cfi_def_cfa_offset 24
 389 0004 0190     		str	r0, [sp, #4]
 390 0006 0091     		str	r1, [sp]
 391              	.LBB31:
 392              		.loc 6 76 0
 393 0008 FFF7FEFF 		bl	_ZN3r2p7SysLock7acquireEv
 394              		.loc 6 77 0
 395 000c 0198     		ldr	r0, [sp, #4]
 396 000e 0099     		ldr	r1, [sp]
 397 0010 FFF7FEFF 		bl	_ZN3r2p13BasePublisher12alloc_unsafeERPNS_7MessageE
 398 0014 0346     		mov	r3, r0
 399 0016 8DF80F30 		strb	r3, [sp, #15]
 400              		.loc 6 78 0
 401 001a FFF7FEFF 		bl	_ZN3r2p7SysLock7releaseEv
 402              		.loc 6 79 0
 403 001e 9DF80F30 		ldrb	r3, [sp, #15]	@ zero_extendqisi2
 404              	.LBE31:
 405              		.loc 6 80 0
 406 0022 1846     		mov	r0, r3
 407 0024 05B0     		add	sp, sp, #20
 408              		@ sp needed
 409 0026 5DF804FB 		ldr	pc, [sp], #4
 410              		.cfi_endproc
 411              	.LFE304:
 412              		.size	_ZN3r2p13BasePublisher5allocERPNS_7MessageE, .-_ZN3r2p13BasePublisher5allocERPNS_7MessageE
 413 002a 00BFAFF3 		.section	.text._ZNK3r2p10SpinEvent_10get_threadEv,"axG",%progbits,_ZNK3r2p10SpinEvent_10get_thread
 413      0080
 414              		.align	2
 415              		.p2align 4,,15
 416              		.weak	_ZNK3r2p10SpinEvent_10get_threadEv
 417              		.thumb
 418              		.thumb_func
 419              		.type	_ZNK3r2p10SpinEvent_10get_threadEv, %function
 420              	_ZNK3r2p10SpinEvent_10get_threadEv:
 421              	.LFB353:
 422              		.file 7 "/home/dave/r2p-sdk/core/Middleware/port/chibios/include/r2p/impl/SpinEvent_.hpp"
 423              		.loc 7 36 0
 424              		.cfi_startproc
 425              		@ args = 0, pretend = 0, frame = 8
 426              		@ frame_needed = 0, uses_anonymous_args = 0
 427              		@ link register save eliminated.
 428 0000 82B0     		sub	sp, sp, #8
 429              		.cfi_def_cfa_offset 8
 430 0002 0190     		str	r0, [sp, #4]
 431              		.loc 7 38 0
 432 0004 019B     		ldr	r3, [sp, #4]
 433 0006 1B68     		ldr	r3, [r3]
 434              		.loc 7 39 0
 435 0008 1846     		mov	r0, r3
 436 000a 02B0     		add	sp, sp, #8
 437              		@ sp needed
 438 000c 7047     		bx	lr
 439              		.cfi_endproc
ARM GAS  /tmp/ccS6P8yq.s 			page 9


 440              	.LFE353:
 441              		.size	_ZNK3r2p10SpinEvent_10get_threadEv, .-_ZNK3r2p10SpinEvent_10get_threadEv
 442 000e 00BF     		.section	.text._ZN3r2p10SpinEvent_13signal_unsafeEj,"axG",%progbits,_ZN3r2p10SpinEvent_13signal_un
 443              		.align	2
 444              		.p2align 4,,15
 445              		.weak	_ZN3r2p10SpinEvent_13signal_unsafeEj
 446              		.thumb
 447              		.thumb_func
 448              		.type	_ZN3r2p10SpinEvent_13signal_unsafeEj, %function
 449              	_ZN3r2p10SpinEvent_13signal_unsafeEj:
 450              	.LFB355:
 451              		.loc 7 50 0
 452              		.cfi_startproc
 453              		@ args = 0, pretend = 0, frame = 8
 454              		@ frame_needed = 0, uses_anonymous_args = 0
 455 0000 00B5     		push	{lr}
 456              		.cfi_def_cfa_offset 4
 457              		.cfi_offset 14, -4
 458 0002 83B0     		sub	sp, sp, #12
 459              		.cfi_def_cfa_offset 16
 460 0004 0190     		str	r0, [sp, #4]
 461 0006 0091     		str	r1, [sp]
 462              		.loc 7 52 0
 463 0008 019B     		ldr	r3, [sp, #4]
 464 000a 1B68     		ldr	r3, [r3]
 465 000c 002B     		cmp	r3, #0
 466 000e 10D0     		beq	.L24
 467              		.loc 7 53 0
 468 0010 2022     		movs	r2, #32
 469 0012 009B     		ldr	r3, [sp]
 470 0014 9A42     		cmp	r2, r3
 471 0016 02D8     		bhi	.L26
 472              		.loc 7 53 0 is_stmt 0 discriminator 1
 473 0018 0748     		ldr	r0, .L27
 474 001a FFF7FEFF 		bl	chDbgPanic
 475              	.L26:
 476              		.loc 7 54 0 is_stmt 1 discriminator 1
 477 001e 019B     		ldr	r3, [sp, #4]
 478 0020 1A68     		ldr	r2, [r3]
 479 0022 009B     		ldr	r3, [sp]
 480 0024 0121     		movs	r1, #1
 481 0026 01FA03F3 		lsl	r3, r1, r3
 482 002a 1046     		mov	r0, r2
 483 002c 1946     		mov	r1, r3
 484 002e FFF7FEFF 		bl	chEvtSignalI
 485              	.L24:
 486              		.loc 7 56 0
 487 0032 03B0     		add	sp, sp, #12
 488              		@ sp needed
 489 0034 5DF804FB 		ldr	pc, [sp], #4
 490              	.L28:
 491              		.align	2
 492              	.L27:
 493 0038 00000000 		.word	.LC0
 494              		.cfi_endproc
 495              	.LFE355:
 496              		.size	_ZN3r2p10SpinEvent_13signal_unsafeEj, .-_ZN3r2p10SpinEvent_13signal_unsafeEj
ARM GAS  /tmp/ccS6P8yq.s 			page 10


 497 003c AFF30080 		.section	.text._ZNK3r2p9SpinEvent10get_threadEv,"axG",%progbits,_ZNK3r2p9SpinEvent10get_threadEv,c
 498              		.align	2
 499              		.p2align 4,,15
 500              		.weak	_ZNK3r2p9SpinEvent10get_threadEv
 501              		.thumb
 502              		.thumb_func
 503              		.type	_ZNK3r2p9SpinEvent10get_threadEv, %function
 504              	_ZNK3r2p9SpinEvent10get_threadEv:
 505              	.LFB361:
 506              		.file 8 "/home/dave/r2p-sdk/core/Middleware/include/r2p/SpinEvent.hpp"
 507              		.loc 8 35 0
 508              		.cfi_startproc
 509              		@ args = 0, pretend = 0, frame = 8
 510              		@ frame_needed = 0, uses_anonymous_args = 0
 511 0000 00B5     		push	{lr}
 512              		.cfi_def_cfa_offset 4
 513              		.cfi_offset 14, -4
 514 0002 83B0     		sub	sp, sp, #12
 515              		.cfi_def_cfa_offset 16
 516 0004 0190     		str	r0, [sp, #4]
 517              		.loc 8 37 0
 518 0006 019B     		ldr	r3, [sp, #4]
 519 0008 1846     		mov	r0, r3
 520 000a FFF7FEFF 		bl	_ZNK3r2p10SpinEvent_10get_threadEv
 521 000e 0346     		mov	r3, r0
 522              		.loc 8 38 0
 523 0010 1846     		mov	r0, r3
 524 0012 03B0     		add	sp, sp, #12
 525              		@ sp needed
 526 0014 5DF804FB 		ldr	pc, [sp], #4
 527              		.cfi_endproc
 528              	.LFE361:
 529              		.size	_ZNK3r2p9SpinEvent10get_threadEv, .-_ZNK3r2p9SpinEvent10get_threadEv
 530 0018 AFF30080 		.section	.text._ZN3r2p9SpinEvent13signal_unsafeEj,"axG",%progbits,_ZN3r2p9SpinEvent13signal_unsafe
 530      AFF30080 
 531              		.align	2
 532              		.p2align 4,,15
 533              		.weak	_ZN3r2p9SpinEvent13signal_unsafeEj
 534              		.thumb
 535              		.thumb_func
 536              		.type	_ZN3r2p9SpinEvent13signal_unsafeEj, %function
 537              	_ZN3r2p9SpinEvent13signal_unsafeEj:
 538              	.LFB363:
 539              		.loc 8 49 0
 540              		.cfi_startproc
 541              		@ args = 0, pretend = 0, frame = 8
 542              		@ frame_needed = 0, uses_anonymous_args = 0
 543 0000 00B5     		push	{lr}
 544              		.cfi_def_cfa_offset 4
 545              		.cfi_offset 14, -4
 546 0002 83B0     		sub	sp, sp, #12
 547              		.cfi_def_cfa_offset 16
 548 0004 0190     		str	r0, [sp, #4]
 549 0006 0091     		str	r1, [sp]
 550              		.loc 8 51 0
 551 0008 019B     		ldr	r3, [sp, #4]
 552 000a 1846     		mov	r0, r3
ARM GAS  /tmp/ccS6P8yq.s 			page 11


 553 000c 0099     		ldr	r1, [sp]
 554 000e FFF7FEFF 		bl	_ZN3r2p10SpinEvent_13signal_unsafeEj
 555              		.loc 8 52 0
 556 0012 03B0     		add	sp, sp, #12
 557              		@ sp needed
 558 0014 5DF804FB 		ldr	pc, [sp], #4
 559              		.cfi_endproc
 560              	.LFE363:
 561              		.size	_ZN3r2p9SpinEvent13signal_unsafeEj, .-_ZN3r2p9SpinEvent13signal_unsafeEj
 562 0018 AFF30080 		.section	.text._ZNK3r2p4Node11get_enabledEv,"axG",%progbits,_ZNK3r2p4Node11get_enabledEv,comdat
 562      AFF30080 
 563              		.align	2
 564              		.p2align 4,,15
 565              		.weak	_ZNK3r2p4Node11get_enabledEv
 566              		.thumb
 567              		.thumb_func
 568              		.type	_ZNK3r2p4Node11get_enabledEv, %function
 569              	_ZNK3r2p4Node11get_enabledEv:
 570              	.LFB380:
 571              		.file 9 "/home/dave/r2p-sdk/core/Middleware/include/r2p/Node.hpp"
 572              		.loc 9 103 0
 573              		.cfi_startproc
 574              		@ args = 0, pretend = 0, frame = 8
 575              		@ frame_needed = 0, uses_anonymous_args = 0
 576 0000 00B5     		push	{lr}
 577              		.cfi_def_cfa_offset 4
 578              		.cfi_offset 14, -4
 579 0002 83B0     		sub	sp, sp, #12
 580              		.cfi_def_cfa_offset 16
 581 0004 0190     		str	r0, [sp, #4]
 582              		.loc 9 105 0
 583 0006 019B     		ldr	r3, [sp, #4]
 584 0008 0C33     		adds	r3, r3, #12
 585 000a 1846     		mov	r0, r3
 586 000c FFF7FEFF 		bl	_ZNK3r2p9SpinEvent10get_threadEv
 587 0010 0346     		mov	r3, r0
 588 0012 002B     		cmp	r3, #0
 589 0014 0CBF     		ite	eq
 590 0016 0023     		moveq	r3, #0
 591 0018 0123     		movne	r3, #1
 592 001a DBB2     		uxtb	r3, r3
 593              		.loc 9 106 0
 594 001c 1846     		mov	r0, r3
 595 001e 03B0     		add	sp, sp, #12
 596              		@ sp needed
 597 0020 5DF804FB 		ldr	pc, [sp], #4
 598              		.cfi_endproc
 599              	.LFE380:
 600              		.size	_ZNK3r2p4Node11get_enabledEv, .-_ZNK3r2p4Node11get_enabledEv
 601 0024 AFF30080 		.section	.text._ZN3r2p4Node13notify_unsafeEj,"axG",%progbits,_ZN3r2p4Node13notify_unsafeEj,comdat
 601      AFF30080 
 601      AFF30080 
 602              		.align	2
 603              		.p2align 4,,15
 604              		.weak	_ZN3r2p4Node13notify_unsafeEj
 605              		.thumb
 606              		.thumb_func
ARM GAS  /tmp/ccS6P8yq.s 			page 12


 607              		.type	_ZN3r2p4Node13notify_unsafeEj, %function
 608              	_ZN3r2p4Node13notify_unsafeEj:
 609              	.LFB385:
 610              		.loc 9 140 0
 611              		.cfi_startproc
 612              		@ args = 0, pretend = 0, frame = 8
 613              		@ frame_needed = 0, uses_anonymous_args = 0
 614 0000 00B5     		push	{lr}
 615              		.cfi_def_cfa_offset 4
 616              		.cfi_offset 14, -4
 617 0002 83B0     		sub	sp, sp, #12
 618              		.cfi_def_cfa_offset 16
 619 0004 0190     		str	r0, [sp, #4]
 620 0006 0091     		str	r1, [sp]
 621              		.loc 9 142 0
 622 0008 019B     		ldr	r3, [sp, #4]
 623 000a 0C33     		adds	r3, r3, #12
 624 000c 1846     		mov	r0, r3
 625 000e 0099     		ldr	r1, [sp]
 626 0010 FFF7FEFF 		bl	_ZN3r2p9SpinEvent13signal_unsafeEj
 627              		.loc 9 143 0
 628 0014 03B0     		add	sp, sp, #12
 629              		@ sp needed
 630 0016 5DF804FB 		ldr	pc, [sp], #4
 631              		.cfi_endproc
 632              	.LFE385:
 633              		.size	_ZN3r2p4Node13notify_unsafeEj, .-_ZN3r2p4Node13notify_unsafeEj
 634 001a 00BFAFF3 		.section	.text._ZNK3r2p15LocalSubscriber16get_queue_lengthEv,"axG",%progbits,_ZNK3r2p15LocalSubscr
 634      0080
 635              		.align	2
 636              		.p2align 4,,15
 637              		.weak	_ZNK3r2p15LocalSubscriber16get_queue_lengthEv
 638              		.thumb
 639              		.thumb_func
 640              		.type	_ZNK3r2p15LocalSubscriber16get_queue_lengthEv, %function
 641              	_ZNK3r2p15LocalSubscriber16get_queue_lengthEv:
 642              	.LFB391:
 643              		.file 10 "/home/dave/r2p-sdk/core/Middleware/include/r2p/LocalSubscriber.hpp"
 644              		.loc 10 64 0
 645              		.cfi_startproc
 646              		@ args = 0, pretend = 0, frame = 8
 647              		@ frame_needed = 0, uses_anonymous_args = 0
 648 0000 00B5     		push	{lr}
 649              		.cfi_def_cfa_offset 4
 650              		.cfi_offset 14, -4
 651 0002 83B0     		sub	sp, sp, #12
 652              		.cfi_def_cfa_offset 16
 653 0004 0190     		str	r0, [sp, #4]
 654              		.loc 10 66 0
 655 0006 019B     		ldr	r3, [sp, #4]
 656 0008 1033     		adds	r3, r3, #16
 657 000a 1846     		mov	r0, r3
 658 000c FFF7FEFF 		bl	_ZNK3r2p10ArrayQueueIPNS_7MessageEE10get_lengthEv
 659 0010 0346     		mov	r3, r0
 660              		.loc 10 67 0
 661 0012 1846     		mov	r0, r3
 662 0014 03B0     		add	sp, sp, #12
ARM GAS  /tmp/ccS6P8yq.s 			page 13


 663              		@ sp needed
 664 0016 5DF804FB 		ldr	pc, [sp], #4
 665              		.cfi_endproc
 666              	.LFE391:
 667              		.size	_ZNK3r2p15LocalSubscriber16get_queue_lengthEv, .-_ZNK3r2p15LocalSubscriber16get_queue_length
 668 001a 00BFAFF3 		.section	.text._ZN3r2p15LocalSubscriber12fetch_unsafeERPNS_7MessageERNS_4TimeE,"axG",%progbits,_ZN
 668      0080
 669              		.align	2
 670              		.p2align 4,,15
 671              		.weak	_ZN3r2p15LocalSubscriber12fetch_unsafeERPNS_7MessageERNS_4TimeE
 672              		.thumb
 673              		.thumb_func
 674              		.type	_ZN3r2p15LocalSubscriber12fetch_unsafeERPNS_7MessageERNS_4TimeE, %function
 675              	_ZN3r2p15LocalSubscriber12fetch_unsafeERPNS_7MessageERNS_4TimeE:
 676              	.LFB392:
 677              		.loc 10 71 0
 678              		.cfi_startproc
 679              		@ args = 0, pretend = 0, frame = 24
 680              		@ frame_needed = 0, uses_anonymous_args = 0
 681 0000 00B5     		push	{lr}
 682              		.cfi_def_cfa_offset 4
 683              		.cfi_offset 14, -4
 684 0002 87B0     		sub	sp, sp, #28
 685              		.cfi_def_cfa_offset 32
 686 0004 0390     		str	r0, [sp, #12]
 687 0006 0291     		str	r1, [sp, #8]
 688 0008 0192     		str	r2, [sp, #4]
 689              		.loc 10 73 0
 690 000a 039B     		ldr	r3, [sp, #12]
 691 000c 1033     		adds	r3, r3, #16
 692 000e 1846     		mov	r0, r3
 693 0010 0299     		ldr	r1, [sp, #8]
 694 0012 FFF7FEFF 		bl	_ZN3r2p10ArrayQueueIPNS_7MessageEE12fetch_unsafeERS2_
 695 0016 0346     		mov	r3, r0
 696 0018 002B     		cmp	r3, #0
 697 001a 0AD0     		beq	.L38
 698              		.loc 10 74 0
 699 001c 05AB     		add	r3, sp, #20
 700 001e 1846     		mov	r0, r3
 701 0020 FFF7FEFF 		bl	_ZN3r2p4Time3nowEv
 702 0024 05AB     		add	r3, sp, #20
 703 0026 0198     		ldr	r0, [sp, #4]
 704 0028 1946     		mov	r1, r3
 705 002a FFF7FEFF 		bl	_ZN3r2p4TimeaSERKS0_
 706              		.loc 10 75 0
 707 002e 0123     		movs	r3, #1
 708 0030 00E0     		b	.L39
 709              	.L38:
 710              		.loc 10 77 0
 711 0032 0023     		movs	r3, #0
 712              	.L39:
 713              		.loc 10 78 0
 714 0034 1846     		mov	r0, r3
 715 0036 07B0     		add	sp, sp, #28
 716              		@ sp needed
 717 0038 5DF804FB 		ldr	pc, [sp], #4
 718              		.cfi_endproc
ARM GAS  /tmp/ccS6P8yq.s 			page 14


 719              	.LFE392:
 720              		.size	_ZN3r2p15LocalSubscriber12fetch_unsafeERPNS_7MessageERNS_4TimeE, .-_ZN3r2p15LocalSubscriber1
 721 003c AFF30080 		.section	.text._ZN3r2p15LocalSubscriber13notify_unsafeERNS_7MessageERKNS_4TimeE,"axG",%progbits,_Z
 722              		.align	2
 723              		.p2align 4,,15
 724              		.weak	_ZN3r2p15LocalSubscriber13notify_unsafeERNS_7MessageERKNS_4TimeE
 725              		.thumb
 726              		.thumb_func
 727              		.type	_ZN3r2p15LocalSubscriber13notify_unsafeERNS_7MessageERKNS_4TimeE, %function
 728              	_ZN3r2p15LocalSubscriber13notify_unsafeERNS_7MessageERKNS_4TimeE:
 729              	.LFB393:
 730              		.loc 10 82 0
 731              		.cfi_startproc
 732              		@ args = 0, pretend = 0, frame = 16
 733              		@ frame_needed = 0, uses_anonymous_args = 0
 734 0000 00B5     		push	{lr}
 735              		.cfi_def_cfa_offset 4
 736              		.cfi_offset 14, -4
 737 0002 85B0     		sub	sp, sp, #20
 738              		.cfi_def_cfa_offset 24
 739 0004 0390     		str	r0, [sp, #12]
 740 0006 0291     		str	r1, [sp, #8]
 741 0008 0192     		str	r2, [sp, #4]
 742              		.loc 10 86 0
 743 000a 039B     		ldr	r3, [sp, #12]
 744 000c 9B68     		ldr	r3, [r3, #8]
 745 000e 1846     		mov	r0, r3
 746 0010 FFF7FEFF 		bl	_ZNK3r2p4Node11get_enabledEv
 747 0014 0346     		mov	r3, r0
 748 0016 002B     		cmp	r3, #0
 749 0018 0AD0     		beq	.L41
 750              		.loc 10 86 0 is_stmt 0 discriminator 1
 751 001a 039B     		ldr	r3, [sp, #12]
 752 001c 1033     		adds	r3, r3, #16
 753 001e 1846     		mov	r0, r3
 754 0020 0299     		ldr	r1, [sp, #8]
 755 0022 FFF7FEFF 		bl	_ZN3r2p10ArrayQueueIPNS_7MessageEE11post_unsafeES2_
 756 0026 0346     		mov	r3, r0
 757 0028 002B     		cmp	r3, #0
 758 002a 01D0     		beq	.L41
 759              		.loc 10 86 0 discriminator 3
 760 002c 0123     		movs	r3, #1
 761 002e 00E0     		b	.L42
 762              	.L41:
 763              		.loc 10 86 0 discriminator 2
 764 0030 0023     		movs	r3, #0
 765              	.L42:
 766              		.loc 10 86 0 discriminator 4
 767 0032 002B     		cmp	r3, #0
 768 0034 0AD0     		beq	.L43
 769              		.loc 10 87 0 is_stmt 1
 770 0036 039B     		ldr	r3, [sp, #12]
 771 0038 9A68     		ldr	r2, [r3, #8]
 772 003a 039B     		ldr	r3, [sp, #12]
 773 003c 93F82430 		ldrb	r3, [r3, #36]	@ zero_extendqisi2
 774 0040 1046     		mov	r0, r2
 775 0042 1946     		mov	r1, r3
ARM GAS  /tmp/ccS6P8yq.s 			page 15


 776 0044 FFF7FEFF 		bl	_ZN3r2p4Node13notify_unsafeEj
 777              		.loc 10 88 0
 778 0048 0123     		movs	r3, #1
 779 004a 00E0     		b	.L44
 780              	.L43:
 781              		.loc 10 90 0
 782 004c 0023     		movs	r3, #0
 783              	.L44:
 784              		.loc 10 91 0
 785 004e 1846     		mov	r0, r3
 786 0050 05B0     		add	sp, sp, #20
 787              		@ sp needed
 788 0052 5DF804FB 		ldr	pc, [sp], #4
 789              		.cfi_endproc
 790              	.LFE393:
 791              		.size	_ZN3r2p15LocalSubscriber13notify_unsafeERNS_7MessageERKNS_4TimeE, .-_ZN3r2p15LocalSubscriber
 792 0056 00BFAFF3 		.section	.text._ZN3r2p5Topic12alloc_unsafeEv,"axG",%progbits,_ZN3r2p5Topic12alloc_unsafeEv,comdat
 792      0080AFF3 
 792      0080
 793              		.align	2
 794              		.p2align 4,,15
 795              		.weak	_ZN3r2p5Topic12alloc_unsafeEv
 796              		.thumb
 797              		.thumb_func
 798              		.type	_ZN3r2p5Topic12alloc_unsafeEv, %function
 799              	_ZN3r2p5Topic12alloc_unsafeEv:
 800              	.LFB412:
 801              		.file 11 "/home/dave/r2p-sdk/core/Middleware/include/r2p/Topic.hpp"
 802              		.loc 11 250 0
 803              		.cfi_startproc
 804              		@ args = 0, pretend = 0, frame = 8
 805              		@ frame_needed = 0, uses_anonymous_args = 0
 806 0000 10B5     		push	{r4, lr}
 807              		.cfi_def_cfa_offset 8
 808              		.cfi_offset 4, -8
 809              		.cfi_offset 14, -4
 810 0002 82B0     		sub	sp, sp, #8
 811              		.cfi_def_cfa_offset 16
 812 0004 0190     		str	r0, [sp, #4]
 813              	.LBB32:
 814              		.loc 11 252 0
 815 0006 019B     		ldr	r3, [sp, #4]
 816 0008 0833     		adds	r3, r3, #8
 817 000a 1846     		mov	r0, r3
 818 000c FFF7FEFF 		bl	_ZN3r2p11MemoryPool_12alloc_unsafeEv
 819 0010 0446     		mov	r4, r0
 820              		.loc 11 253 0
 821 0012 002C     		cmp	r4, #0
 822 0014 04D0     		beq	.L46
 823              		.loc 11 254 0
 824 0016 2046     		mov	r0, r4
 825 0018 FFF7FEFF 		bl	_ZN3r2p7Message12reset_unsafeEv
 826              		.loc 11 255 0
 827 001c 2346     		mov	r3, r4
 828 001e 00E0     		b	.L47
 829              	.L46:
 830              		.loc 11 257 0
ARM GAS  /tmp/ccS6P8yq.s 			page 16


 831 0020 0023     		movs	r3, #0
 832              	.L47:
 833              	.LBE32:
 834              		.loc 11 258 0
 835 0022 1846     		mov	r0, r3
 836 0024 02B0     		add	sp, sp, #8
 837              		@ sp needed
 838 0026 10BD     		pop	{r4, pc}
 839              		.cfi_endproc
 840              	.LFE412:
 841              		.size	_ZN3r2p5Topic12alloc_unsafeEv, .-_ZN3r2p5Topic12alloc_unsafeEv
 842              		.global	_ZN3r2p19default_ledpub_confE
 843 0028 AFF30080 		.section	.rodata
 843      AFF30080 
 844 000d 000000   		.align	2
 845              	.LC1:
 846 0010 6C656432 		.ascii	"led2\000"
 846      00
 847              		.section	.data._ZN3r2p19default_ledpub_confE,"aw",%progbits
 848              		.align	2
 849              		.type	_ZN3r2p19default_ledpub_confE, %object
 850              		.size	_ZN3r2p19default_ledpub_confE, 8
 851              	_ZN3r2p19default_ledpub_confE:
 852 0000 10000000 		.word	.LC1
 853 0004 02       		.byte	2
 854 0005 000000   		.space	3
 855              		.global	_ZN3r2p19default_ledsub_confE
 856              		.section	.data._ZN3r2p19default_ledsub_confE,"aw",%progbits
 857              		.align	2
 858              		.type	_ZN3r2p19default_ledsub_confE, %object
 859              		.size	_ZN3r2p19default_ledsub_confE, 4
 860              	_ZN3r2p19default_ledsub_confE:
 861 0000 10000000 		.word	.LC1
 862              		.section	.rodata
 863 0015 000000   		.align	2
 864              	.LC2:
 865 0018 6C656470 		.ascii	"ledpub\000"
 865      756200
 866              		.section	.text._ZN3r2p11ledpub_nodeEPv,"ax",%progbits
 867              		.align	2
 868              		.p2align 4,,15
 869              		.global	_ZN3r2p11ledpub_nodeEPv
 870              		.thumb
 871              		.thumb_func
 872              		.type	_ZN3r2p11ledpub_nodeEPv, %function
 873              	_ZN3r2p11ledpub_nodeEPv:
 874              	.LFB596:
 875              		.file 12 "/home/dave/r2p-sdk/packages/led/nodes/led.cpp"
 876              		.loc 12 21 0
 877              		.cfi_startproc
 878              		@ args = 0, pretend = 0, frame = 72
 879              		@ frame_needed = 0, uses_anonymous_args = 0
 880 0000 00B5     		push	{lr}
 881              		.cfi_def_cfa_offset 4
 882              		.cfi_offset 14, -4
 883 0002 93B0     		sub	sp, sp, #76
 884              		.cfi_def_cfa_offset 80
ARM GAS  /tmp/ccS6P8yq.s 			page 17


 885 0004 0190     		str	r0, [sp, #4]
 886              	.LBB33:
 887              		.loc 12 22 0
 888 0006 019B     		ldr	r3, [sp, #4]
 889 0008 1193     		str	r3, [sp, #68]
 890              		.loc 12 23 0
 891 000a 08AB     		add	r3, sp, #32
 892 000c 1846     		mov	r0, r3
 893 000e 2349     		ldr	r1, .L52
 894 0010 0122     		movs	r2, #1
 895 0012 FFF7FEFF 		bl	_ZN3r2p4NodeC1EPKcb
 896              		.loc 12 24 0
 897 0016 04AB     		add	r3, sp, #16
 898 0018 1846     		mov	r0, r3
 899 001a FFF7FEFF 		bl	_ZN3r2p9PublisherINS_6LedMsgEEC1Ev
 900              		.loc 12 26 0
 901 001e 0023     		movs	r3, #0
 902 0020 1093     		str	r3, [sp, #64]
 903              		.loc 12 28 0
 904 0022 119B     		ldr	r3, [sp, #68]
 905 0024 002B     		cmp	r3, #0
 906 0026 01D1     		bne	.L49
 907              		.loc 12 28 0 is_stmt 0 discriminator 1
 908 0028 1D4B     		ldr	r3, .L52+4
 909 002a 1193     		str	r3, [sp, #68]
 910              	.L49:
 911              		.loc 12 30 0 is_stmt 1
 912 002c 119B     		ldr	r3, [sp, #68]
 913 002e 1B79     		ldrb	r3, [r3, #4]
 914 0030 8DF83F30 		strb	r3, [sp, #63]
 915              		.loc 12 32 0
 916 0034 119B     		ldr	r3, [sp, #68]
 917 0036 1B68     		ldr	r3, [r3]
 918 0038 08A9     		add	r1, sp, #32
 919 003a 04AA     		add	r2, sp, #16
 920 003c 0846     		mov	r0, r1
 921 003e 1146     		mov	r1, r2
 922 0040 1A46     		mov	r2, r3
 923 0042 184B     		ldr	r3, .L52+8
 924 0044 FFF7FEFF 		bl	_ZN3r2p4Node9advertiseINS_6LedMsgEEEbRNS_9PublisherIT_EEPKcRKNS_4TimeE
 925              	.L51:
 926              	.LBB34:
 927              	.LBB35:
 928              		.loc 12 36 0
 929 0048 04AA     		add	r2, sp, #16
 930 004a 03AB     		add	r3, sp, #12
 931 004c 1046     		mov	r0, r2
 932 004e 1946     		mov	r1, r3
 933 0050 FFF7FEFF 		bl	_ZN3r2p9PublisherINS_6LedMsgEE5allocERPS1_
 934 0054 0346     		mov	r3, r0
 935 0056 002B     		cmp	r3, #0
 936 0058 1BD0     		beq	.L50
 937              		.loc 12 37 0
 938 005a 039B     		ldr	r3, [sp, #12]
 939 005c 9DF83F20 		ldrb	r2, [sp, #63]	@ zero_extendqisi2
 940 0060 C3F80220 		str	r2, [r3, #2]	@ unaligned
 941              		.loc 12 38 0
ARM GAS  /tmp/ccS6P8yq.s 			page 18


 942 0064 039B     		ldr	r3, [sp, #12]
 943 0066 109A     		ldr	r2, [sp, #64]
 944 0068 D2B2     		uxtb	r2, r2
 945 006a 9A71     		strb	r2, [r3, #6]
 946              		.loc 12 39 0
 947 006c 109B     		ldr	r3, [sp, #64]
 948 006e 83F00103 		eor	r3, r3, #1
 949 0072 1093     		str	r3, [sp, #64]
 950              		.loc 12 40 0
 951 0074 039B     		ldr	r3, [sp, #12]
 952 0076 04AA     		add	r2, sp, #16
 953 0078 1046     		mov	r0, r2
 954 007a 1946     		mov	r1, r3
 955 007c FFF7FEFF 		bl	_ZN3r2p9PublisherINS_6LedMsgEE7publishERS1_
 956 0080 0346     		mov	r3, r0
 957 0082 83F00103 		eor	r3, r3, #1
 958 0086 DBB2     		uxtb	r3, r3
 959 0088 002B     		cmp	r3, #0
 960 008a 02D0     		beq	.L50
 961              		.loc 12 41 0
 962 008c 0648     		ldr	r0, .L52+12
 963 008e FFF7FEFF 		bl	chDbgPanic
 964              	.L50:
 965              		.loc 12 46 0
 966 0092 4FF4FA70 		mov	r0, #500
 967 0096 FFF7FEFF 		bl	chThdSleep
 968              	.LBE35:
 969              		.loc 12 47 0
 970 009a D5E7     		b	.L51
 971              	.L53:
 972              		.align	2
 973              	.L52:
 974 009c 18000000 		.word	.LC2
 975 00a0 00000000 		.word	_ZN3r2p19default_ledpub_confE
 976 00a4 00000000 		.word	_ZN3r2p4Time8INFINITEE
 977 00a8 00000000 		.word	.LC0
 978              	.LBE34:
 979              	.LBE33:
 980              		.cfi_endproc
 981              	.LFE596:
 982              		.size	_ZN3r2p11ledpub_nodeEPv, .-_ZN3r2p11ledpub_nodeEPv
 983 00ac AFF30080 		.section	.text._ZN3r2p8callbackERKNS_6LedMsgE,"ax",%progbits
 984              		.align	2
 985              		.p2align 4,,15
 986              		.global	_ZN3r2p8callbackERKNS_6LedMsgE
 987              		.thumb
 988              		.thumb_func
 989              		.type	_ZN3r2p8callbackERKNS_6LedMsgE, %function
 990              	_ZN3r2p8callbackERKNS_6LedMsgE:
 991              	.LFB597:
 992              		.loc 12 55 0
 993              		.cfi_startproc
 994              		@ args = 0, pretend = 0, frame = 8
 995              		@ frame_needed = 0, uses_anonymous_args = 0
 996              		@ link register save eliminated.
 997 0000 82B0     		sub	sp, sp, #8
 998              		.cfi_def_cfa_offset 8
ARM GAS  /tmp/ccS6P8yq.s 			page 19


 999 0002 0190     		str	r0, [sp, #4]
 1000              		.loc 12 57 0
 1001 0004 0A4A     		ldr	r2, .L58
 1002 0006 019B     		ldr	r3, [sp, #4]
 1003 0008 9B79     		ldrb	r3, [r3, #6]	@ zero_extendqisi2
 1004 000a 03F00103 		and	r3, r3, #1
 1005 000e 002B     		cmp	r3, #0
 1006 0010 02D1     		bne	.L55
 1007              		.loc 12 57 0 is_stmt 0 discriminator 1
 1008 0012 4FF40033 		mov	r3, #131072
 1009 0016 00E0     		b	.L56
 1010              	.L55:
 1011              		.loc 12 57 0 discriminator 2
 1012 0018 0023     		movs	r3, #0
 1013              	.L56:
 1014              		.loc 12 57 0 discriminator 3
 1015 001a 0199     		ldr	r1, [sp, #4]
 1016 001c 8979     		ldrb	r1, [r1, #6]	@ zero_extendqisi2
 1017 001e 01F00101 		and	r1, r1, #1
 1018 0022 4900     		lsls	r1, r1, #1
 1019 0024 0B43     		orrs	r3, r3, r1
 1020 0026 9361     		str	r3, [r2, #24]
 1021              		.loc 12 59 0 is_stmt 1 discriminator 3
 1022 0028 0123     		movs	r3, #1
 1023              		.loc 12 60 0 discriminator 3
 1024 002a 1846     		mov	r0, r3
 1025 002c 02B0     		add	sp, sp, #8
 1026              		@ sp needed
 1027 002e 7047     		bx	lr
 1028              	.L59:
 1029              		.align	2
 1030              	.L58:
 1031 0030 00140048 		.word	1207964672
 1032              		.cfi_endproc
 1033              	.LFE597:
 1034              		.size	_ZN3r2p8callbackERKNS_6LedMsgE, .-_ZN3r2p8callbackERKNS_6LedMsgE
 1035 0034 AFF30080 		.section	.rodata
 1035      AFF30080 
 1035      AFF30080 
 1036 001f 00       		.align	2
 1037              	.LC3:
 1038 0020 6C656473 		.ascii	"ledsub\000"
 1038      756200
 1039 0027 00       		.section	.text._ZN3r2p11ledsub_nodeEPv,"ax",%progbits
 1040              		.align	2
 1041              		.p2align 4,,15
 1042              		.global	_ZN3r2p11ledsub_nodeEPv
 1043              		.thumb
 1044              		.thumb_func
 1045              		.type	_ZN3r2p11ledsub_nodeEPv, %function
 1046              	_ZN3r2p11ledsub_nodeEPv:
 1047              	.LFB598:
 1048              		.loc 12 62 0
 1049              		.cfi_startproc
 1050              		@ args = 0, pretend = 0, frame = 160
 1051              		@ frame_needed = 0, uses_anonymous_args = 0
 1052 0000 00B5     		push	{lr}
ARM GAS  /tmp/ccS6P8yq.s 			page 20


 1053              		.cfi_def_cfa_offset 4
 1054              		.cfi_offset 14, -4
 1055 0002 A9B0     		sub	sp, sp, #164
 1056              		.cfi_def_cfa_offset 168
 1057 0004 0190     		str	r0, [sp, #4]
 1058              	.LBB36:
 1059              		.loc 12 63 0
 1060 0006 019B     		ldr	r3, [sp, #4]
 1061 0008 2793     		str	r3, [sp, #156]
 1062              		.loc 12 64 0
 1063 000a 1FAB     		add	r3, sp, #124
 1064 000c 1846     		mov	r0, r3
 1065 000e 1849     		ldr	r1, .L63
 1066 0010 0122     		movs	r2, #1
 1067 0012 FFF7FEFF 		bl	_ZN3r2p4NodeC1EPKcb
 1068              		.loc 12 65 0
 1069 0016 03AB     		add	r3, sp, #12
 1070 0018 1846     		mov	r0, r3
 1071 001a 1649     		ldr	r1, .L63+4
 1072 001c FFF7FEFF 		bl	_ZN3r2p10SubscriberINS_6LedMsgELj5EEC1EPFbRKS1_E
 1073              		.loc 12 67 0
 1074 0020 279B     		ldr	r3, [sp, #156]
 1075 0022 002B     		cmp	r3, #0
 1076 0024 01D1     		bne	.L61
 1077              		.loc 12 67 0 is_stmt 0 discriminator 1
 1078 0026 144B     		ldr	r3, .L63+8
 1079 0028 2793     		str	r3, [sp, #156]
 1080              	.L61:
 1081              		.loc 12 69 0 is_stmt 1
 1082 002a 279B     		ldr	r3, [sp, #156]
 1083 002c 1B68     		ldr	r3, [r3]
 1084 002e 1FA9     		add	r1, sp, #124
 1085 0030 03AA     		add	r2, sp, #12
 1086 0032 0846     		mov	r0, r1
 1087 0034 1146     		mov	r1, r2
 1088 0036 1A46     		mov	r2, r3
 1089 0038 FFF7FEFF 		bl	_ZN3r2p4Node9subscribeINS_6LedMsgELj5EEEbRNS_10SubscriberIT_XT0_EEEPKc
 1090              	.L62:
 1091              		.loc 12 72 0
 1092 003c 26AB     		add	r3, sp, #152
 1093 003e 1846     		mov	r0, r3
 1094 0040 4FF4FA61 		mov	r1, #2000
 1095 0044 FFF7FEFF 		bl	_ZN3r2p4Time2msEl
 1096 0048 1FAA     		add	r2, sp, #124
 1097 004a 26AB     		add	r3, sp, #152
 1098 004c 1046     		mov	r0, r2
 1099 004e 1946     		mov	r1, r3
 1100 0050 FFF7FEFF 		bl	_ZN3r2p4Node4spinERKNS_4TimeE
 1101 0054 0346     		mov	r3, r0
 1102 0056 83F00103 		eor	r3, r3, #1
 1103 005a DBB2     		uxtb	r3, r3
 1104 005c 002B     		cmp	r3, #0
 1105 005e EDD0     		beq	.L62
 1106              		.loc 12 73 0
 1107 0060 064B     		ldr	r3, .L63+12
 1108 0062 064A     		ldr	r2, .L63+12
 1109 0064 5269     		ldr	r2, [r2, #20]
ARM GAS  /tmp/ccS6P8yq.s 			page 21


 1110 0066 82F00202 		eor	r2, r2, #2
 1111 006a 5A61     		str	r2, [r3, #20]
 1112 006c E6E7     		b	.L62
 1113              	.L64:
 1114 006e 00BF     		.align	2
 1115              	.L63:
 1116 0070 20000000 		.word	.LC3
 1117 0074 00000000 		.word	_ZN3r2p8callbackERKNS_6LedMsgE
 1118 0078 00000000 		.word	_ZN3r2p19default_ledsub_confE
 1119 007c 00140048 		.word	1207964672
 1120              	.LBE36:
 1121              		.cfi_endproc
 1122              	.LFE598:
 1123              		.size	_ZN3r2p11ledsub_nodeEPv, .-_ZN3r2p11ledsub_nodeEPv
 1124              		.section	.text._ZN3r2p4TimeC2IlEET_,"axG",%progbits,_ZN3r2p4TimeC5IlEET_,comdat
 1125              		.align	2
 1126              		.p2align 4,,15
 1127              		.weak	_ZN3r2p4TimeC2IlEET_
 1128              		.thumb
 1129              		.thumb_func
 1130              		.type	_ZN3r2p4TimeC2IlEET_, %function
 1131              	_ZN3r2p4TimeC2IlEET_:
 1132              	.LFB600:
 1133              		.loc 4 159 0
 1134              		.cfi_startproc
 1135              		@ args = 0, pretend = 0, frame = 8
 1136              		@ frame_needed = 0, uses_anonymous_args = 0
 1137              		@ link register save eliminated.
 1138 0000 82B0     		sub	sp, sp, #8
 1139              		.cfi_def_cfa_offset 8
 1140 0002 0190     		str	r0, [sp, #4]
 1141 0004 0091     		str	r1, [sp]
 1142              	.LBB37:
 1143              		.loc 4 161 0
 1144 0006 019B     		ldr	r3, [sp, #4]
 1145 0008 009A     		ldr	r2, [sp]
 1146 000a 1A60     		str	r2, [r3]
 1147              	.LBE37:
 1148              		.loc 4 162 0
 1149 000c 019B     		ldr	r3, [sp, #4]
 1150 000e 1846     		mov	r0, r3
 1151 0010 02B0     		add	sp, sp, #8
 1152              		@ sp needed
 1153 0012 7047     		bx	lr
 1154              		.cfi_endproc
 1155              	.LFE600:
 1156              		.size	_ZN3r2p4TimeC2IlEET_, .-_ZN3r2p4TimeC2IlEET_
 1157              		.weak	_ZN3r2p4TimeC1IlEET_
 1158              		.thumb_set _ZN3r2p4TimeC1IlEET_,_ZN3r2p4TimeC2IlEET_
 1159 0014 AFF30080 		.section	.text._ZNK3r2p10ArrayQueueIPNS_7MessageEE10get_lengthEv,"axG",%progbits,_ZNK3r2p10ArrayQu
 1159      AFF30080 
 1159      AFF30080 
 1160              		.align	2
 1161              		.p2align 4,,15
 1162              		.weak	_ZNK3r2p10ArrayQueueIPNS_7MessageEE10get_lengthEv
 1163              		.thumb
 1164              		.thumb_func
ARM GAS  /tmp/ccS6P8yq.s 			page 22


 1165              		.type	_ZNK3r2p10ArrayQueueIPNS_7MessageEE10get_lengthEv, %function
 1166              	_ZNK3r2p10ArrayQueueIPNS_7MessageEE10get_lengthEv:
 1167              	.LFB608:
 1168              		.file 13 "/home/dave/r2p-sdk/core/Middleware/include/r2p/ArrayQueue.hpp"
 1169              		.loc 13 81 0
 1170              		.cfi_startproc
 1171              		@ args = 0, pretend = 0, frame = 8
 1172              		@ frame_needed = 0, uses_anonymous_args = 0
 1173              		@ link register save eliminated.
 1174 0000 82B0     		sub	sp, sp, #8
 1175              		.cfi_def_cfa_offset 8
 1176 0002 0190     		str	r0, [sp, #4]
 1177              		.loc 13 83 0
 1178 0004 019B     		ldr	r3, [sp, #4]
 1179 0006 5B68     		ldr	r3, [r3, #4]
 1180              		.loc 13 84 0
 1181 0008 1846     		mov	r0, r3
 1182 000a 02B0     		add	sp, sp, #8
 1183              		@ sp needed
 1184 000c 7047     		bx	lr
 1185              		.cfi_endproc
 1186              	.LFE608:
 1187              		.size	_ZNK3r2p10ArrayQueueIPNS_7MessageEE10get_lengthEv, .-_ZNK3r2p10ArrayQueueIPNS_7MessageEE10ge
 1188 000e 00BF     		.section	.text._ZN3r2p10ArrayQueueIPNS_7MessageEE12fetch_unsafeERS2_,"axG",%progbits,_ZN3r2p10Arra
 1189              		.align	2
 1190              		.p2align 4,,15
 1191              		.weak	_ZN3r2p10ArrayQueueIPNS_7MessageEE12fetch_unsafeERS2_
 1192              		.thumb
 1193              		.thumb_func
 1194              		.type	_ZN3r2p10ArrayQueueIPNS_7MessageEE12fetch_unsafeERS2_, %function
 1195              	_ZN3r2p10ArrayQueueIPNS_7MessageEE12fetch_unsafeERS2_:
 1196              	.LFB609:
 1197              		.loc 13 52 0
 1198              		.cfi_startproc
 1199              		@ args = 0, pretend = 0, frame = 8
 1200              		@ frame_needed = 0, uses_anonymous_args = 0
 1201              		@ link register save eliminated.
 1202 0000 82B0     		sub	sp, sp, #8
 1203              		.cfi_def_cfa_offset 8
 1204 0002 0190     		str	r0, [sp, #4]
 1205 0004 0091     		str	r1, [sp]
 1206              		.loc 13 54 0
 1207 0006 019B     		ldr	r3, [sp, #4]
 1208 0008 9B68     		ldr	r3, [r3, #8]
 1209 000a 002B     		cmp	r3, #0
 1210 000c 23D0     		beq	.L71
 1211              		.loc 13 55 0
 1212 000e 019B     		ldr	r3, [sp, #4]
 1213 0010 9B68     		ldr	r3, [r3, #8]
 1214 0012 5A1E     		subs	r2, r3, #1
 1215 0014 019B     		ldr	r3, [sp, #4]
 1216 0016 9A60     		str	r2, [r3, #8]
 1217              		.loc 13 56 0
 1218 0018 019B     		ldr	r3, [sp, #4]
 1219 001a DB68     		ldr	r3, [r3, #12]
 1220 001c 1A68     		ldr	r2, [r3]
 1221 001e 009B     		ldr	r3, [sp]
ARM GAS  /tmp/ccS6P8yq.s 			page 23


 1222 0020 1A60     		str	r2, [r3]
 1223              		.loc 13 57 0
 1224 0022 019B     		ldr	r3, [sp, #4]
 1225 0024 DB68     		ldr	r3, [r3, #12]
 1226 0026 1A1D     		adds	r2, r3, #4
 1227 0028 019B     		ldr	r3, [sp, #4]
 1228 002a DA60     		str	r2, [r3, #12]
 1229 002c 019B     		ldr	r3, [sp, #4]
 1230 002e DA68     		ldr	r2, [r3, #12]
 1231 0030 019B     		ldr	r3, [sp, #4]
 1232 0032 1968     		ldr	r1, [r3]
 1233 0034 019B     		ldr	r3, [sp, #4]
 1234 0036 5B68     		ldr	r3, [r3, #4]
 1235 0038 9B00     		lsls	r3, r3, #2
 1236 003a 0B44     		add	r3, r3, r1
 1237 003c 9A42     		cmp	r2, r3
 1238 003e 34BF     		ite	cc
 1239 0040 0023     		movcc	r3, #0
 1240 0042 0123     		movcs	r3, #1
 1241 0044 DBB2     		uxtb	r3, r3
 1242 0046 002B     		cmp	r3, #0
 1243 0048 03D0     		beq	.L72
 1244              		.loc 13 58 0
 1245 004a 019B     		ldr	r3, [sp, #4]
 1246 004c 1A68     		ldr	r2, [r3]
 1247 004e 019B     		ldr	r3, [sp, #4]
 1248 0050 DA60     		str	r2, [r3, #12]
 1249              	.L72:
 1250              		.loc 13 60 0
 1251 0052 0123     		movs	r3, #1
 1252 0054 00E0     		b	.L73
 1253              	.L71:
 1254              		.loc 13 62 0
 1255 0056 0023     		movs	r3, #0
 1256              	.L73:
 1257              		.loc 13 63 0
 1258 0058 1846     		mov	r0, r3
 1259 005a 02B0     		add	sp, sp, #8
 1260              		@ sp needed
 1261 005c 7047     		bx	lr
 1262              		.cfi_endproc
 1263              	.LFE609:
 1264              		.size	_ZN3r2p10ArrayQueueIPNS_7MessageEE12fetch_unsafeERS2_, .-_ZN3r2p10ArrayQueueIPNS_7MessageEE1
 1265              		.section	.text._ZN3r2p10ArrayQueueIPNS_7MessageEE11post_unsafeES2_,"axG",%progbits,_ZN3r2p10ArrayQ
 1266              		.align	2
 1267              		.p2align 4,,15
 1268              		.weak	_ZN3r2p10ArrayQueueIPNS_7MessageEE11post_unsafeES2_
 1269              		.thumb
 1270              		.thumb_func
 1271              		.type	_ZN3r2p10ArrayQueueIPNS_7MessageEE11post_unsafeES2_, %function
 1272              	_ZN3r2p10ArrayQueueIPNS_7MessageEE11post_unsafeES2_:
 1273              	.LFB610:
 1274              		.loc 13 37 0
 1275              		.cfi_startproc
 1276              		@ args = 0, pretend = 0, frame = 8
 1277              		@ frame_needed = 0, uses_anonymous_args = 0
 1278              		@ link register save eliminated.
ARM GAS  /tmp/ccS6P8yq.s 			page 24


 1279 0000 82B0     		sub	sp, sp, #8
 1280              		.cfi_def_cfa_offset 8
 1281 0002 0190     		str	r0, [sp, #4]
 1282 0004 0091     		str	r1, [sp]
 1283              		.loc 13 39 0
 1284 0006 019B     		ldr	r3, [sp, #4]
 1285 0008 9A68     		ldr	r2, [r3, #8]
 1286 000a 019B     		ldr	r3, [sp, #4]
 1287 000c 5B68     		ldr	r3, [r3, #4]
 1288 000e 9A42     		cmp	r2, r3
 1289 0010 22D2     		bcs	.L75
 1290              		.loc 13 40 0
 1291 0012 019B     		ldr	r3, [sp, #4]
 1292 0014 9B68     		ldr	r3, [r3, #8]
 1293 0016 5A1C     		adds	r2, r3, #1
 1294 0018 019B     		ldr	r3, [sp, #4]
 1295 001a 9A60     		str	r2, [r3, #8]
 1296              		.loc 13 41 0
 1297 001c 019B     		ldr	r3, [sp, #4]
 1298 001e 1B69     		ldr	r3, [r3, #16]
 1299 0020 009A     		ldr	r2, [sp]
 1300 0022 1A60     		str	r2, [r3]
 1301              		.loc 13 42 0
 1302 0024 019B     		ldr	r3, [sp, #4]
 1303 0026 1B69     		ldr	r3, [r3, #16]
 1304 0028 1A1D     		adds	r2, r3, #4
 1305 002a 019B     		ldr	r3, [sp, #4]
 1306 002c 1A61     		str	r2, [r3, #16]
 1307 002e 019B     		ldr	r3, [sp, #4]
 1308 0030 1A69     		ldr	r2, [r3, #16]
 1309 0032 019B     		ldr	r3, [sp, #4]
 1310 0034 1968     		ldr	r1, [r3]
 1311 0036 019B     		ldr	r3, [sp, #4]
 1312 0038 5B68     		ldr	r3, [r3, #4]
 1313 003a 9B00     		lsls	r3, r3, #2
 1314 003c 0B44     		add	r3, r3, r1
 1315 003e 9A42     		cmp	r2, r3
 1316 0040 34BF     		ite	cc
 1317 0042 0023     		movcc	r3, #0
 1318 0044 0123     		movcs	r3, #1
 1319 0046 DBB2     		uxtb	r3, r3
 1320 0048 002B     		cmp	r3, #0
 1321 004a 03D0     		beq	.L76
 1322              		.loc 13 43 0
 1323 004c 019B     		ldr	r3, [sp, #4]
 1324 004e 1A68     		ldr	r2, [r3]
 1325 0050 019B     		ldr	r3, [sp, #4]
 1326 0052 1A61     		str	r2, [r3, #16]
 1327              	.L76:
 1328              		.loc 13 45 0
 1329 0054 0123     		movs	r3, #1
 1330 0056 00E0     		b	.L77
 1331              	.L75:
 1332              		.loc 13 47 0
 1333 0058 0023     		movs	r3, #0
 1334              	.L77:
 1335              		.loc 13 48 0
ARM GAS  /tmp/ccS6P8yq.s 			page 25


 1336 005a 1846     		mov	r0, r3
 1337 005c 02B0     		add	sp, sp, #8
 1338              		@ sp needed
 1339 005e 7047     		bx	lr
 1340              		.cfi_endproc
 1341              	.LFE610:
 1342              		.size	_ZN3r2p10ArrayQueueIPNS_7MessageEE11post_unsafeES2_, .-_ZN3r2p10ArrayQueueIPNS_7MessageEE11p
 1343              		.section	.text._ZN3r2p9PublisherINS_6LedMsgEEC2Ev,"axG",%progbits,_ZN3r2p9PublisherINS_6LedMsgEEC5
 1344              		.align	2
 1345              		.p2align 4,,15
 1346              		.weak	_ZN3r2p9PublisherINS_6LedMsgEEC2Ev
 1347              		.thumb
 1348              		.thumb_func
 1349              		.type	_ZN3r2p9PublisherINS_6LedMsgEEC2Ev, %function
 1350              	_ZN3r2p9PublisherINS_6LedMsgEEC2Ev:
 1351              	.LFB621:
 1352              		.file 14 "/home/dave/r2p-sdk/core/Middleware/include/r2p/Publisher.hpp"
 1353              		.loc 14 47 0
 1354              		.cfi_startproc
 1355              		@ args = 0, pretend = 0, frame = 8
 1356              		@ frame_needed = 0, uses_anonymous_args = 0
 1357 0000 00B5     		push	{lr}
 1358              		.cfi_def_cfa_offset 4
 1359              		.cfi_offset 14, -4
 1360 0002 83B0     		sub	sp, sp, #12
 1361              		.cfi_def_cfa_offset 16
 1362 0004 0190     		str	r0, [sp, #4]
 1363              	.LBB38:
 1364              		.loc 14 47 0
 1365 0006 019B     		ldr	r3, [sp, #4]
 1366 0008 1846     		mov	r0, r3
 1367 000a FFF7FEFF 		bl	_ZN3r2p14LocalPublisherC2Ev
 1368 000e 019B     		ldr	r3, [sp, #4]
 1369 0010 034A     		ldr	r2, .L81
 1370 0012 1A60     		str	r2, [r3]
 1371              	.LBE38:
 1372              		.loc 14 50 0
 1373 0014 019B     		ldr	r3, [sp, #4]
 1374 0016 1846     		mov	r0, r3
 1375 0018 03B0     		add	sp, sp, #12
 1376              		@ sp needed
 1377 001a 5DF804FB 		ldr	pc, [sp], #4
 1378              	.L82:
 1379 001e 00BF     		.align	2
 1380              	.L81:
 1381 0020 08000000 		.word	_ZTVN3r2p9PublisherINS_6LedMsgEEE+8
 1382              		.cfi_endproc
 1383              	.LFE621:
 1384              		.size	_ZN3r2p9PublisherINS_6LedMsgEEC2Ev, .-_ZN3r2p9PublisherINS_6LedMsgEEC2Ev
 1385              		.weak	_ZN3r2p9PublisherINS_6LedMsgEEC1Ev
 1386              		.thumb_set _ZN3r2p9PublisherINS_6LedMsgEEC1Ev,_ZN3r2p9PublisherINS_6LedMsgEEC2Ev
 1387 0024 AFF30080 		.section	.text._ZN3r2p9PublisherINS_6LedMsgEED2Ev,"axG",%progbits,_ZN3r2p9PublisherINS_6LedMsgEED5
 1387      AFF30080 
 1387      AFF30080 
 1388              		.align	2
 1389              		.p2align 4,,15
 1390              		.weak	_ZN3r2p9PublisherINS_6LedMsgEED2Ev
ARM GAS  /tmp/ccS6P8yq.s 			page 26


 1391              		.thumb
 1392              		.thumb_func
 1393              		.type	_ZN3r2p9PublisherINS_6LedMsgEED2Ev, %function
 1394              	_ZN3r2p9PublisherINS_6LedMsgEED2Ev:
 1395              	.LFB624:
 1396              		.loc 14 54 0
 1397              		.cfi_startproc
 1398              		@ args = 0, pretend = 0, frame = 8
 1399              		@ frame_needed = 0, uses_anonymous_args = 0
 1400 0000 00B5     		push	{lr}
 1401              		.cfi_def_cfa_offset 4
 1402              		.cfi_offset 14, -4
 1403 0002 83B0     		sub	sp, sp, #12
 1404              		.cfi_def_cfa_offset 16
 1405 0004 0190     		str	r0, [sp, #4]
 1406              	.LBB39:
 1407              		.loc 14 57 0
 1408 0006 019B     		ldr	r3, [sp, #4]
 1409 0008 084A     		ldr	r2, .L87
 1410 000a 1A60     		str	r2, [r3]
 1411 000c 019B     		ldr	r3, [sp, #4]
 1412 000e 1846     		mov	r0, r3
 1413 0010 FFF7FEFF 		bl	_ZN3r2p14LocalPublisherD2Ev
 1414              	.LBE39:
 1415 0014 0023     		movs	r3, #0
 1416 0016 002B     		cmp	r3, #0
 1417 0018 02D0     		beq	.L85
 1418              		.loc 14 57 0 is_stmt 0 discriminator 1
 1419 001a 0198     		ldr	r0, [sp, #4]
 1420 001c FFF7FEFF 		bl	_ZdlPv
 1421              	.L85:
 1422              		.loc 14 57 0 discriminator 2
 1423 0020 019B     		ldr	r3, [sp, #4]
 1424 0022 1846     		mov	r0, r3
 1425 0024 03B0     		add	sp, sp, #12
 1426              		@ sp needed
 1427 0026 5DF804FB 		ldr	pc, [sp], #4
 1428              	.L88:
 1429 002a 00BF     		.align	2
 1430              	.L87:
 1431 002c 08000000 		.word	_ZTVN3r2p9PublisherINS_6LedMsgEEE+8
 1432              		.cfi_endproc
 1433              	.LFE624:
 1434              		.size	_ZN3r2p9PublisherINS_6LedMsgEED2Ev, .-_ZN3r2p9PublisherINS_6LedMsgEED2Ev
 1435              		.weak	_ZN3r2p9PublisherINS_6LedMsgEED1Ev
 1436              		.thumb_set _ZN3r2p9PublisherINS_6LedMsgEED1Ev,_ZN3r2p9PublisherINS_6LedMsgEED2Ev
 1437              		.section	.text._ZN3r2p9PublisherINS_6LedMsgEED0Ev,"axG",%progbits,_ZN3r2p9PublisherINS_6LedMsgEED0
 1438              		.align	2
 1439              		.p2align 4,,15
 1440              		.weak	_ZN3r2p9PublisherINS_6LedMsgEED0Ev
 1441              		.thumb
 1442              		.thumb_func
 1443              		.type	_ZN3r2p9PublisherINS_6LedMsgEED0Ev, %function
 1444              	_ZN3r2p9PublisherINS_6LedMsgEED0Ev:
 1445              	.LFB626:
 1446              		.loc 14 54 0 is_stmt 1
 1447              		.cfi_startproc
ARM GAS  /tmp/ccS6P8yq.s 			page 27


 1448              		@ args = 0, pretend = 0, frame = 8
 1449              		@ frame_needed = 0, uses_anonymous_args = 0
 1450 0000 00B5     		push	{lr}
 1451              		.cfi_def_cfa_offset 4
 1452              		.cfi_offset 14, -4
 1453 0002 83B0     		sub	sp, sp, #12
 1454              		.cfi_def_cfa_offset 16
 1455 0004 0190     		str	r0, [sp, #4]
 1456              		.loc 14 57 0
 1457 0006 0198     		ldr	r0, [sp, #4]
 1458 0008 FFF7FEFF 		bl	_ZN3r2p9PublisherINS_6LedMsgEED1Ev
 1459 000c 0198     		ldr	r0, [sp, #4]
 1460 000e FFF7FEFF 		bl	_ZdlPv
 1461 0012 019B     		ldr	r3, [sp, #4]
 1462 0014 1846     		mov	r0, r3
 1463 0016 03B0     		add	sp, sp, #12
 1464              		@ sp needed
 1465 0018 5DF804FB 		ldr	pc, [sp], #4
 1466              		.cfi_endproc
 1467              	.LFE626:
 1468              		.size	_ZN3r2p9PublisherINS_6LedMsgEED0Ev, .-_ZN3r2p9PublisherINS_6LedMsgEED0Ev
 1469 001c AFF30080 		.section	.text._ZN3r2p4Node9advertiseINS_6LedMsgEEEbRNS_9PublisherIT_EEPKcRKNS_4TimeE,"axG",%progb
 1470              		.align	2
 1471              		.p2align 4,,15
 1472              		.weak	_ZN3r2p4Node9advertiseINS_6LedMsgEEEbRNS_9PublisherIT_EEPKcRKNS_4TimeE
 1473              		.thumb
 1474              		.thumb_func
 1475              		.type	_ZN3r2p4Node9advertiseINS_6LedMsgEEEbRNS_9PublisherIT_EEPKcRKNS_4TimeE, %function
 1476              	_ZN3r2p4Node9advertiseINS_6LedMsgEEEbRNS_9PublisherIT_EEPKcRKNS_4TimeE:
 1477              	.LFB627:
 1478              		.loc 9 117 0
 1479              		.cfi_startproc
 1480              		@ args = 0, pretend = 0, frame = 16
 1481              		@ frame_needed = 0, uses_anonymous_args = 0
 1482 0000 00B5     		push	{lr}
 1483              		.cfi_def_cfa_offset 4
 1484              		.cfi_offset 14, -4
 1485 0002 87B0     		sub	sp, sp, #28
 1486              		.cfi_def_cfa_offset 32
 1487 0004 0590     		str	r0, [sp, #20]
 1488 0006 0491     		str	r1, [sp, #16]
 1489 0008 0392     		str	r2, [sp, #12]
 1490 000a 0293     		str	r3, [sp, #8]
 1491              		.loc 9 120 0
 1492 000c 049B     		ldr	r3, [sp, #16]
 1493 000e 0722     		movs	r2, #7
 1494 0010 0092     		str	r2, [sp]
 1495 0012 0598     		ldr	r0, [sp, #20]
 1496 0014 1946     		mov	r1, r3
 1497 0016 039A     		ldr	r2, [sp, #12]
 1498 0018 029B     		ldr	r3, [sp, #8]
 1499 001a FFF7FEFF 		bl	_ZN3r2p4Node9advertiseERNS_14LocalPublisherEPKcRKNS_4TimeEj
 1500 001e 0346     		mov	r3, r0
 1501              		.loc 9 121 0
 1502 0020 1846     		mov	r0, r3
 1503 0022 07B0     		add	sp, sp, #28
 1504              		@ sp needed
ARM GAS  /tmp/ccS6P8yq.s 			page 28


 1505 0024 5DF804FB 		ldr	pc, [sp], #4
 1506              		.cfi_endproc
 1507              	.LFE627:
 1508              		.size	_ZN3r2p4Node9advertiseINS_6LedMsgEEEbRNS_9PublisherIT_EEPKcRKNS_4TimeE, .-_ZN3r2p4Node9adver
 1509 0028 AFF30080 		.section	.text._ZN3r2p9PublisherINS_6LedMsgEE5allocERPS1_,"axG",%progbits,_ZN3r2p9PublisherINS_6Le
 1509      AFF30080 
 1510              		.align	2
 1511              		.p2align 4,,15
 1512              		.weak	_ZN3r2p9PublisherINS_6LedMsgEE5allocERPS1_
 1513              		.thumb
 1514              		.thumb_func
 1515              		.type	_ZN3r2p9PublisherINS_6LedMsgEE5allocERPS1_, %function
 1516              	_ZN3r2p9PublisherINS_6LedMsgEE5allocERPS1_:
 1517              	.LFB628:
 1518              		.loc 14 25 0
 1519              		.cfi_startproc
 1520              		@ args = 0, pretend = 0, frame = 8
 1521              		@ frame_needed = 0, uses_anonymous_args = 0
 1522 0000 00B5     		push	{lr}
 1523              		.cfi_def_cfa_offset 4
 1524              		.cfi_offset 14, -4
 1525 0002 83B0     		sub	sp, sp, #12
 1526              		.cfi_def_cfa_offset 16
 1527 0004 0190     		str	r0, [sp, #4]
 1528 0006 0091     		str	r1, [sp]
 1529              		.loc 14 28 0
 1530 0008 019B     		ldr	r3, [sp, #4]
 1531 000a 1846     		mov	r0, r3
 1532 000c 0099     		ldr	r1, [sp]
 1533 000e FFF7FEFF 		bl	_ZN3r2p13BasePublisher5allocERPNS_7MessageE
 1534 0012 0346     		mov	r3, r0
 1535              		.loc 14 29 0
 1536 0014 1846     		mov	r0, r3
 1537 0016 03B0     		add	sp, sp, #12
 1538              		@ sp needed
 1539 0018 5DF804FB 		ldr	pc, [sp], #4
 1540              		.cfi_endproc
 1541              	.LFE628:
 1542              		.size	_ZN3r2p9PublisherINS_6LedMsgEE5allocERPS1_, .-_ZN3r2p9PublisherINS_6LedMsgEE5allocERPS1_
 1543 001c AFF30080 		.section	.text._ZN3r2p9PublisherINS_6LedMsgEE7publishERS1_,"axG",%progbits,_ZN3r2p9PublisherINS_6L
 1544              		.align	2
 1545              		.p2align 4,,15
 1546              		.weak	_ZN3r2p9PublisherINS_6LedMsgEE7publishERS1_
 1547              		.thumb
 1548              		.thumb_func
 1549              		.type	_ZN3r2p9PublisherINS_6LedMsgEE7publishERS1_, %function
 1550              	_ZN3r2p9PublisherINS_6LedMsgEE7publishERS1_:
 1551              	.LFB629:
 1552              		.loc 14 33 0
 1553              		.cfi_startproc
 1554              		@ args = 0, pretend = 0, frame = 8
 1555              		@ frame_needed = 0, uses_anonymous_args = 0
 1556 0000 00B5     		push	{lr}
 1557              		.cfi_def_cfa_offset 4
 1558              		.cfi_offset 14, -4
 1559 0002 83B0     		sub	sp, sp, #12
 1560              		.cfi_def_cfa_offset 16
ARM GAS  /tmp/ccS6P8yq.s 			page 29


 1561 0004 0190     		str	r0, [sp, #4]
 1562 0006 0091     		str	r1, [sp]
 1563              		.loc 14 36 0
 1564 0008 019A     		ldr	r2, [sp, #4]
 1565 000a 009B     		ldr	r3, [sp]
 1566 000c 1046     		mov	r0, r2
 1567 000e 1946     		mov	r1, r3
 1568 0010 FFF7FEFF 		bl	_ZN3r2p13BasePublisher7publishERNS_7MessageE
 1569 0014 0346     		mov	r3, r0
 1570              		.loc 14 37 0
 1571 0016 1846     		mov	r0, r3
 1572 0018 03B0     		add	sp, sp, #12
 1573              		@ sp needed
 1574 001a 5DF804FB 		ldr	pc, [sp], #4
 1575              		.cfi_endproc
 1576              	.LFE629:
 1577              		.size	_ZN3r2p9PublisherINS_6LedMsgEE7publishERS1_, .-_ZN3r2p9PublisherINS_6LedMsgEE7publishERS1_
 1578 001e 00BF     		.section	.text._ZN3r2p6LedMsgC2Ev,"axG",%progbits,_ZN3r2p6LedMsgC5Ev,comdat
 1579              		.align	2
 1580              		.p2align 4,,15
 1581              		.weak	_ZN3r2p6LedMsgC2Ev
 1582              		.thumb
 1583              		.thumb_func
 1584              		.type	_ZN3r2p6LedMsgC2Ev, %function
 1585              	_ZN3r2p6LedMsgC2Ev:
 1586              	.LFB632:
 1587              		.file 15 "/home/dave/r2p-sdk/core/Middleware/include/r2p/msg/led.hpp"
 1588              		.loc 15 5 0
 1589              		.cfi_startproc
 1590              		@ args = 0, pretend = 0, frame = 8
 1591              		@ frame_needed = 0, uses_anonymous_args = 0
 1592 0000 00B5     		push	{lr}
 1593              		.cfi_def_cfa_offset 4
 1594              		.cfi_offset 14, -4
 1595 0002 83B0     		sub	sp, sp, #12
 1596              		.cfi_def_cfa_offset 16
 1597 0004 0190     		str	r0, [sp, #4]
 1598              	.LBB40:
 1599              		.loc 15 5 0
 1600 0006 019B     		ldr	r3, [sp, #4]
 1601 0008 1846     		mov	r0, r3
 1602 000a FFF7FEFF 		bl	_ZN3r2p7MessageC2Ev
 1603              	.LBE40:
 1604 000e 019B     		ldr	r3, [sp, #4]
 1605 0010 1846     		mov	r0, r3
 1606 0012 03B0     		add	sp, sp, #12
 1607              		@ sp needed
 1608 0014 5DF804FB 		ldr	pc, [sp], #4
 1609              		.cfi_endproc
 1610              	.LFE632:
 1611              		.size	_ZN3r2p6LedMsgC2Ev, .-_ZN3r2p6LedMsgC2Ev
 1612              		.weak	_ZN3r2p6LedMsgC1Ev
 1613              		.thumb_set _ZN3r2p6LedMsgC1Ev,_ZN3r2p6LedMsgC2Ev
 1614 0018 AFF30080 		.section	.text._ZN3r2p10SubscriberINS_6LedMsgELj5EEC2EPFbRKS1_E,"axG",%progbits,_ZN3r2p10Subscribe
 1614      AFF30080 
 1615              		.align	2
 1616              		.p2align 4,,15
ARM GAS  /tmp/ccS6P8yq.s 			page 30


 1617              		.weak	_ZN3r2p10SubscriberINS_6LedMsgELj5EEC2EPFbRKS1_E
 1618              		.thumb
 1619              		.thumb_func
 1620              		.type	_ZN3r2p10SubscriberINS_6LedMsgELj5EEC2EPFbRKS1_E, %function
 1621              	_ZN3r2p10SubscriberINS_6LedMsgELj5EEC2EPFbRKS1_E:
 1622              	.LFB634:
 1623              		.file 16 "/home/dave/r2p-sdk/core/Middleware/include/r2p/Subscriber.hpp"
 1624              		.loc 16 31 0
 1625              		.cfi_startproc
 1626              		@ args = 0, pretend = 0, frame = 8
 1627              		@ frame_needed = 0, uses_anonymous_args = 0
 1628 0000 30B5     		push	{r4, r5, lr}
 1629              		.cfi_def_cfa_offset 12
 1630              		.cfi_offset 4, -12
 1631              		.cfi_offset 5, -8
 1632              		.cfi_offset 14, -4
 1633 0002 83B0     		sub	sp, sp, #12
 1634              		.cfi_def_cfa_offset 24
 1635 0004 0190     		str	r0, [sp, #4]
 1636 0006 0091     		str	r1, [sp]
 1637              	.LBB41:
 1638              		.loc 16 33 0
 1639 0008 019A     		ldr	r2, [sp, #4]
 1640 000a 019B     		ldr	r3, [sp, #4]
 1641 000c 5C33     		adds	r3, r3, #92
 1642 000e 1046     		mov	r0, r2
 1643 0010 1946     		mov	r1, r3
 1644 0012 0522     		movs	r2, #5
 1645 0014 009B     		ldr	r3, [sp]
 1646 0016 FFF7FEFF 		bl	_ZN3r2p16SubscriberExtBufINS_6LedMsgEEC2EPPS1_jPFbRKS1_E
 1647 001a 019B     		ldr	r3, [sp, #4]
 1648 001c 094A     		ldr	r2, .L106
 1649 001e 1A60     		str	r2, [r3]
 1650 0020 019B     		ldr	r3, [sp, #4]
 1651 0022 3833     		adds	r3, r3, #56
 1652 0024 0424     		movs	r4, #4
 1653 0026 1D46     		mov	r5, r3
 1654 0028 04E0     		b	.L102
 1655              	.L103:
 1656              		.loc 16 33 0 is_stmt 0 discriminator 2
 1657 002a 2846     		mov	r0, r5
 1658 002c FFF7FEFF 		bl	_ZN3r2p6LedMsgC1Ev
 1659 0030 0735     		adds	r5, r5, #7
 1660 0032 013C     		subs	r4, r4, #1
 1661              	.L102:
 1662              		.loc 16 33 0 discriminator 1
 1663 0034 B4F1FF3F 		cmp	r4, #-1
 1664 0038 F7D1     		bne	.L103
 1665              	.LBE41:
 1666              		.loc 16 34 0 is_stmt 1 discriminator 3
 1667 003a 019B     		ldr	r3, [sp, #4]
 1668 003c 1846     		mov	r0, r3
 1669 003e 03B0     		add	sp, sp, #12
 1670              		@ sp needed
 1671 0040 30BD     		pop	{r4, r5, pc}
 1672              	.L107:
 1673 0042 00BF     		.align	2
ARM GAS  /tmp/ccS6P8yq.s 			page 31


 1674              	.L106:
 1675 0044 08000000 		.word	_ZTVN3r2p10SubscriberINS_6LedMsgELj5EEE+8
 1676              		.cfi_endproc
 1677              	.LFE634:
 1678              		.size	_ZN3r2p10SubscriberINS_6LedMsgELj5EEC2EPFbRKS1_E, .-_ZN3r2p10SubscriberINS_6LedMsgELj5EEC2EP
 1679              		.weak	_ZN3r2p10SubscriberINS_6LedMsgELj5EEC1EPFbRKS1_E
 1680              		.thumb_set _ZN3r2p10SubscriberINS_6LedMsgELj5EEC1EPFbRKS1_E,_ZN3r2p10SubscriberINS_6LedMsgELj5EEC2
 1681 0048 AFF30080 		.section	.text._ZN3r2p10SubscriberINS_6LedMsgELj5EED2Ev,"axG",%progbits,_ZN3r2p10SubscriberINS_6Le
 1681      AFF30080 
 1682              		.align	2
 1683              		.p2align 4,,15
 1684              		.weak	_ZN3r2p10SubscriberINS_6LedMsgELj5EED2Ev
 1685              		.thumb
 1686              		.thumb_func
 1687              		.type	_ZN3r2p10SubscriberINS_6LedMsgELj5EED2Ev, %function
 1688              	_ZN3r2p10SubscriberINS_6LedMsgELj5EED2Ev:
 1689              	.LFB637:
 1690              		.loc 16 38 0
 1691              		.cfi_startproc
 1692              		@ args = 0, pretend = 0, frame = 8
 1693              		@ frame_needed = 0, uses_anonymous_args = 0
 1694 0000 00B5     		push	{lr}
 1695              		.cfi_def_cfa_offset 4
 1696              		.cfi_offset 14, -4
 1697 0002 83B0     		sub	sp, sp, #12
 1698              		.cfi_def_cfa_offset 16
 1699 0004 0190     		str	r0, [sp, #4]
 1700              	.LBB42:
 1701              		.loc 16 38 0
 1702 0006 019B     		ldr	r3, [sp, #4]
 1703 0008 084A     		ldr	r2, .L112
 1704 000a 1A60     		str	r2, [r3]
 1705 000c 019B     		ldr	r3, [sp, #4]
 1706 000e 1846     		mov	r0, r3
 1707 0010 FFF7FEFF 		bl	_ZN3r2p16SubscriberExtBufINS_6LedMsgEED2Ev
 1708              	.LBE42:
 1709 0014 0023     		movs	r3, #0
 1710 0016 002B     		cmp	r3, #0
 1711 0018 02D0     		beq	.L110
 1712              		.loc 16 38 0 is_stmt 0 discriminator 1
 1713 001a 0198     		ldr	r0, [sp, #4]
 1714 001c FFF7FEFF 		bl	_ZdlPv
 1715              	.L110:
 1716              		.loc 16 38 0 discriminator 2
 1717 0020 019B     		ldr	r3, [sp, #4]
 1718 0022 1846     		mov	r0, r3
 1719 0024 03B0     		add	sp, sp, #12
 1720              		@ sp needed
 1721 0026 5DF804FB 		ldr	pc, [sp], #4
 1722              	.L113:
 1723 002a 00BF     		.align	2
 1724              	.L112:
 1725 002c 08000000 		.word	_ZTVN3r2p10SubscriberINS_6LedMsgELj5EEE+8
 1726              		.cfi_endproc
 1727              	.LFE637:
 1728              		.size	_ZN3r2p10SubscriberINS_6LedMsgELj5EED2Ev, .-_ZN3r2p10SubscriberINS_6LedMsgELj5EED2Ev
 1729              		.weak	_ZN3r2p10SubscriberINS_6LedMsgELj5EED1Ev
ARM GAS  /tmp/ccS6P8yq.s 			page 32


 1730              		.thumb_set _ZN3r2p10SubscriberINS_6LedMsgELj5EED1Ev,_ZN3r2p10SubscriberINS_6LedMsgELj5EED2Ev
 1731              		.section	.text._ZN3r2p10SubscriberINS_6LedMsgELj5EED0Ev,"axG",%progbits,_ZN3r2p10SubscriberINS_6Le
 1732              		.align	2
 1733              		.p2align 4,,15
 1734              		.weak	_ZN3r2p10SubscriberINS_6LedMsgELj5EED0Ev
 1735              		.thumb
 1736              		.thumb_func
 1737              		.type	_ZN3r2p10SubscriberINS_6LedMsgELj5EED0Ev, %function
 1738              	_ZN3r2p10SubscriberINS_6LedMsgELj5EED0Ev:
 1739              	.LFB639:
 1740              		.loc 16 38 0 is_stmt 1
 1741              		.cfi_startproc
 1742              		@ args = 0, pretend = 0, frame = 8
 1743              		@ frame_needed = 0, uses_anonymous_args = 0
 1744 0000 00B5     		push	{lr}
 1745              		.cfi_def_cfa_offset 4
 1746              		.cfi_offset 14, -4
 1747 0002 83B0     		sub	sp, sp, #12
 1748              		.cfi_def_cfa_offset 16
 1749 0004 0190     		str	r0, [sp, #4]
 1750              		.loc 16 38 0
 1751 0006 0198     		ldr	r0, [sp, #4]
 1752 0008 FFF7FEFF 		bl	_ZN3r2p10SubscriberINS_6LedMsgELj5EED1Ev
 1753 000c 0198     		ldr	r0, [sp, #4]
 1754 000e FFF7FEFF 		bl	_ZdlPv
 1755 0012 019B     		ldr	r3, [sp, #4]
 1756 0014 1846     		mov	r0, r3
 1757 0016 03B0     		add	sp, sp, #12
 1758              		@ sp needed
 1759 0018 5DF804FB 		ldr	pc, [sp], #4
 1760              		.cfi_endproc
 1761              	.LFE639:
 1762              		.size	_ZN3r2p10SubscriberINS_6LedMsgELj5EED0Ev, .-_ZN3r2p10SubscriberINS_6LedMsgELj5EED0Ev
 1763 001c AFF30080 		.section	.text._ZN3r2p4Node9subscribeINS_6LedMsgELj5EEEbRNS_10SubscriberIT_XT0_EEEPKc,"axG",%progb
 1764              		.align	2
 1765              		.p2align 4,,15
 1766              		.weak	_ZN3r2p4Node9subscribeINS_6LedMsgELj5EEEbRNS_10SubscriberIT_XT0_EEEPKc
 1767              		.thumb
 1768              		.thumb_func
 1769              		.type	_ZN3r2p4Node9subscribeINS_6LedMsgELj5EEEbRNS_10SubscriberIT_XT0_EEEPKc, %function
 1770              	_ZN3r2p4Node9subscribeINS_6LedMsgELj5EEEbRNS_10SubscriberIT_XT0_EEEPKc:
 1771              	.LFB640:
 1772              		.loc 9 133 0
 1773              		.cfi_startproc
 1774              		@ args = 0, pretend = 0, frame = 16
 1775              		@ frame_needed = 0, uses_anonymous_args = 0
 1776 0000 00B5     		push	{lr}
 1777              		.cfi_def_cfa_offset 4
 1778              		.cfi_offset 14, -4
 1779 0002 87B0     		sub	sp, sp, #28
 1780              		.cfi_def_cfa_offset 32
 1781 0004 0590     		str	r0, [sp, #20]
 1782 0006 0491     		str	r1, [sp, #16]
 1783 0008 0392     		str	r2, [sp, #12]
 1784              		.loc 9 135 0
 1785 000a 049A     		ldr	r2, [sp, #16]
 1786 000c 049B     		ldr	r3, [sp, #16]
ARM GAS  /tmp/ccS6P8yq.s 			page 33


 1787 000e 3833     		adds	r3, r3, #56
 1788 0010 0721     		movs	r1, #7
 1789 0012 0091     		str	r1, [sp]
 1790 0014 0598     		ldr	r0, [sp, #20]
 1791 0016 1146     		mov	r1, r2
 1792 0018 039A     		ldr	r2, [sp, #12]
 1793 001a FFF7FEFF 		bl	_ZN3r2p4Node9subscribeERNS_15LocalSubscriberEPKcPNS_7MessageEj
 1794 001e 0346     		mov	r3, r0
 1795              		.loc 9 136 0
 1796 0020 1846     		mov	r0, r3
 1797 0022 07B0     		add	sp, sp, #28
 1798              		@ sp needed
 1799 0024 5DF804FB 		ldr	pc, [sp], #4
 1800              		.cfi_endproc
 1801              	.LFE640:
 1802              		.size	_ZN3r2p4Node9subscribeINS_6LedMsgELj5EEEbRNS_10SubscriberIT_XT0_EEEPKc, .-_ZN3r2p4Node9subsc
 1803 0028 AFF30080 		.section	.text._ZN3r2p16SubscriberExtBufINS_6LedMsgEEC2EPPS1_jPFbRKS1_E,"axG",%progbits,_ZN3r2p16S
 1803      AFF30080 
 1804              		.align	2
 1805              		.p2align 4,,15
 1806              		.weak	_ZN3r2p16SubscriberExtBufINS_6LedMsgEEC2EPPS1_jPFbRKS1_E
 1807              		.thumb
 1808              		.thumb_func
 1809              		.type	_ZN3r2p16SubscriberExtBufINS_6LedMsgEEC2EPPS1_jPFbRKS1_E, %function
 1810              	_ZN3r2p16SubscriberExtBufINS_6LedMsgEEC2EPPS1_jPFbRKS1_E:
 1811              	.LFB643:
 1812              		.file 17 "/home/dave/r2p-sdk/core/Middleware/include/r2p/SubscriberExtBuf.hpp"
 1813              		.loc 17 65 0
 1814              		.cfi_startproc
 1815              		@ args = 0, pretend = 0, frame = 16
 1816              		@ frame_needed = 0, uses_anonymous_args = 0
 1817 0000 00B5     		push	{lr}
 1818              		.cfi_def_cfa_offset 4
 1819              		.cfi_offset 14, -4
 1820 0002 85B0     		sub	sp, sp, #20
 1821              		.cfi_def_cfa_offset 24
 1822 0004 0390     		str	r0, [sp, #12]
 1823 0006 0291     		str	r1, [sp, #8]
 1824 0008 0192     		str	r2, [sp, #4]
 1825 000a 0093     		str	r3, [sp]
 1826              	.LBB43:
 1827              		.loc 17 69 0
 1828 000c 039B     		ldr	r3, [sp, #12]
 1829 000e 1846     		mov	r0, r3
 1830 0010 0299     		ldr	r1, [sp, #8]
 1831 0012 019A     		ldr	r2, [sp, #4]
 1832 0014 009B     		ldr	r3, [sp]
 1833 0016 FFF7FEFF 		bl	_ZN3r2p15LocalSubscriberC2EPPNS_7MessageEjPFbRKS1_E
 1834 001a 039B     		ldr	r3, [sp, #12]
 1835 001c 034A     		ldr	r2, .L122
 1836 001e 1A60     		str	r2, [r3]
 1837              	.LBE43:
 1838              		.loc 17 72 0
 1839 0020 039B     		ldr	r3, [sp, #12]
 1840 0022 1846     		mov	r0, r3
 1841 0024 05B0     		add	sp, sp, #20
 1842              		@ sp needed
ARM GAS  /tmp/ccS6P8yq.s 			page 34


 1843 0026 5DF804FB 		ldr	pc, [sp], #4
 1844              	.L123:
 1845 002a 00BF     		.align	2
 1846              	.L122:
 1847 002c 08000000 		.word	_ZTVN3r2p16SubscriberExtBufINS_6LedMsgEEE+8
 1848              		.cfi_endproc
 1849              	.LFE643:
 1850              		.size	_ZN3r2p16SubscriberExtBufINS_6LedMsgEEC2EPPS1_jPFbRKS1_E, .-_ZN3r2p16SubscriberExtBufINS_6Le
 1851              		.weak	_ZN3r2p16SubscriberExtBufINS_6LedMsgEEC1EPPS1_jPFbRKS1_E
 1852              		.thumb_set _ZN3r2p16SubscriberExtBufINS_6LedMsgEEC1EPPS1_jPFbRKS1_E,_ZN3r2p16SubscriberExtBufINS_6
 1853              		.section	.text._ZN3r2p16SubscriberExtBufINS_6LedMsgEED2Ev,"axG",%progbits,_ZN3r2p16SubscriberExtBu
 1854              		.align	2
 1855              		.p2align 4,,15
 1856              		.weak	_ZN3r2p16SubscriberExtBufINS_6LedMsgEED2Ev
 1857              		.thumb
 1858              		.thumb_func
 1859              		.type	_ZN3r2p16SubscriberExtBufINS_6LedMsgEED2Ev, %function
 1860              	_ZN3r2p16SubscriberExtBufINS_6LedMsgEED2Ev:
 1861              	.LFB646:
 1862              		.loc 17 76 0
 1863              		.cfi_startproc
 1864              		@ args = 0, pretend = 0, frame = 8
 1865              		@ frame_needed = 0, uses_anonymous_args = 0
 1866 0000 00B5     		push	{lr}
 1867              		.cfi_def_cfa_offset 4
 1868              		.cfi_offset 14, -4
 1869 0002 83B0     		sub	sp, sp, #12
 1870              		.cfi_def_cfa_offset 16
 1871 0004 0190     		str	r0, [sp, #4]
 1872              	.LBB44:
 1873              		.loc 17 79 0
 1874 0006 019B     		ldr	r3, [sp, #4]
 1875 0008 084A     		ldr	r2, .L128
 1876 000a 1A60     		str	r2, [r3]
 1877 000c 019B     		ldr	r3, [sp, #4]
 1878 000e 1846     		mov	r0, r3
 1879 0010 FFF7FEFF 		bl	_ZN3r2p15LocalSubscriberD2Ev
 1880              	.LBE44:
 1881 0014 0023     		movs	r3, #0
 1882 0016 002B     		cmp	r3, #0
 1883 0018 02D0     		beq	.L126
 1884              		.loc 17 79 0 is_stmt 0 discriminator 1
 1885 001a 0198     		ldr	r0, [sp, #4]
 1886 001c FFF7FEFF 		bl	_ZdlPv
 1887              	.L126:
 1888              		.loc 17 79 0 discriminator 2
 1889 0020 019B     		ldr	r3, [sp, #4]
 1890 0022 1846     		mov	r0, r3
 1891 0024 03B0     		add	sp, sp, #12
 1892              		@ sp needed
 1893 0026 5DF804FB 		ldr	pc, [sp], #4
 1894              	.L129:
 1895 002a 00BF     		.align	2
 1896              	.L128:
 1897 002c 08000000 		.word	_ZTVN3r2p16SubscriberExtBufINS_6LedMsgEEE+8
 1898              		.cfi_endproc
 1899              	.LFE646:
ARM GAS  /tmp/ccS6P8yq.s 			page 35


 1900              		.size	_ZN3r2p16SubscriberExtBufINS_6LedMsgEED2Ev, .-_ZN3r2p16SubscriberExtBufINS_6LedMsgEED2Ev
 1901              		.weak	_ZN3r2p16SubscriberExtBufINS_6LedMsgEED1Ev
 1902              		.thumb_set _ZN3r2p16SubscriberExtBufINS_6LedMsgEED1Ev,_ZN3r2p16SubscriberExtBufINS_6LedMsgEED2Ev
 1903              		.section	.text._ZN3r2p16SubscriberExtBufINS_6LedMsgEED0Ev,"axG",%progbits,_ZN3r2p16SubscriberExtBu
 1904              		.align	2
 1905              		.p2align 4,,15
 1906              		.weak	_ZN3r2p16SubscriberExtBufINS_6LedMsgEED0Ev
 1907              		.thumb
 1908              		.thumb_func
 1909              		.type	_ZN3r2p16SubscriberExtBufINS_6LedMsgEED0Ev, %function
 1910              	_ZN3r2p16SubscriberExtBufINS_6LedMsgEED0Ev:
 1911              	.LFB648:
 1912              		.loc 17 76 0 is_stmt 1
 1913              		.cfi_startproc
 1914              		@ args = 0, pretend = 0, frame = 8
 1915              		@ frame_needed = 0, uses_anonymous_args = 0
 1916 0000 00B5     		push	{lr}
 1917              		.cfi_def_cfa_offset 4
 1918              		.cfi_offset 14, -4
 1919 0002 83B0     		sub	sp, sp, #12
 1920              		.cfi_def_cfa_offset 16
 1921 0004 0190     		str	r0, [sp, #4]
 1922              		.loc 17 79 0
 1923 0006 0198     		ldr	r0, [sp, #4]
 1924 0008 FFF7FEFF 		bl	_ZN3r2p16SubscriberExtBufINS_6LedMsgEED1Ev
 1925 000c 0198     		ldr	r0, [sp, #4]
 1926 000e FFF7FEFF 		bl	_ZdlPv
 1927 0012 019B     		ldr	r3, [sp, #4]
 1928 0014 1846     		mov	r0, r3
 1929 0016 03B0     		add	sp, sp, #12
 1930              		@ sp needed
 1931 0018 5DF804FB 		ldr	pc, [sp], #4
 1932              		.cfi_endproc
 1933              	.LFE648:
 1934              		.size	_ZN3r2p16SubscriberExtBufINS_6LedMsgEED0Ev, .-_ZN3r2p16SubscriberExtBufINS_6LedMsgEED0Ev
 1935              		.weak	_ZTVN3r2p10SubscriberINS_6LedMsgELj5EEE
 1936 001c AFF30080 		.section	.rodata._ZTVN3r2p10SubscriberINS_6LedMsgELj5EEE,"aG",%progbits,_ZTVN3r2p10SubscriberINS_6
 1937              		.align	3
 1938              		.type	_ZTVN3r2p10SubscriberINS_6LedMsgELj5EEE, %object
 1939              		.size	_ZTVN3r2p10SubscriberINS_6LedMsgELj5EEE, 36
 1940              	_ZTVN3r2p10SubscriberINS_6LedMsgELj5EEE:
 1941 0000 00000000 		.word	0
 1942 0004 00000000 		.word	0
 1943 0008 00000000 		.word	_ZNK3r2p15LocalSubscriber16get_queue_lengthEv
 1944 000c 00000000 		.word	_ZN3r2p15LocalSubscriber13notify_unsafeERNS_7MessageERKNS_4TimeE
 1945 0010 00000000 		.word	_ZN3r2p15LocalSubscriber12fetch_unsafeERPNS_7MessageERNS_4TimeE
 1946 0014 00000000 		.word	_ZN3r2p15LocalSubscriber6notifyERNS_7MessageERKNS_4TimeE
 1947 0018 00000000 		.word	_ZN3r2p15LocalSubscriber5fetchERPNS_7MessageERNS_4TimeE
 1948 001c 00000000 		.word	_ZN3r2p10SubscriberINS_6LedMsgELj5EED1Ev
 1949 0020 00000000 		.word	_ZN3r2p10SubscriberINS_6LedMsgELj5EED0Ev
 1950              		.weak	_ZTVN3r2p16SubscriberExtBufINS_6LedMsgEEE
 1951 0024 00000000 		.section	.rodata._ZTVN3r2p16SubscriberExtBufINS_6LedMsgEEE,"aG",%progbits,_ZTVN3r2p16SubscriberExt
 1952              		.align	3
 1953              		.type	_ZTVN3r2p16SubscriberExtBufINS_6LedMsgEEE, %object
 1954              		.size	_ZTVN3r2p16SubscriberExtBufINS_6LedMsgEEE, 36
 1955              	_ZTVN3r2p16SubscriberExtBufINS_6LedMsgEEE:
 1956 0000 00000000 		.word	0
ARM GAS  /tmp/ccS6P8yq.s 			page 36


 1957 0004 00000000 		.word	0
 1958 0008 00000000 		.word	_ZNK3r2p15LocalSubscriber16get_queue_lengthEv
 1959 000c 00000000 		.word	_ZN3r2p15LocalSubscriber13notify_unsafeERNS_7MessageERKNS_4TimeE
 1960 0010 00000000 		.word	_ZN3r2p15LocalSubscriber12fetch_unsafeERPNS_7MessageERNS_4TimeE
 1961 0014 00000000 		.word	_ZN3r2p15LocalSubscriber6notifyERNS_7MessageERKNS_4TimeE
 1962 0018 00000000 		.word	_ZN3r2p15LocalSubscriber5fetchERPNS_7MessageERNS_4TimeE
 1963 001c 00000000 		.word	_ZN3r2p16SubscriberExtBufINS_6LedMsgEED1Ev
 1964 0020 00000000 		.word	_ZN3r2p16SubscriberExtBufINS_6LedMsgEED0Ev
 1965              		.weak	_ZTVN3r2p9PublisherINS_6LedMsgEEE
 1966 0024 00000000 		.section	.rodata._ZTVN3r2p9PublisherINS_6LedMsgEEE,"aG",%progbits,_ZTVN3r2p9PublisherINS_6LedMsgEE
 1967              		.align	3
 1968              		.type	_ZTVN3r2p9PublisherINS_6LedMsgEEE, %object
 1969              		.size	_ZTVN3r2p9PublisherINS_6LedMsgEEE, 16
 1970              	_ZTVN3r2p9PublisherINS_6LedMsgEEE:
 1971 0000 00000000 		.word	0
 1972 0004 00000000 		.word	0
 1973 0008 00000000 		.word	_ZN3r2p9PublisherINS_6LedMsgEED1Ev
 1974 000c 00000000 		.word	_ZN3r2p9PublisherINS_6LedMsgEED0Ev
 1975              		.text
 1976              	.Letext0:
 1977              		.file 18 "/usr/lib/gcc/arm-none-eabi/4.8/include/stddef.h"
 1978              		.file 19 "/usr/include/newlib/machine/_default_types.h"
 1979              		.file 20 "/usr/include/newlib/stdint.h"
 1980              		.file 21 "/home/dave/r2p-sdk/core/ChibiOS/os/ports/GCC/ARMCMx/chtypes.h"
 1981              		.file 22 "/home/dave/r2p-sdk/core/ChibiOS/os/kernel/include/chlists.h"
 1982              		.file 23 "/home/dave/r2p-sdk/core/ChibiOS/os/kernel/include/chthreads.h"
 1983              		.file 24 "/home/dave/r2p-sdk/core/ChibiOS/os/ports/GCC/ARMCMx/chcore_v7m.h"
 1984              		.file 25 "/home/dave/r2p-sdk/core/ChibiOS/os/kernel/include/chschd.h"
 1985              		.file 26 "/home/dave/r2p-sdk/core/ChibiOS/os/kernel/include/chmtx.h"
 1986              		.file 27 "/home/dave/r2p-sdk/core/ChibiOS/os/kernel/include/chmemcore.h"
 1987              		.file 28 "/home/dave/r2p-sdk/core/ChibiOS/os/kernel/include/chmempools.h"
 1988              		.file 29 "/home/dave/r2p-sdk/core/ChibiOS/os/hal/platforms/STM32/GPIOv2/pal_lld.h"
 1989              		.file 30 "/usr/include/newlib/c++/4.8/cstring"
 1990              		.file 31 "/usr/include/newlib/string.h"
 1991              		.file 32 "<built-in>"
 1992              		.file 33 "/home/dave/r2p-sdk/core/Middleware/include/r2p/Uncopyable.hpp"
 1993              		.file 34 "/home/dave/r2p-sdk/core/Middleware/include/r2p/StaticList.hpp"
 1994              		.file 35 "/home/dave/r2p-sdk/core/Middleware/include/r2p/LocalPublisher.hpp"
 1995              		.file 36 "/home/dave/r2p-sdk/core/Middleware/port/chibios/include/r2p/impl/Thread_.hpp"
 1996              		.file 37 "/home/dave/r2p-sdk/core/Middleware/include/r2p/Thread.hpp"
 1997              		.file 38 "/home/dave/r2p-sdk/core/Middleware/include/r2p/BaseSubscriber.hpp"
 1998              		.file 39 "/home/dave/r2p-sdk/core/Middleware/include/r2p/node/led.hpp"
 1999              		.file 40 "/home/dave/r2p-sdk/core/Middleware/include/r2p/common.hpp"
 2000              		.file 41 "/home/dave/r2p-sdk/core/ChibiOS/os/ports/common/ARMCMx/CMSIS/include/core_cm4.h"