ARM GAS  /tmp/ccSi37ZE.s 			page 1


   1              		.syntax unified
   2              		.cpu cortex-m4
   3              		.eabi_attribute 27, 3
   4              		.eabi_attribute 28, 1
   5              		.fpu fpv4-sp-d16
   6              		.eabi_attribute 20, 1
   7              		.eabi_attribute 21, 1
   8              		.eabi_attribute 23, 3
   9              		.eabi_attribute 24, 1
  10              		.eabi_attribute 25, 1
  11              		.eabi_attribute 26, 1
  12              		.eabi_attribute 30, 6
  13              		.eabi_attribute 34, 1
  14              		.eabi_attribute 18, 4
  15              		.thumb
  16              		.file	"pwm.c"
  17              		.text
  18              	.Ltext0:
  19              		.cfi_sections	.debug_frame
  20              		.section	.text.pwmInit,"ax",%progbits
  21              		.align	2
  22              		.p2align 4,,15
  23              		.global	pwmInit
  24              		.thumb
  25              		.thumb_func
  26              		.type	pwmInit, %function
  27              	pwmInit:
  28              	.LFB118:
  29              		.file 1 "/home/dave/r2p-sdk/core/ChibiOS/os/hal/src/pwm.c"
  30              		.loc 1 68 0
  31              		.cfi_startproc
  32              		@ args = 0, pretend = 0, frame = 0
  33              		@ frame_needed = 0, uses_anonymous_args = 0
  34 0000 08B5     		push	{r3, lr}
  35              		.cfi_def_cfa_offset 8
  36              		.cfi_offset 3, -8
  37              		.cfi_offset 14, -4
  38              		.loc 1 70 0
  39 0002 FFF7FEFF 		bl	pwm_lld_init
  40              		.loc 1 71 0
  41 0006 08BD     		pop	{r3, pc}
  42              		.cfi_endproc
  43              	.LFE118:
  44              		.size	pwmInit, .-pwmInit
  45 0008 AFF30080 		.section	.text.pwmObjectInit,"ax",%progbits
  45      AFF30080 
  46              		.align	2
  47              		.p2align 4,,15
  48              		.global	pwmObjectInit
  49              		.thumb
  50              		.thumb_func
  51              		.type	pwmObjectInit, %function
  52              	pwmObjectInit:
  53              	.LFB119:
  54              		.loc 1 80 0
  55              		.cfi_startproc
  56              		@ args = 0, pretend = 0, frame = 8
ARM GAS  /tmp/ccSi37ZE.s 			page 2


  57              		@ frame_needed = 0, uses_anonymous_args = 0
  58              		@ link register save eliminated.
  59 0000 82B0     		sub	sp, sp, #8
  60              		.cfi_def_cfa_offset 8
  61 0002 0190     		str	r0, [sp, #4]
  62              		.loc 1 82 0
  63 0004 019B     		ldr	r3, [sp, #4]
  64 0006 0122     		movs	r2, #1
  65 0008 1A70     		strb	r2, [r3]
  66              		.loc 1 83 0
  67 000a 019B     		ldr	r3, [sp, #4]
  68 000c 0022     		movs	r2, #0
  69 000e 5A60     		str	r2, [r3, #4]
  70              		.loc 1 87 0
  71 0010 02B0     		add	sp, sp, #8
  72              		@ sp needed
  73 0012 7047     		bx	lr
  74              		.cfi_endproc
  75              	.LFE119:
  76              		.size	pwmObjectInit, .-pwmObjectInit
  77 0014 AFF30080 		.section	.rodata
  77      AFF30080 
  77      AFF30080 
  78              		.align	2
  79              	.LC0:
  80 0000 2270776D 		.ascii	"\"pwmStart\"()\000"
  80      53746172 
  80      74222829 
  80      00
  81 000d 000000   		.align	2
  82              	.LC1:
  83 0010 70776D53 		.ascii	"pwmStart(), #1\000"
  83      74617274 
  83      28292C20 
  83      233100
  84              		.section	.text.pwmStart,"ax",%progbits
  85              		.align	2
  86              		.p2align 4,,15
  87              		.global	pwmStart
  88              		.thumb
  89              		.thumb_func
  90              		.type	pwmStart, %function
  91              	pwmStart:
  92              	.LFB120:
  93              		.loc 1 99 0
  94              		.cfi_startproc
  95              		@ args = 0, pretend = 0, frame = 8
  96              		@ frame_needed = 0, uses_anonymous_args = 0
  97 0000 00B5     		push	{lr}
  98              		.cfi_def_cfa_offset 4
  99              		.cfi_offset 14, -4
 100 0002 83B0     		sub	sp, sp, #12
 101              		.cfi_def_cfa_offset 16
 102 0004 0190     		str	r0, [sp, #4]
 103 0006 0091     		str	r1, [sp]
 104              		.loc 1 101 0
 105 0008 019B     		ldr	r3, [sp, #4]
ARM GAS  /tmp/ccSi37ZE.s 			page 3


 106 000a 002B     		cmp	r3, #0
 107 000c 02D0     		beq	.L4
 108              		.loc 1 101 0 is_stmt 0 discriminator 2
 109 000e 009B     		ldr	r3, [sp]
 110 0010 002B     		cmp	r3, #0
 111 0012 02D1     		bne	.L5
 112              	.L4:
 113              		.loc 1 101 0 discriminator 1
 114 0014 1348     		ldr	r0, .L7
 115 0016 FFF7FEFF 		bl	chDbgPanic
 116              	.L5:
 117              	.LBB2:
 118              		.loc 1 103 0 is_stmt 1
 119 001a 2023     		movs	r3, #32
 120              	@ 103 "/home/dave/r2p-sdk/core/ChibiOS/os/hal/src/pwm.c" 1
 121 001c 83F31188 		msr     BASEPRI, r3
 122              	@ 0 "" 2
 123              		.thumb
 124              	.LBE2:
 125 0020 FFF7FEFF 		bl	dbg_check_lock
 126              		.loc 1 104 0
 127 0024 019B     		ldr	r3, [sp, #4]
 128 0026 1B78     		ldrb	r3, [r3]	@ zero_extendqisi2
 129 0028 012B     		cmp	r3, #1
 130 002a 06D0     		beq	.L6
 131              		.loc 1 104 0 is_stmt 0 discriminator 1
 132 002c 019B     		ldr	r3, [sp, #4]
 133 002e 1B78     		ldrb	r3, [r3]	@ zero_extendqisi2
 134 0030 022B     		cmp	r3, #2
 135 0032 02D0     		beq	.L6
 136 0034 0C48     		ldr	r0, .L7+4
 137 0036 FFF7FEFF 		bl	chDbgPanic
 138              	.L6:
 139              		.loc 1 106 0 is_stmt 1
 140 003a 019B     		ldr	r3, [sp, #4]
 141 003c 009A     		ldr	r2, [sp]
 142 003e 5A60     		str	r2, [r3, #4]
 143              		.loc 1 107 0
 144 0040 009B     		ldr	r3, [sp]
 145 0042 9A88     		ldrh	r2, [r3, #4]
 146 0044 019B     		ldr	r3, [sp, #4]
 147 0046 1A81     		strh	r2, [r3, #8]	@ movhi
 148              		.loc 1 108 0
 149 0048 0198     		ldr	r0, [sp, #4]
 150 004a FFF7FEFF 		bl	pwm_lld_start
 151              		.loc 1 109 0
 152 004e 019B     		ldr	r3, [sp, #4]
 153 0050 0222     		movs	r2, #2
 154 0052 1A70     		strb	r2, [r3]
 155              		.loc 1 110 0
 156 0054 FFF7FEFF 		bl	dbg_check_unlock
 157              	.LBB3:
 158 0058 0023     		movs	r3, #0
 159              	@ 110 "/home/dave/r2p-sdk/core/ChibiOS/os/hal/src/pwm.c" 1
 160 005a 83F31188 		msr     BASEPRI, r3
 161              	@ 0 "" 2
 162              		.thumb
ARM GAS  /tmp/ccSi37ZE.s 			page 4


 163              	.LBE3:
 164              		.loc 1 111 0
 165 005e 03B0     		add	sp, sp, #12
 166              		@ sp needed
 167 0060 5DF804FB 		ldr	pc, [sp], #4
 168              	.L8:
 169              		.align	2
 170              	.L7:
 171 0064 00000000 		.word	.LC0
 172 0068 10000000 		.word	.LC1
 173              		.cfi_endproc
 174              	.LFE120:
 175              		.size	pwmStart, .-pwmStart
 176 006c AFF30080 		.section	.rodata
 177 001f 00       		.align	2
 178              	.LC2:
 179 0020 2270776D 		.ascii	"\"pwmStop\"()\000"
 179      53746F70 
 179      22282900 
 180              		.align	2
 181              	.LC3:
 182 002c 70776D53 		.ascii	"pwmStop(), #1\000"
 182      746F7028 
 182      292C2023 
 182      3100
 183              		.section	.text.pwmStop,"ax",%progbits
 184              		.align	2
 185              		.p2align 4,,15
 186              		.global	pwmStop
 187              		.thumb
 188              		.thumb_func
 189              		.type	pwmStop, %function
 190              	pwmStop:
 191              	.LFB121:
 192              		.loc 1 120 0
 193              		.cfi_startproc
 194              		@ args = 0, pretend = 0, frame = 8
 195              		@ frame_needed = 0, uses_anonymous_args = 0
 196 0000 00B5     		push	{lr}
 197              		.cfi_def_cfa_offset 4
 198              		.cfi_offset 14, -4
 199 0002 83B0     		sub	sp, sp, #12
 200              		.cfi_def_cfa_offset 16
 201 0004 0190     		str	r0, [sp, #4]
 202              		.loc 1 122 0
 203 0006 019B     		ldr	r3, [sp, #4]
 204 0008 002B     		cmp	r3, #0
 205 000a 02D1     		bne	.L10
 206              		.loc 1 122 0 is_stmt 0 discriminator 1
 207 000c 1048     		ldr	r0, .L12
 208 000e FFF7FEFF 		bl	chDbgPanic
 209              	.L10:
 210              	.LBB4:
 211              		.loc 1 124 0 is_stmt 1
 212 0012 2023     		movs	r3, #32
 213              	@ 124 "/home/dave/r2p-sdk/core/ChibiOS/os/hal/src/pwm.c" 1
 214 0014 83F31188 		msr     BASEPRI, r3
ARM GAS  /tmp/ccSi37ZE.s 			page 5


 215              	@ 0 "" 2
 216              		.thumb
 217              	.LBE4:
 218 0018 FFF7FEFF 		bl	dbg_check_lock
 219              		.loc 1 125 0
 220 001c 019B     		ldr	r3, [sp, #4]
 221 001e 1B78     		ldrb	r3, [r3]	@ zero_extendqisi2
 222 0020 012B     		cmp	r3, #1
 223 0022 06D0     		beq	.L11
 224              		.loc 1 125 0 is_stmt 0 discriminator 1
 225 0024 019B     		ldr	r3, [sp, #4]
 226 0026 1B78     		ldrb	r3, [r3]	@ zero_extendqisi2
 227 0028 022B     		cmp	r3, #2
 228 002a 02D0     		beq	.L11
 229 002c 0948     		ldr	r0, .L12+4
 230 002e FFF7FEFF 		bl	chDbgPanic
 231              	.L11:
 232              		.loc 1 127 0 is_stmt 1
 233 0032 0198     		ldr	r0, [sp, #4]
 234 0034 FFF7FEFF 		bl	pwm_lld_stop
 235              		.loc 1 128 0
 236 0038 019B     		ldr	r3, [sp, #4]
 237 003a 0122     		movs	r2, #1
 238 003c 1A70     		strb	r2, [r3]
 239              		.loc 1 129 0
 240 003e FFF7FEFF 		bl	dbg_check_unlock
 241              	.LBB5:
 242 0042 0023     		movs	r3, #0
 243              	@ 129 "/home/dave/r2p-sdk/core/ChibiOS/os/hal/src/pwm.c" 1
 244 0044 83F31188 		msr     BASEPRI, r3
 245              	@ 0 "" 2
 246              		.thumb
 247              	.LBE5:
 248              		.loc 1 130 0
 249 0048 03B0     		add	sp, sp, #12
 250              		@ sp needed
 251 004a 5DF804FB 		ldr	pc, [sp], #4
 252              	.L13:
 253 004e 00BF     		.align	2
 254              	.L12:
 255 0050 20000000 		.word	.LC2
 256 0054 2C000000 		.word	.LC3
 257              		.cfi_endproc
 258              	.LFE121:
 259              		.size	pwmStop, .-pwmStop
 260 0058 AFF30080 		.section	.rodata
 260      AFF30080 
 261 003a 0000     		.align	2
 262              	.LC4:
 263 003c 2270776D 		.ascii	"\"pwmChangePeriod\"()\000"
 263      4368616E 
 263      67655065 
 263      72696F64 
 263      22282900 
 264              		.align	2
 265              	.LC5:
 266 0050 70776D43 		.ascii	"pwmChangePeriod(), #1\000"
ARM GAS  /tmp/ccSi37ZE.s 			page 6


 266      68616E67 
 266      65506572 
 266      696F6428 
 266      292C2023 
 267              		.section	.text.pwmChangePeriod,"ax",%progbits
 268              		.align	2
 269              		.p2align 4,,15
 270              		.global	pwmChangePeriod
 271              		.thumb
 272              		.thumb_func
 273              		.type	pwmChangePeriod, %function
 274              	pwmChangePeriod:
 275              	.LFB122:
 276              		.loc 1 147 0
 277              		.cfi_startproc
 278              		@ args = 0, pretend = 0, frame = 8
 279              		@ frame_needed = 0, uses_anonymous_args = 0
 280 0000 00B5     		push	{lr}
 281              		.cfi_def_cfa_offset 4
 282              		.cfi_offset 14, -4
 283 0002 83B0     		sub	sp, sp, #12
 284              		.cfi_def_cfa_offset 16
 285 0004 0190     		str	r0, [sp, #4]
 286 0006 0B46     		mov	r3, r1
 287 0008 ADF80230 		strh	r3, [sp, #2]	@ movhi
 288              		.loc 1 149 0
 289 000c 019B     		ldr	r3, [sp, #4]
 290 000e 002B     		cmp	r3, #0
 291 0010 02D1     		bne	.L15
 292              		.loc 1 149 0 is_stmt 0 discriminator 1
 293 0012 1148     		ldr	r0, .L17
 294 0014 FFF7FEFF 		bl	chDbgPanic
 295              	.L15:
 296              	.LBB6:
 297              		.loc 1 151 0 is_stmt 1
 298 0018 2023     		movs	r3, #32
 299              	@ 151 "/home/dave/r2p-sdk/core/ChibiOS/os/hal/src/pwm.c" 1
 300 001a 83F31188 		msr     BASEPRI, r3
 301              	@ 0 "" 2
 302              		.thumb
 303              	.LBE6:
 304 001e FFF7FEFF 		bl	dbg_check_lock
 305              		.loc 1 152 0
 306 0022 019B     		ldr	r3, [sp, #4]
 307 0024 1B78     		ldrb	r3, [r3]	@ zero_extendqisi2
 308 0026 022B     		cmp	r3, #2
 309 0028 02D0     		beq	.L16
 310              		.loc 1 152 0 is_stmt 0 discriminator 1
 311 002a 0C48     		ldr	r0, .L17+4
 312 002c FFF7FEFF 		bl	chDbgPanic
 313              	.L16:
 314              		.loc 1 154 0 is_stmt 1
 315 0030 019B     		ldr	r3, [sp, #4]
 316 0032 BDF80220 		ldrh	r2, [sp, #2]	@ movhi
 317 0036 1A81     		strh	r2, [r3, #8]	@ movhi
 318 0038 019B     		ldr	r3, [sp, #4]
 319 003a 1B69     		ldr	r3, [r3, #16]
ARM GAS  /tmp/ccSi37ZE.s 			page 7


 320 003c BDF80220 		ldrh	r2, [sp, #2]	@ movhi
 321 0040 013A     		subs	r2, r2, #1
 322 0042 92B2     		uxth	r2, r2
 323 0044 DA62     		str	r2, [r3, #44]
 324              		.loc 1 155 0
 325 0046 FFF7FEFF 		bl	dbg_check_unlock
 326              	.LBB7:
 327 004a 0023     		movs	r3, #0
 328              	@ 155 "/home/dave/r2p-sdk/core/ChibiOS/os/hal/src/pwm.c" 1
 329 004c 83F31188 		msr     BASEPRI, r3
 330              	@ 0 "" 2
 331              		.thumb
 332              	.LBE7:
 333              		.loc 1 156 0
 334 0050 03B0     		add	sp, sp, #12
 335              		@ sp needed
 336 0052 5DF804FB 		ldr	pc, [sp], #4
 337              	.L18:
 338 0056 00BF     		.align	2
 339              	.L17:
 340 0058 3C000000 		.word	.LC4
 341 005c 50000000 		.word	.LC5
 342              		.cfi_endproc
 343              	.LFE122:
 344              		.size	pwmChangePeriod, .-pwmChangePeriod
 345              		.section	.rodata
 346 0066 0000     		.align	2
 347              	.LC6:
 348 0068 2270776D 		.ascii	"\"pwmEnableChannel\"()\000"
 348      456E6162 
 348      6C654368 
 348      616E6E65 
 348      6C222829 
 349 007d 000000   		.align	2
 350              	.LC7:
 351 0080 70776D45 		.ascii	"pwmEnableChannel(), #1\000"
 351      6E61626C 
 351      65436861 
 351      6E6E656C 
 351      28292C20 
 352              		.section	.text.pwmEnableChannel,"ax",%progbits
 353              		.align	2
 354              		.p2align 4,,15
 355              		.global	pwmEnableChannel
 356              		.thumb
 357              		.thumb_func
 358              		.type	pwmEnableChannel, %function
 359              	pwmEnableChannel:
 360              	.LFB123:
 361              		.loc 1 174 0
 362              		.cfi_startproc
 363              		@ args = 0, pretend = 0, frame = 8
 364              		@ frame_needed = 0, uses_anonymous_args = 0
 365 0000 00B5     		push	{lr}
 366              		.cfi_def_cfa_offset 4
 367              		.cfi_offset 14, -4
 368 0002 83B0     		sub	sp, sp, #12
ARM GAS  /tmp/ccSi37ZE.s 			page 8


 369              		.cfi_def_cfa_offset 16
 370 0004 0190     		str	r0, [sp, #4]
 371 0006 1346     		mov	r3, r2
 372 0008 0A46     		mov	r2, r1
 373 000a 8DF80320 		strb	r2, [sp, #3]
 374 000e ADF80030 		strh	r3, [sp]	@ movhi
 375              		.loc 1 176 0
 376 0012 019B     		ldr	r3, [sp, #4]
 377 0014 002B     		cmp	r3, #0
 378 0016 03D0     		beq	.L20
 379              		.loc 1 176 0 is_stmt 0 discriminator 2
 380 0018 9DF80330 		ldrb	r3, [sp, #3]	@ zero_extendqisi2
 381 001c 032B     		cmp	r3, #3
 382 001e 02D9     		bls	.L21
 383              	.L20:
 384              		.loc 1 176 0 discriminator 1
 385 0020 0F48     		ldr	r0, .L23
 386 0022 FFF7FEFF 		bl	chDbgPanic
 387              	.L21:
 388              	.LBB8:
 389              		.loc 1 179 0 is_stmt 1
 390 0026 2023     		movs	r3, #32
 391              	@ 179 "/home/dave/r2p-sdk/core/ChibiOS/os/hal/src/pwm.c" 1
 392 0028 83F31188 		msr     BASEPRI, r3
 393              	@ 0 "" 2
 394              		.thumb
 395              	.LBE8:
 396 002c FFF7FEFF 		bl	dbg_check_lock
 397              		.loc 1 180 0
 398 0030 019B     		ldr	r3, [sp, #4]
 399 0032 1B78     		ldrb	r3, [r3]	@ zero_extendqisi2
 400 0034 022B     		cmp	r3, #2
 401 0036 02D0     		beq	.L22
 402              		.loc 1 180 0 is_stmt 0 discriminator 1
 403 0038 0A48     		ldr	r0, .L23+4
 404 003a FFF7FEFF 		bl	chDbgPanic
 405              	.L22:
 406              		.loc 1 182 0 is_stmt 1
 407 003e 9DF80320 		ldrb	r2, [sp, #3]	@ zero_extendqisi2
 408 0042 BDF80030 		ldrh	r3, [sp]
 409 0046 0198     		ldr	r0, [sp, #4]
 410 0048 1146     		mov	r1, r2
 411 004a 1A46     		mov	r2, r3
 412 004c FFF7FEFF 		bl	pwm_lld_enable_channel
 413              		.loc 1 183 0
 414 0050 FFF7FEFF 		bl	dbg_check_unlock
 415              	.LBB9:
 416 0054 0023     		movs	r3, #0
 417              	@ 183 "/home/dave/r2p-sdk/core/ChibiOS/os/hal/src/pwm.c" 1
 418 0056 83F31188 		msr     BASEPRI, r3
 419              	@ 0 "" 2
 420              		.thumb
 421              	.LBE9:
 422              		.loc 1 184 0
 423 005a 03B0     		add	sp, sp, #12
 424              		@ sp needed
 425 005c 5DF804FB 		ldr	pc, [sp], #4
ARM GAS  /tmp/ccSi37ZE.s 			page 9


 426              	.L24:
 427              		.align	2
 428              	.L23:
 429 0060 68000000 		.word	.LC6
 430 0064 80000000 		.word	.LC7
 431              		.cfi_endproc
 432              	.LFE123:
 433              		.size	pwmEnableChannel, .-pwmEnableChannel
 434 0068 AFF30080 		.section	.rodata
 434      AFF30080 
 435 0097 00       		.align	2
 436              	.LC8:
 437 0098 70776D44 		.ascii	"pwmDisableChannel(), #1\000"
 437      69736162 
 437      6C654368 
 437      616E6E65 
 437      6C28292C 
 438              		.section	.text.pwmDisableChannel,"ax",%progbits
 439              		.align	2
 440              		.p2align 4,,15
 441              		.global	pwmDisableChannel
 442              		.thumb
 443              		.thumb_func
 444              		.type	pwmDisableChannel, %function
 445              	pwmDisableChannel:
 446              	.LFB124:
 447              		.loc 1 200 0
 448              		.cfi_startproc
 449              		@ args = 0, pretend = 0, frame = 8
 450              		@ frame_needed = 0, uses_anonymous_args = 0
 451 0000 00B5     		push	{lr}
 452              		.cfi_def_cfa_offset 4
 453              		.cfi_offset 14, -4
 454 0002 83B0     		sub	sp, sp, #12
 455              		.cfi_def_cfa_offset 16
 456 0004 0190     		str	r0, [sp, #4]
 457 0006 0B46     		mov	r3, r1
 458 0008 8DF80330 		strb	r3, [sp, #3]
 459              		.loc 1 202 0
 460 000c 019B     		ldr	r3, [sp, #4]
 461 000e 002B     		cmp	r3, #0
 462 0010 03D0     		beq	.L26
 463              		.loc 1 202 0 is_stmt 0 discriminator 2
 464 0012 9DF80330 		ldrb	r3, [sp, #3]	@ zero_extendqisi2
 465 0016 032B     		cmp	r3, #3
 466 0018 02D9     		bls	.L27
 467              	.L26:
 468              		.loc 1 202 0 discriminator 1
 469 001a 0E48     		ldr	r0, .L29
 470 001c FFF7FEFF 		bl	chDbgPanic
 471              	.L27:
 472              	.LBB10:
 473              		.loc 1 205 0 is_stmt 1
 474 0020 2023     		movs	r3, #32
 475              	@ 205 "/home/dave/r2p-sdk/core/ChibiOS/os/hal/src/pwm.c" 1
 476 0022 83F31188 		msr     BASEPRI, r3
 477              	@ 0 "" 2
ARM GAS  /tmp/ccSi37ZE.s 			page 10


 478              		.thumb
 479              	.LBE10:
 480 0026 FFF7FEFF 		bl	dbg_check_lock
 481              		.loc 1 206 0
 482 002a 019B     		ldr	r3, [sp, #4]
 483 002c 1B78     		ldrb	r3, [r3]	@ zero_extendqisi2
 484 002e 022B     		cmp	r3, #2
 485 0030 02D0     		beq	.L28
 486              		.loc 1 206 0 is_stmt 0 discriminator 1
 487 0032 0948     		ldr	r0, .L29+4
 488 0034 FFF7FEFF 		bl	chDbgPanic
 489              	.L28:
 490              		.loc 1 208 0 is_stmt 1
 491 0038 9DF80330 		ldrb	r3, [sp, #3]	@ zero_extendqisi2
 492 003c 0198     		ldr	r0, [sp, #4]
 493 003e 1946     		mov	r1, r3
 494 0040 FFF7FEFF 		bl	pwm_lld_disable_channel
 495              		.loc 1 209 0
 496 0044 FFF7FEFF 		bl	dbg_check_unlock
 497              	.LBB11:
 498 0048 0023     		movs	r3, #0
 499              	@ 209 "/home/dave/r2p-sdk/core/ChibiOS/os/hal/src/pwm.c" 1
 500 004a 83F31188 		msr     BASEPRI, r3
 501              	@ 0 "" 2
 502              		.thumb
 503              	.LBE11:
 504              		.loc 1 210 0
 505 004e 03B0     		add	sp, sp, #12
 506              		@ sp needed
 507 0050 5DF804FB 		ldr	pc, [sp], #4
 508              	.L30:
 509              		.align	2
 510              	.L29:
 511 0054 68000000 		.word	.LC6
 512 0058 98000000 		.word	.LC8
 513              		.cfi_endproc
 514              	.LFE124:
 515              		.size	pwmDisableChannel, .-pwmDisableChannel
 516 005c AFF30080 		.text
 517              	.Letext0:
 518              		.file 2 "/usr/include/newlib/machine/_default_types.h"
 519              		.file 3 "/usr/include/newlib/stdint.h"
 520              		.file 4 "/home/dave/r2p-sdk/core/ChibiOS/os/hal/include/pwm.h"
 521              		.file 5 "/home/dave/r2p-sdk/core/ChibiOS/os/hal/platforms/STM32/TIMv1/pwm_lld.h"
 522              		.file 6 "/home/dave/r2p-sdk/core/ChibiOS/os/hal/platforms/STM32/TIMv1/stm32_tim.h"
 523              		.file 7 "/home/dave/r2p-sdk/core/ChibiOS/os/ports/common/ARMCMx/CMSIS/include/core_cm4.h"