ARM GAS  /tmp/ccTFbBpd.s 			page 1


   1              		.syntax unified
   2              		.cpu cortex-m4
   3              		.eabi_attribute 27, 3
   4              		.eabi_attribute 28, 1
   5              		.fpu fpv4-sp-d16
   6              		.eabi_attribute 20, 1
   7              		.eabi_attribute 21, 1
   8              		.eabi_attribute 23, 3
   9              		.eabi_attribute 24, 1
  10              		.eabi_attribute 25, 1
  11              		.eabi_attribute 26, 1
  12              		.eabi_attribute 30, 6
  13              		.eabi_attribute 34, 1
  14              		.eabi_attribute 18, 4
  15              		.thumb
  16              		.file	"qei_lld.c"
  17              		.text
  18              	.Ltext0:
  19              		.cfi_sections	.debug_frame
  20              		.global	QEID4
  21              		.section	.bss.QEID4,"aw",%nobits
  22              		.align	2
  23              		.type	QEID4, %object
  24              		.size	QEID4, 12
  25              	QEID4:
  26 0000 00000000 		.space	12
  26      00000000 
  26      00000000 
  27              		.section	.text.qei_lld_init,"ax",%progbits
  28              		.align	2
  29              		.p2align 4,,15
  30              		.global	qei_lld_init
  31              		.thumb
  32              		.thumb_func
  33              		.type	qei_lld_init, %function
  34              	qei_lld_init:
  35              	.LFB118:
  36              		.file 1 "/home/dave/r2p-sdk/modules/uDC_module/qei_lld.c"
  37              		.loc 1 116 0
  38              		.cfi_startproc
  39              		@ args = 0, pretend = 0, frame = 0
  40              		@ frame_needed = 0, uses_anonymous_args = 0
  41 0000 08B5     		push	{r3, lr}
  42              		.cfi_def_cfa_offset 8
  43              		.cfi_offset 3, -8
  44              		.cfi_offset 14, -4
  45              		.loc 1 138 0
  46 0002 0348     		ldr	r0, .L2
  47 0004 FFF7FEFF 		bl	qeiObjectInit
  48              		.loc 1 139 0
  49 0008 014B     		ldr	r3, .L2
  50 000a 024A     		ldr	r2, .L2+4
  51 000c 9A60     		str	r2, [r3, #8]
  52              		.loc 1 159 0
  53 000e 08BD     		pop	{r3, pc}
  54              	.L3:
  55              		.align	2
ARM GAS  /tmp/ccTFbBpd.s 			page 2


  56              	.L2:
  57 0010 00000000 		.word	QEID4
  58 0014 00080040 		.word	1073743872
  59              		.cfi_endproc
  60              	.LFE118:
  61              		.size	qei_lld_init, .-qei_lld_init
  62 0018 AFF30080 		.section	.text.qei_lld_start,"ax",%progbits
  62      AFF30080 
  63              		.align	2
  64              		.p2align 4,,15
  65              		.global	qei_lld_start
  66              		.thumb
  67              		.thumb_func
  68              		.type	qei_lld_start, %function
  69              	qei_lld_start:
  70              	.LFB119:
  71              		.loc 1 168 0
  72              		.cfi_startproc
  73              		@ args = 0, pretend = 0, frame = 8
  74              		@ frame_needed = 0, uses_anonymous_args = 0
  75              		@ link register save eliminated.
  76 0000 82B0     		sub	sp, sp, #8
  77              		.cfi_def_cfa_offset 8
  78 0002 0190     		str	r0, [sp, #4]
  79              		.loc 1 170 0
  80 0004 019B     		ldr	r3, [sp, #4]
  81 0006 1B78     		ldrb	r3, [r3]	@ zero_extendqisi2
  82 0008 012B     		cmp	r3, #1
  83 000a 12D1     		bne	.L5
  84              		.loc 1 191 0
  85 000c 019A     		ldr	r2, [sp, #4]
  86 000e 324B     		ldr	r3, .L15
  87 0010 9A42     		cmp	r2, r3
  88 0012 0ED1     		bne	.L5
  89              		.loc 1 192 0
  90 0014 314B     		ldr	r3, .L15+4
  91 0016 314A     		ldr	r2, .L15+4
  92 0018 D269     		ldr	r2, [r2, #28]
  93 001a 42F00402 		orr	r2, r2, #4
  94 001e DA61     		str	r2, [r3, #28]
  95              		.loc 1 193 0
  96 0020 2E4B     		ldr	r3, .L15+4
  97 0022 2E4A     		ldr	r2, .L15+4
  98 0024 1269     		ldr	r2, [r2, #16]
  99 0026 42F00402 		orr	r2, r2, #4
 100 002a 1A61     		str	r2, [r3, #16]
 101 002c 2B4B     		ldr	r3, .L15+4
 102 002e 0022     		movs	r2, #0
 103 0030 1A61     		str	r2, [r3, #16]
 104              	.L5:
 105              		.loc 1 217 0
 106 0032 019B     		ldr	r3, [sp, #4]
 107 0034 9B68     		ldr	r3, [r3, #8]
 108 0036 0022     		movs	r2, #0
 109 0038 1A60     		str	r2, [r3]
 110              		.loc 1 218 0
 111 003a 019B     		ldr	r3, [sp, #4]
ARM GAS  /tmp/ccTFbBpd.s 			page 3


 112 003c 9B68     		ldr	r3, [r3, #8]
 113 003e 0022     		movs	r2, #0
 114 0040 5A60     		str	r2, [r3, #4]
 115              		.loc 1 219 0
 116 0042 019B     		ldr	r3, [sp, #4]
 117 0044 9B68     		ldr	r3, [r3, #8]
 118 0046 0022     		movs	r2, #0
 119 0048 9A62     		str	r2, [r3, #40]
 120              		.loc 1 220 0
 121 004a 019B     		ldr	r3, [sp, #4]
 122 004c 9B68     		ldr	r3, [r3, #8]
 123 004e 0022     		movs	r2, #0
 124 0050 DA60     		str	r2, [r3, #12]
 125              		.loc 1 221 0
 126 0052 019B     		ldr	r3, [sp, #4]
 127 0054 9B68     		ldr	r3, [r3, #8]
 128 0056 4FF6FF72 		movw	r2, #65535
 129 005a DA62     		str	r2, [r3, #44]
 130              		.loc 1 224 0
 131 005c 019B     		ldr	r3, [sp, #4]
 132 005e 9A68     		ldr	r2, [r3, #8]
 133 0060 019B     		ldr	r3, [sp, #4]
 134 0062 9B68     		ldr	r3, [r3, #8]
 135 0064 9B69     		ldr	r3, [r3, #24]
 136 0066 43F48073 		orr	r3, r3, #256
 137 006a 43F00103 		orr	r3, r3, #1
 138 006e 9361     		str	r3, [r2, #24]
 139              		.loc 1 226 0
 140 0070 019B     		ldr	r3, [sp, #4]
 141 0072 5B68     		ldr	r3, [r3, #4]
 142 0074 1B78     		ldrb	r3, [r3]	@ zero_extendqisi2
 143 0076 012B     		cmp	r3, #1
 144 0078 13D0     		beq	.L7
 145 007a 022B     		cmp	r3, #2
 146 007c 16D0     		beq	.L8
 147 007e 002B     		cmp	r3, #0
 148 0080 00D0     		beq	.L9
 149              		.loc 1 246 0
 150 0082 18E0     		b	.L12
 151              	.L9:
 152              		.loc 1 228 0
 153 0084 019B     		ldr	r3, [sp, #4]
 154 0086 5B68     		ldr	r3, [r3, #4]
 155 0088 5B78     		ldrb	r3, [r3, #1]	@ zero_extendqisi2
 156 008a 012B     		cmp	r3, #1
 157 008c 04D1     		bne	.L10
 158              		.loc 1 229 0
 159 008e 019B     		ldr	r3, [sp, #4]
 160 0090 9B68     		ldr	r3, [r3, #8]
 161 0092 0322     		movs	r2, #3
 162 0094 9A60     		str	r2, [r3, #8]
 163              		.loc 1 232 0
 164 0096 0EE0     		b	.L12
 165              	.L10:
 166              		.loc 1 231 0
 167 0098 019B     		ldr	r3, [sp, #4]
 168 009a 9B68     		ldr	r3, [r3, #8]
ARM GAS  /tmp/ccTFbBpd.s 			page 4


 169 009c 0122     		movs	r2, #1
 170 009e 9A60     		str	r2, [r3, #8]
 171              		.loc 1 232 0
 172 00a0 09E0     		b	.L12
 173              	.L7:
 174              		.loc 1 236 0
 175 00a2 019B     		ldr	r3, [sp, #4]
 176 00a4 9B68     		ldr	r3, [r3, #8]
 177 00a6 0122     		movs	r2, #1
 178 00a8 9A60     		str	r2, [r3, #8]
 179              		.loc 1 237 0
 180 00aa 04E0     		b	.L12
 181              	.L8:
 182              		.loc 1 241 0
 183 00ac 019B     		ldr	r3, [sp, #4]
 184 00ae 9B68     		ldr	r3, [r3, #8]
 185 00b0 0222     		movs	r2, #2
 186 00b2 9A60     		str	r2, [r3, #8]
 187              		.loc 1 242 0
 188 00b4 00BF     		nop
 189              	.L12:
 190              		.loc 1 249 0
 191 00b6 019B     		ldr	r3, [sp, #4]
 192 00b8 5B68     		ldr	r3, [r3, #4]
 193 00ba 9B78     		ldrb	r3, [r3, #2]	@ zero_extendqisi2
 194 00bc 012B     		cmp	r3, #1
 195 00be 04D1     		bne	.L13
 196              		.loc 1 250 0
 197 00c0 019B     		ldr	r3, [sp, #4]
 198 00c2 9B68     		ldr	r3, [r3, #8]
 199 00c4 1322     		movs	r2, #19
 200 00c6 1A62     		str	r2, [r3, #32]
 201 00c8 03E0     		b	.L4
 202              	.L13:
 203              		.loc 1 252 0
 204 00ca 019B     		ldr	r3, [sp, #4]
 205 00cc 9B68     		ldr	r3, [r3, #8]
 206 00ce 1122     		movs	r2, #17
 207 00d0 1A62     		str	r2, [r3, #32]
 208              	.L4:
 209              		.loc 1 253 0
 210 00d2 02B0     		add	sp, sp, #8
 211              		@ sp needed
 212 00d4 7047     		bx	lr
 213              	.L16:
 214 00d6 00BF     		.align	2
 215              	.L15:
 216 00d8 00000000 		.word	QEID4
 217 00dc 00100240 		.word	1073876992
 218              		.cfi_endproc
 219              	.LFE119:
 220              		.size	qei_lld_start, .-qei_lld_start
 221              		.section	.text.qei_lld_stop,"ax",%progbits
 222              		.align	2
 223              		.p2align 4,,15
 224              		.global	qei_lld_stop
 225              		.thumb
ARM GAS  /tmp/ccTFbBpd.s 			page 5


 226              		.thumb_func
 227              		.type	qei_lld_stop, %function
 228              	qei_lld_stop:
 229              	.LFB120:
 230              		.loc 1 262 0
 231              		.cfi_startproc
 232              		@ args = 0, pretend = 0, frame = 8
 233              		@ frame_needed = 0, uses_anonymous_args = 0
 234              		@ link register save eliminated.
 235 0000 82B0     		sub	sp, sp, #8
 236              		.cfi_def_cfa_offset 8
 237 0002 0190     		str	r0, [sp, #4]
 238              		.loc 1 264 0
 239 0004 019B     		ldr	r3, [sp, #4]
 240 0006 1B78     		ldrb	r3, [r3]	@ zero_extendqisi2
 241 0008 022B     		cmp	r3, #2
 242 000a 0DD1     		bne	.L17
 243              		.loc 1 265 0
 244 000c 019B     		ldr	r3, [sp, #4]
 245 000e 9B68     		ldr	r3, [r3, #8]
 246 0010 0022     		movs	r2, #0
 247 0012 1A60     		str	r2, [r3]
 248              		.loc 1 284 0
 249 0014 019A     		ldr	r2, [sp, #4]
 250 0016 054B     		ldr	r3, .L19
 251 0018 9A42     		cmp	r2, r3
 252 001a 05D1     		bne	.L17
 253              		.loc 1 285 0
 254 001c 044B     		ldr	r3, .L19+4
 255 001e 044A     		ldr	r2, .L19+4
 256 0020 D269     		ldr	r2, [r2, #28]
 257 0022 22F00402 		bic	r2, r2, #4
 258 0026 DA61     		str	r2, [r3, #28]
 259              	.L17:
 260              		.loc 1 304 0
 261 0028 02B0     		add	sp, sp, #8
 262              		@ sp needed
 263 002a 7047     		bx	lr
 264              	.L20:
 265              		.align	2
 266              	.L19:
 267 002c 00000000 		.word	QEID4
 268 0030 00100240 		.word	1073876992
 269              		.cfi_endproc
 270              	.LFE120:
 271              		.size	qei_lld_stop, .-qei_lld_stop
 272 0034 AFF30080 		.section	.text.qei_lld_enable,"ax",%progbits
 272      AFF30080 
 272      AFF30080 
 273              		.align	2
 274              		.p2align 4,,15
 275              		.global	qei_lld_enable
 276              		.thumb
 277              		.thumb_func
 278              		.type	qei_lld_enable, %function
 279              	qei_lld_enable:
 280              	.LFB121:
ARM GAS  /tmp/ccTFbBpd.s 			page 6


 281              		.loc 1 313 0
 282              		.cfi_startproc
 283              		@ args = 0, pretend = 0, frame = 8
 284              		@ frame_needed = 0, uses_anonymous_args = 0
 285              		@ link register save eliminated.
 286 0000 82B0     		sub	sp, sp, #8
 287              		.cfi_def_cfa_offset 8
 288 0002 0190     		str	r0, [sp, #4]
 289              		.loc 1 315 0
 290 0004 019B     		ldr	r3, [sp, #4]
 291 0006 9B68     		ldr	r3, [r3, #8]
 292 0008 0122     		movs	r2, #1
 293 000a 1A60     		str	r2, [r3]
 294              		.loc 1 316 0
 295 000c 02B0     		add	sp, sp, #8
 296              		@ sp needed
 297 000e 7047     		bx	lr
 298              		.cfi_endproc
 299              	.LFE121:
 300              		.size	qei_lld_enable, .-qei_lld_enable
 301              		.section	.text.qei_lld_disable,"ax",%progbits
 302              		.align	2
 303              		.p2align 4,,15
 304              		.global	qei_lld_disable
 305              		.thumb
 306              		.thumb_func
 307              		.type	qei_lld_disable, %function
 308              	qei_lld_disable:
 309              	.LFB122:
 310              		.loc 1 325 0
 311              		.cfi_startproc
 312              		@ args = 0, pretend = 0, frame = 8
 313              		@ frame_needed = 0, uses_anonymous_args = 0
 314              		@ link register save eliminated.
 315 0000 82B0     		sub	sp, sp, #8
 316              		.cfi_def_cfa_offset 8
 317 0002 0190     		str	r0, [sp, #4]
 318              		.loc 1 327 0
 319 0004 019B     		ldr	r3, [sp, #4]
 320 0006 9B68     		ldr	r3, [r3, #8]
 321 0008 0022     		movs	r2, #0
 322 000a 1A60     		str	r2, [r3]
 323              		.loc 1 328 0
 324 000c 02B0     		add	sp, sp, #8
 325              		@ sp needed
 326 000e 7047     		bx	lr
 327              		.cfi_endproc
 328              	.LFE122:
 329              		.size	qei_lld_disable, .-qei_lld_disable
 330              		.text
 331              	.Letext0:
 332              		.file 2 "/usr/include/newlib/machine/_default_types.h"
 333              		.file 3 "/usr/include/newlib/stdint.h"
 334              		.file 4 "/home/dave/r2p-sdk/core/ChibiOS/os/hal/platforms/STM32F30x/stm32f30x.h"
 335              		.file 5 "/home/dave/r2p-sdk/core/ChibiOS/os/hal/platforms/STM32/TIMv1/stm32_tim.h"
 336              		.file 6 "/home/dave/r2p-sdk/modules/uDC_module/qei.h"
 337              		.file 7 "/home/dave/r2p-sdk/modules/uDC_module/qei_lld.h"
ARM GAS  /tmp/ccTFbBpd.s 			page 7


 338              		.file 8 "/home/dave/r2p-sdk/core/ChibiOS/os/ports/common/ARMCMx/CMSIS/include/core_cm4.h"