ARM GAS  /tmp/ccX3MC25.s 			page 1


   1              		.syntax unified
   2              		.cpu cortex-m4
   3              		.eabi_attribute 27, 3
   4              		.eabi_attribute 28, 1
   5              		.fpu fpv4-sp-d16
   6              		.eabi_attribute 20, 1
   7              		.eabi_attribute 21, 1
   8              		.eabi_attribute 23, 3
   9              		.eabi_attribute 24, 1
  10              		.eabi_attribute 25, 1
  11              		.eabi_attribute 26, 1
  12              		.eabi_attribute 30, 6
  13              		.eabi_attribute 34, 1
  14              		.eabi_attribute 18, 4
  15              		.thumb
  16              		.file	"RTCANSubscriber.cpp"
  17              		.text
  18              	.Ltext0:
  19              		.cfi_sections	.debug_frame
  20              		.section	.text._ZN3r2p8SysLock_7acquireEv,"axG",%progbits,_ZN3r2p8SysLock_7acquireEv,comdat
  21              		.align	2
  22              		.p2align 4,,15
  23              		.weak	_ZN3r2p8SysLock_7acquireEv
  24              		.thumb
  25              		.thumb_func
  26              		.type	_ZN3r2p8SysLock_7acquireEv, %function
  27              	_ZN3r2p8SysLock_7acquireEv:
  28              	.LFB18:
  29              		.file 1 "/home/dave/r2p-sdk/core/Middleware/port/chibios/include/r2p/impl/SysLock_.hpp"
  30              		.loc 1 20 0
  31              		.cfi_startproc
  32              		@ args = 0, pretend = 0, frame = 0
  33              		@ frame_needed = 0, uses_anonymous_args = 0
  34 0000 08B5     		push	{r3, lr}
  35              		.cfi_def_cfa_offset 8
  36              		.cfi_offset 3, -8
  37              		.cfi_offset 14, -4
  38              	.LBB2:
  39              	.LBB3:
  40              	.LBB4:
  41              		.loc 1 22 0
  42 0002 2023     		movs	r3, #32
  43              	@ 22 "/home/dave/r2p-sdk/core/Middleware/port/chibios/include/r2p/impl/SysLock_.hpp" 1
  44 0004 83F31188 		msr     BASEPRI, r3
  45              	@ 0 "" 2
  46              		.thumb
  47              	.LBE4:
  48 0008 FFF7FEFF 		bl	dbg_check_lock
  49              	.LBE3:
  50              	.LBE2:
  51              		.loc 1 23 0
  52 000c 08BD     		pop	{r3, pc}
  53              		.cfi_endproc
  54              	.LFE18:
  55              		.size	_ZN3r2p8SysLock_7acquireEv, .-_ZN3r2p8SysLock_7acquireEv
  56 000e 00BF     		.section	.text._ZN3r2p8SysLock_7releaseEv,"axG",%progbits,_ZN3r2p8SysLock_7releaseEv,comdat
  57              		.align	2
ARM GAS  /tmp/ccX3MC25.s 			page 2


  58              		.p2align 4,,15
  59              		.weak	_ZN3r2p8SysLock_7releaseEv
  60              		.thumb
  61              		.thumb_func
  62              		.type	_ZN3r2p8SysLock_7releaseEv, %function
  63              	_ZN3r2p8SysLock_7releaseEv:
  64              	.LFB19:
  65              		.loc 1 27 0
  66              		.cfi_startproc
  67              		@ args = 0, pretend = 0, frame = 0
  68              		@ frame_needed = 0, uses_anonymous_args = 0
  69 0000 08B5     		push	{r3, lr}
  70              		.cfi_def_cfa_offset 8
  71              		.cfi_offset 3, -8
  72              		.cfi_offset 14, -4
  73              	.LBB5:
  74              	.LBB6:
  75              		.loc 1 29 0
  76 0002 FFF7FEFF 		bl	dbg_check_unlock
  77              	.LBB7:
  78 0006 0023     		movs	r3, #0
  79              	@ 29 "/home/dave/r2p-sdk/core/Middleware/port/chibios/include/r2p/impl/SysLock_.hpp" 1
  80 0008 83F31188 		msr     BASEPRI, r3
  81              	@ 0 "" 2
  82              		.thumb
  83              	.LBE7:
  84              	.LBE6:
  85              	.LBE5:
  86              		.loc 1 30 0
  87 000c 08BD     		pop	{r3, pc}
  88              		.cfi_endproc
  89              	.LFE19:
  90              		.size	_ZN3r2p8SysLock_7releaseEv, .-_ZN3r2p8SysLock_7releaseEv
  91 000e 00BF     		.section	.text._ZN3r2p7SysLock7acquireEv,"axG",%progbits,_ZN3r2p7SysLock7acquireEv,comdat
  92              		.align	2
  93              		.p2align 4,,15
  94              		.weak	_ZN3r2p7SysLock7acquireEv
  95              		.thumb
  96              		.thumb_func
  97              		.type	_ZN3r2p7SysLock7acquireEv, %function
  98              	_ZN3r2p7SysLock7acquireEv:
  99              	.LFB26:
 100              		.file 2 "/home/dave/r2p-sdk/core/Middleware/include/r2p/SysLock.hpp"
 101              		.loc 2 27 0
 102              		.cfi_startproc
 103              		@ args = 0, pretend = 0, frame = 0
 104              		@ frame_needed = 0, uses_anonymous_args = 0
 105 0000 08B5     		push	{r3, lr}
 106              		.cfi_def_cfa_offset 8
 107              		.cfi_offset 3, -8
 108              		.cfi_offset 14, -4
 109              		.loc 2 29 0
 110 0002 FFF7FEFF 		bl	_ZN3r2p8SysLock_7acquireEv
 111              		.loc 2 30 0
 112 0006 08BD     		pop	{r3, pc}
 113              		.cfi_endproc
 114              	.LFE26:
ARM GAS  /tmp/ccX3MC25.s 			page 3


 115              		.size	_ZN3r2p7SysLock7acquireEv, .-_ZN3r2p7SysLock7acquireEv
 116 0008 AFF30080 		.section	.text._ZN3r2p7SysLock7releaseEv,"axG",%progbits,_ZN3r2p7SysLock7releaseEv,comdat
 116      AFF30080 
 117              		.align	2
 118              		.p2align 4,,15
 119              		.weak	_ZN3r2p7SysLock7releaseEv
 120              		.thumb
 121              		.thumb_func
 122              		.type	_ZN3r2p7SysLock7releaseEv, %function
 123              	_ZN3r2p7SysLock7releaseEv:
 124              	.LFB27:
 125              		.loc 2 34 0
 126              		.cfi_startproc
 127              		@ args = 0, pretend = 0, frame = 0
 128              		@ frame_needed = 0, uses_anonymous_args = 0
 129 0000 08B5     		push	{r3, lr}
 130              		.cfi_def_cfa_offset 8
 131              		.cfi_offset 3, -8
 132              		.cfi_offset 14, -4
 133              		.loc 2 36 0
 134 0002 FFF7FEFF 		bl	_ZN3r2p8SysLock_7releaseEv
 135              		.loc 2 37 0
 136 0006 08BD     		pop	{r3, pc}
 137              		.cfi_endproc
 138              	.LFE27:
 139              		.size	_ZN3r2p7SysLock7releaseEv, .-_ZN3r2p7SysLock7releaseEv
 140 0008 AFF30080 		.section	.text._ZNK3r2p16RemoteSubscriber13get_transportEv,"axG",%progbits,_ZNK3r2p16RemoteSubscri
 140      AFF30080 
 141              		.align	2
 142              		.p2align 4,,15
 143              		.weak	_ZNK3r2p16RemoteSubscriber13get_transportEv
 144              		.thumb
 145              		.thumb_func
 146              		.type	_ZNK3r2p16RemoteSubscriber13get_transportEv, %function
 147              	_ZNK3r2p16RemoteSubscriber13get_transportEv:
 148              	.LFB165:
 149              		.file 3 "/home/dave/r2p-sdk/core/Middleware/include/r2p/RemoteSubscriber.hpp"
 150              		.loc 3 31 0
 151              		.cfi_startproc
 152              		@ args = 0, pretend = 0, frame = 8
 153              		@ frame_needed = 0, uses_anonymous_args = 0
 154              		@ link register save eliminated.
 155 0000 82B0     		sub	sp, sp, #8
 156              		.cfi_def_cfa_offset 8
 157 0002 0190     		str	r0, [sp, #4]
 158              		.loc 3 33 0
 159 0004 019B     		ldr	r3, [sp, #4]
 160 0006 9B68     		ldr	r3, [r3, #8]
 161              		.loc 3 34 0
 162 0008 1846     		mov	r0, r3
 163 000a 02B0     		add	sp, sp, #8
 164              		@ sp needed
 165 000c 7047     		bx	lr
 166              		.cfi_endproc
 167              	.LFE165:
 168              		.size	_ZNK3r2p16RemoteSubscriber13get_transportEv, .-_ZNK3r2p16RemoteSubscriber13get_transportEv
 169 000e 00BF     		.section	.text._ZN3r2p15RTCANSubscriber6notifyERNS_7MessageERKNS_4TimeE,"axG",%progbits,_ZN3r2p15R
ARM GAS  /tmp/ccX3MC25.s 			page 4


 170              		.align	2
 171              		.p2align 4,,15
 172              		.weak	_ZN3r2p15RTCANSubscriber6notifyERNS_7MessageERKNS_4TimeE
 173              		.thumb
 174              		.thumb_func
 175              		.type	_ZN3r2p15RTCANSubscriber6notifyERNS_7MessageERKNS_4TimeE, %function
 176              	_ZN3r2p15RTCANSubscriber6notifyERNS_7MessageERKNS_4TimeE:
 177              	.LFB363:
 178              		.file 4 "/home/dave/r2p-sdk/core/Middleware/include/r2p/transport/RTCANSubscriber.hpp"
 179              		.loc 4 41 0
 180              		.cfi_startproc
 181              		@ args = 0, pretend = 0, frame = 24
 182              		@ frame_needed = 0, uses_anonymous_args = 0
 183 0000 00B5     		push	{lr}
 184              		.cfi_def_cfa_offset 4
 185              		.cfi_offset 14, -4
 186 0002 87B0     		sub	sp, sp, #28
 187              		.cfi_def_cfa_offset 32
 188 0004 0390     		str	r0, [sp, #12]
 189 0006 0291     		str	r1, [sp, #8]
 190 0008 0192     		str	r2, [sp, #4]
 191              	.LBB8:
 192              		.loc 4 43 0
 193 000a FFF7FEFF 		bl	_ZN3r2p7SysLock7acquireEv
 194              		.loc 4 44 0
 195 000e 039B     		ldr	r3, [sp, #12]
 196 0010 1B68     		ldr	r3, [r3]
 197 0012 0433     		adds	r3, r3, #4
 198 0014 1B68     		ldr	r3, [r3]
 199 0016 0398     		ldr	r0, [sp, #12]
 200 0018 0299     		ldr	r1, [sp, #8]
 201 001a 019A     		ldr	r2, [sp, #4]
 202 001c 9847     		blx	r3
 203 001e 0346     		mov	r3, r0
 204 0020 8DF81730 		strb	r3, [sp, #23]
 205              		.loc 4 45 0
 206 0024 FFF7FEFF 		bl	_ZN3r2p7SysLock7releaseEv
 207              		.loc 4 46 0
 208 0028 9DF81730 		ldrb	r3, [sp, #23]	@ zero_extendqisi2
 209              	.LBE8:
 210              		.loc 4 47 0
 211 002c 1846     		mov	r0, r3
 212 002e 07B0     		add	sp, sp, #28
 213              		@ sp needed
 214 0030 5DF804FB 		ldr	pc, [sp], #4
 215              		.cfi_endproc
 216              	.LFE363:
 217              		.size	_ZN3r2p15RTCANSubscriber6notifyERNS_7MessageERKNS_4TimeE, .-_ZN3r2p15RTCANSubscriber6notifyE
 218 0034 AFF30080 		.section	.text._ZN3r2p15RTCANSubscriber5fetchERPNS_7MessageERNS_4TimeE,"axG",%progbits,_ZN3r2p15RT
 218      AFF30080 
 218      AFF30080 
 219              		.align	2
 220              		.p2align 4,,15
 221              		.weak	_ZN3r2p15RTCANSubscriber5fetchERPNS_7MessageERNS_4TimeE
 222              		.thumb
 223              		.thumb_func
 224              		.type	_ZN3r2p15RTCANSubscriber5fetchERPNS_7MessageERNS_4TimeE, %function
ARM GAS  /tmp/ccX3MC25.s 			page 5


 225              	_ZN3r2p15RTCANSubscriber5fetchERPNS_7MessageERNS_4TimeE:
 226              	.LFB364:
 227              		.loc 4 51 0
 228              		.cfi_startproc
 229              		@ args = 0, pretend = 0, frame = 24
 230              		@ frame_needed = 0, uses_anonymous_args = 0
 231 0000 00B5     		push	{lr}
 232              		.cfi_def_cfa_offset 4
 233              		.cfi_offset 14, -4
 234 0002 87B0     		sub	sp, sp, #28
 235              		.cfi_def_cfa_offset 32
 236 0004 0390     		str	r0, [sp, #12]
 237 0006 0291     		str	r1, [sp, #8]
 238 0008 0192     		str	r2, [sp, #4]
 239              	.LBB9:
 240              		.loc 4 53 0
 241 000a FFF7FEFF 		bl	_ZN3r2p7SysLock7acquireEv
 242              		.loc 4 54 0
 243 000e 039B     		ldr	r3, [sp, #12]
 244 0010 1B68     		ldr	r3, [r3]
 245 0012 0833     		adds	r3, r3, #8
 246 0014 1B68     		ldr	r3, [r3]
 247 0016 0398     		ldr	r0, [sp, #12]
 248 0018 0299     		ldr	r1, [sp, #8]
 249 001a 019A     		ldr	r2, [sp, #4]
 250 001c 9847     		blx	r3
 251 001e 0346     		mov	r3, r0
 252 0020 8DF81730 		strb	r3, [sp, #23]
 253              		.loc 4 55 0
 254 0024 FFF7FEFF 		bl	_ZN3r2p7SysLock7releaseEv
 255              		.loc 4 56 0
 256 0028 9DF81730 		ldrb	r3, [sp, #23]	@ zero_extendqisi2
 257              	.LBE9:
 258              		.loc 4 57 0
 259 002c 1846     		mov	r0, r3
 260 002e 07B0     		add	sp, sp, #28
 261              		@ sp needed
 262 0030 5DF804FB 		ldr	pc, [sp], #4
 263              		.cfi_endproc
 264              	.LFE364:
 265              		.size	_ZN3r2p15RTCANSubscriber5fetchERPNS_7MessageERNS_4TimeE, .-_ZN3r2p15RTCANSubscriber5fetchERP
 266              		.section	.text._ZN3r2p15RTCANSubscriber12fetch_unsafeERPNS_7MessageERNS_4TimeE,"ax",%progbits
 267              		.align	2
 268              		.p2align 4,,15
 269              		.global	_ZN3r2p15RTCANSubscriber12fetch_unsafeERPNS_7MessageERNS_4TimeE
 270              		.thumb
 271              		.thumb_func
 272              		.type	_ZN3r2p15RTCANSubscriber12fetch_unsafeERPNS_7MessageERNS_4TimeE, %function
 273              	_ZN3r2p15RTCANSubscriber12fetch_unsafeERPNS_7MessageERNS_4TimeE:
 274              	.LFB555:
 275              		.file 5 "/home/dave/r2p-sdk/core/Middleware/src/transport/RTCANSubscriber.cpp"
 276              		.loc 5 8 0
 277              		.cfi_startproc
 278              		@ args = 0, pretend = 0, frame = 16
 279              		@ frame_needed = 0, uses_anonymous_args = 0
 280              		@ link register save eliminated.
 281 0000 84B0     		sub	sp, sp, #16
ARM GAS  /tmp/ccX3MC25.s 			page 6


 282              		.cfi_def_cfa_offset 16
 283 0002 0390     		str	r0, [sp, #12]
 284 0004 0291     		str	r1, [sp, #8]
 285 0006 0192     		str	r2, [sp, #4]
 286              		.loc 5 19 0
 287 0008 0023     		movs	r3, #0
 288              		.loc 5 20 0
 289 000a 1846     		mov	r0, r3
 290 000c 04B0     		add	sp, sp, #16
 291              		@ sp needed
 292 000e 7047     		bx	lr
 293              		.cfi_endproc
 294              	.LFE555:
 295              		.size	_ZN3r2p15RTCANSubscriber12fetch_unsafeERPNS_7MessageERNS_4TimeE, .-_ZN3r2p15RTCANSubscriber1
 296              		.section	.text._ZN3r2p15RTCANSubscriber13notify_unsafeERNS_7MessageERKNS_4TimeE,"ax",%progbits
 297              		.align	2
 298              		.p2align 4,,15
 299              		.global	_ZN3r2p15RTCANSubscriber13notify_unsafeERNS_7MessageERKNS_4TimeE
 300              		.thumb
 301              		.thumb_func
 302              		.type	_ZN3r2p15RTCANSubscriber13notify_unsafeERNS_7MessageERKNS_4TimeE, %function
 303              	_ZN3r2p15RTCANSubscriber13notify_unsafeERNS_7MessageERKNS_4TimeE:
 304              	.LFB556:
 305              		.loc 5 26 0
 306              		.cfi_startproc
 307              		@ args = 0, pretend = 0, frame = 24
 308              		@ frame_needed = 0, uses_anonymous_args = 0
 309 0000 00B5     		push	{lr}
 310              		.cfi_def_cfa_offset 4
 311              		.cfi_offset 14, -4
 312 0002 87B0     		sub	sp, sp, #28
 313              		.cfi_def_cfa_offset 32
 314 0004 0390     		str	r0, [sp, #12]
 315 0006 0291     		str	r1, [sp, #8]
 316 0008 0192     		str	r2, [sp, #4]
 317              	.LBB10:
 318              		.loc 5 27 0
 319 000a 039B     		ldr	r3, [sp, #12]
 320 000c 1846     		mov	r0, r3
 321 000e FFF7FEFF 		bl	_ZNK3r2p16RemoteSubscriber13get_transportEv
 322 0012 0590     		str	r0, [sp, #20]
 323              		.loc 5 30 0
 324 0014 0598     		ldr	r0, [sp, #20]
 325 0016 0299     		ldr	r1, [sp, #8]
 326 0018 039A     		ldr	r2, [sp, #12]
 327 001a FFF7FEFF 		bl	_ZN3r2p14RTCANTransport4sendEPNS_7MessageEPNS_15RTCANSubscriberE
 328 001e 0346     		mov	r3, r0
 329 0020 002B     		cmp	r3, #0
 330 0022 01D0     		beq	.L14
 331              		.loc 5 30 0 is_stmt 0 discriminator 1
 332 0024 0123     		movs	r3, #1
 333 0026 00E0     		b	.L15
 334              	.L14:
 335              		.loc 5 32 0 is_stmt 1
 336 0028 0023     		movs	r3, #0
 337              	.L15:
 338              	.LBE10:
ARM GAS  /tmp/ccX3MC25.s 			page 7


 339              		.loc 5 33 0
 340 002a 1846     		mov	r0, r3
 341 002c 07B0     		add	sp, sp, #28
 342              		@ sp needed
 343 002e 5DF804FB 		ldr	pc, [sp], #4
 344              		.cfi_endproc
 345              	.LFE556:
 346              		.size	_ZN3r2p15RTCANSubscriber13notify_unsafeERNS_7MessageERKNS_4TimeE, .-_ZN3r2p15RTCANSubscriber
 347 0032 00BFAFF3 		.section	.text._ZNK3r2p15RTCANSubscriber16get_queue_lengthEv,"ax",%progbits
 347      0080AFF3 
 347      0080AFF3 
 347      0080
 348              		.align	2
 349              		.p2align 4,,15
 350              		.global	_ZNK3r2p15RTCANSubscriber16get_queue_lengthEv
 351              		.thumb
 352              		.thumb_func
 353              		.type	_ZNK3r2p15RTCANSubscriber16get_queue_lengthEv, %function
 354              	_ZNK3r2p15RTCANSubscriber16get_queue_lengthEv:
 355              	.LFB557:
 356              		.loc 5 36 0
 357              		.cfi_startproc
 358              		@ args = 0, pretend = 0, frame = 8
 359              		@ frame_needed = 0, uses_anonymous_args = 0
 360              		@ link register save eliminated.
 361 0000 82B0     		sub	sp, sp, #8
 362              		.cfi_def_cfa_offset 8
 363 0002 0190     		str	r0, [sp, #4]
 364              		.loc 5 37 0
 365 0004 0023     		movs	r3, #0
 366              		.loc 5 38 0
 367 0006 1846     		mov	r0, r3
 368 0008 02B0     		add	sp, sp, #8
 369              		@ sp needed
 370 000a 7047     		bx	lr
 371              		.cfi_endproc
 372              	.LFE557:
 373              		.size	_ZNK3r2p15RTCANSubscriber16get_queue_lengthEv, .-_ZNK3r2p15RTCANSubscriber16get_queue_length
 374 000c AFF30080 		.section	.text._ZN3r2p15RTCANSubscriberC2ERNS_14RTCANTransportEPNS_22TimestampedMsgPtrQueue5EntryE
 375              		.align	2
 376              		.p2align 4,,15
 377              		.global	_ZN3r2p15RTCANSubscriberC2ERNS_14RTCANTransportEPNS_22TimestampedMsgPtrQueue5EntryEj
 378              		.thumb
 379              		.thumb_func
 380              		.type	_ZN3r2p15RTCANSubscriberC2ERNS_14RTCANTransportEPNS_22TimestampedMsgPtrQueue5EntryEj, %funct
 381              	_ZN3r2p15RTCANSubscriberC2ERNS_14RTCANTransportEPNS_22TimestampedMsgPtrQueue5EntryEj:
 382              	.LFB559:
 383              		.loc 5 40 0
 384              		.cfi_startproc
 385              		@ args = 0, pretend = 0, frame = 16
 386              		@ frame_needed = 0, uses_anonymous_args = 0
 387 0000 00B5     		push	{lr}
 388              		.cfi_def_cfa_offset 4
 389              		.cfi_offset 14, -4
 390 0002 85B0     		sub	sp, sp, #20
 391              		.cfi_def_cfa_offset 24
 392 0004 0390     		str	r0, [sp, #12]
ARM GAS  /tmp/ccX3MC25.s 			page 8


 393 0006 0291     		str	r1, [sp, #8]
 394 0008 0192     		str	r2, [sp, #4]
 395 000a 0093     		str	r3, [sp]
 396              	.LBB11:
 397              		.loc 5 44 0
 398 000c 039A     		ldr	r2, [sp, #12]
 399 000e 029B     		ldr	r3, [sp, #8]
 400 0010 1046     		mov	r0, r2
 401 0012 1946     		mov	r1, r3
 402 0014 FFF7FEFF 		bl	_ZN3r2p16RemoteSubscriberC2ERNS_9TransportE
 403 0018 039B     		ldr	r3, [sp, #12]
 404 001a 034A     		ldr	r2, .L21
 405 001c 1A60     		str	r2, [r3]
 406              	.LBE11:
 407              		.loc 5 48 0
 408 001e 039B     		ldr	r3, [sp, #12]
 409 0020 1846     		mov	r0, r3
 410 0022 05B0     		add	sp, sp, #20
 411              		@ sp needed
 412 0024 5DF804FB 		ldr	pc, [sp], #4
 413              	.L22:
 414              		.align	2
 415              	.L21:
 416 0028 08000000 		.word	_ZTVN3r2p15RTCANSubscriberE+8
 417              		.cfi_endproc
 418              	.LFE559:
 419              		.size	_ZN3r2p15RTCANSubscriberC2ERNS_14RTCANTransportEPNS_22TimestampedMsgPtrQueue5EntryEj, .-_ZN3
 420              		.global	_ZN3r2p15RTCANSubscriberC1ERNS_14RTCANTransportEPNS_22TimestampedMsgPtrQueue5EntryEj
 421              		.thumb_set _ZN3r2p15RTCANSubscriberC1ERNS_14RTCANTransportEPNS_22TimestampedMsgPtrQueue5EntryEj,_Z
 422 002c AFF30080 		.section	.text._ZN3r2p15RTCANSubscriberD2Ev,"ax",%progbits
 423              		.align	2
 424              		.p2align 4,,15
 425              		.global	_ZN3r2p15RTCANSubscriberD2Ev
 426              		.thumb
 427              		.thumb_func
 428              		.type	_ZN3r2p15RTCANSubscriberD2Ev, %function
 429              	_ZN3r2p15RTCANSubscriberD2Ev:
 430              	.LFB562:
 431              		.loc 5 51 0
 432              		.cfi_startproc
 433              		@ args = 0, pretend = 0, frame = 8
 434              		@ frame_needed = 0, uses_anonymous_args = 0
 435 0000 00B5     		push	{lr}
 436              		.cfi_def_cfa_offset 4
 437              		.cfi_offset 14, -4
 438 0002 83B0     		sub	sp, sp, #12
 439              		.cfi_def_cfa_offset 16
 440 0004 0190     		str	r0, [sp, #4]
 441              	.LBB12:
 442              		.loc 5 51 0
 443 0006 019B     		ldr	r3, [sp, #4]
 444 0008 084A     		ldr	r2, .L27
 445 000a 1A60     		str	r2, [r3]
 446 000c 019B     		ldr	r3, [sp, #4]
 447 000e 1846     		mov	r0, r3
 448 0010 FFF7FEFF 		bl	_ZN3r2p16RemoteSubscriberD2Ev
 449              	.LBE12:
ARM GAS  /tmp/ccX3MC25.s 			page 9


 450 0014 0023     		movs	r3, #0
 451 0016 002B     		cmp	r3, #0
 452 0018 02D0     		beq	.L25
 453              		.loc 5 51 0 is_stmt 0 discriminator 1
 454 001a 0198     		ldr	r0, [sp, #4]
 455 001c FFF7FEFF 		bl	_ZdlPv
 456              	.L25:
 457              		.loc 5 51 0 discriminator 2
 458 0020 019B     		ldr	r3, [sp, #4]
 459 0022 1846     		mov	r0, r3
 460 0024 03B0     		add	sp, sp, #12
 461              		@ sp needed
 462 0026 5DF804FB 		ldr	pc, [sp], #4
 463              	.L28:
 464 002a 00BF     		.align	2
 465              	.L27:
 466 002c 08000000 		.word	_ZTVN3r2p15RTCANSubscriberE+8
 467              		.cfi_endproc
 468              	.LFE562:
 469              		.size	_ZN3r2p15RTCANSubscriberD2Ev, .-_ZN3r2p15RTCANSubscriberD2Ev
 470              		.global	_ZN3r2p15RTCANSubscriberD1Ev
 471              		.thumb_set _ZN3r2p15RTCANSubscriberD1Ev,_ZN3r2p15RTCANSubscriberD2Ev
 472              		.section	.text._ZN3r2p15RTCANSubscriberD0Ev,"ax",%progbits
 473              		.align	2
 474              		.p2align 4,,15
 475              		.global	_ZN3r2p15RTCANSubscriberD0Ev
 476              		.thumb
 477              		.thumb_func
 478              		.type	_ZN3r2p15RTCANSubscriberD0Ev, %function
 479              	_ZN3r2p15RTCANSubscriberD0Ev:
 480              	.LFB564:
 481              		.loc 5 51 0 is_stmt 1
 482              		.cfi_startproc
 483              		@ args = 0, pretend = 0, frame = 8
 484              		@ frame_needed = 0, uses_anonymous_args = 0
 485 0000 00B5     		push	{lr}
 486              		.cfi_def_cfa_offset 4
 487              		.cfi_offset 14, -4
 488 0002 83B0     		sub	sp, sp, #12
 489              		.cfi_def_cfa_offset 16
 490 0004 0190     		str	r0, [sp, #4]
 491              		.loc 5 51 0
 492 0006 0198     		ldr	r0, [sp, #4]
 493 0008 FFF7FEFF 		bl	_ZN3r2p15RTCANSubscriberD1Ev
 494 000c 0198     		ldr	r0, [sp, #4]
 495 000e FFF7FEFF 		bl	_ZdlPv
 496 0012 019B     		ldr	r3, [sp, #4]
 497 0014 1846     		mov	r0, r3
 498 0016 03B0     		add	sp, sp, #12
 499              		@ sp needed
 500 0018 5DF804FB 		ldr	pc, [sp], #4
 501              		.cfi_endproc
 502              	.LFE564:
 503              		.size	_ZN3r2p15RTCANSubscriberD0Ev, .-_ZN3r2p15RTCANSubscriberD0Ev
 504              		.global	_ZTVN3r2p15RTCANSubscriberE
 505 001c AFF30080 		.section	.rodata._ZTVN3r2p15RTCANSubscriberE,"a",%progbits
 506              		.align	3
ARM GAS  /tmp/ccX3MC25.s 			page 10


 507              		.type	_ZTVN3r2p15RTCANSubscriberE, %object
 508              		.size	_ZTVN3r2p15RTCANSubscriberE, 36
 509              	_ZTVN3r2p15RTCANSubscriberE:
 510 0000 00000000 		.word	0
 511 0004 00000000 		.word	0
 512 0008 00000000 		.word	_ZNK3r2p15RTCANSubscriber16get_queue_lengthEv
 513 000c 00000000 		.word	_ZN3r2p15RTCANSubscriber13notify_unsafeERNS_7MessageERKNS_4TimeE
 514 0010 00000000 		.word	_ZN3r2p15RTCANSubscriber12fetch_unsafeERPNS_7MessageERNS_4TimeE
 515 0014 00000000 		.word	_ZN3r2p15RTCANSubscriber6notifyERNS_7MessageERKNS_4TimeE
 516 0018 00000000 		.word	_ZN3r2p15RTCANSubscriber5fetchERPNS_7MessageERNS_4TimeE
 517 001c 00000000 		.word	_ZN3r2p15RTCANSubscriberD1Ev
 518 0020 00000000 		.word	_ZN3r2p15RTCANSubscriberD0Ev
 519 0024 00000000 		.text
 520              	.Letext0:
 521              		.file 6 "/usr/lib/gcc/arm-none-eabi/4.8/include/stddef.h"
 522              		.file 7 "/usr/include/newlib/machine/_default_types.h"
 523              		.file 8 "/usr/include/newlib/c++/4.8/cstring"
 524              		.file 9 "/usr/include/newlib/string.h"
 525              		.file 10 "<built-in>"
 526              		.file 11 "/home/dave/r2p-sdk/core/Middleware/include/r2p/Uncopyable.hpp"
 527              		.file 12 "/home/dave/r2p-sdk/core/Middleware/include/r2p/Message.hpp"
 528              		.file 13 "/home/dave/r2p-sdk/core/Middleware/port/chibios/include/r2p/impl/MemoryPool_.hpp"
 529              		.file 14 "/home/dave/r2p-sdk/core/Middleware/include/r2p/StaticList.hpp"
 530              		.file 15 "/home/dave/r2p-sdk/core/Middleware/include/r2p/Time.hpp"
 531              		.file 16 "/home/dave/r2p-sdk/core/Middleware/include/r2p/TimestampedMsgPtrQueue.hpp"
 532              		.file 17 "/home/dave/r2p-sdk/core/Middleware/include/r2p/ArrayQueue.hpp"
 533              		.file 18 "/home/dave/r2p-sdk/core/Middleware/include/r2p/Topic.hpp"
 534              		.file 19 "/home/dave/r2p-sdk/core/Middleware/include/r2p/BaseSubscriber.hpp"
 535              		.file 20 "/usr/include/newlib/stdint.h"
 536              		.file 21 "/home/dave/r2p-sdk/core/ChibiOS/os/ports/GCC/ARMCMx/chtypes.h"
 537              		.file 22 "/home/dave/r2p-sdk/core/ChibiOS/os/kernel/include/chlists.h"
 538              		.file 23 "/home/dave/r2p-sdk/core/ChibiOS/os/kernel/include/chthreads.h"
 539              		.file 24 "/home/dave/r2p-sdk/core/ChibiOS/os/ports/GCC/ARMCMx/chcore_v7m.h"
 540              		.file 25 "/home/dave/r2p-sdk/core/ChibiOS/os/kernel/include/chschd.h"
 541              		.file 26 "/home/dave/r2p-sdk/core/ChibiOS/os/kernel/include/chmtx.h"
 542              		.file 27 "/home/dave/r2p-sdk/core/ChibiOS/os/kernel/include/chmemcore.h"
 543              		.file 28 "/home/dave/r2p-sdk/core/ChibiOS/os/kernel/include/chmempools.h"
 544              		.file 29 "/home/dave/r2p-sdk/core/RTCAN/include/rtcan.h"
 545              		.file 30 "/home/dave/r2p-sdk/core/ChibiOS/os/ports/common/ARMCMx/CMSIS/include/core_cm4.h"