ARM GAS  /tmp/ccJTyte3.s 			page 1


   1              		.syntax unified
   2              		.cpu cortex-m4
   3              		.eabi_attribute 27, 3
   4              		.eabi_attribute 28, 1
   5              		.fpu fpv4-sp-d16
   6              		.eabi_attribute 20, 1
   7              		.eabi_attribute 21, 1
   8              		.eabi_attribute 23, 3
   9              		.eabi_attribute 24, 1
  10              		.eabi_attribute 25, 1
  11              		.eabi_attribute 26, 1
  12              		.eabi_attribute 30, 6
  13              		.eabi_attribute 34, 1
  14              		.eabi_attribute 18, 4
  15              		.thumb
  16              		.file	"stubs.c"
  17              		.text
  18              	.Ltext0:
  19              		.cfi_sections	.debug_frame
  20              		.global	__dso_handle
  21              		.section	.bss.__dso_handle,"aw",%nobits
  22              		.align	2
  23              		.type	__dso_handle, %object
  24              		.size	__dso_handle, 4
  25              	__dso_handle:
  26 0000 00000000 		.space	4
  27              		.section	.text.__cxa_pure_virtual,"ax",%progbits
  28              		.align	2
  29              		.p2align 4,,15
  30              		.global	__cxa_pure_virtual
  31              		.thumb
  32              		.thumb_func
  33              		.type	__cxa_pure_virtual, %function
  34              	__cxa_pure_virtual:
  35              	.LFB118:
  36              		.file 1 "/home/dave/r2p-sdk/modules/uDC_module/stubs.c"
  37              		.loc 1 5 0
  38              		.cfi_startproc
  39              		@ args = 0, pretend = 0, frame = 0
  40              		@ frame_needed = 0, uses_anonymous_args = 0
  41 0000 08B5     		push	{r3, lr}
  42              		.cfi_def_cfa_offset 8
  43              		.cfi_offset 3, -8
  44              		.cfi_offset 14, -4
  45              		.loc 1 6 0
  46 0002 FFF7FEFF 		bl	port_halt
  47              		.loc 1 7 0
  48 0006 08BD     		pop	{r3, pc}
  49              		.cfi_endproc
  50              	.LFE118:
  51              		.size	__cxa_pure_virtual, .-__cxa_pure_virtual
  52 0008 AFF30080 		.section	.text._exit,"ax",%progbits
  52      AFF30080 
  53              		.align	2
  54              		.p2align 4,,15
  55              		.global	_exit
  56              		.thumb
ARM GAS  /tmp/ccJTyte3.s 			page 2


  57              		.thumb_func
  58              		.type	_exit, %function
  59              	_exit:
  60              	.LFB119:
  61              		.loc 1 8 0
  62              		.cfi_startproc
  63              		@ args = 0, pretend = 0, frame = 8
  64              		@ frame_needed = 0, uses_anonymous_args = 0
  65 0000 00B5     		push	{lr}
  66              		.cfi_def_cfa_offset 4
  67              		.cfi_offset 14, -4
  68 0002 83B0     		sub	sp, sp, #12
  69              		.cfi_def_cfa_offset 16
  70 0004 0190     		str	r0, [sp, #4]
  71              		.loc 1 11 0
  72 0006 FFF7FEFF 		bl	port_halt
  73              	.L3:
  74              		.loc 1 13 0 discriminator 1
  75 000a FEE7     		b	.L3
  76              		.cfi_endproc
  77              	.LFE119:
  78              		.size	_exit, .-_exit
  79 000c AFF30080 		.section	.text._kill,"ax",%progbits
  80              		.align	2
  81              		.p2align 4,,15
  82              		.global	_kill
  83              		.thumb
  84              		.thumb_func
  85              		.type	_kill, %function
  86              	_kill:
  87              	.LFB120:
  88              		.loc 1 15 0
  89              		.cfi_startproc
  90              		@ args = 0, pretend = 0, frame = 8
  91              		@ frame_needed = 0, uses_anonymous_args = 0
  92 0000 00B5     		push	{lr}
  93              		.cfi_def_cfa_offset 4
  94              		.cfi_offset 14, -4
  95 0002 83B0     		sub	sp, sp, #12
  96              		.cfi_def_cfa_offset 16
  97 0004 0190     		str	r0, [sp, #4]
  98 0006 0091     		str	r1, [sp]
  99              		.loc 1 19 0
 100 0008 FFF7FEFF 		bl	port_halt
 101              		.loc 1 20 0
 102 000c 4FF0FF33 		mov	r3, #-1
 103              		.loc 1 21 0
 104 0010 1846     		mov	r0, r3
 105 0012 03B0     		add	sp, sp, #12
 106              		@ sp needed
 107 0014 5DF804FB 		ldr	pc, [sp], #4
 108              		.cfi_endproc
 109              	.LFE120:
 110              		.size	_kill, .-_kill
 111 0018 AFF30080 		.section	.text._getpid,"ax",%progbits
 111      AFF30080 
 112              		.align	2
ARM GAS  /tmp/ccJTyte3.s 			page 3


 113              		.p2align 4,,15
 114              		.global	_getpid
 115              		.thumb
 116              		.thumb_func
 117              		.type	_getpid, %function
 118              	_getpid:
 119              	.LFB121:
 120              		.loc 1 22 0
 121              		.cfi_startproc
 122              		@ args = 0, pretend = 0, frame = 0
 123              		@ frame_needed = 0, uses_anonymous_args = 0
 124              		@ link register save eliminated.
 125              		.loc 1 23 0
 126 0000 0123     		movs	r3, #1
 127              		.loc 1 24 0
 128 0002 1846     		mov	r0, r3
 129 0004 7047     		bx	lr
 130              		.cfi_endproc
 131              	.LFE121:
 132              		.size	_getpid, .-_getpid
 133 0006 00BFAFF3 		.text
 133      0080AFF3 
 133      0080
 134              	.Letext0:
 135              		.file 2 "/usr/include/newlib/machine/_default_types.h"
 136              		.file 3 "/usr/include/newlib/stdint.h"
 137              		.file 4 "/home/dave/r2p-sdk/core/ChibiOS/os/ports/common/ARMCMx/CMSIS/include/core_cm4.h"