ARM GAS  /tmp/ccChEjal.s 			page 1


   1              		.syntax unified
   2              		.cpu cortex-m4
   3              		.eabi_attribute 27, 3
   4              		.eabi_attribute 28, 1
   5              		.fpu fpv4-sp-d16
   6              		.eabi_attribute 20, 1
   7              		.eabi_attribute 21, 1
   8              		.eabi_attribute 23, 3
   9              		.eabi_attribute 24, 1
  10              		.eabi_attribute 25, 1
  11              		.eabi_attribute 26, 1
  12              		.eabi_attribute 30, 6
  13              		.eabi_attribute 34, 1
  14              		.eabi_attribute 18, 4
  15              		.thumb
  16              		.file	"TimestampedMsgPtrQueue.cpp"
  17              		.text
  18              	.Ltext0:
  19              		.cfi_sections	.debug_frame
  20              		.section	.text._ZN3r2p10UncopyableC2Ev,"axG",%progbits,_ZN3r2p10UncopyableC5Ev,comdat
  21              		.align	2
  22              		.p2align 4,,15
  23              		.weak	_ZN3r2p10UncopyableC2Ev
  24              		.thumb
  25              		.thumb_func
  26              		.type	_ZN3r2p10UncopyableC2Ev, %function
  27              	_ZN3r2p10UncopyableC2Ev:
  28              	.LFB6:
  29              		.file 1 "/home/dave/r2p-sdk/core/Middleware/include/r2p/Uncopyable.hpp"
  30              		.loc 1 20 0
  31              		.cfi_startproc
  32              		@ args = 0, pretend = 0, frame = 8
  33              		@ frame_needed = 0, uses_anonymous_args = 0
  34              		@ link register save eliminated.
  35 0000 82B0     		sub	sp, sp, #8
  36              		.cfi_def_cfa_offset 8
  37 0002 0190     		str	r0, [sp, #4]
  38              		.loc 1 20 0
  39 0004 019B     		ldr	r3, [sp, #4]
  40 0006 1846     		mov	r0, r3
  41 0008 02B0     		add	sp, sp, #8
  42              		@ sp needed
  43 000a 7047     		bx	lr
  44              		.cfi_endproc
  45              	.LFE6:
  46              		.size	_ZN3r2p10UncopyableC2Ev, .-_ZN3r2p10UncopyableC2Ev
  47              		.weak	_ZN3r2p10UncopyableC1Ev
  48              		.thumb_set _ZN3r2p10UncopyableC1Ev,_ZN3r2p10UncopyableC2Ev
  49 000c AFF30080 		.section	.text._ZN3r2p22TimestampedMsgPtrQueueC2EPNS0_5EntryEj,"ax",%progbits
  50              		.align	2
  51              		.p2align 4,,15
  52              		.global	_ZN3r2p22TimestampedMsgPtrQueueC2EPNS0_5EntryEj
  53              		.thumb
  54              		.thumb_func
  55              		.type	_ZN3r2p22TimestampedMsgPtrQueueC2EPNS0_5EntryEj, %function
  56              	_ZN3r2p22TimestampedMsgPtrQueueC2EPNS0_5EntryEj:
  57              	.LFB99:
ARM GAS  /tmp/ccChEjal.s 			page 2


  58              		.file 2 "/home/dave/r2p-sdk/core/Middleware/src/TimestampedMsgPtrQueue.cpp"
  59              		.loc 2 7 0
  60              		.cfi_startproc
  61              		@ args = 0, pretend = 0, frame = 16
  62              		@ frame_needed = 0, uses_anonymous_args = 0
  63 0000 00B5     		push	{lr}
  64              		.cfi_def_cfa_offset 4
  65              		.cfi_offset 14, -4
  66 0002 85B0     		sub	sp, sp, #20
  67              		.cfi_def_cfa_offset 24
  68 0004 0390     		str	r0, [sp, #12]
  69 0006 0291     		str	r1, [sp, #8]
  70 0008 0192     		str	r2, [sp, #4]
  71              	.LBB2:
  72              		.loc 2 9 0
  73 000a 039B     		ldr	r3, [sp, #12]
  74 000c 1846     		mov	r0, r3
  75 000e 0299     		ldr	r1, [sp, #8]
  76 0010 019A     		ldr	r2, [sp, #4]
  77 0012 FFF7FEFF 		bl	_ZN3r2p10ArrayQueueINS_22TimestampedMsgPtrQueue5EntryEEC1EPS2_j
  78              	.LBE2:
  79              		.loc 2 10 0
  80 0016 039B     		ldr	r3, [sp, #12]
  81 0018 1846     		mov	r0, r3
  82 001a 05B0     		add	sp, sp, #20
  83              		@ sp needed
  84 001c 5DF804FB 		ldr	pc, [sp], #4
  85              		.cfi_endproc
  86              	.LFE99:
  87              		.size	_ZN3r2p22TimestampedMsgPtrQueueC2EPNS0_5EntryEj, .-_ZN3r2p22TimestampedMsgPtrQueueC2EPNS0_5E
  88              		.global	_ZN3r2p22TimestampedMsgPtrQueueC1EPNS0_5EntryEj
  89              		.thumb_set _ZN3r2p22TimestampedMsgPtrQueueC1EPNS0_5EntryEj,_ZN3r2p22TimestampedMsgPtrQueueC2EPNS0_
  90              		.section	.rodata
  91              		.align	2
  92              	.LC0:
  93 0000 5232505F 		.ascii	"R2P_ASSERT()\000"
  93      41535345 
  93      52542829 
  93      00
  94 000d 000000   		.section	.text._ZN3r2p10ArrayQueueINS_22TimestampedMsgPtrQueue5EntryEEC2EPS2_j,"axG",%progbits,_ZN
  95              		.align	2
  96              		.p2align 4,,15
  97              		.weak	_ZN3r2p10ArrayQueueINS_22TimestampedMsgPtrQueue5EntryEEC2EPS2_j
  98              		.thumb
  99              		.thumb_func
 100              		.type	_ZN3r2p10ArrayQueueINS_22TimestampedMsgPtrQueue5EntryEEC2EPS2_j, %function
 101              	_ZN3r2p10ArrayQueueINS_22TimestampedMsgPtrQueue5EntryEEC2EPS2_j:
 102              	.LFB117:
 103              		.file 3 "/home/dave/r2p-sdk/core/Middleware/include/r2p/ArrayQueue.hpp"
 104              		.loc 3 125 0
 105              		.cfi_startproc
 106              		@ args = 0, pretend = 0, frame = 16
 107              		@ frame_needed = 0, uses_anonymous_args = 0
 108 0000 00B5     		push	{lr}
 109              		.cfi_def_cfa_offset 4
 110              		.cfi_offset 14, -4
 111 0002 85B0     		sub	sp, sp, #20
ARM GAS  /tmp/ccChEjal.s 			page 3


 112              		.cfi_def_cfa_offset 24
 113 0004 0390     		str	r0, [sp, #12]
 114 0006 0291     		str	r1, [sp, #8]
 115 0008 0192     		str	r2, [sp, #4]
 116              	.LBB3:
 117              		.loc 3 131 0
 118 000a 0398     		ldr	r0, [sp, #12]
 119 000c FFF7FEFF 		bl	_ZN3r2p10UncopyableC2Ev
 120 0010 039B     		ldr	r3, [sp, #12]
 121 0012 029A     		ldr	r2, [sp, #8]
 122 0014 1A60     		str	r2, [r3]
 123 0016 039B     		ldr	r3, [sp, #12]
 124 0018 019A     		ldr	r2, [sp, #4]
 125 001a 5A60     		str	r2, [r3, #4]
 126 001c 039B     		ldr	r3, [sp, #12]
 127 001e 0022     		movs	r2, #0
 128 0020 9A60     		str	r2, [r3, #8]
 129 0022 039B     		ldr	r3, [sp, #12]
 130 0024 029A     		ldr	r2, [sp, #8]
 131 0026 DA60     		str	r2, [r3, #12]
 132 0028 039B     		ldr	r3, [sp, #12]
 133 002a 029A     		ldr	r2, [sp, #8]
 134 002c 1A61     		str	r2, [r3, #16]
 135              		.loc 3 133 0
 136 002e 029B     		ldr	r3, [sp, #8]
 137 0030 002B     		cmp	r3, #0
 138 0032 02D1     		bne	.L8
 139              		.loc 3 133 0 is_stmt 0 discriminator 1
 140 0034 0648     		ldr	r0, .L11
 141 0036 FFF7FEFF 		bl	chDbgPanic
 142              	.L8:
 143              		.loc 3 134 0 is_stmt 1
 144 003a 019B     		ldr	r3, [sp, #4]
 145 003c 002B     		cmp	r3, #0
 146 003e 02D1     		bne	.L9
 147              		.loc 3 134 0 is_stmt 0 discriminator 1
 148 0040 0348     		ldr	r0, .L11
 149 0042 FFF7FEFF 		bl	chDbgPanic
 150              	.L9:
 151              	.LBE3:
 152              		.loc 3 135 0 is_stmt 1
 153 0046 039B     		ldr	r3, [sp, #12]
 154 0048 1846     		mov	r0, r3
 155 004a 05B0     		add	sp, sp, #20
 156              		@ sp needed
 157 004c 5DF804FB 		ldr	pc, [sp], #4
 158              	.L12:
 159              		.align	2
 160              	.L11:
 161 0050 00000000 		.word	.LC0
 162              		.cfi_endproc
 163              	.LFE117:
 164              		.size	_ZN3r2p10ArrayQueueINS_22TimestampedMsgPtrQueue5EntryEEC2EPS2_j, .-_ZN3r2p10ArrayQueueINS_22
 165              		.weak	_ZN3r2p10ArrayQueueINS_22TimestampedMsgPtrQueue5EntryEEC1EPS2_j
 166              		.thumb_set _ZN3r2p10ArrayQueueINS_22TimestampedMsgPtrQueue5EntryEEC1EPS2_j,_ZN3r2p10ArrayQueueINS_
 167 0054 AFF30080 		.text
 167      AFF30080 
ARM GAS  /tmp/ccChEjal.s 			page 4


 167      AFF30080 
 168              	.Letext0:
 169              		.file 4 "/usr/lib/gcc/arm-none-eabi/4.8/include/stddef.h"
 170              		.file 5 "/usr/include/newlib/machine/_default_types.h"
 171              		.file 6 "/usr/include/newlib/c++/4.8/cstring"
 172              		.file 7 "/usr/include/newlib/string.h"
 173              		.file 8 "<built-in>"
 174              		.file 9 "/home/dave/r2p-sdk/core/Middleware/include/r2p/Time.hpp"
 175              		.file 10 "/home/dave/r2p-sdk/core/Middleware/include/r2p/TimestampedMsgPtrQueue.hpp"
 176              		.file 11 "/usr/include/newlib/stdint.h"