ARM GAS  /tmp/ccaHU3Jd.s 			page 1


   1              		.syntax unified
   2              		.cpu cortex-m4
   3              		.eabi_attribute 27, 3
   4              		.eabi_attribute 28, 1
   5              		.fpu fpv4-sp-d16
   6              		.eabi_attribute 20, 1
   7              		.eabi_attribute 21, 1
   8              		.eabi_attribute 23, 3
   9              		.eabi_attribute 24, 1
  10              		.eabi_attribute 25, 1
  11              		.eabi_attribute 26, 1
  12              		.eabi_attribute 30, 6
  13              		.eabi_attribute 34, 1
  14              		.eabi_attribute 18, 4
  15              		.thumb
  16              		.file	"chheap.c"
  17              		.text
  18              	.Ltext0:
  19              		.cfi_sections	.debug_frame
  20              		.section	.bss.default_heap,"aw",%nobits
  21              		.align	3
  22              		.type	default_heap, %object
  23              		.size	default_heap, 32
  24              	default_heap:
  25 0000 00000000 		.space	32
  25      00000000 
  25      00000000 
  25      00000000 
  25      00000000 
  26              		.section	.text._heap_init,"ax",%progbits
  27              		.align	2
  28              		.p2align 4,,15
  29              		.global	_heap_init
  30              		.thumb
  31              		.thumb_func
  32              		.type	_heap_init, %function
  33              	_heap_init:
  34              	.LFB7:
  35              		.file 1 "/home/dave/r2p-sdk/core/ChibiOS/os/kernel/src/chheap.c"
  36              		.loc 1 75 0
  37              		.cfi_startproc
  38              		@ args = 0, pretend = 0, frame = 0
  39              		@ frame_needed = 0, uses_anonymous_args = 0
  40 0000 08B5     		push	{r3, lr}
  41              		.cfi_def_cfa_offset 8
  42              		.cfi_offset 3, -8
  43              		.cfi_offset 14, -4
  44              		.loc 1 76 0
  45 0002 064B     		ldr	r3, .L2
  46 0004 064A     		ldr	r2, .L2+4
  47 0006 1A60     		str	r2, [r3]
  48              		.loc 1 77 0
  49 0008 044B     		ldr	r3, .L2
  50 000a 0022     		movs	r2, #0
  51 000c 9A60     		str	r2, [r3, #8]
  52              		.loc 1 78 0
  53 000e 034B     		ldr	r3, .L2
ARM GAS  /tmp/ccaHU3Jd.s 			page 2


  54 0010 0022     		movs	r2, #0
  55 0012 DA60     		str	r2, [r3, #12]
  56              		.loc 1 80 0
  57 0014 0348     		ldr	r0, .L2+8
  58 0016 FFF7FEFF 		bl	chMtxInit
  59              		.loc 1 84 0
  60 001a 08BD     		pop	{r3, pc}
  61              	.L3:
  62              		.align	2
  63              	.L2:
  64 001c 00000000 		.word	default_heap
  65 0020 00000000 		.word	chCoreAlloc
  66 0024 10000000 		.word	default_heap+16
  67              		.cfi_endproc
  68              	.LFE7:
  69              		.size	_heap_init, .-_heap_init
  70 0028 AFF30080 		.section	.rodata
  70      AFF30080 
  71              		.align	2
  72              	.LC0:
  73 0000 22636848 		.ascii	"\"chHeapInit\"()\000"
  73      65617049 
  73      6E697422 
  73      282900
  74              		.section	.text.chHeapInit,"ax",%progbits
  75              		.align	2
  76              		.p2align 4,,15
  77              		.global	chHeapInit
  78              		.thumb
  79              		.thumb_func
  80              		.type	chHeapInit, %function
  81              	chHeapInit:
  82              	.LFB8:
  83              		.loc 1 99 0
  84              		.cfi_startproc
  85              		@ args = 0, pretend = 0, frame = 24
  86              		@ frame_needed = 0, uses_anonymous_args = 0
  87 0000 00B5     		push	{lr}
  88              		.cfi_def_cfa_offset 4
  89              		.cfi_offset 14, -4
  90 0002 87B0     		sub	sp, sp, #28
  91              		.cfi_def_cfa_offset 32
  92 0004 0390     		str	r0, [sp, #12]
  93 0006 0291     		str	r1, [sp, #8]
  94 0008 0192     		str	r2, [sp, #4]
  95              		.loc 1 102 0
  96 000a 029B     		ldr	r3, [sp, #8]
  97 000c 03F00703 		and	r3, r3, #7
  98 0010 002B     		cmp	r3, #0
  99 0012 04D1     		bne	.L5
 100              		.loc 1 102 0 is_stmt 0 discriminator 2
 101 0014 019B     		ldr	r3, [sp, #4]
 102 0016 03F00703 		and	r3, r3, #7
 103 001a 002B     		cmp	r3, #0
 104 001c 02D0     		beq	.L6
 105              	.L5:
 106              		.loc 1 102 0 discriminator 1
ARM GAS  /tmp/ccaHU3Jd.s 			page 3


 107 001e 0F48     		ldr	r0, .L7
 108 0020 FFF7FEFF 		bl	chDbgPanic
 109              	.L6:
 110              		.loc 1 104 0 is_stmt 1
 111 0024 039B     		ldr	r3, [sp, #12]
 112 0026 0022     		movs	r2, #0
 113 0028 1A60     		str	r2, [r3]
 114              		.loc 1 105 0
 115 002a 029B     		ldr	r3, [sp, #8]
 116 002c 0593     		str	r3, [sp, #20]
 117 002e 039B     		ldr	r3, [sp, #12]
 118 0030 059A     		ldr	r2, [sp, #20]
 119 0032 9A60     		str	r2, [r3, #8]
 120              		.loc 1 106 0
 121 0034 039B     		ldr	r3, [sp, #12]
 122 0036 0022     		movs	r2, #0
 123 0038 DA60     		str	r2, [r3, #12]
 124              		.loc 1 107 0
 125 003a 059B     		ldr	r3, [sp, #20]
 126 003c 0022     		movs	r2, #0
 127 003e 1A60     		str	r2, [r3]
 128              		.loc 1 108 0
 129 0040 019B     		ldr	r3, [sp, #4]
 130 0042 A3F10802 		sub	r2, r3, #8
 131 0046 059B     		ldr	r3, [sp, #20]
 132 0048 5A60     		str	r2, [r3, #4]
 133              		.loc 1 110 0
 134 004a 039B     		ldr	r3, [sp, #12]
 135 004c 1033     		adds	r3, r3, #16
 136 004e 1846     		mov	r0, r3
 137 0050 FFF7FEFF 		bl	chMtxInit
 138              		.loc 1 114 0
 139 0054 07B0     		add	sp, sp, #28
 140              		@ sp needed
 141 0056 5DF804FB 		ldr	pc, [sp], #4
 142              	.L8:
 143 005a 00BF     		.align	2
 144              	.L7:
 145 005c 00000000 		.word	.LC0
 146              		.cfi_endproc
 147              	.LFE8:
 148              		.size	chHeapInit, .-chHeapInit
 149              		.section	.text.chHeapAlloc,"ax",%progbits
 150              		.align	2
 151              		.p2align 4,,15
 152              		.global	chHeapAlloc
 153              		.thumb
 154              		.thumb_func
 155              		.type	chHeapAlloc, %function
 156              	chHeapAlloc:
 157              	.LFB9:
 158              		.loc 1 132 0
 159              		.cfi_startproc
 160              		@ args = 0, pretend = 0, frame = 24
 161              		@ frame_needed = 0, uses_anonymous_args = 0
 162 0000 00B5     		push	{lr}
 163              		.cfi_def_cfa_offset 4
ARM GAS  /tmp/ccaHU3Jd.s 			page 4


 164              		.cfi_offset 14, -4
 165 0002 87B0     		sub	sp, sp, #28
 166              		.cfi_def_cfa_offset 32
 167 0004 0190     		str	r0, [sp, #4]
 168 0006 0091     		str	r1, [sp]
 169              		.loc 1 135 0
 170 0008 019B     		ldr	r3, [sp, #4]
 171 000a 002B     		cmp	r3, #0
 172 000c 01D1     		bne	.L10
 173              		.loc 1 136 0
 174 000e 344B     		ldr	r3, .L18
 175 0010 0193     		str	r3, [sp, #4]
 176              	.L10:
 177              		.loc 1 138 0
 178 0012 009B     		ldr	r3, [sp]
 179 0014 0733     		adds	r3, r3, #7
 180 0016 23F00703 		bic	r3, r3, #7
 181 001a 0093     		str	r3, [sp]
 182              		.loc 1 139 0
 183 001c 019B     		ldr	r3, [sp, #4]
 184 001e 0833     		adds	r3, r3, #8
 185 0020 0593     		str	r3, [sp, #20]
 186              		.loc 1 140 0
 187 0022 019B     		ldr	r3, [sp, #4]
 188 0024 1033     		adds	r3, r3, #16
 189 0026 1846     		mov	r0, r3
 190 0028 FFF7FEFF 		bl	chMtxLock
 191              		.loc 1 142 0
 192 002c 33E0     		b	.L11
 193              	.L16:
 194              		.loc 1 143 0
 195 002e 059B     		ldr	r3, [sp, #20]
 196 0030 1B68     		ldr	r3, [r3]
 197 0032 0493     		str	r3, [sp, #16]
 198              		.loc 1 144 0
 199 0034 049B     		ldr	r3, [sp, #16]
 200 0036 5A68     		ldr	r2, [r3, #4]
 201 0038 009B     		ldr	r3, [sp]
 202 003a 9A42     		cmp	r2, r3
 203 003c 29D3     		bcc	.L12
 204              		.loc 1 145 0
 205 003e 049B     		ldr	r3, [sp, #16]
 206 0040 5A68     		ldr	r2, [r3, #4]
 207 0042 009B     		ldr	r3, [sp]
 208 0044 0833     		adds	r3, r3, #8
 209 0046 9A42     		cmp	r2, r3
 210 0048 04D2     		bcs	.L13
 211              		.loc 1 149 0
 212 004a 049B     		ldr	r3, [sp, #16]
 213 004c 1A68     		ldr	r2, [r3]
 214 004e 059B     		ldr	r3, [sp, #20]
 215 0050 1A60     		str	r2, [r3]
 216 0052 16E0     		b	.L14
 217              	.L13:
 218              		.loc 1 153 0
 219 0054 009B     		ldr	r3, [sp]
 220 0056 0833     		adds	r3, r3, #8
ARM GAS  /tmp/ccaHU3Jd.s 			page 5


 221 0058 049A     		ldr	r2, [sp, #16]
 222 005a 1344     		add	r3, r3, r2
 223 005c 0393     		str	r3, [sp, #12]
 224              		.loc 1 154 0
 225 005e 049B     		ldr	r3, [sp, #16]
 226 0060 1A68     		ldr	r2, [r3]
 227 0062 039B     		ldr	r3, [sp, #12]
 228 0064 1A60     		str	r2, [r3]
 229              		.loc 1 155 0
 230 0066 049B     		ldr	r3, [sp, #16]
 231 0068 5A68     		ldr	r2, [r3, #4]
 232 006a 009B     		ldr	r3, [sp]
 233 006c D31A     		subs	r3, r2, r3
 234 006e A3F10802 		sub	r2, r3, #8
 235 0072 039B     		ldr	r3, [sp, #12]
 236 0074 5A60     		str	r2, [r3, #4]
 237              		.loc 1 156 0
 238 0076 059B     		ldr	r3, [sp, #20]
 239 0078 039A     		ldr	r2, [sp, #12]
 240 007a 1A60     		str	r2, [r3]
 241              		.loc 1 157 0
 242 007c 049B     		ldr	r3, [sp, #16]
 243 007e 009A     		ldr	r2, [sp]
 244 0080 5A60     		str	r2, [r3, #4]
 245              	.L14:
 246              		.loc 1 159 0
 247 0082 049B     		ldr	r3, [sp, #16]
 248 0084 019A     		ldr	r2, [sp, #4]
 249 0086 1A60     		str	r2, [r3]
 250              		.loc 1 161 0
 251 0088 FFF7FEFF 		bl	chMtxUnlock
 252              		.loc 1 162 0
 253 008c 049B     		ldr	r3, [sp, #16]
 254 008e 0833     		adds	r3, r3, #8
 255 0090 21E0     		b	.L15
 256              	.L12:
 257              		.loc 1 164 0
 258 0092 049B     		ldr	r3, [sp, #16]
 259 0094 0593     		str	r3, [sp, #20]
 260              	.L11:
 261              		.loc 1 142 0 discriminator 1
 262 0096 059B     		ldr	r3, [sp, #20]
 263 0098 1B68     		ldr	r3, [r3]
 264 009a 002B     		cmp	r3, #0
 265 009c C7D1     		bne	.L16
 266              		.loc 1 167 0
 267 009e FFF7FEFF 		bl	chMtxUnlock
 268              		.loc 1 171 0
 269 00a2 019B     		ldr	r3, [sp, #4]
 270 00a4 1B68     		ldr	r3, [r3]
 271 00a6 002B     		cmp	r3, #0
 272 00a8 14D0     		beq	.L17
 273              		.loc 1 172 0
 274 00aa 019B     		ldr	r3, [sp, #4]
 275 00ac 1B68     		ldr	r3, [r3]
 276 00ae 009A     		ldr	r2, [sp]
 277 00b0 0832     		adds	r2, r2, #8
ARM GAS  /tmp/ccaHU3Jd.s 			page 6


 278 00b2 1046     		mov	r0, r2
 279 00b4 9847     		blx	r3
 280 00b6 0490     		str	r0, [sp, #16]
 281              		.loc 1 173 0
 282 00b8 049B     		ldr	r3, [sp, #16]
 283 00ba 002B     		cmp	r3, #0
 284 00bc 0AD0     		beq	.L17
 285              		.loc 1 174 0
 286 00be 049B     		ldr	r3, [sp, #16]
 287 00c0 019A     		ldr	r2, [sp, #4]
 288 00c2 1A60     		str	r2, [r3]
 289              		.loc 1 175 0
 290 00c4 049B     		ldr	r3, [sp, #16]
 291 00c6 009A     		ldr	r2, [sp]
 292 00c8 5A60     		str	r2, [r3, #4]
 293              		.loc 1 176 0
 294 00ca 049B     		ldr	r3, [sp, #16]
 295 00cc 0833     		adds	r3, r3, #8
 296 00ce 0493     		str	r3, [sp, #16]
 297              		.loc 1 177 0
 298 00d0 049B     		ldr	r3, [sp, #16]
 299 00d2 00E0     		b	.L15
 300              	.L17:
 301              		.loc 1 180 0
 302 00d4 0023     		movs	r3, #0
 303              	.L15:
 304              		.loc 1 181 0
 305 00d6 1846     		mov	r0, r3
 306 00d8 07B0     		add	sp, sp, #28
 307              		@ sp needed
 308 00da 5DF804FB 		ldr	pc, [sp], #4
 309              	.L19:
 310 00de 00BF     		.align	2
 311              	.L18:
 312 00e0 00000000 		.word	default_heap
 313              		.cfi_endproc
 314              	.LFE9:
 315              		.size	chHeapAlloc, .-chHeapAlloc
 316 00e4 AFF30080 		.section	.rodata
 316      AFF30080 
 316      AFF30080 
 317 000f 00       		.align	2
 318              	.LC1:
 319 0010 22636848 		.ascii	"\"chHeapFree\"()\000"
 319      65617046 
 319      72656522 
 319      282900
 320 001f 00       		.align	2
 321              	.LC2:
 322 0020 63684865 		.ascii	"chHeapFree(), #1\000"
 322      61704672 
 322      65652829 
 322      2C202331 
 322      00
 323 0031 000000   		.section	.text.chHeapFree,"ax",%progbits
 324              		.align	2
 325              		.p2align 4,,15
ARM GAS  /tmp/ccaHU3Jd.s 			page 7


 326              		.global	chHeapFree
 327              		.thumb
 328              		.thumb_func
 329              		.type	chHeapFree, %function
 330              	chHeapFree:
 331              	.LFB10:
 332              		.loc 1 194 0
 333              		.cfi_startproc
 334              		@ args = 0, pretend = 0, frame = 24
 335              		@ frame_needed = 0, uses_anonymous_args = 0
 336 0000 00B5     		push	{lr}
 337              		.cfi_def_cfa_offset 4
 338              		.cfi_offset 14, -4
 339 0002 87B0     		sub	sp, sp, #28
 340              		.cfi_def_cfa_offset 32
 341 0004 0190     		str	r0, [sp, #4]
 342              		.loc 1 198 0
 343 0006 019B     		ldr	r3, [sp, #4]
 344 0008 002B     		cmp	r3, #0
 345 000a 02D1     		bne	.L21
 346              		.loc 1 198 0 is_stmt 0 discriminator 1
 347 000c 3948     		ldr	r0, .L31
 348 000e FFF7FEFF 		bl	chDbgPanic
 349              	.L21:
 350              		.loc 1 200 0 is_stmt 1
 351 0012 019B     		ldr	r3, [sp, #4]
 352 0014 083B     		subs	r3, r3, #8
 353 0016 0493     		str	r3, [sp, #16]
 354              		.loc 1 201 0
 355 0018 049B     		ldr	r3, [sp, #16]
 356 001a 1B68     		ldr	r3, [r3]
 357 001c 0393     		str	r3, [sp, #12]
 358              		.loc 1 202 0
 359 001e 039B     		ldr	r3, [sp, #12]
 360 0020 0833     		adds	r3, r3, #8
 361 0022 0593     		str	r3, [sp, #20]
 362              		.loc 1 203 0
 363 0024 039B     		ldr	r3, [sp, #12]
 364 0026 1033     		adds	r3, r3, #16
 365 0028 1846     		mov	r0, r3
 366 002a FFF7FEFF 		bl	chMtxLock
 367              	.L29:
 368              		.loc 1 206 0
 369 002e 049A     		ldr	r2, [sp, #16]
 370 0030 059B     		ldr	r3, [sp, #20]
 371 0032 9A42     		cmp	r2, r3
 372 0034 0AD3     		bcc	.L22
 373              		.loc 1 206 0 is_stmt 0 discriminator 1
 374 0036 059B     		ldr	r3, [sp, #20]
 375 0038 5B68     		ldr	r3, [r3, #4]
 376 003a 0833     		adds	r3, r3, #8
 377 003c 059A     		ldr	r2, [sp, #20]
 378 003e 1A44     		add	r2, r2, r3
 379 0040 049B     		ldr	r3, [sp, #16]
 380 0042 9A42     		cmp	r2, r3
 381 0044 02D9     		bls	.L22
 382 0046 2C48     		ldr	r0, .L31+4
ARM GAS  /tmp/ccaHU3Jd.s 			page 8


 383 0048 FFF7FEFF 		bl	chDbgPanic
 384              	.L22:
 385              		.loc 1 210 0 is_stmt 1
 386 004c 039B     		ldr	r3, [sp, #12]
 387 004e 03F10802 		add	r2, r3, #8
 388 0052 059B     		ldr	r3, [sp, #20]
 389 0054 9A42     		cmp	r2, r3
 390 0056 03D0     		beq	.L23
 391              		.loc 1 210 0 is_stmt 0 discriminator 2
 392 0058 049A     		ldr	r2, [sp, #16]
 393 005a 059B     		ldr	r3, [sp, #20]
 394 005c 9A42     		cmp	r2, r3
 395 005e 3ED9     		bls	.L24
 396              	.L23:
 397              		.loc 1 211 0 is_stmt 1 discriminator 1
 398 0060 059B     		ldr	r3, [sp, #20]
 399 0062 1B68     		ldr	r3, [r3]
 400              		.loc 1 210 0 discriminator 1
 401 0064 002B     		cmp	r3, #0
 402 0066 04D0     		beq	.L25
 403              		.loc 1 211 0
 404 0068 059B     		ldr	r3, [sp, #20]
 405 006a 1A68     		ldr	r2, [r3]
 406 006c 049B     		ldr	r3, [sp, #16]
 407 006e 9A42     		cmp	r2, r3
 408 0070 35D9     		bls	.L24
 409              	.L25:
 410              		.loc 1 213 0
 411 0072 059B     		ldr	r3, [sp, #20]
 412 0074 1A68     		ldr	r2, [r3]
 413 0076 049B     		ldr	r3, [sp, #16]
 414 0078 1A60     		str	r2, [r3]
 415              		.loc 1 214 0
 416 007a 059B     		ldr	r3, [sp, #20]
 417 007c 049A     		ldr	r2, [sp, #16]
 418 007e 1A60     		str	r2, [r3]
 419              		.loc 1 216 0
 420 0080 049B     		ldr	r3, [sp, #16]
 421 0082 5B68     		ldr	r3, [r3, #4]
 422 0084 0833     		adds	r3, r3, #8
 423 0086 049A     		ldr	r2, [sp, #16]
 424 0088 1A44     		add	r2, r2, r3
 425 008a 049B     		ldr	r3, [sp, #16]
 426 008c 1B68     		ldr	r3, [r3]
 427 008e 9A42     		cmp	r2, r3
 428 0090 0ED1     		bne	.L26
 429              		.loc 1 218 0
 430 0092 049B     		ldr	r3, [sp, #16]
 431 0094 5A68     		ldr	r2, [r3, #4]
 432 0096 049B     		ldr	r3, [sp, #16]
 433 0098 1B68     		ldr	r3, [r3]
 434 009a 5B68     		ldr	r3, [r3, #4]
 435 009c 1344     		add	r3, r3, r2
 436 009e 03F10802 		add	r2, r3, #8
 437 00a2 049B     		ldr	r3, [sp, #16]
 438 00a4 5A60     		str	r2, [r3, #4]
 439              		.loc 1 219 0
ARM GAS  /tmp/ccaHU3Jd.s 			page 9


 440 00a6 049B     		ldr	r3, [sp, #16]
 441 00a8 1B68     		ldr	r3, [r3]
 442 00aa 1A68     		ldr	r2, [r3]
 443 00ac 049B     		ldr	r3, [sp, #16]
 444 00ae 1A60     		str	r2, [r3]
 445              	.L26:
 446              		.loc 1 221 0
 447 00b0 059B     		ldr	r3, [sp, #20]
 448 00b2 5B68     		ldr	r3, [r3, #4]
 449 00b4 0833     		adds	r3, r3, #8
 450 00b6 059A     		ldr	r2, [sp, #20]
 451 00b8 1A44     		add	r2, r2, r3
 452 00ba 049B     		ldr	r3, [sp, #16]
 453 00bc 9A42     		cmp	r2, r3
 454 00be 0DD1     		bne	.L27
 455              		.loc 1 223 0
 456 00c0 059B     		ldr	r3, [sp, #20]
 457 00c2 5A68     		ldr	r2, [r3, #4]
 458 00c4 049B     		ldr	r3, [sp, #16]
 459 00c6 5B68     		ldr	r3, [r3, #4]
 460 00c8 1344     		add	r3, r3, r2
 461 00ca 03F10802 		add	r2, r3, #8
 462 00ce 059B     		ldr	r3, [sp, #20]
 463 00d0 5A60     		str	r2, [r3, #4]
 464              		.loc 1 224 0
 465 00d2 049B     		ldr	r3, [sp, #16]
 466 00d4 1A68     		ldr	r2, [r3]
 467 00d6 059B     		ldr	r3, [sp, #20]
 468 00d8 1A60     		str	r2, [r3]
 469              		.loc 1 226 0
 470 00da 04E0     		b	.L28
 471              	.L27:
 472 00dc 03E0     		b	.L28
 473              	.L24:
 474              		.loc 1 228 0
 475 00de 059B     		ldr	r3, [sp, #20]
 476 00e0 1B68     		ldr	r3, [r3]
 477 00e2 0593     		str	r3, [sp, #20]
 478              		.loc 1 229 0
 479 00e4 A3E7     		b	.L29
 480              	.L28:
 481              		.loc 1 231 0
 482 00e6 FFF7FEFF 		bl	chMtxUnlock
 483              		.loc 1 232 0
 484 00ea 00BF     		nop
 485              		.loc 1 233 0
 486 00ec 07B0     		add	sp, sp, #28
 487              		@ sp needed
 488 00ee 5DF804FB 		ldr	pc, [sp], #4
 489              	.L32:
 490 00f2 00BF     		.align	2
 491              	.L31:
 492 00f4 10000000 		.word	.LC1
 493 00f8 20000000 		.word	.LC2
 494              		.cfi_endproc
 495              	.LFE10:
 496              		.size	chHeapFree, .-chHeapFree
ARM GAS  /tmp/ccaHU3Jd.s 			page 10


 497 00fc AFF30080 		.section	.text.chHeapStatus,"ax",%progbits
 498              		.align	2
 499              		.p2align 4,,15
 500              		.global	chHeapStatus
 501              		.thumb
 502              		.thumb_func
 503              		.type	chHeapStatus, %function
 504              	chHeapStatus:
 505              	.LFB11:
 506              		.loc 1 250 0
 507              		.cfi_startproc
 508              		@ args = 0, pretend = 0, frame = 24
 509              		@ frame_needed = 0, uses_anonymous_args = 0
 510 0000 00B5     		push	{lr}
 511              		.cfi_def_cfa_offset 4
 512              		.cfi_offset 14, -4
 513 0002 87B0     		sub	sp, sp, #28
 514              		.cfi_def_cfa_offset 32
 515 0004 0190     		str	r0, [sp, #4]
 516 0006 0091     		str	r1, [sp]
 517              		.loc 1 254 0
 518 0008 019B     		ldr	r3, [sp, #4]
 519 000a 002B     		cmp	r3, #0
 520 000c 01D1     		bne	.L34
 521              		.loc 1 255 0
 522 000e 164B     		ldr	r3, .L39
 523 0010 0193     		str	r3, [sp, #4]
 524              	.L34:
 525              		.loc 1 257 0
 526 0012 019B     		ldr	r3, [sp, #4]
 527 0014 1033     		adds	r3, r3, #16
 528 0016 1846     		mov	r0, r3
 529 0018 FFF7FEFF 		bl	chMtxLock
 530              		.loc 1 259 0
 531 001c 0023     		movs	r3, #0
 532 001e 0393     		str	r3, [sp, #12]
 533              		.loc 1 260 0
 534 0020 0023     		movs	r3, #0
 535 0022 0493     		str	r3, [sp, #16]
 536 0024 019B     		ldr	r3, [sp, #4]
 537 0026 0833     		adds	r3, r3, #8
 538 0028 0593     		str	r3, [sp, #20]
 539 002a 0BE0     		b	.L35
 540              	.L36:
 541              		.loc 1 261 0 discriminator 2
 542 002c 059B     		ldr	r3, [sp, #20]
 543 002e 1B68     		ldr	r3, [r3]
 544 0030 5B68     		ldr	r3, [r3, #4]
 545 0032 039A     		ldr	r2, [sp, #12]
 546 0034 1344     		add	r3, r3, r2
 547 0036 0393     		str	r3, [sp, #12]
 548              		.loc 1 260 0 discriminator 2
 549 0038 049B     		ldr	r3, [sp, #16]
 550 003a 0133     		adds	r3, r3, #1
 551 003c 0493     		str	r3, [sp, #16]
 552 003e 059B     		ldr	r3, [sp, #20]
 553 0040 1B68     		ldr	r3, [r3]
ARM GAS  /tmp/ccaHU3Jd.s 			page 11


 554 0042 0593     		str	r3, [sp, #20]
 555              	.L35:
 556              		.loc 1 260 0 is_stmt 0 discriminator 1
 557 0044 059B     		ldr	r3, [sp, #20]
 558 0046 1B68     		ldr	r3, [r3]
 559 0048 002B     		cmp	r3, #0
 560 004a EFD1     		bne	.L36
 561              		.loc 1 262 0 is_stmt 1
 562 004c 009B     		ldr	r3, [sp]
 563 004e 002B     		cmp	r3, #0
 564 0050 02D0     		beq	.L37
 565              		.loc 1 263 0
 566 0052 009B     		ldr	r3, [sp]
 567 0054 039A     		ldr	r2, [sp, #12]
 568 0056 1A60     		str	r2, [r3]
 569              	.L37:
 570              		.loc 1 265 0
 571 0058 FFF7FEFF 		bl	chMtxUnlock
 572              		.loc 1 266 0
 573 005c 049B     		ldr	r3, [sp, #16]
 574              		.loc 1 267 0
 575 005e 1846     		mov	r0, r3
 576 0060 07B0     		add	sp, sp, #28
 577              		@ sp needed
 578 0062 5DF804FB 		ldr	pc, [sp], #4
 579              	.L40:
 580 0066 00BF     		.align	2
 581              	.L39:
 582 0068 00000000 		.word	default_heap
 583              		.cfi_endproc
 584              	.LFE11:
 585              		.size	chHeapStatus, .-chHeapStatus
 586 006c AFF30080 		.text
 587              	.Letext0:
 588              		.file 2 "/usr/lib/gcc/arm-none-eabi/4.8/include/stddef.h"
 589              		.file 3 "/usr/include/newlib/machine/_default_types.h"
 590              		.file 4 "/usr/include/newlib/stdint.h"
 591              		.file 5 "/home/dave/r2p-sdk/core/ChibiOS/os/ports/GCC/ARMCMx/chtypes.h"
 592              		.file 6 "/home/dave/r2p-sdk/core/ChibiOS/os/kernel/include/chlists.h"
 593              		.file 7 "/home/dave/r2p-sdk/core/ChibiOS/os/kernel/include/chthreads.h"
 594              		.file 8 "/home/dave/r2p-sdk/core/ChibiOS/os/ports/GCC/ARMCMx/chcore_v7m.h"
 595              		.file 9 "/home/dave/r2p-sdk/core/ChibiOS/os/kernel/include/chmtx.h"
 596              		.file 10 "/home/dave/r2p-sdk/core/ChibiOS/os/kernel/include/chmemcore.h"
 597              		.file 11 "/home/dave/r2p-sdk/core/ChibiOS/os/kernel/include/chheap.h"
 598              		.section	.debug_info,"",%progbits
 599              	.Ldebug_info0:
 600 0000 F1060000 		.4byte	0x6f1
 601 0004 0400     		.2byte	0x4
 602 0006 00000000 		.4byte	.Ldebug_abbrev0
 603 000a 04       		.byte	0x4
 604 000b 01       		.uleb128 0x1
 605 000c 4D020000 		.4byte	.LASF81
 606 0010 01       		.byte	0x1
 607 0011 C6000000 		.4byte	.LASF82
 608 0015 00000000 		.4byte	.Ldebug_ranges0+0
 609 0019 00000000 		.4byte	0
 610 001d 00000000 		.4byte	.Ldebug_line0
ARM GAS  /tmp/ccaHU3Jd.s 			page 12


 611 0021 02       		.uleb128 0x2
 612 0022 04       		.byte	0x4
 613 0023 05       		.byte	0x5
 614 0024 696E7400 		.ascii	"int\000"
 615 0028 03       		.uleb128 0x3
 616 0029 06000000 		.4byte	.LASF2
 617 002d 02       		.byte	0x2
 618 002e D4       		.byte	0xd4
 619 002f 33000000 		.4byte	0x33
 620 0033 04       		.uleb128 0x4
 621 0034 04       		.byte	0x4
 622 0035 07       		.byte	0x7
 623 0036 33010000 		.4byte	.LASF0
 624 003a 04       		.uleb128 0x4
 625 003b 01       		.byte	0x1
 626 003c 06       		.byte	0x6
 627 003d 7D000000 		.4byte	.LASF1
 628 0041 03       		.uleb128 0x3
 629 0042 1D000000 		.4byte	.LASF3
 630 0046 03       		.byte	0x3
 631 0047 1D       		.byte	0x1d
 632 0048 4C000000 		.4byte	0x4c
 633 004c 04       		.uleb128 0x4
 634 004d 01       		.byte	0x1
 635 004e 08       		.byte	0x8
 636 004f 02020000 		.4byte	.LASF4
 637 0053 04       		.uleb128 0x4
 638 0054 02       		.byte	0x2
 639 0055 05       		.byte	0x5
 640 0056 25020000 		.4byte	.LASF5
 641 005a 04       		.uleb128 0x4
 642 005b 02       		.byte	0x2
 643 005c 07       		.byte	0x7
 644 005d 5F010000 		.4byte	.LASF6
 645 0061 03       		.uleb128 0x3
 646 0062 B2030000 		.4byte	.LASF7
 647 0066 03       		.byte	0x3
 648 0067 3F       		.byte	0x3f
 649 0068 6C000000 		.4byte	0x6c
 650 006c 04       		.uleb128 0x4
 651 006d 04       		.byte	0x4
 652 006e 05       		.byte	0x5
 653 006f B4000000 		.4byte	.LASF8
 654 0073 03       		.uleb128 0x3
 655 0074 0E010000 		.4byte	.LASF9
 656 0078 03       		.byte	0x3
 657 0079 41       		.byte	0x41
 658 007a 7E000000 		.4byte	0x7e
 659 007e 04       		.uleb128 0x4
 660 007f 04       		.byte	0x4
 661 0080 07       		.byte	0x7
 662 0081 40010000 		.4byte	.LASF10
 663 0085 04       		.uleb128 0x4
 664 0086 08       		.byte	0x8
 665 0087 05       		.byte	0x5
 666 0088 6F000000 		.4byte	.LASF11
 667 008c 03       		.uleb128 0x3
ARM GAS  /tmp/ccaHU3Jd.s 			page 13


 668 008d D2010000 		.4byte	.LASF12
 669 0091 03       		.byte	0x3
 670 0092 5B       		.byte	0x5b
 671 0093 97000000 		.4byte	0x97
 672 0097 04       		.uleb128 0x4
 673 0098 08       		.byte	0x8
 674 0099 07       		.byte	0x7
 675 009a 34000000 		.4byte	.LASF13
 676 009e 03       		.uleb128 0x3
 677 009f DC030000 		.4byte	.LASF14
 678 00a3 04       		.byte	0x4
 679 00a4 2A       		.byte	0x2a
 680 00a5 41000000 		.4byte	0x41
 681 00a9 03       		.uleb128 0x3
 682 00aa FA010000 		.4byte	.LASF15
 683 00ae 04       		.byte	0x4
 684 00af 41       		.byte	0x41
 685 00b0 61000000 		.4byte	0x61
 686 00b4 03       		.uleb128 0x3
 687 00b5 69030000 		.4byte	.LASF16
 688 00b9 04       		.byte	0x4
 689 00ba 42       		.byte	0x42
 690 00bb 73000000 		.4byte	0x73
 691 00bf 03       		.uleb128 0x3
 692 00c0 14000000 		.4byte	.LASF17
 693 00c4 04       		.byte	0x4
 694 00c5 4E       		.byte	0x4e
 695 00c6 8C000000 		.4byte	0x8c
 696 00ca 04       		.uleb128 0x4
 697 00cb 01       		.byte	0x1
 698 00cc 02       		.byte	0x2
 699 00cd F4010000 		.4byte	.LASF18
 700 00d1 03       		.uleb128 0x3
 701 00d2 78010000 		.4byte	.LASF19
 702 00d6 05       		.byte	0x5
 703 00d7 2C       		.byte	0x2c
 704 00d8 9E000000 		.4byte	0x9e
 705 00dc 03       		.uleb128 0x3
 706 00dd BD000000 		.4byte	.LASF20
 707 00e1 05       		.byte	0x5
 708 00e2 2D       		.byte	0x2d
 709 00e3 9E000000 		.4byte	0x9e
 710 00e7 03       		.uleb128 0x3
 711 00e8 DD010000 		.4byte	.LASF21
 712 00ec 05       		.byte	0x5
 713 00ed 2E       		.byte	0x2e
 714 00ee 9E000000 		.4byte	0x9e
 715 00f2 03       		.uleb128 0x3
 716 00f3 AA000000 		.4byte	.LASF22
 717 00f7 05       		.byte	0x5
 718 00f8 2F       		.byte	0x2f
 719 00f9 9E000000 		.4byte	0x9e
 720 00fd 03       		.uleb128 0x3
 721 00fe EC010000 		.4byte	.LASF23
 722 0102 05       		.byte	0x5
 723 0103 30       		.byte	0x30
 724 0104 B4000000 		.4byte	0xb4
ARM GAS  /tmp/ccaHU3Jd.s 			page 14


 725 0108 03       		.uleb128 0x3
 726 0109 72010000 		.4byte	.LASF24
 727 010d 05       		.byte	0x5
 728 010e 31       		.byte	0x31
 729 010f A9000000 		.4byte	0xa9
 730 0113 03       		.uleb128 0x3
 731 0114 8C010000 		.4byte	.LASF25
 732 0118 05       		.byte	0x5
 733 0119 33       		.byte	0x33
 734 011a B4000000 		.4byte	0xb4
 735 011e 03       		.uleb128 0x3
 736 011f 9D030000 		.4byte	.LASF26
 737 0123 05       		.byte	0x5
 738 0124 35       		.byte	0x35
 739 0125 B4000000 		.4byte	0xb4
 740 0129 03       		.uleb128 0x3
 741 012a 4B030000 		.4byte	.LASF27
 742 012e 06       		.byte	0x6
 743 012f 2A       		.byte	0x2a
 744 0130 34010000 		.4byte	0x134
 745 0134 05       		.uleb128 0x5
 746 0135 4B030000 		.4byte	.LASF27
 747 0139 4C       		.byte	0x4c
 748 013a 07       		.byte	0x7
 749 013b 5E       		.byte	0x5e
 750 013c 3D020000 		.4byte	0x23d
 751 0140 06       		.uleb128 0x6
 752 0141 3C030000 		.4byte	.LASF28
 753 0145 07       		.byte	0x7
 754 0146 5F       		.byte	0x5f
 755 0147 5E020000 		.4byte	0x25e
 756 014b 00       		.byte	0
 757 014c 06       		.uleb128 0x6
 758 014d E5010000 		.4byte	.LASF29
 759 0151 07       		.byte	0x7
 760 0152 61       		.byte	0x61
 761 0153 5E020000 		.4byte	0x25e
 762 0157 04       		.byte	0x4
 763 0158 06       		.uleb128 0x6
 764 0159 68000000 		.4byte	.LASF30
 765 015d 07       		.byte	0x7
 766 015e 63       		.byte	0x63
 767 015f FD000000 		.4byte	0xfd
 768 0163 08       		.byte	0x8
 769 0164 06       		.uleb128 0x6
 770 0165 12040000 		.4byte	.LASF31
 771 0169 07       		.byte	0x7
 772 016a 64       		.byte	0x64
 773 016b F3030000 		.4byte	0x3f3
 774 016f 0C       		.byte	0xc
 775 0170 06       		.uleb128 0x6
 776 0171 FD000000 		.4byte	.LASF32
 777 0175 07       		.byte	0x7
 778 0176 66       		.byte	0x66
 779 0177 5E020000 		.4byte	0x25e
 780 017b 10       		.byte	0x10
 781 017c 06       		.uleb128 0x6
ARM GAS  /tmp/ccaHU3Jd.s 			page 15


 782 017d B2010000 		.4byte	.LASF33
 783 0181 07       		.byte	0x7
 784 0182 67       		.byte	0x67
 785 0183 5E020000 		.4byte	0x25e
 786 0187 14       		.byte	0x14
 787 0188 06       		.uleb128 0x6
 788 0189 F8030000 		.4byte	.LASF34
 789 018d 07       		.byte	0x7
 790 018e 6E       		.byte	0x6e
 791 018f 5E050000 		.4byte	0x55e
 792 0193 18       		.byte	0x18
 793 0194 06       		.uleb128 0x6
 794 0195 28010000 		.4byte	.LASF35
 795 0199 07       		.byte	0x7
 796 019a 74       		.byte	0x74
 797 019b 70050000 		.4byte	0x570
 798 019f 1C       		.byte	0x1c
 799 01a0 06       		.uleb128 0x6
 800 01a1 2F020000 		.4byte	.LASF36
 801 01a5 07       		.byte	0x7
 802 01a6 79       		.byte	0x79
 803 01a7 DC000000 		.4byte	0xdc
 804 01ab 20       		.byte	0x20
 805 01ac 06       		.uleb128 0x6
 806 01ad 43030000 		.4byte	.LASF37
 807 01b1 07       		.byte	0x7
 808 01b2 7D       		.byte	0x7d
 809 01b3 D1000000 		.4byte	0xd1
 810 01b7 21       		.byte	0x21
 811 01b8 06       		.uleb128 0x6
 812 01b9 D5030000 		.4byte	.LASF38
 813 01bd 07       		.byte	0x7
 814 01be 82       		.byte	0x82
 815 01bf E7000000 		.4byte	0xe7
 816 01c3 22       		.byte	0x22
 817 01c4 06       		.uleb128 0x6
 818 01c5 37020000 		.4byte	.LASF39
 819 01c9 07       		.byte	0x7
 820 01ca 88       		.byte	0x88
 821 01cb F2000000 		.4byte	0xf2
 822 01cf 23       		.byte	0x23
 823 01d0 06       		.uleb128 0x6
 824 01d1 BC030000 		.4byte	.LASF40
 825 01d5 07       		.byte	0x7
 826 01d6 8F       		.byte	0x8f
 827 01d7 1B040000 		.4byte	0x41b
 828 01db 24       		.byte	0x24
 829 01dc 07       		.uleb128 0x7
 830 01dd 705F7500 		.ascii	"p_u\000"
 831 01e1 07       		.byte	0x7
 832 01e2 B4       		.byte	0xb4
 833 01e3 29050000 		.4byte	0x529
 834 01e7 28       		.byte	0x28
 835 01e8 06       		.uleb128 0x6
 836 01e9 18040000 		.4byte	.LASF41
 837 01ed 07       		.byte	0x7
 838 01ee B9       		.byte	0xb9
ARM GAS  /tmp/ccaHU3Jd.s 			page 16


 839 01ef 84020000 		.4byte	0x284
 840 01f3 2C       		.byte	0x2c
 841 01f4 06       		.uleb128 0x6
 842 01f5 CA030000 		.4byte	.LASF42
 843 01f9 07       		.byte	0x7
 844 01fa BF       		.byte	0xbf
 845 01fb 64020000 		.4byte	0x264
 846 01ff 30       		.byte	0x30
 847 0200 06       		.uleb128 0x6
 848 0201 00000000 		.4byte	.LASF43
 849 0205 07       		.byte	0x7
 850 0206 C3       		.byte	0xc3
 851 0207 08010000 		.4byte	0x108
 852 020b 38       		.byte	0x38
 853 020c 06       		.uleb128 0x6
 854 020d 5E030000 		.4byte	.LASF44
 855 0211 07       		.byte	0x7
 856 0212 C9       		.byte	0xc9
 857 0213 13010000 		.4byte	0x113
 858 0217 3C       		.byte	0x3c
 859 0218 06       		.uleb128 0x6
 860 0219 1B020000 		.4byte	.LASF45
 861 021d 07       		.byte	0x7
 862 021e D0       		.byte	0xd0
 863 021f 76050000 		.4byte	0x576
 864 0223 40       		.byte	0x40
 865 0224 06       		.uleb128 0x6
 866 0225 A7030000 		.4byte	.LASF46
 867 0229 07       		.byte	0x7
 868 022a D4       		.byte	0xd4
 869 022b FD000000 		.4byte	0xfd
 870 022f 44       		.byte	0x44
 871 0230 06       		.uleb128 0x6
 872 0231 8F000000 		.4byte	.LASF47
 873 0235 07       		.byte	0x7
 874 0236 DA       		.byte	0xda
 875 0237 9A020000 		.4byte	0x29a
 876 023b 48       		.byte	0x48
 877 023c 00       		.byte	0
 878 023d 08       		.uleb128 0x8
 879 023e 08       		.byte	0x8
 880 023f 06       		.byte	0x6
 881 0240 61       		.byte	0x61
 882 0241 5E020000 		.4byte	0x25e
 883 0245 06       		.uleb128 0x6
 884 0246 3C030000 		.4byte	.LASF28
 885 024a 06       		.byte	0x6
 886 024b 62       		.byte	0x62
 887 024c 5E020000 		.4byte	0x25e
 888 0250 00       		.byte	0
 889 0251 06       		.uleb128 0x6
 890 0252 E5010000 		.4byte	.LASF29
 891 0256 06       		.byte	0x6
 892 0257 64       		.byte	0x64
 893 0258 5E020000 		.4byte	0x25e
 894 025c 04       		.byte	0x4
 895 025d 00       		.byte	0
ARM GAS  /tmp/ccaHU3Jd.s 			page 17


 896 025e 09       		.uleb128 0x9
 897 025f 04       		.byte	0x4
 898 0260 29010000 		.4byte	0x129
 899 0264 03       		.uleb128 0x3
 900 0265 BA010000 		.4byte	.LASF48
 901 0269 06       		.byte	0x6
 902 026a 66       		.byte	0x66
 903 026b 3D020000 		.4byte	0x23d
 904 026f 08       		.uleb128 0x8
 905 0270 04       		.byte	0x4
 906 0271 06       		.byte	0x6
 907 0272 6B       		.byte	0x6b
 908 0273 84020000 		.4byte	0x284
 909 0277 06       		.uleb128 0x6
 910 0278 3C030000 		.4byte	.LASF28
 911 027c 06       		.byte	0x6
 912 027d 6D       		.byte	0x6d
 913 027e 5E020000 		.4byte	0x25e
 914 0282 00       		.byte	0
 915 0283 00       		.byte	0
 916 0284 03       		.uleb128 0x3
 917 0285 80010000 		.4byte	.LASF49
 918 0289 06       		.byte	0x6
 919 028a 70       		.byte	0x70
 920 028b 6F020000 		.4byte	0x26f
 921 028f 03       		.uleb128 0x3
 922 0290 19010000 		.4byte	.LASF50
 923 0294 08       		.byte	0x8
 924 0295 E5       		.byte	0xe5
 925 0296 9A020000 		.4byte	0x29a
 926 029a 0A       		.uleb128 0xa
 927 029b 04       		.byte	0x4
 928 029c 03       		.uleb128 0x3
 929 029d 9E010000 		.4byte	.LASF51
 930 02a1 08       		.byte	0x8
 931 02a2 EB       		.byte	0xeb
 932 02a3 BF000000 		.4byte	0xbf
 933 02a7 0B       		.uleb128 0xb
 934 02a8 C3030000 		.4byte	.LASF52
 935 02ac 64       		.byte	0x64
 936 02ad 08       		.byte	0x8
 937 02ae 0C01     		.2byte	0x10c
 938 02b0 F3030000 		.4byte	0x3f3
 939 02b4 0C       		.uleb128 0xc
 940 02b5 73313600 		.ascii	"s16\000"
 941 02b9 08       		.byte	0x8
 942 02ba 0E01     		.2byte	0x10e
 943 02bc 8F020000 		.4byte	0x28f
 944 02c0 00       		.byte	0
 945 02c1 0C       		.uleb128 0xc
 946 02c2 73313700 		.ascii	"s17\000"
 947 02c6 08       		.byte	0x8
 948 02c7 0F01     		.2byte	0x10f
 949 02c9 8F020000 		.4byte	0x28f
 950 02cd 04       		.byte	0x4
 951 02ce 0C       		.uleb128 0xc
 952 02cf 73313800 		.ascii	"s18\000"
ARM GAS  /tmp/ccaHU3Jd.s 			page 18


 953 02d3 08       		.byte	0x8
 954 02d4 1001     		.2byte	0x110
 955 02d6 8F020000 		.4byte	0x28f
 956 02da 08       		.byte	0x8
 957 02db 0C       		.uleb128 0xc
 958 02dc 73313900 		.ascii	"s19\000"
 959 02e0 08       		.byte	0x8
 960 02e1 1101     		.2byte	0x111
 961 02e3 8F020000 		.4byte	0x28f
 962 02e7 0C       		.byte	0xc
 963 02e8 0C       		.uleb128 0xc
 964 02e9 73323000 		.ascii	"s20\000"
 965 02ed 08       		.byte	0x8
 966 02ee 1201     		.2byte	0x112
 967 02f0 8F020000 		.4byte	0x28f
 968 02f4 10       		.byte	0x10
 969 02f5 0C       		.uleb128 0xc
 970 02f6 73323100 		.ascii	"s21\000"
 971 02fa 08       		.byte	0x8
 972 02fb 1301     		.2byte	0x113
 973 02fd 8F020000 		.4byte	0x28f
 974 0301 14       		.byte	0x14
 975 0302 0C       		.uleb128 0xc
 976 0303 73323200 		.ascii	"s22\000"
 977 0307 08       		.byte	0x8
 978 0308 1401     		.2byte	0x114
 979 030a 8F020000 		.4byte	0x28f
 980 030e 18       		.byte	0x18
 981 030f 0C       		.uleb128 0xc
 982 0310 73323300 		.ascii	"s23\000"
 983 0314 08       		.byte	0x8
 984 0315 1501     		.2byte	0x115
 985 0317 8F020000 		.4byte	0x28f
 986 031b 1C       		.byte	0x1c
 987 031c 0C       		.uleb128 0xc
 988 031d 73323400 		.ascii	"s24\000"
 989 0321 08       		.byte	0x8
 990 0322 1601     		.2byte	0x116
 991 0324 8F020000 		.4byte	0x28f
 992 0328 20       		.byte	0x20
 993 0329 0C       		.uleb128 0xc
 994 032a 73323500 		.ascii	"s25\000"
 995 032e 08       		.byte	0x8
 996 032f 1701     		.2byte	0x117
 997 0331 8F020000 		.4byte	0x28f
 998 0335 24       		.byte	0x24
 999 0336 0C       		.uleb128 0xc
 1000 0337 73323600 		.ascii	"s26\000"
 1001 033b 08       		.byte	0x8
 1002 033c 1801     		.2byte	0x118
 1003 033e 8F020000 		.4byte	0x28f
 1004 0342 28       		.byte	0x28
 1005 0343 0C       		.uleb128 0xc
 1006 0344 73323700 		.ascii	"s27\000"
 1007 0348 08       		.byte	0x8
 1008 0349 1901     		.2byte	0x119
 1009 034b 8F020000 		.4byte	0x28f
ARM GAS  /tmp/ccaHU3Jd.s 			page 19


 1010 034f 2C       		.byte	0x2c
 1011 0350 0C       		.uleb128 0xc
 1012 0351 73323800 		.ascii	"s28\000"
 1013 0355 08       		.byte	0x8
 1014 0356 1A01     		.2byte	0x11a
 1015 0358 8F020000 		.4byte	0x28f
 1016 035c 30       		.byte	0x30
 1017 035d 0C       		.uleb128 0xc
 1018 035e 73323900 		.ascii	"s29\000"
 1019 0362 08       		.byte	0x8
 1020 0363 1B01     		.2byte	0x11b
 1021 0365 8F020000 		.4byte	0x28f
 1022 0369 34       		.byte	0x34
 1023 036a 0C       		.uleb128 0xc
 1024 036b 73333000 		.ascii	"s30\000"
 1025 036f 08       		.byte	0x8
 1026 0370 1C01     		.2byte	0x11c
 1027 0372 8F020000 		.4byte	0x28f
 1028 0376 38       		.byte	0x38
 1029 0377 0C       		.uleb128 0xc
 1030 0378 73333100 		.ascii	"s31\000"
 1031 037c 08       		.byte	0x8
 1032 037d 1D01     		.2byte	0x11d
 1033 037f 8F020000 		.4byte	0x28f
 1034 0383 3C       		.byte	0x3c
 1035 0384 0C       		.uleb128 0xc
 1036 0385 723400   		.ascii	"r4\000"
 1037 0388 08       		.byte	0x8
 1038 0389 1F01     		.2byte	0x11f
 1039 038b 8F020000 		.4byte	0x28f
 1040 038f 40       		.byte	0x40
 1041 0390 0C       		.uleb128 0xc
 1042 0391 723500   		.ascii	"r5\000"
 1043 0394 08       		.byte	0x8
 1044 0395 2001     		.2byte	0x120
 1045 0397 8F020000 		.4byte	0x28f
 1046 039b 44       		.byte	0x44
 1047 039c 0C       		.uleb128 0xc
 1048 039d 723600   		.ascii	"r6\000"
 1049 03a0 08       		.byte	0x8
 1050 03a1 2101     		.2byte	0x121
 1051 03a3 8F020000 		.4byte	0x28f
 1052 03a7 48       		.byte	0x48
 1053 03a8 0C       		.uleb128 0xc
 1054 03a9 723700   		.ascii	"r7\000"
 1055 03ac 08       		.byte	0x8
 1056 03ad 2201     		.2byte	0x122
 1057 03af 8F020000 		.4byte	0x28f
 1058 03b3 4C       		.byte	0x4c
 1059 03b4 0C       		.uleb128 0xc
 1060 03b5 723800   		.ascii	"r8\000"
 1061 03b8 08       		.byte	0x8
 1062 03b9 2301     		.2byte	0x123
 1063 03bb 8F020000 		.4byte	0x28f
 1064 03bf 50       		.byte	0x50
 1065 03c0 0C       		.uleb128 0xc
 1066 03c1 723900   		.ascii	"r9\000"
ARM GAS  /tmp/ccaHU3Jd.s 			page 20


 1067 03c4 08       		.byte	0x8
 1068 03c5 2401     		.2byte	0x124
 1069 03c7 8F020000 		.4byte	0x28f
 1070 03cb 54       		.byte	0x54
 1071 03cc 0C       		.uleb128 0xc
 1072 03cd 72313000 		.ascii	"r10\000"
 1073 03d1 08       		.byte	0x8
 1074 03d2 2501     		.2byte	0x125
 1075 03d4 8F020000 		.4byte	0x28f
 1076 03d8 58       		.byte	0x58
 1077 03d9 0C       		.uleb128 0xc
 1078 03da 72313100 		.ascii	"r11\000"
 1079 03de 08       		.byte	0x8
 1080 03df 2601     		.2byte	0x126
 1081 03e1 8F020000 		.4byte	0x28f
 1082 03e5 5C       		.byte	0x5c
 1083 03e6 0C       		.uleb128 0xc
 1084 03e7 6C7200   		.ascii	"lr\000"
 1085 03ea 08       		.byte	0x8
 1086 03eb 2701     		.2byte	0x127
 1087 03ed 8F020000 		.4byte	0x28f
 1088 03f1 60       		.byte	0x60
 1089 03f2 00       		.byte	0
 1090 03f3 0B       		.uleb128 0xb
 1091 03f4 52010000 		.4byte	.LASF53
 1092 03f8 04       		.byte	0x4
 1093 03f9 08       		.byte	0x8
 1094 03fa 3101     		.2byte	0x131
 1095 03fc 0E040000 		.4byte	0x40e
 1096 0400 0C       		.uleb128 0xc
 1097 0401 72313300 		.ascii	"r13\000"
 1098 0405 08       		.byte	0x8
 1099 0406 3201     		.2byte	0x132
 1100 0408 0E040000 		.4byte	0x40e
 1101 040c 00       		.byte	0
 1102 040d 00       		.byte	0
 1103 040e 09       		.uleb128 0x9
 1104 040f 04       		.byte	0x4
 1105 0410 A7020000 		.4byte	0x2a7
 1106 0414 04       		.uleb128 0x4
 1107 0415 04       		.byte	0x4
 1108 0416 07       		.byte	0x7
 1109 0417 A9010000 		.4byte	.LASF54
 1110 041b 0D       		.uleb128 0xd
 1111 041c 1E010000 		.4byte	0x11e
 1112 0420 05       		.uleb128 0x5
 1113 0421 98010000 		.4byte	.LASF55
 1114 0425 10       		.byte	0x10
 1115 0426 09       		.byte	0x9
 1116 0427 2C       		.byte	0x2c
 1117 0428 51040000 		.4byte	0x451
 1118 042c 06       		.uleb128 0x6
 1119 042d 97000000 		.4byte	.LASF56
 1120 0431 09       		.byte	0x9
 1121 0432 2D       		.byte	0x2d
 1122 0433 64020000 		.4byte	0x264
 1123 0437 00       		.byte	0
ARM GAS  /tmp/ccaHU3Jd.s 			page 21


 1124 0438 06       		.uleb128 0x6
 1125 0439 0A040000 		.4byte	.LASF57
 1126 043d 09       		.byte	0x9
 1127 043e 2F       		.byte	0x2f
 1128 043f 5E020000 		.4byte	0x25e
 1129 0443 08       		.byte	0x8
 1130 0444 06       		.uleb128 0x6
 1131 0445 96030000 		.4byte	.LASF58
 1132 0449 09       		.byte	0x9
 1133 044a 31       		.byte	0x31
 1134 044b 51040000 		.4byte	0x451
 1135 044f 0C       		.byte	0xc
 1136 0450 00       		.byte	0
 1137 0451 09       		.uleb128 0x9
 1138 0452 04       		.byte	0x4
 1139 0453 20040000 		.4byte	0x420
 1140 0457 03       		.uleb128 0x3
 1141 0458 98010000 		.4byte	.LASF55
 1142 045c 09       		.byte	0x9
 1143 045d 33       		.byte	0x33
 1144 045e 20040000 		.4byte	0x420
 1145 0462 03       		.uleb128 0x3
 1146 0463 27000000 		.4byte	.LASF59
 1147 0467 0A       		.byte	0xa
 1148 0468 2C       		.byte	0x2c
 1149 0469 6D040000 		.4byte	0x46d
 1150 046d 09       		.uleb128 0x9
 1151 046e 04       		.byte	0x4
 1152 046f 73040000 		.4byte	0x473
 1153 0473 0E       		.uleb128 0xe
 1154 0474 9A020000 		.4byte	0x29a
 1155 0478 82040000 		.4byte	0x482
 1156 047c 0F       		.uleb128 0xf
 1157 047d 28000000 		.4byte	0x28
 1158 0481 00       		.byte	0
 1159 0482 03       		.uleb128 0x3
 1160 0483 C7010000 		.4byte	.LASF60
 1161 0487 0B       		.byte	0xb
 1162 0488 34       		.byte	0x34
 1163 0489 8D040000 		.4byte	0x48d
 1164 048d 05       		.uleb128 0x5
 1165 048e 22040000 		.4byte	.LASF61
 1166 0492 20       		.byte	0x20
 1167 0493 0B       		.byte	0xb
 1168 0494 47       		.byte	0x47
 1169 0495 BE040000 		.4byte	0x4be
 1170 0499 06       		.uleb128 0x6
 1171 049a 10020000 		.4byte	.LASF62
 1172 049e 0B       		.byte	0xb
 1173 049f 48       		.byte	0x48
 1174 04a0 62040000 		.4byte	0x462
 1175 04a4 00       		.byte	0
 1176 04a5 06       		.uleb128 0x6
 1177 04a6 4B000000 		.4byte	.LASF63
 1178 04aa 0B       		.byte	0xb
 1179 04ab 4A       		.byte	0x4a
 1180 04ac DD040000 		.4byte	0x4dd
ARM GAS  /tmp/ccaHU3Jd.s 			page 22


 1181 04b0 08       		.byte	0x8
 1182 04b1 06       		.uleb128 0x6
 1183 04b2 89000000 		.4byte	.LASF64
 1184 04b6 0B       		.byte	0xb
 1185 04b7 4C       		.byte	0x4c
 1186 04b8 57040000 		.4byte	0x457
 1187 04bc 10       		.byte	0x10
 1188 04bd 00       		.byte	0
 1189 04be 10       		.uleb128 0x10
 1190 04bf 04       		.byte	0x4
 1191 04c0 0B       		.byte	0xb
 1192 04c1 3C       		.byte	0x3c
 1193 04c2 DD040000 		.4byte	0x4dd
 1194 04c6 11       		.uleb128 0x11
 1195 04c7 63000000 		.4byte	.LASF65
 1196 04cb 0B       		.byte	0xb
 1197 04cc 3D       		.byte	0x3d
 1198 04cd FE040000 		.4byte	0x4fe
 1199 04d1 11       		.uleb128 0x11
 1200 04d2 72030000 		.4byte	.LASF66
 1201 04d6 0B       		.byte	0xb
 1202 04d7 3E       		.byte	0x3e
 1203 04d8 04050000 		.4byte	0x504
 1204 04dc 00       		.byte	0
 1205 04dd 12       		.uleb128 0x12
 1206 04de 41020000 		.4byte	.LASF83
 1207 04e2 08       		.byte	0x8
 1208 04e3 0B       		.byte	0xb
 1209 04e4 39       		.byte	0x39
 1210 04e5 FE040000 		.4byte	0x4fe
 1211 04e9 11       		.uleb128 0x11
 1212 04ea 22010000 		.4byte	.LASF67
 1213 04ee 0B       		.byte	0xb
 1214 04ef 3A       		.byte	0x3a
 1215 04f0 9C020000 		.4byte	0x29c
 1216 04f4 13       		.uleb128 0x13
 1217 04f5 6800     		.ascii	"h\000"
 1218 04f7 0B       		.byte	0xb
 1219 04f8 41       		.byte	0x41
 1220 04f9 0A050000 		.4byte	0x50a
 1221 04fd 00       		.byte	0
 1222 04fe 09       		.uleb128 0x9
 1223 04ff 04       		.byte	0x4
 1224 0500 DD040000 		.4byte	0x4dd
 1225 0504 09       		.uleb128 0x9
 1226 0505 04       		.byte	0x4
 1227 0506 82040000 		.4byte	0x482
 1228 050a 08       		.uleb128 0x8
 1229 050b 08       		.byte	0x8
 1230 050c 0B       		.byte	0xb
 1231 050d 3B       		.byte	0x3b
 1232 050e 29050000 		.4byte	0x529
 1233 0512 07       		.uleb128 0x7
 1234 0513 7500     		.ascii	"u\000"
 1235 0515 0B       		.byte	0xb
 1236 0516 3F       		.byte	0x3f
 1237 0517 BE040000 		.4byte	0x4be
ARM GAS  /tmp/ccaHU3Jd.s 			page 23


 1238 051b 00       		.byte	0
 1239 051c 06       		.uleb128 0x6
 1240 051d 5A010000 		.4byte	.LASF68
 1241 0521 0B       		.byte	0xb
 1242 0522 40       		.byte	0x40
 1243 0523 28000000 		.4byte	0x28
 1244 0527 04       		.byte	0x4
 1245 0528 00       		.byte	0
 1246 0529 10       		.uleb128 0x10
 1247 052a 04       		.byte	0x4
 1248 052b 07       		.byte	0x7
 1249 052c 96       		.byte	0x96
 1250 052d 5E050000 		.4byte	0x55e
 1251 0531 11       		.uleb128 0x11
 1252 0532 0D000000 		.4byte	.LASF69
 1253 0536 07       		.byte	0x7
 1254 0537 9D       		.byte	0x9d
 1255 0538 08010000 		.4byte	0x108
 1256 053c 11       		.uleb128 0x11
 1257 053d 05010000 		.4byte	.LASF70
 1258 0541 07       		.byte	0x7
 1259 0542 A4       		.byte	0xa4
 1260 0543 08010000 		.4byte	0x108
 1261 0547 11       		.uleb128 0x11
 1262 0548 EB030000 		.4byte	.LASF71
 1263 054c 07       		.byte	0x7
 1264 054d AB       		.byte	0xab
 1265 054e 9A020000 		.4byte	0x29a
 1266 0552 11       		.uleb128 0x11
 1267 0553 E4030000 		.4byte	.LASF72
 1268 0557 07       		.byte	0x7
 1269 0558 B2       		.byte	0xb2
 1270 0559 13010000 		.4byte	0x113
 1271 055d 00       		.byte	0
 1272 055e 09       		.uleb128 0x9
 1273 055f 04       		.byte	0x4
 1274 0560 64050000 		.4byte	0x564
 1275 0564 14       		.uleb128 0x14
 1276 0565 69050000 		.4byte	0x569
 1277 0569 04       		.uleb128 0x4
 1278 056a 01       		.byte	0x1
 1279 056b 08       		.byte	0x8
 1280 056c 84030000 		.4byte	.LASF73
 1281 0570 09       		.uleb128 0x9
 1282 0571 04       		.byte	0x4
 1283 0572 9C020000 		.4byte	0x29c
 1284 0576 09       		.uleb128 0x9
 1285 0577 04       		.byte	0x4
 1286 0578 57040000 		.4byte	0x457
 1287 057c 15       		.uleb128 0x15
 1288 057d FF030000 		.4byte	.LASF84
 1289 0581 01       		.byte	0x1
 1290 0582 4B       		.byte	0x4b
 1291 0583 00000000 		.4byte	.LFB7
 1292 0587 28000000 		.4byte	.LFE7-.LFB7
 1293 058b 01       		.uleb128 0x1
 1294 058c 9C       		.byte	0x9c
ARM GAS  /tmp/ccaHU3Jd.s 			page 24


 1295 058d 16       		.uleb128 0x16
 1296 058e 58000000 		.4byte	.LASF75
 1297 0592 01       		.byte	0x1
 1298 0593 63       		.byte	0x63
 1299 0594 00000000 		.4byte	.LFB8
 1300 0598 60000000 		.4byte	.LFE8-.LFB8
 1301 059c 01       		.uleb128 0x1
 1302 059d 9C       		.byte	0x9c
 1303 059e DA050000 		.4byte	0x5da
 1304 05a2 17       		.uleb128 0x17
 1305 05a3 52000000 		.4byte	.LASF74
 1306 05a7 01       		.byte	0x1
 1307 05a8 63       		.byte	0x63
 1308 05a9 04050000 		.4byte	0x504
 1309 05ad 02       		.uleb128 0x2
 1310 05ae 91       		.byte	0x91
 1311 05af 6C       		.sleb128 -20
 1312 05b0 18       		.uleb128 0x18
 1313 05b1 62756600 		.ascii	"buf\000"
 1314 05b5 01       		.byte	0x1
 1315 05b6 63       		.byte	0x63
 1316 05b7 9A020000 		.4byte	0x29a
 1317 05bb 02       		.uleb128 0x2
 1318 05bc 91       		.byte	0x91
 1319 05bd 68       		.sleb128 -24
 1320 05be 17       		.uleb128 0x17
 1321 05bf 5A010000 		.4byte	.LASF68
 1322 05c3 01       		.byte	0x1
 1323 05c4 63       		.byte	0x63
 1324 05c5 28000000 		.4byte	0x28
 1325 05c9 02       		.uleb128 0x2
 1326 05ca 91       		.byte	0x91
 1327 05cb 64       		.sleb128 -28
 1328 05cc 19       		.uleb128 0x19
 1329 05cd 687000   		.ascii	"hp\000"
 1330 05d0 01       		.byte	0x1
 1331 05d1 64       		.byte	0x64
 1332 05d2 FE040000 		.4byte	0x4fe
 1333 05d6 02       		.uleb128 0x2
 1334 05d7 91       		.byte	0x91
 1335 05d8 74       		.sleb128 -12
 1336 05d9 00       		.byte	0
 1337 05da 1A       		.uleb128 0x1a
 1338 05db 52030000 		.4byte	.LASF77
 1339 05df 01       		.byte	0x1
 1340 05e0 84       		.byte	0x84
 1341 05e1 9A020000 		.4byte	0x29a
 1342 05e5 00000000 		.4byte	.LFB9
 1343 05e9 E4000000 		.4byte	.LFE9-.LFB9
 1344 05ed 01       		.uleb128 0x1
 1345 05ee 9C       		.byte	0x9c
 1346 05ef 37060000 		.4byte	0x637
 1347 05f3 17       		.uleb128 0x17
 1348 05f4 52000000 		.4byte	.LASF74
 1349 05f8 01       		.byte	0x1
 1350 05f9 84       		.byte	0x84
 1351 05fa 04050000 		.4byte	0x504
ARM GAS  /tmp/ccaHU3Jd.s 			page 25


 1352 05fe 02       		.uleb128 0x2
 1353 05ff 91       		.byte	0x91
 1354 0600 64       		.sleb128 -28
 1355 0601 17       		.uleb128 0x17
 1356 0602 5A010000 		.4byte	.LASF68
 1357 0606 01       		.byte	0x1
 1358 0607 84       		.byte	0x84
 1359 0608 28000000 		.4byte	0x28
 1360 060c 02       		.uleb128 0x2
 1361 060d 91       		.byte	0x91
 1362 060e 60       		.sleb128 -32
 1363 060f 19       		.uleb128 0x19
 1364 0610 717000   		.ascii	"qp\000"
 1365 0613 01       		.byte	0x1
 1366 0614 85       		.byte	0x85
 1367 0615 FE040000 		.4byte	0x4fe
 1368 0619 02       		.uleb128 0x2
 1369 061a 91       		.byte	0x91
 1370 061b 74       		.sleb128 -12
 1371 061c 19       		.uleb128 0x19
 1372 061d 687000   		.ascii	"hp\000"
 1373 0620 01       		.byte	0x1
 1374 0621 85       		.byte	0x85
 1375 0622 FE040000 		.4byte	0x4fe
 1376 0626 02       		.uleb128 0x2
 1377 0627 91       		.byte	0x91
 1378 0628 70       		.sleb128 -16
 1379 0629 19       		.uleb128 0x19
 1380 062a 667000   		.ascii	"fp\000"
 1381 062d 01       		.byte	0x1
 1382 062e 85       		.byte	0x85
 1383 062f FE040000 		.4byte	0x4fe
 1384 0633 02       		.uleb128 0x2
 1385 0634 91       		.byte	0x91
 1386 0635 6C       		.sleb128 -20
 1387 0636 00       		.byte	0
 1388 0637 16       		.uleb128 0x16
 1389 0638 9F000000 		.4byte	.LASF76
 1390 063c 01       		.byte	0x1
 1391 063d C2       		.byte	0xc2
 1392 063e 00000000 		.4byte	.LFB10
 1393 0642 FC000000 		.4byte	.LFE10-.LFB10
 1394 0646 01       		.uleb128 0x1
 1395 0647 9C       		.byte	0x9c
 1396 0648 81060000 		.4byte	0x681
 1397 064c 18       		.uleb128 0x18
 1398 064d 7000     		.ascii	"p\000"
 1399 064f 01       		.byte	0x1
 1400 0650 C2       		.byte	0xc2
 1401 0651 9A020000 		.4byte	0x29a
 1402 0655 02       		.uleb128 0x2
 1403 0656 91       		.byte	0x91
 1404 0657 64       		.sleb128 -28
 1405 0658 19       		.uleb128 0x19
 1406 0659 717000   		.ascii	"qp\000"
 1407 065c 01       		.byte	0x1
 1408 065d C3       		.byte	0xc3
ARM GAS  /tmp/ccaHU3Jd.s 			page 26


 1409 065e FE040000 		.4byte	0x4fe
 1410 0662 02       		.uleb128 0x2
 1411 0663 91       		.byte	0x91
 1412 0664 74       		.sleb128 -12
 1413 0665 19       		.uleb128 0x19
 1414 0666 687000   		.ascii	"hp\000"
 1415 0669 01       		.byte	0x1
 1416 066a C3       		.byte	0xc3
 1417 066b FE040000 		.4byte	0x4fe
 1418 066f 02       		.uleb128 0x2
 1419 0670 91       		.byte	0x91
 1420 0671 70       		.sleb128 -16
 1421 0672 1B       		.uleb128 0x1b
 1422 0673 52000000 		.4byte	.LASF74
 1423 0677 01       		.byte	0x1
 1424 0678 C4       		.byte	0xc4
 1425 0679 04050000 		.4byte	0x504
 1426 067d 02       		.uleb128 0x2
 1427 067e 91       		.byte	0x91
 1428 067f 6C       		.sleb128 -20
 1429 0680 00       		.byte	0
 1430 0681 1A       		.uleb128 0x1a
 1431 0682 89030000 		.4byte	.LASF78
 1432 0686 01       		.byte	0x1
 1433 0687 FA       		.byte	0xfa
 1434 0688 28000000 		.4byte	0x28
 1435 068c 00000000 		.4byte	.LFB11
 1436 0690 6C000000 		.4byte	.LFE11-.LFB11
 1437 0694 01       		.uleb128 0x1
 1438 0695 9C       		.byte	0x9c
 1439 0696 DD060000 		.4byte	0x6dd
 1440 069a 17       		.uleb128 0x17
 1441 069b 52000000 		.4byte	.LASF74
 1442 069f 01       		.byte	0x1
 1443 06a0 FA       		.byte	0xfa
 1444 06a1 04050000 		.4byte	0x504
 1445 06a5 02       		.uleb128 0x2
 1446 06a6 91       		.byte	0x91
 1447 06a7 64       		.sleb128 -28
 1448 06a8 17       		.uleb128 0x17
 1449 06a9 F2030000 		.4byte	.LASF79
 1450 06ad 01       		.byte	0x1
 1451 06ae FA       		.byte	0xfa
 1452 06af DD060000 		.4byte	0x6dd
 1453 06b3 02       		.uleb128 0x2
 1454 06b4 91       		.byte	0x91
 1455 06b5 60       		.sleb128 -32
 1456 06b6 19       		.uleb128 0x19
 1457 06b7 717000   		.ascii	"qp\000"
 1458 06ba 01       		.byte	0x1
 1459 06bb FB       		.byte	0xfb
 1460 06bc FE040000 		.4byte	0x4fe
 1461 06c0 02       		.uleb128 0x2
 1462 06c1 91       		.byte	0x91
 1463 06c2 74       		.sleb128 -12
 1464 06c3 19       		.uleb128 0x19
 1465 06c4 6E00     		.ascii	"n\000"
ARM GAS  /tmp/ccaHU3Jd.s 			page 27


 1466 06c6 01       		.byte	0x1
 1467 06c7 FC       		.byte	0xfc
 1468 06c8 28000000 		.4byte	0x28
 1469 06cc 02       		.uleb128 0x2
 1470 06cd 91       		.byte	0x91
 1471 06ce 70       		.sleb128 -16
 1472 06cf 19       		.uleb128 0x19
 1473 06d0 737A00   		.ascii	"sz\000"
 1474 06d3 01       		.byte	0x1
 1475 06d4 FC       		.byte	0xfc
 1476 06d5 28000000 		.4byte	0x28
 1477 06d9 02       		.uleb128 0x2
 1478 06da 91       		.byte	0x91
 1479 06db 6C       		.sleb128 -20
 1480 06dc 00       		.byte	0
 1481 06dd 09       		.uleb128 0x9
 1482 06de 04       		.byte	0x4
 1483 06df 28000000 		.4byte	0x28
 1484 06e3 1B       		.uleb128 0x1b
 1485 06e4 77030000 		.4byte	.LASF80
 1486 06e8 01       		.byte	0x1
 1487 06e9 44       		.byte	0x44
 1488 06ea 82040000 		.4byte	0x482
 1489 06ee 05       		.uleb128 0x5
 1490 06ef 03       		.byte	0x3
 1491 06f0 00000000 		.4byte	default_heap
 1492 06f4 00       		.byte	0
 1493              		.section	.debug_abbrev,"",%progbits
 1494              	.Ldebug_abbrev0:
 1495 0000 01       		.uleb128 0x1
 1496 0001 11       		.uleb128 0x11
 1497 0002 01       		.byte	0x1
 1498 0003 25       		.uleb128 0x25
 1499 0004 0E       		.uleb128 0xe
 1500 0005 13       		.uleb128 0x13
 1501 0006 0B       		.uleb128 0xb
 1502 0007 03       		.uleb128 0x3
 1503 0008 0E       		.uleb128 0xe
 1504 0009 55       		.uleb128 0x55
 1505 000a 17       		.uleb128 0x17
 1506 000b 11       		.uleb128 0x11
 1507 000c 01       		.uleb128 0x1
 1508 000d 10       		.uleb128 0x10
 1509 000e 17       		.uleb128 0x17
 1510 000f 00       		.byte	0
 1511 0010 00       		.byte	0
 1512 0011 02       		.uleb128 0x2
 1513 0012 24       		.uleb128 0x24
 1514 0013 00       		.byte	0
 1515 0014 0B       		.uleb128 0xb
 1516 0015 0B       		.uleb128 0xb
 1517 0016 3E       		.uleb128 0x3e
 1518 0017 0B       		.uleb128 0xb
 1519 0018 03       		.uleb128 0x3
 1520 0019 08       		.uleb128 0x8
 1521 001a 00       		.byte	0
 1522 001b 00       		.byte	0
ARM GAS  /tmp/ccaHU3Jd.s 			page 28


 1523 001c 03       		.uleb128 0x3
 1524 001d 16       		.uleb128 0x16
 1525 001e 00       		.byte	0
 1526 001f 03       		.uleb128 0x3
 1527 0020 0E       		.uleb128 0xe
 1528 0021 3A       		.uleb128 0x3a
 1529 0022 0B       		.uleb128 0xb
 1530 0023 3B       		.uleb128 0x3b
 1531 0024 0B       		.uleb128 0xb
 1532 0025 49       		.uleb128 0x49
 1533 0026 13       		.uleb128 0x13
 1534 0027 00       		.byte	0
 1535 0028 00       		.byte	0
 1536 0029 04       		.uleb128 0x4
 1537 002a 24       		.uleb128 0x24
 1538 002b 00       		.byte	0
 1539 002c 0B       		.uleb128 0xb
 1540 002d 0B       		.uleb128 0xb
 1541 002e 3E       		.uleb128 0x3e
 1542 002f 0B       		.uleb128 0xb
 1543 0030 03       		.uleb128 0x3
 1544 0031 0E       		.uleb128 0xe
 1545 0032 00       		.byte	0
 1546 0033 00       		.byte	0
 1547 0034 05       		.uleb128 0x5
 1548 0035 13       		.uleb128 0x13
 1549 0036 01       		.byte	0x1
 1550 0037 03       		.uleb128 0x3
 1551 0038 0E       		.uleb128 0xe
 1552 0039 0B       		.uleb128 0xb
 1553 003a 0B       		.uleb128 0xb
 1554 003b 3A       		.uleb128 0x3a
 1555 003c 0B       		.uleb128 0xb
 1556 003d 3B       		.uleb128 0x3b
 1557 003e 0B       		.uleb128 0xb
 1558 003f 01       		.uleb128 0x1
 1559 0040 13       		.uleb128 0x13
 1560 0041 00       		.byte	0
 1561 0042 00       		.byte	0
 1562 0043 06       		.uleb128 0x6
 1563 0044 0D       		.uleb128 0xd
 1564 0045 00       		.byte	0
 1565 0046 03       		.uleb128 0x3
 1566 0047 0E       		.uleb128 0xe
 1567 0048 3A       		.uleb128 0x3a
 1568 0049 0B       		.uleb128 0xb
 1569 004a 3B       		.uleb128 0x3b
 1570 004b 0B       		.uleb128 0xb
 1571 004c 49       		.uleb128 0x49
 1572 004d 13       		.uleb128 0x13
 1573 004e 38       		.uleb128 0x38
 1574 004f 0B       		.uleb128 0xb
 1575 0050 00       		.byte	0
 1576 0051 00       		.byte	0
 1577 0052 07       		.uleb128 0x7
 1578 0053 0D       		.uleb128 0xd
 1579 0054 00       		.byte	0
ARM GAS  /tmp/ccaHU3Jd.s 			page 29


 1580 0055 03       		.uleb128 0x3
 1581 0056 08       		.uleb128 0x8
 1582 0057 3A       		.uleb128 0x3a
 1583 0058 0B       		.uleb128 0xb
 1584 0059 3B       		.uleb128 0x3b
 1585 005a 0B       		.uleb128 0xb
 1586 005b 49       		.uleb128 0x49
 1587 005c 13       		.uleb128 0x13
 1588 005d 38       		.uleb128 0x38
 1589 005e 0B       		.uleb128 0xb
 1590 005f 00       		.byte	0
 1591 0060 00       		.byte	0
 1592 0061 08       		.uleb128 0x8
 1593 0062 13       		.uleb128 0x13
 1594 0063 01       		.byte	0x1
 1595 0064 0B       		.uleb128 0xb
 1596 0065 0B       		.uleb128 0xb
 1597 0066 3A       		.uleb128 0x3a
 1598 0067 0B       		.uleb128 0xb
 1599 0068 3B       		.uleb128 0x3b
 1600 0069 0B       		.uleb128 0xb
 1601 006a 01       		.uleb128 0x1
 1602 006b 13       		.uleb128 0x13
 1603 006c 00       		.byte	0
 1604 006d 00       		.byte	0
 1605 006e 09       		.uleb128 0x9
 1606 006f 0F       		.uleb128 0xf
 1607 0070 00       		.byte	0
 1608 0071 0B       		.uleb128 0xb
 1609 0072 0B       		.uleb128 0xb
 1610 0073 49       		.uleb128 0x49
 1611 0074 13       		.uleb128 0x13
 1612 0075 00       		.byte	0
 1613 0076 00       		.byte	0
 1614 0077 0A       		.uleb128 0xa
 1615 0078 0F       		.uleb128 0xf
 1616 0079 00       		.byte	0
 1617 007a 0B       		.uleb128 0xb
 1618 007b 0B       		.uleb128 0xb
 1619 007c 00       		.byte	0
 1620 007d 00       		.byte	0
 1621 007e 0B       		.uleb128 0xb
 1622 007f 13       		.uleb128 0x13
 1623 0080 01       		.byte	0x1
 1624 0081 03       		.uleb128 0x3
 1625 0082 0E       		.uleb128 0xe
 1626 0083 0B       		.uleb128 0xb
 1627 0084 0B       		.uleb128 0xb
 1628 0085 3A       		.uleb128 0x3a
 1629 0086 0B       		.uleb128 0xb
 1630 0087 3B       		.uleb128 0x3b
 1631 0088 05       		.uleb128 0x5
 1632 0089 01       		.uleb128 0x1
 1633 008a 13       		.uleb128 0x13
 1634 008b 00       		.byte	0
 1635 008c 00       		.byte	0
 1636 008d 0C       		.uleb128 0xc
ARM GAS  /tmp/ccaHU3Jd.s 			page 30


 1637 008e 0D       		.uleb128 0xd
 1638 008f 00       		.byte	0
 1639 0090 03       		.uleb128 0x3
 1640 0091 08       		.uleb128 0x8
 1641 0092 3A       		.uleb128 0x3a
 1642 0093 0B       		.uleb128 0xb
 1643 0094 3B       		.uleb128 0x3b
 1644 0095 05       		.uleb128 0x5
 1645 0096 49       		.uleb128 0x49
 1646 0097 13       		.uleb128 0x13
 1647 0098 38       		.uleb128 0x38
 1648 0099 0B       		.uleb128 0xb
 1649 009a 00       		.byte	0
 1650 009b 00       		.byte	0
 1651 009c 0D       		.uleb128 0xd
 1652 009d 35       		.uleb128 0x35
 1653 009e 00       		.byte	0
 1654 009f 49       		.uleb128 0x49
 1655 00a0 13       		.uleb128 0x13
 1656 00a1 00       		.byte	0
 1657 00a2 00       		.byte	0
 1658 00a3 0E       		.uleb128 0xe
 1659 00a4 15       		.uleb128 0x15
 1660 00a5 01       		.byte	0x1
 1661 00a6 27       		.uleb128 0x27
 1662 00a7 19       		.uleb128 0x19
 1663 00a8 49       		.uleb128 0x49
 1664 00a9 13       		.uleb128 0x13
 1665 00aa 01       		.uleb128 0x1
 1666 00ab 13       		.uleb128 0x13
 1667 00ac 00       		.byte	0
 1668 00ad 00       		.byte	0
 1669 00ae 0F       		.uleb128 0xf
 1670 00af 05       		.uleb128 0x5
 1671 00b0 00       		.byte	0
 1672 00b1 49       		.uleb128 0x49
 1673 00b2 13       		.uleb128 0x13
 1674 00b3 00       		.byte	0
 1675 00b4 00       		.byte	0
 1676 00b5 10       		.uleb128 0x10
 1677 00b6 17       		.uleb128 0x17
 1678 00b7 01       		.byte	0x1
 1679 00b8 0B       		.uleb128 0xb
 1680 00b9 0B       		.uleb128 0xb
 1681 00ba 3A       		.uleb128 0x3a
 1682 00bb 0B       		.uleb128 0xb
 1683 00bc 3B       		.uleb128 0x3b
 1684 00bd 0B       		.uleb128 0xb
 1685 00be 01       		.uleb128 0x1
 1686 00bf 13       		.uleb128 0x13
 1687 00c0 00       		.byte	0
 1688 00c1 00       		.byte	0
 1689 00c2 11       		.uleb128 0x11
 1690 00c3 0D       		.uleb128 0xd
 1691 00c4 00       		.byte	0
 1692 00c5 03       		.uleb128 0x3
 1693 00c6 0E       		.uleb128 0xe
ARM GAS  /tmp/ccaHU3Jd.s 			page 31


 1694 00c7 3A       		.uleb128 0x3a
 1695 00c8 0B       		.uleb128 0xb
 1696 00c9 3B       		.uleb128 0x3b
 1697 00ca 0B       		.uleb128 0xb
 1698 00cb 49       		.uleb128 0x49
 1699 00cc 13       		.uleb128 0x13
 1700 00cd 00       		.byte	0
 1701 00ce 00       		.byte	0
 1702 00cf 12       		.uleb128 0x12
 1703 00d0 17       		.uleb128 0x17
 1704 00d1 01       		.byte	0x1
 1705 00d2 03       		.uleb128 0x3
 1706 00d3 0E       		.uleb128 0xe
 1707 00d4 0B       		.uleb128 0xb
 1708 00d5 0B       		.uleb128 0xb
 1709 00d6 3A       		.uleb128 0x3a
 1710 00d7 0B       		.uleb128 0xb
 1711 00d8 3B       		.uleb128 0x3b
 1712 00d9 0B       		.uleb128 0xb
 1713 00da 01       		.uleb128 0x1
 1714 00db 13       		.uleb128 0x13
 1715 00dc 00       		.byte	0
 1716 00dd 00       		.byte	0
 1717 00de 13       		.uleb128 0x13
 1718 00df 0D       		.uleb128 0xd
 1719 00e0 00       		.byte	0
 1720 00e1 03       		.uleb128 0x3
 1721 00e2 08       		.uleb128 0x8
 1722 00e3 3A       		.uleb128 0x3a
 1723 00e4 0B       		.uleb128 0xb
 1724 00e5 3B       		.uleb128 0x3b
 1725 00e6 0B       		.uleb128 0xb
 1726 00e7 49       		.uleb128 0x49
 1727 00e8 13       		.uleb128 0x13
 1728 00e9 00       		.byte	0
 1729 00ea 00       		.byte	0
 1730 00eb 14       		.uleb128 0x14
 1731 00ec 26       		.uleb128 0x26
 1732 00ed 00       		.byte	0
 1733 00ee 49       		.uleb128 0x49
 1734 00ef 13       		.uleb128 0x13
 1735 00f0 00       		.byte	0
 1736 00f1 00       		.byte	0
 1737 00f2 15       		.uleb128 0x15
 1738 00f3 2E       		.uleb128 0x2e
 1739 00f4 00       		.byte	0
 1740 00f5 3F       		.uleb128 0x3f
 1741 00f6 19       		.uleb128 0x19
 1742 00f7 03       		.uleb128 0x3
 1743 00f8 0E       		.uleb128 0xe
 1744 00f9 3A       		.uleb128 0x3a
 1745 00fa 0B       		.uleb128 0xb
 1746 00fb 3B       		.uleb128 0x3b
 1747 00fc 0B       		.uleb128 0xb
 1748 00fd 27       		.uleb128 0x27
 1749 00fe 19       		.uleb128 0x19
 1750 00ff 11       		.uleb128 0x11
ARM GAS  /tmp/ccaHU3Jd.s 			page 32


 1751 0100 01       		.uleb128 0x1
 1752 0101 12       		.uleb128 0x12
 1753 0102 06       		.uleb128 0x6
 1754 0103 40       		.uleb128 0x40
 1755 0104 18       		.uleb128 0x18
 1756 0105 9642     		.uleb128 0x2116
 1757 0107 19       		.uleb128 0x19
 1758 0108 00       		.byte	0
 1759 0109 00       		.byte	0
 1760 010a 16       		.uleb128 0x16
 1761 010b 2E       		.uleb128 0x2e
 1762 010c 01       		.byte	0x1
 1763 010d 3F       		.uleb128 0x3f
 1764 010e 19       		.uleb128 0x19
 1765 010f 03       		.uleb128 0x3
 1766 0110 0E       		.uleb128 0xe
 1767 0111 3A       		.uleb128 0x3a
 1768 0112 0B       		.uleb128 0xb
 1769 0113 3B       		.uleb128 0x3b
 1770 0114 0B       		.uleb128 0xb
 1771 0115 27       		.uleb128 0x27
 1772 0116 19       		.uleb128 0x19
 1773 0117 11       		.uleb128 0x11
 1774 0118 01       		.uleb128 0x1
 1775 0119 12       		.uleb128 0x12
 1776 011a 06       		.uleb128 0x6
 1777 011b 40       		.uleb128 0x40
 1778 011c 18       		.uleb128 0x18
 1779 011d 9642     		.uleb128 0x2116
 1780 011f 19       		.uleb128 0x19
 1781 0120 01       		.uleb128 0x1
 1782 0121 13       		.uleb128 0x13
 1783 0122 00       		.byte	0
 1784 0123 00       		.byte	0
 1785 0124 17       		.uleb128 0x17
 1786 0125 05       		.uleb128 0x5
 1787 0126 00       		.byte	0
 1788 0127 03       		.uleb128 0x3
 1789 0128 0E       		.uleb128 0xe
 1790 0129 3A       		.uleb128 0x3a
 1791 012a 0B       		.uleb128 0xb
 1792 012b 3B       		.uleb128 0x3b
 1793 012c 0B       		.uleb128 0xb
 1794 012d 49       		.uleb128 0x49
 1795 012e 13       		.uleb128 0x13
 1796 012f 02       		.uleb128 0x2
 1797 0130 18       		.uleb128 0x18
 1798 0131 00       		.byte	0
 1799 0132 00       		.byte	0
 1800 0133 18       		.uleb128 0x18
 1801 0134 05       		.uleb128 0x5
 1802 0135 00       		.byte	0
 1803 0136 03       		.uleb128 0x3
 1804 0137 08       		.uleb128 0x8
 1805 0138 3A       		.uleb128 0x3a
 1806 0139 0B       		.uleb128 0xb
 1807 013a 3B       		.uleb128 0x3b
ARM GAS  /tmp/ccaHU3Jd.s 			page 33


 1808 013b 0B       		.uleb128 0xb
 1809 013c 49       		.uleb128 0x49
 1810 013d 13       		.uleb128 0x13
 1811 013e 02       		.uleb128 0x2
 1812 013f 18       		.uleb128 0x18
 1813 0140 00       		.byte	0
 1814 0141 00       		.byte	0
 1815 0142 19       		.uleb128 0x19
 1816 0143 34       		.uleb128 0x34
 1817 0144 00       		.byte	0
 1818 0145 03       		.uleb128 0x3
 1819 0146 08       		.uleb128 0x8
 1820 0147 3A       		.uleb128 0x3a
 1821 0148 0B       		.uleb128 0xb
 1822 0149 3B       		.uleb128 0x3b
 1823 014a 0B       		.uleb128 0xb
 1824 014b 49       		.uleb128 0x49
 1825 014c 13       		.uleb128 0x13
 1826 014d 02       		.uleb128 0x2
 1827 014e 18       		.uleb128 0x18
 1828 014f 00       		.byte	0
 1829 0150 00       		.byte	0
 1830 0151 1A       		.uleb128 0x1a
 1831 0152 2E       		.uleb128 0x2e
 1832 0153 01       		.byte	0x1
 1833 0154 3F       		.uleb128 0x3f
 1834 0155 19       		.uleb128 0x19
 1835 0156 03       		.uleb128 0x3
 1836 0157 0E       		.uleb128 0xe
 1837 0158 3A       		.uleb128 0x3a
 1838 0159 0B       		.uleb128 0xb
 1839 015a 3B       		.uleb128 0x3b
 1840 015b 0B       		.uleb128 0xb
 1841 015c 27       		.uleb128 0x27
 1842 015d 19       		.uleb128 0x19
 1843 015e 49       		.uleb128 0x49
 1844 015f 13       		.uleb128 0x13
 1845 0160 11       		.uleb128 0x11
 1846 0161 01       		.uleb128 0x1
 1847 0162 12       		.uleb128 0x12
 1848 0163 06       		.uleb128 0x6
 1849 0164 40       		.uleb128 0x40
 1850 0165 18       		.uleb128 0x18
 1851 0166 9642     		.uleb128 0x2116
 1852 0168 19       		.uleb128 0x19
 1853 0169 01       		.uleb128 0x1
 1854 016a 13       		.uleb128 0x13
 1855 016b 00       		.byte	0
 1856 016c 00       		.byte	0
 1857 016d 1B       		.uleb128 0x1b
 1858 016e 34       		.uleb128 0x34
 1859 016f 00       		.byte	0
 1860 0170 03       		.uleb128 0x3
 1861 0171 0E       		.uleb128 0xe
 1862 0172 3A       		.uleb128 0x3a
 1863 0173 0B       		.uleb128 0xb
 1864 0174 3B       		.uleb128 0x3b
ARM GAS  /tmp/ccaHU3Jd.s 			page 34


 1865 0175 0B       		.uleb128 0xb
 1866 0176 49       		.uleb128 0x49
 1867 0177 13       		.uleb128 0x13
 1868 0178 02       		.uleb128 0x2
 1869 0179 18       		.uleb128 0x18
 1870 017a 00       		.byte	0
 1871 017b 00       		.byte	0
 1872 017c 00       		.byte	0
 1873              		.section	.debug_aranges,"",%progbits
 1874 0000 3C000000 		.4byte	0x3c
 1875 0004 0200     		.2byte	0x2
 1876 0006 00000000 		.4byte	.Ldebug_info0
 1877 000a 04       		.byte	0x4
 1878 000b 00       		.byte	0
 1879 000c 0000     		.2byte	0
 1880 000e 0000     		.2byte	0
 1881 0010 00000000 		.4byte	.LFB7
 1882 0014 28000000 		.4byte	.LFE7-.LFB7
 1883 0018 00000000 		.4byte	.LFB8
 1884 001c 60000000 		.4byte	.LFE8-.LFB8
 1885 0020 00000000 		.4byte	.LFB9
 1886 0024 E4000000 		.4byte	.LFE9-.LFB9
 1887 0028 00000000 		.4byte	.LFB10
 1888 002c FC000000 		.4byte	.LFE10-.LFB10
 1889 0030 00000000 		.4byte	.LFB11
 1890 0034 6C000000 		.4byte	.LFE11-.LFB11
 1891 0038 00000000 		.4byte	0
 1892 003c 00000000 		.4byte	0
 1893              		.section	.debug_ranges,"",%progbits
 1894              	.Ldebug_ranges0:
 1895 0000 00000000 		.4byte	.LFB7
 1896 0004 28000000 		.4byte	.LFE7
 1897 0008 00000000 		.4byte	.LFB8
 1898 000c 60000000 		.4byte	.LFE8
 1899 0010 00000000 		.4byte	.LFB9
 1900 0014 E4000000 		.4byte	.LFE9
 1901 0018 00000000 		.4byte	.LFB10
 1902 001c FC000000 		.4byte	.LFE10
 1903 0020 00000000 		.4byte	.LFB11
 1904 0024 6C000000 		.4byte	.LFE11
 1905 0028 00000000 		.4byte	0
 1906 002c 00000000 		.4byte	0
 1907              		.section	.debug_line,"",%progbits
 1908              	.Ldebug_line0:
 1909 0000 7A020000 		.section	.debug_str,"MS",%progbits,1
 1909      02009501 
 1909      00000201 
 1909      FB0E0D00 
 1909      01010101 
 1910              	.LASF43:
 1911 0000 705F6D73 		.ascii	"p_msg\000"
 1911      6700
 1912              	.LASF2:
 1913 0006 73697A65 		.ascii	"size_t\000"
 1913      5F7400
 1914              	.LASF69:
 1915 000d 7264796D 		.ascii	"rdymsg\000"
ARM GAS  /tmp/ccaHU3Jd.s 			page 35


 1915      736700
 1916              	.LASF17:
 1917 0014 75696E74 		.ascii	"uint64_t\000"
 1917      36345F74 
 1917      00
 1918              	.LASF3:
 1919 001d 5F5F7569 		.ascii	"__uint8_t\000"
 1919      6E74385F 
 1919      7400
 1920              	.LASF59:
 1921 0027 6D656D67 		.ascii	"memgetfunc_t\000"
 1921      65746675 
 1921      6E635F74 
 1921      00
 1922              	.LASF13:
 1923 0034 6C6F6E67 		.ascii	"long long unsigned int\000"
 1923      206C6F6E 
 1923      6720756E 
 1923      7369676E 
 1923      65642069 
 1924              	.LASF63:
 1925 004b 685F6672 		.ascii	"h_free\000"
 1925      656500
 1926              	.LASF74:
 1927 0052 68656170 		.ascii	"heapp\000"
 1927      7000
 1928              	.LASF75:
 1929 0058 63684865 		.ascii	"chHeapInit\000"
 1929      6170496E 
 1929      697400
 1930              	.LASF65:
 1931 0063 6E657874 		.ascii	"next\000"
 1931      00
 1932              	.LASF30:
 1933 0068 705F7072 		.ascii	"p_prio\000"
 1933      696F00
 1934              	.LASF11:
 1935 006f 6C6F6E67 		.ascii	"long long int\000"
 1935      206C6F6E 
 1935      6720696E 
 1935      7400
 1936              	.LASF1:
 1937 007d 7369676E 		.ascii	"signed char\000"
 1937      65642063 
 1937      68617200 
 1938              	.LASF64:
 1939 0089 685F6D74 		.ascii	"h_mtx\000"
 1939      7800
 1940              	.LASF47:
 1941 008f 705F6D70 		.ascii	"p_mpool\000"
 1941      6F6F6C00 
 1942              	.LASF56:
 1943 0097 6D5F7175 		.ascii	"m_queue\000"
 1943      65756500 
 1944              	.LASF76:
 1945 009f 63684865 		.ascii	"chHeapFree\000"
 1945      61704672 
ARM GAS  /tmp/ccaHU3Jd.s 			page 36


 1945      656500
 1946              	.LASF22:
 1947 00aa 74736C69 		.ascii	"tslices_t\000"
 1947      6365735F 
 1947      7400
 1948              	.LASF8:
 1949 00b4 6C6F6E67 		.ascii	"long int\000"
 1949      20696E74 
 1949      00
 1950              	.LASF20:
 1951 00bd 74737461 		.ascii	"tstate_t\000"
 1951      74655F74 
 1951      00
 1952              	.LASF82:
 1953 00c6 2F686F6D 		.ascii	"/home/dave/r2p-sdk/core/ChibiOS/os/kernel/src/chhea"
 1953      652F6461 
 1953      76652F72 
 1953      32702D73 
 1953      646B2F63 
 1954 00f9 702E6300 		.ascii	"p.c\000"
 1955              	.LASF32:
 1956 00fd 705F6E65 		.ascii	"p_newer\000"
 1956      77657200 
 1957              	.LASF70:
 1958 0105 65786974 		.ascii	"exitcode\000"
 1958      636F6465 
 1958      00
 1959              	.LASF9:
 1960 010e 5F5F7569 		.ascii	"__uint32_t\000"
 1960      6E743332 
 1960      5F7400
 1961              	.LASF50:
 1962 0119 72656761 		.ascii	"regarm_t\000"
 1962      726D5F74 
 1962      00
 1963              	.LASF67:
 1964 0122 616C6967 		.ascii	"align\000"
 1964      6E00
 1965              	.LASF35:
 1966 0128 705F7374 		.ascii	"p_stklimit\000"
 1966      6B6C696D 
 1966      697400
 1967              	.LASF0:
 1968 0133 756E7369 		.ascii	"unsigned int\000"
 1968      676E6564 
 1968      20696E74 
 1968      00
 1969              	.LASF10:
 1970 0140 6C6F6E67 		.ascii	"long unsigned int\000"
 1970      20756E73 
 1970      69676E65 
 1970      6420696E 
 1970      7400
 1971              	.LASF53:
 1972 0152 636F6E74 		.ascii	"context\000"
 1972      65787400 
 1973              	.LASF68:
ARM GAS  /tmp/ccaHU3Jd.s 			page 37


 1974 015a 73697A65 		.ascii	"size\000"
 1974      00
 1975              	.LASF6:
 1976 015f 73686F72 		.ascii	"short unsigned int\000"
 1976      7420756E 
 1976      7369676E 
 1976      65642069 
 1976      6E7400
 1977              	.LASF24:
 1978 0172 6D73675F 		.ascii	"msg_t\000"
 1978      7400
 1979              	.LASF19:
 1980 0178 746D6F64 		.ascii	"tmode_t\000"
 1980      655F7400 
 1981              	.LASF49:
 1982 0180 54687265 		.ascii	"ThreadsList\000"
 1982      6164734C 
 1982      69737400 
 1983              	.LASF25:
 1984 018c 6576656E 		.ascii	"eventmask_t\000"
 1984      746D6173 
 1984      6B5F7400 
 1985              	.LASF55:
 1986 0198 4D757465 		.ascii	"Mutex\000"
 1986      7800
 1987              	.LASF51:
 1988 019e 73746B61 		.ascii	"stkalign_t\000"
 1988      6C69676E 
 1988      5F7400
 1989              	.LASF54:
 1990 01a9 73697A65 		.ascii	"sizetype\000"
 1990      74797065 
 1990      00
 1991              	.LASF33:
 1992 01b2 705F6F6C 		.ascii	"p_older\000"
 1992      64657200 
 1993              	.LASF48:
 1994 01ba 54687265 		.ascii	"ThreadsQueue\000"
 1994      61647351 
 1994      75657565 
 1994      00
 1995              	.LASF60:
 1996 01c7 4D656D6F 		.ascii	"MemoryHeap\000"
 1996      72794865 
 1996      617000
 1997              	.LASF12:
 1998 01d2 5F5F7569 		.ascii	"__uint64_t\000"
 1998      6E743634 
 1998      5F7400
 1999              	.LASF21:
 2000 01dd 74726566 		.ascii	"trefs_t\000"
 2000      735F7400 
 2001              	.LASF29:
 2002 01e5 705F7072 		.ascii	"p_prev\000"
 2002      657600
 2003              	.LASF23:
 2004 01ec 74707269 		.ascii	"tprio_t\000"
ARM GAS  /tmp/ccaHU3Jd.s 			page 38


 2004      6F5F7400 
 2005              	.LASF18:
 2006 01f4 5F426F6F 		.ascii	"_Bool\000"
 2006      6C00
 2007              	.LASF15:
 2008 01fa 696E7433 		.ascii	"int32_t\000"
 2008      325F7400 
 2009              	.LASF4:
 2010 0202 756E7369 		.ascii	"unsigned char\000"
 2010      676E6564 
 2010      20636861 
 2010      7200
 2011              	.LASF62:
 2012 0210 685F7072 		.ascii	"h_provider\000"
 2012      6F766964 
 2012      657200
 2013              	.LASF45:
 2014 021b 705F6D74 		.ascii	"p_mtxlist\000"
 2014      786C6973 
 2014      7400
 2015              	.LASF5:
 2016 0225 73686F72 		.ascii	"short int\000"
 2016      7420696E 
 2016      7400
 2017              	.LASF36:
 2018 022f 705F7374 		.ascii	"p_state\000"
 2018      61746500 
 2019              	.LASF39:
 2020 0237 705F7072 		.ascii	"p_preempt\000"
 2020      65656D70 
 2020      7400
 2021              	.LASF83:
 2022 0241 68656170 		.ascii	"heap_header\000"
 2022      5F686561 
 2022      64657200 
 2023              	.LASF81:
 2024 024d 474E5520 		.ascii	"GNU C 4.8.4 20141219 (release) -mcpu=cortex-m4 -mfl"
 2024      4320342E 
 2024      382E3420 
 2024      32303134 
 2024      31323139 
 2025 0280 6F61742D 		.ascii	"oat-abi=hard -mfpu=fpv4-sp-d16 -mno-thumb-interwork"
 2025      6162693D 
 2025      68617264 
 2025      202D6D66 
 2025      70753D66 
 2026 02b3 202D6D74 		.ascii	" -mthumb -ggdb -O0 -fomit-frame-pointer -falign-fun"
 2026      68756D62 
 2026      202D6767 
 2026      6462202D 
 2026      4F30202D 
 2027 02e6 6374696F 		.ascii	"ctions=16 -ffunction-sections -fdata-sections -fno-"
 2027      6E733D31 
 2027      36202D66 
 2027      66756E63 
 2027      74696F6E 
 2028 0319 636F6D6D 		.ascii	"common -fsingle-precision-constant\000"
ARM GAS  /tmp/ccaHU3Jd.s 			page 39


 2028      6F6E202D 
 2028      6673696E 
 2028      676C652D 
 2028      70726563 
 2029              	.LASF28:
 2030 033c 705F6E65 		.ascii	"p_next\000"
 2030      787400
 2031              	.LASF37:
 2032 0343 705F666C 		.ascii	"p_flags\000"
 2032      61677300 
 2033              	.LASF27:
 2034 034b 54687265 		.ascii	"Thread\000"
 2034      616400
 2035              	.LASF77:
 2036 0352 63684865 		.ascii	"chHeapAlloc\000"
 2036      6170416C 
 2036      6C6F6300 
 2037              	.LASF44:
 2038 035e 705F6570 		.ascii	"p_epending\000"
 2038      656E6469 
 2038      6E6700
 2039              	.LASF16:
 2040 0369 75696E74 		.ascii	"uint32_t\000"
 2040      33325F74 
 2040      00
 2041              	.LASF66:
 2042 0372 68656170 		.ascii	"heap\000"
 2042      00
 2043              	.LASF80:
 2044 0377 64656661 		.ascii	"default_heap\000"
 2044      756C745F 
 2044      68656170 
 2044      00
 2045              	.LASF73:
 2046 0384 63686172 		.ascii	"char\000"
 2046      00
 2047              	.LASF78:
 2048 0389 63684865 		.ascii	"chHeapStatus\000"
 2048      61705374 
 2048      61747573 
 2048      00
 2049              	.LASF58:
 2050 0396 6D5F6E65 		.ascii	"m_next\000"
 2050      787400
 2051              	.LASF26:
 2052 039d 73797374 		.ascii	"systime_t\000"
 2052      696D655F 
 2052      7400
 2053              	.LASF46:
 2054 03a7 705F7265 		.ascii	"p_realprio\000"
 2054      616C7072 
 2054      696F00
 2055              	.LASF7:
 2056 03b2 5F5F696E 		.ascii	"__int32_t\000"
 2056      7433325F 
 2056      7400
 2057              	.LASF40:
ARM GAS  /tmp/ccaHU3Jd.s 			page 40


 2058 03bc 705F7469 		.ascii	"p_time\000"
 2058      6D6500
 2059              	.LASF52:
 2060 03c3 696E7463 		.ascii	"intctx\000"
 2060      747800
 2061              	.LASF42:
 2062 03ca 705F6D73 		.ascii	"p_msgqueue\000"
 2062      67717565 
 2062      756500
 2063              	.LASF38:
 2064 03d5 705F7265 		.ascii	"p_refs\000"
 2064      667300
 2065              	.LASF14:
 2066 03dc 75696E74 		.ascii	"uint8_t\000"
 2066      385F7400 
 2067              	.LASF72:
 2068 03e4 65776D61 		.ascii	"ewmask\000"
 2068      736B00
 2069              	.LASF71:
 2070 03eb 77746F62 		.ascii	"wtobjp\000"
 2070      6A7000
 2071              	.LASF79:
 2072 03f2 73697A65 		.ascii	"sizep\000"
 2072      7000
 2073              	.LASF34:
 2074 03f8 705F6E61 		.ascii	"p_name\000"
 2074      6D6500
 2075              	.LASF84:
 2076 03ff 5F686561 		.ascii	"_heap_init\000"
 2076      705F696E 
 2076      697400
 2077              	.LASF57:
 2078 040a 6D5F6F77 		.ascii	"m_owner\000"
 2078      6E657200 
 2079              	.LASF31:
 2080 0412 705F6374 		.ascii	"p_ctx\000"
 2080      7800
 2081              	.LASF41:
 2082 0418 705F7761 		.ascii	"p_waiting\000"
 2082      6974696E 
 2082      6700
 2083              	.LASF61:
 2084 0422 6D656D6F 		.ascii	"memory_heap\000"
 2084      72795F68 
 2084      65617000 
 2085              		.ident	"GCC: (4.8.4-1+11-1) 4.8.4 20141219 (release)"
ARM GAS  /tmp/ccaHU3Jd.s 			page 41


DEFINED SYMBOLS
                            *ABS*:0000000000000000 chheap.c
     /tmp/ccaHU3Jd.s:21     .bss.default_heap:0000000000000000 $d
     /tmp/ccaHU3Jd.s:24     .bss.default_heap:0000000000000000 default_heap
     /tmp/ccaHU3Jd.s:27     .text._heap_init:0000000000000000 $t
     /tmp/ccaHU3Jd.s:33     .text._heap_init:0000000000000000 _heap_init
     /tmp/ccaHU3Jd.s:64     .text._heap_init:000000000000001c $d
     /tmp/ccaHU3Jd.s:71     .rodata:0000000000000000 $d
     /tmp/ccaHU3Jd.s:75     .text.chHeapInit:0000000000000000 $t
     /tmp/ccaHU3Jd.s:81     .text.chHeapInit:0000000000000000 chHeapInit
     /tmp/ccaHU3Jd.s:145    .text.chHeapInit:000000000000005c $d
     /tmp/ccaHU3Jd.s:150    .text.chHeapAlloc:0000000000000000 $t
     /tmp/ccaHU3Jd.s:156    .text.chHeapAlloc:0000000000000000 chHeapAlloc
     /tmp/ccaHU3Jd.s:312    .text.chHeapAlloc:00000000000000e0 $d
     /tmp/ccaHU3Jd.s:324    .text.chHeapFree:0000000000000000 $t
     /tmp/ccaHU3Jd.s:330    .text.chHeapFree:0000000000000000 chHeapFree
     /tmp/ccaHU3Jd.s:492    .text.chHeapFree:00000000000000f4 $d
     /tmp/ccaHU3Jd.s:498    .text.chHeapStatus:0000000000000000 $t
     /tmp/ccaHU3Jd.s:504    .text.chHeapStatus:0000000000000000 chHeapStatus
     /tmp/ccaHU3Jd.s:582    .text.chHeapStatus:0000000000000068 $d
                     .debug_frame:0000000000000010 $d
     /tmp/ccaHU3Jd.s:70     .text._heap_init:0000000000000028 $t
     /tmp/ccaHU3Jd.s:316    .text.chHeapAlloc:00000000000000e4 $t
     /tmp/ccaHU3Jd.s:497    .text.chHeapFree:00000000000000fc $t
     /tmp/ccaHU3Jd.s:586    .text.chHeapStatus:000000000000006c $t

UNDEFINED SYMBOLS
chMtxInit
chCoreAlloc
chDbgPanic
chMtxLock
chMtxUnlock
