ARM GAS  /tmp/ccaHU3Jd.s 			page 1


   1              		.syntax unified
   2              		.cpu cortex-m4
   3              		.eabi_attribute 27, 3
   4              		.eabi_attribute 28, 1
   5              		.fpu fpv4-sp-d16
   6              		.eabi_attribute 20, 1
   7              		.eabi_attribute 21, 1
   8              		.eabi_attribute 23, 3
   9              		.eabi_attribute 24, 1
  10              		.eabi_attribute 25, 1
  11              		.eabi_attribute 26, 1
  12              		.eabi_attribute 30, 6
  13              		.eabi_attribute 34, 1
  14              		.eabi_attribute 18, 4
  15              		.thumb
  16              		.file	"chheap.c"
  17              		.text
  18              	.Ltext0:
  19              		.cfi_sections	.debug_frame
  20              		.section	.bss.default_heap,"aw",%nobits
  21              		.align	3
  22              		.type	default_heap, %object
  23              		.size	default_heap, 32
  24              	default_heap:
  25 0000 00000000 		.space	32
  25      00000000 
  25      00000000 
  25      00000000 
  25      00000000 
  26              		.section	.text._heap_init,"ax",%progbits
  27              		.align	2
  28              		.p2align 4,,15
  29              		.global	_heap_init
  30              		.thumb
  31              		.thumb_func
  32              		.type	_heap_init, %function
  33              	_heap_init:
  34              	.LFB7:
  35              		.file 1 "/home/dave/r2p-sdk/core/ChibiOS/os/kernel/src/chheap.c"
  36              		.loc 1 75 0
  37              		.cfi_startproc
  38              		@ args = 0, pretend = 0, frame = 0
  39              		@ frame_needed = 0, uses_anonymous_args = 0
  40 0000 08B5     		push	{r3, lr}
  41              		.cfi_def_cfa_offset 8
  42              		.cfi_offset 3, -8
  43              		.cfi_offset 14, -4
  44              		.loc 1 76 0
  45 0002 064B     		ldr	r3, .L2
  46 0004 064A     		ldr	r2, .L2+4
  47 0006 1A60     		str	r2, [r3]
  48              		.loc 1 77 0
  49 0008 044B     		ldr	r3, .L2
  50 000a 0022     		movs	r2, #0
  51 000c 9A60     		str	r2, [r3, #8]
  52              		.loc 1 78 0
  53 000e 034B     		ldr	r3, .L2
ARM GAS  /tmp/ccaHU3Jd.s 			page 2


  54 0010 0022     		movs	r2, #0
  55 0012 DA60     		str	r2, [r3, #12]
  56              		.loc 1 80 0
  57 0014 0348     		ldr	r0, .L2+8
  58 0016 FFF7FEFF 		bl	chMtxInit
  59              		.loc 1 84 0
  60 001a 08BD     		pop	{r3, pc}
  61              	.L3:
  62              		.align	2
  63              	.L2:
  64 001c 00000000 		.word	default_heap
  65 0020 00000000 		.word	chCoreAlloc
  66 0024 10000000 		.word	default_heap+16
  67              		.cfi_endproc
  68              	.LFE7:
  69              		.size	_heap_init, .-_heap_init
  70 0028 AFF30080 		.section	.rodata
  70      AFF30080 
  71              		.align	2
  72              	.LC0:
  73 0000 22636848 		.ascii	"\"chHeapInit\"()\000"
  73      65617049 
  73      6E697422 
  73      282900
  74              		.section	.text.chHeapInit,"ax",%progbits
  75              		.align	2
  76              		.p2align 4,,15
  77              		.global	chHeapInit
  78              		.thumb
  79              		.thumb_func
  80              		.type	chHeapInit, %function
  81              	chHeapInit:
  82              	.LFB8:
  83              		.loc 1 99 0
  84              		.cfi_startproc
  85              		@ args = 0, pretend = 0, frame = 24
  86              		@ frame_needed = 0, uses_anonymous_args = 0
  87 0000 00B5     		push	{lr}
  88              		.cfi_def_cfa_offset 4
  89              		.cfi_offset 14, -4
  90 0002 87B0     		sub	sp, sp, #28
  91              		.cfi_def_cfa_offset 32
  92 0004 0390     		str	r0, [sp, #12]
  93 0006 0291     		str	r1, [sp, #8]
  94 0008 0192     		str	r2, [sp, #4]
  95              		.loc 1 102 0
  96 000a 029B     		ldr	r3, [sp, #8]
  97 000c 03F00703 		and	r3, r3, #7
  98 0010 002B     		cmp	r3, #0
  99 0012 04D1     		bne	.L5
 100              		.loc 1 102 0 is_stmt 0 discriminator 2
 101 0014 019B     		ldr	r3, [sp, #4]
 102 0016 03F00703 		and	r3, r3, #7
 103 001a 002B     		cmp	r3, #0
 104 001c 02D0     		beq	.L6
 105              	.L5:
 106              		.loc 1 102 0 discriminator 1
ARM GAS  /tmp/ccaHU3Jd.s 			page 3


 107 001e 0F48     		ldr	r0, .L7
 108 0020 FFF7FEFF 		bl	chDbgPanic
 109              	.L6:
 110              		.loc 1 104 0 is_stmt 1
 111 0024 039B     		ldr	r3, [sp, #12]
 112 0026 0022     		movs	r2, #0
 113 0028 1A60     		str	r2, [r3]
 114              		.loc 1 105 0
 115 002a 029B     		ldr	r3, [sp, #8]
 116 002c 0593     		str	r3, [sp, #20]
 117 002e 039B     		ldr	r3, [sp, #12]
 118 0030 059A     		ldr	r2, [sp, #20]
 119 0032 9A60     		str	r2, [r3, #8]
 120              		.loc 1 106 0
 121 0034 039B     		ldr	r3, [sp, #12]
 122 0036 0022     		movs	r2, #0
 123 0038 DA60     		str	r2, [r3, #12]
 124              		.loc 1 107 0
 125 003a 059B     		ldr	r3, [sp, #20]
 126 003c 0022     		movs	r2, #0
 127 003e 1A60     		str	r2, [r3]
 128              		.loc 1 108 0
 129 0040 019B     		ldr	r3, [sp, #4]
 130 0042 A3F10802 		sub	r2, r3, #8
 131 0046 059B     		ldr	r3, [sp, #20]
 132 0048 5A60     		str	r2, [r3, #4]
 133              		.loc 1 110 0
 134 004a 039B     		ldr	r3, [sp, #12]
 135 004c 1033     		adds	r3, r3, #16
 136 004e 1846     		mov	r0, r3
 137 0050 FFF7FEFF 		bl	chMtxInit
 138              		.loc 1 114 0
 139 0054 07B0     		add	sp, sp, #28
 140              		@ sp needed
 141 0056 5DF804FB 		ldr	pc, [sp], #4
 142              	.L8:
 143 005a 00BF     		.align	2
 144              	.L7:
 145 005c 00000000 		.word	.LC0
 146              		.cfi_endproc
 147              	.LFE8:
 148              		.size	chHeapInit, .-chHeapInit
 149              		.section	.text.chHeapAlloc,"ax",%progbits
 150              		.align	2
 151              		.p2align 4,,15
 152              		.global	chHeapAlloc
 153              		.thumb
 154              		.thumb_func
 155              		.type	chHeapAlloc, %function
 156              	chHeapAlloc:
 157              	.LFB9:
 158              		.loc 1 132 0
 159              		.cfi_startproc
 160              		@ args = 0, pretend = 0, frame = 24
 161              		@ frame_needed = 0, uses_anonymous_args = 0
 162 0000 00B5     		push	{lr}
 163              		.cfi_def_cfa_offset 4
ARM GAS  /tmp/ccaHU3Jd.s 			page 4


 164              		.cfi_offset 14, -4
 165 0002 87B0     		sub	sp, sp, #28
 166              		.cfi_def_cfa_offset 32
 167 0004 0190     		str	r0, [sp, #4]
 168 0006 0091     		str	r1, [sp]
 169              		.loc 1 135 0
 170 0008 019B     		ldr	r3, [sp, #4]
 171 000a 002B     		cmp	r3, #0
 172 000c 01D1     		bne	.L10
 173              		.loc 1 136 0
 174 000e 344B     		ldr	r3, .L18
 175 0010 0193     		str	r3, [sp, #4]
 176              	.L10:
 177              		.loc 1 138 0
 178 0012 009B     		ldr	r3, [sp]
 179 0014 0733     		adds	r3, r3, #7
 180 0016 23F00703 		bic	r3, r3, #7
 181 001a 0093     		str	r3, [sp]
 182              		.loc 1 139 0
 183 001c 019B     		ldr	r3, [sp, #4]
 184 001e 0833     		adds	r3, r3, #8
 185 0020 0593     		str	r3, [sp, #20]
 186              		.loc 1 140 0
 187 0022 019B     		ldr	r3, [sp, #4]
 188 0024 1033     		adds	r3, r3, #16
 189 0026 1846     		mov	r0, r3
 190 0028 FFF7FEFF 		bl	chMtxLock
 191              		.loc 1 142 0
 192 002c 33E0     		b	.L11
 193              	.L16:
 194              		.loc 1 143 0
 195 002e 059B     		ldr	r3, [sp, #20]
 196 0030 1B68     		ldr	r3, [r3]
 197 0032 0493     		str	r3, [sp, #16]
 198              		.loc 1 144 0
 199 0034 049B     		ldr	r3, [sp, #16]
 200 0036 5A68     		ldr	r2, [r3, #4]
 201 0038 009B     		ldr	r3, [sp]
 202 003a 9A42     		cmp	r2, r3
 203 003c 29D3     		bcc	.L12
 204              		.loc 1 145 0
 205 003e 049B     		ldr	r3, [sp, #16]
 206 0040 5A68     		ldr	r2, [r3, #4]
 207 0042 009B     		ldr	r3, [sp]
 208 0044 0833     		adds	r3, r3, #8
 209 0046 9A42     		cmp	r2, r3
 210 0048 04D2     		bcs	.L13
 211              		.loc 1 149 0
 212 004a 049B     		ldr	r3, [sp, #16]
 213 004c 1A68     		ldr	r2, [r3]
 214 004e 059B     		ldr	r3, [sp, #20]
 215 0050 1A60     		str	r2, [r3]
 216 0052 16E0     		b	.L14
 217              	.L13:
 218              		.loc 1 153 0
 219 0054 009B     		ldr	r3, [sp]
 220 0056 0833     		adds	r3, r3, #8
ARM GAS  /tmp/ccaHU3Jd.s 			page 5


 221 0058 049A     		ldr	r2, [sp, #16]
 222 005a 1344     		add	r3, r3, r2
 223 005c 0393     		str	r3, [sp, #12]
 224              		.loc 1 154 0
 225 005e 049B     		ldr	r3, [sp, #16]
 226 0060 1A68     		ldr	r2, [r3]
 227 0062 039B     		ldr	r3, [sp, #12]
 228 0064 1A60     		str	r2, [r3]
 229              		.loc 1 155 0
 230 0066 049B     		ldr	r3, [sp, #16]
 231 0068 5A68     		ldr	r2, [r3, #4]
 232 006a 009B     		ldr	r3, [sp]
 233 006c D31A     		subs	r3, r2, r3
 234 006e A3F10802 		sub	r2, r3, #8
 235 0072 039B     		ldr	r3, [sp, #12]
 236 0074 5A60     		str	r2, [r3, #4]
 237              		.loc 1 156 0
 238 0076 059B     		ldr	r3, [sp, #20]
 239 0078 039A     		ldr	r2, [sp, #12]
 240 007a 1A60     		str	r2, [r3]
 241              		.loc 1 157 0
 242 007c 049B     		ldr	r3, [sp, #16]
 243 007e 009A     		ldr	r2, [sp]
 244 0080 5A60     		str	r2, [r3, #4]
 245              	.L14:
 246              		.loc 1 159 0
 247 0082 049B     		ldr	r3, [sp, #16]
 248 0084 019A     		ldr	r2, [sp, #4]
 249 0086 1A60     		str	r2, [r3]
 250              		.loc 1 161 0
 251 0088 FFF7FEFF 		bl	chMtxUnlock
 252              		.loc 1 162 0
 253 008c 049B     		ldr	r3, [sp, #16]
 254 008e 0833     		adds	r3, r3, #8
 255 0090 21E0     		b	.L15
 256              	.L12:
 257              		.loc 1 164 0
 258 0092 049B     		ldr	r3, [sp, #16]
 259 0094 0593     		str	r3, [sp, #20]
 260              	.L11:
 261              		.loc 1 142 0 discriminator 1
 262 0096 059B     		ldr	r3, [sp, #20]
 263 0098 1B68     		ldr	r3, [r3]
 264 009a 002B     		cmp	r3, #0
 265 009c C7D1     		bne	.L16
 266              		.loc 1 167 0
 267 009e FFF7FEFF 		bl	chMtxUnlock
 268              		.loc 1 171 0
 269 00a2 019B     		ldr	r3, [sp, #4]
 270 00a4 1B68     		ldr	r3, [r3]
 271 00a6 002B     		cmp	r3, #0
 272 00a8 14D0     		beq	.L17
 273              		.loc 1 172 0
 274 00aa 019B     		ldr	r3, [sp, #4]
 275 00ac 1B68     		ldr	r3, [r3]
 276 00ae 009A     		ldr	r2, [sp]
 277 00b0 0832     		adds	r2, r2, #8
ARM GAS  /tmp/ccaHU3Jd.s 			page 6


 278 00b2 1046     		mov	r0, r2
 279 00b4 9847     		blx	r3
 280 00b6 0490     		str	r0, [sp, #16]
 281              		.loc 1 173 0
 282 00b8 049B     		ldr	r3, [sp, #16]
 283 00ba 002B     		cmp	r3, #0
 284 00bc 0AD0     		beq	.L17
 285              		.loc 1 174 0
 286 00be 049B     		ldr	r3, [sp, #16]
 287 00c0 019A     		ldr	r2, [sp, #4]
 288 00c2 1A60     		str	r2, [r3]
 289              		.loc 1 175 0
 290 00c4 049B     		ldr	r3, [sp, #16]
 291 00c6 009A     		ldr	r2, [sp]
 292 00c8 5A60     		str	r2, [r3, #4]
 293              		.loc 1 176 0
 294 00ca 049B     		ldr	r3, [sp, #16]
 295 00cc 0833     		adds	r3, r3, #8
 296 00ce 0493     		str	r3, [sp, #16]
 297              		.loc 1 177 0
 298 00d0 049B     		ldr	r3, [sp, #16]
 299 00d2 00E0     		b	.L15
 300              	.L17:
 301              		.loc 1 180 0
 302 00d4 0023     		movs	r3, #0
 303              	.L15:
 304              		.loc 1 181 0
 305 00d6 1846     		mov	r0, r3
 306 00d8 07B0     		add	sp, sp, #28
 307              		@ sp needed
 308 00da 5DF804FB 		ldr	pc, [sp], #4
 309              	.L19:
 310 00de 00BF     		.align	2
 311              	.L18:
 312 00e0 00000000 		.word	default_heap
 313              		.cfi_endproc
 314              	.LFE9:
 315              		.size	chHeapAlloc, .-chHeapAlloc
 316 00e4 AFF30080 		.section	.rodata
 316      AFF30080 
 316      AFF30080 
 317 000f 00       		.align	2
 318              	.LC1:
 319 0010 22636848 		.ascii	"\"chHeapFree\"()\000"
 319      65617046 
 319      72656522 
 319      282900
 320 001f 00       		.align	2
 321              	.LC2:
 322 0020 63684865 		.ascii	"chHeapFree(), #1\000"
 322      61704672 
 322      65652829 
 322      2C202331 
 322      00
 323 0031 000000   		.section	.text.chHeapFree,"ax",%progbits
 324              		.align	2
 325              		.p2align 4,,15
ARM GAS  /tmp/ccaHU3Jd.s 			page 7


 326              		.global	chHeapFree
 327              		.thumb
 328              		.thumb_func
 329              		.type	chHeapFree, %function
 330              	chHeapFree:
 331              	.LFB10:
 332              		.loc 1 194 0
 333              		.cfi_startproc
 334              		@ args = 0, pretend = 0, frame = 24
 335              		@ frame_needed = 0, uses_anonymous_args = 0
 336 0000 00B5     		push	{lr}
 337              		.cfi_def_cfa_offset 4
 338              		.cfi_offset 14, -4
 339 0002 87B0     		sub	sp, sp, #28
 340              		.cfi_def_cfa_offset 32
 341 0004 0190     		str	r0, [sp, #4]
 342              		.loc 1 198 0
 343 0006 019B     		ldr	r3, [sp, #4]
 344 0008 002B     		cmp	r3, #0
 345 000a 02D1     		bne	.L21
 346              		.loc 1 198 0 is_stmt 0 discriminator 1
 347 000c 3948     		ldr	r0, .L31
 348 000e FFF7FEFF 		bl	chDbgPanic
 349              	.L21:
 350              		.loc 1 200 0 is_stmt 1
 351 0012 019B     		ldr	r3, [sp, #4]
 352 0014 083B     		subs	r3, r3, #8
 353 0016 0493     		str	r3, [sp, #16]
 354              		.loc 1 201 0
 355 0018 049B     		ldr	r3, [sp, #16]
 356 001a 1B68     		ldr	r3, [r3]
 357 001c 0393     		str	r3, [sp, #12]
 358              		.loc 1 202 0
 359 001e 039B     		ldr	r3, [sp, #12]
 360 0020 0833     		adds	r3, r3, #8
 361 0022 0593     		str	r3, [sp, #20]
 362              		.loc 1 203 0
 363 0024 039B     		ldr	r3, [sp, #12]
 364 0026 1033     		adds	r3, r3, #16
 365 0028 1846     		mov	r0, r3
 366 002a FFF7FEFF 		bl	chMtxLock
 367              	.L29:
 368              		.loc 1 206 0
 369 002e 049A     		ldr	r2, [sp, #16]
 370 0030 059B     		ldr	r3, [sp, #20]
 371 0032 9A42     		cmp	r2, r3
 372 0034 0AD3     		bcc	.L22
 373              		.loc 1 206 0 is_stmt 0 discriminator 1
 374 0036 059B     		ldr	r3, [sp, #20]
 375 0038 5B68     		ldr	r3, [r3, #4]
 376 003a 0833     		adds	r3, r3, #8
 377 003c 059A     		ldr	r2, [sp, #20]
 378 003e 1A44     		add	r2, r2, r3
 379 0040 049B     		ldr	r3, [sp, #16]
 380 0042 9A42     		cmp	r2, r3
 381 0044 02D9     		bls	.L22
 382 0046 2C48     		ldr	r0, .L31+4
ARM GAS  /tmp/ccaHU3Jd.s 			page 8


 383 0048 FFF7FEFF 		bl	chDbgPanic
 384              	.L22:
 385              		.loc 1 210 0 is_stmt 1
 386 004c 039B     		ldr	r3, [sp, #12]
 387 004e 03F10802 		add	r2, r3, #8
 388 0052 059B     		ldr	r3, [sp, #20]
 389 0054 9A42     		cmp	r2, r3
 390 0056 03D0     		beq	.L23
 391              		.loc 1 210 0 is_stmt 0 discriminator 2
 392 0058 049A     		ldr	r2, [sp, #16]
 393 005a 059B     		ldr	r3, [sp, #20]
 394 005c 9A42     		cmp	r2, r3
 395 005e 3ED9     		bls	.L24
 396              	.L23:
 397              		.loc 1 211 0 is_stmt 1 discriminator 1
 398 0060 059B     		ldr	r3, [sp, #20]
 399 0062 1B68     		ldr	r3, [r3]
 400              		.loc 1 210 0 discriminator 1
 401 0064 002B     		cmp	r3, #0
 402 0066 04D0     		beq	.L25
 403              		.loc 1 211 0
 404 0068 059B     		ldr	r3, [sp, #20]
 405 006a 1A68     		ldr	r2, [r3]
 406 006c 049B     		ldr	r3, [sp, #16]
 407 006e 9A42     		cmp	r2, r3
 408 0070 35D9     		bls	.L24
 409              	.L25:
 410              		.loc 1 213 0
 411 0072 059B     		ldr	r3, [sp, #20]
 412 0074 1A68     		ldr	r2, [r3]
 413 0076 049B     		ldr	r3, [sp, #16]
 414 0078 1A60     		str	r2, [r3]
 415              		.loc 1 214 0
 416 007a 059B     		ldr	r3, [sp, #20]
 417 007c 049A     		ldr	r2, [sp, #16]
 418 007e 1A60     		str	r2, [r3]
 419              		.loc 1 216 0
 420 0080 049B     		ldr	r3, [sp, #16]
 421 0082 5B68     		ldr	r3, [r3, #4]
 422 0084 0833     		adds	r3, r3, #8
 423 0086 049A     		ldr	r2, [sp, #16]
 424 0088 1A44     		add	r2, r2, r3
 425 008a 049B     		ldr	r3, [sp, #16]
 426 008c 1B68     		ldr	r3, [r3]
 427 008e 9A42     		cmp	r2, r3
 428 0090 0ED1     		bne	.L26
 429              		.loc 1 218 0
 430 0092 049B     		ldr	r3, [sp, #16]
 431 0094 5A68     		ldr	r2, [r3, #4]
 432 0096 049B     		ldr	r3, [sp, #16]
 433 0098 1B68     		ldr	r3, [r3]
 434 009a 5B68     		ldr	r3, [r3, #4]
 435 009c 1344     		add	r3, r3, r2
 436 009e 03F10802 		add	r2, r3, #8
 437 00a2 049B     		ldr	r3, [sp, #16]
 438 00a4 5A60     		str	r2, [r3, #4]
 439              		.loc 1 219 0
ARM GAS  /tmp/ccaHU3Jd.s 			page 9


 440 00a6 049B     		ldr	r3, [sp, #16]
 441 00a8 1B68     		ldr	r3, [r3]
 442 00aa 1A68     		ldr	r2, [r3]
 443 00ac 049B     		ldr	r3, [sp, #16]
 444 00ae 1A60     		str	r2, [r3]
 445              	.L26:
 446              		.loc 1 221 0
 447 00b0 059B     		ldr	r3, [sp, #20]
 448 00b2 5B68     		ldr	r3, [r3, #4]
 449 00b4 0833     		adds	r3, r3, #8
 450 00b6 059A     		ldr	r2, [sp, #20]
 451 00b8 1A44     		add	r2, r2, r3
 452 00ba 049B     		ldr	r3, [sp, #16]
 453 00bc 9A42     		cmp	r2, r3
 454 00be 0DD1     		bne	.L27
 455              		.loc 1 223 0
 456 00c0 059B     		ldr	r3, [sp, #20]
 457 00c2 5A68     		ldr	r2, [r3, #4]
 458 00c4 049B     		ldr	r3, [sp, #16]
 459 00c6 5B68     		ldr	r3, [r3, #4]
 460 00c8 1344     		add	r3, r3, r2
 461 00ca 03F10802 		add	r2, r3, #8
 462 00ce 059B     		ldr	r3, [sp, #20]
 463 00d0 5A60     		str	r2, [r3, #4]
 464              		.loc 1 224 0
 465 00d2 049B     		ldr	r3, [sp, #16]
 466 00d4 1A68     		ldr	r2, [r3]
 467 00d6 059B     		ldr	r3, [sp, #20]
 468 00d8 1A60     		str	r2, [r3]
 469              		.loc 1 226 0
 470 00da 04E0     		b	.L28
 471              	.L27:
 472 00dc 03E0     		b	.L28
 473              	.L24:
 474              		.loc 1 228 0
 475 00de 059B     		ldr	r3, [sp, #20]
 476 00e0 1B68     		ldr	r3, [r3]
 477 00e2 0593     		str	r3, [sp, #20]
 478              		.loc 1 229 0
 479 00e4 A3E7     		b	.L29
 480              	.L28:
 481              		.loc 1 231 0
 482 00e6 FFF7FEFF 		bl	chMtxUnlock
 483              		.loc 1 232 0
 484 00ea 00BF     		nop
 485              		.loc 1 233 0
 486 00ec 07B0     		add	sp, sp, #28
 487              		@ sp needed
 488 00ee 5DF804FB 		ldr	pc, [sp], #4
 489              	.L32:
 490 00f2 00BF     		.align	2
 491              	.L31:
 492 00f4 10000000 		.word	.LC1
 493 00f8 20000000 		.word	.LC2
 494              		.cfi_endproc
 495              	.LFE10:
 496              		.size	chHeapFree, .-chHeapFree
ARM GAS  /tmp/ccaHU3Jd.s 			page 10


 497 00fc AFF30080 		.section	.text.chHeapStatus,"ax",%progbits
 498              		.align	2
 499              		.p2align 4,,15
 500              		.global	chHeapStatus
 501              		.thumb
 502              		.thumb_func
 503              		.type	chHeapStatus, %function
 504              	chHeapStatus:
 505              	.LFB11:
 506              		.loc 1 250 0
 507              		.cfi_startproc
 508              		@ args = 0, pretend = 0, frame = 24
 509              		@ frame_needed = 0, uses_anonymous_args = 0
 510 0000 00B5     		push	{lr}
 511              		.cfi_def_cfa_offset 4
 512              		.cfi_offset 14, -4
 513 0002 87B0     		sub	sp, sp, #28
 514              		.cfi_def_cfa_offset 32
 515 0004 0190     		str	r0, [sp, #4]
 516 0006 0091     		str	r1, [sp]
 517              		.loc 1 254 0
 518 0008 019B     		ldr	r3, [sp, #4]
 519 000a 002B     		cmp	r3, #0
 520 000c 01D1     		bne	.L34
 521              		.loc 1 255 0
 522 000e 164B     		ldr	r3, .L39
 523 0010 0193     		str	r3, [sp, #4]
 524              	.L34:
 525              		.loc 1 257 0
 526 0012 019B     		ldr	r3, [sp, #4]
 527 0014 1033     		adds	r3, r3, #16
 528 0016 1846     		mov	r0, r3
 529 0018 FFF7FEFF 		bl	chMtxLock
 530              		.loc 1 259 0
 531 001c 0023     		movs	r3, #0
 532 001e 0393     		str	r3, [sp, #12]
 533              		.loc 1 260 0
 534 0020 0023     		movs	r3, #0
 535 0022 0493     		str	r3, [sp, #16]
 536 0024 019B     		ldr	r3, [sp, #4]
 537 0026 0833     		adds	r3, r3, #8
 538 0028 0593     		str	r3, [sp, #20]
 539 002a 0BE0     		b	.L35
 540              	.L36:
 541              		.loc 1 261 0 discriminator 2
 542 002c 059B     		ldr	r3, [sp, #20]
 543 002e 1B68     		ldr	r3, [r3]
 544 0030 5B68     		ldr	r3, [r3, #4]
 545 0032 039A     		ldr	r2, [sp, #12]
 546 0034 1344     		add	r3, r3, r2
 547 0036 0393     		str	r3, [sp, #12]
 548              		.loc 1 260 0 discriminator 2
 549 0038 049B     		ldr	r3, [sp, #16]
 550 003a 0133     		adds	r3, r3, #1
 551 003c 0493     		str	r3, [sp, #16]
 552 003e 059B     		ldr	r3, [sp, #20]
 553 0040 1B68     		ldr	r3, [r3]
ARM GAS  /tmp/ccaHU3Jd.s 			page 11


 554 0042 0593     		str	r3, [sp, #20]
 555              	.L35:
 556              		.loc 1 260 0 is_stmt 0 discriminator 1
 557 0044 059B     		ldr	r3, [sp, #20]
 558 0046 1B68     		ldr	r3, [r3]
 559 0048 002B     		cmp	r3, #0
 560 004a EFD1     		bne	.L36
 561              		.loc 1 262 0 is_stmt 1
 562 004c 009B     		ldr	r3, [sp]
 563 004e 002B     		cmp	r3, #0
 564 0050 02D0     		beq	.L37
 565              		.loc 1 263 0
 566 0052 009B     		ldr	r3, [sp]
 567 0054 039A     		ldr	r2, [sp, #12]
 568 0056 1A60     		str	r2, [r3]
 569              	.L37:
 570              		.loc 1 265 0
 571 0058 FFF7FEFF 		bl	chMtxUnlock
 572              		.loc 1 266 0
 573 005c 049B     		ldr	r3, [sp, #16]
 574              		.loc 1 267 0
 575 005e 1846     		mov	r0, r3
 576 0060 07B0     		add	sp, sp, #28
 577              		@ sp needed
 578 0062 5DF804FB 		ldr	pc, [sp], #4
 579              	.L40:
 580 0066 00BF     		.align	2
 581              	.L39:
 582 0068 00000000 		.word	default_heap
 583              		.cfi_endproc
 584              	.LFE11:
 585              		.size	chHeapStatus, .-chHeapStatus
 586 006c AFF30080 		.text
 587              	.Letext0:
 588              		.file 2 "/usr/lib/gcc/arm-none-eabi/4.8/include/stddef.h"
 589              		.file 3 "/usr/include/newlib/machine/_default_types.h"
 590              		.file 4 "/usr/include/newlib/stdint.h"
 591              		.file 5 "/home/dave/r2p-sdk/core/ChibiOS/os/ports/GCC/ARMCMx/chtypes.h"
 592              		.file 6 "/home/dave/r2p-sdk/core/ChibiOS/os/kernel/include/chlists.h"
 593              		.file 7 "/home/dave/r2p-sdk/core/ChibiOS/os/kernel/include/chthreads.h"
 594              		.file 8 "/home/dave/r2p-sdk/core/ChibiOS/os/ports/GCC/ARMCMx/chcore_v7m.h"
 595              		.file 9 "/home/dave/r2p-sdk/core/ChibiOS/os/kernel/include/chmtx.h"
 596              		.file 10 "/home/dave/r2p-sdk/core/ChibiOS/os/kernel/include/chmemcore.h"
 597              		.file 11 "/home/dave/r2p-sdk/core/ChibiOS/os/kernel/include/chheap.h"