ARM GAS  /tmp/cczI1NL6.s 			page 1


   1              		.syntax unified
   2              		.cpu cortex-m4
   3              		.eabi_attribute 27, 3
   4              		.eabi_attribute 28, 1
   5              		.fpu fpv4-sp-d16
   6              		.eabi_attribute 20, 1
   7              		.eabi_attribute 21, 1
   8              		.eabi_attribute 23, 3
   9              		.eabi_attribute 24, 1
  10              		.eabi_attribute 25, 1
  11              		.eabi_attribute 26, 1
  12              		.eabi_attribute 30, 6
  13              		.eabi_attribute 34, 1
  14              		.eabi_attribute 18, 4
  15              		.thumb
  16              		.file	"hal.c"
  17              		.text
  18              	.Ltext0:
  19              		.cfi_sections	.debug_frame
  20              		.section	.text.halInit,"ax",%progbits
  21              		.align	2
  22              		.p2align 4,,15
  23              		.global	halInit
  24              		.thumb
  25              		.thumb_func
  26              		.type	halInit, %function
  27              	halInit:
  28              	.LFB118:
  29              		.file 1 "/home/dave/r2p-sdk/core/ChibiOS/os/hal/src/hal.c"
  30              		.loc 1 68 0
  31              		.cfi_startproc
  32              		@ args = 0, pretend = 0, frame = 0
  33              		@ frame_needed = 0, uses_anonymous_args = 0
  34 0000 08B5     		push	{r3, lr}
  35              		.cfi_def_cfa_offset 8
  36              		.cfi_offset 3, -8
  37              		.cfi_offset 14, -4
  38              		.loc 1 70 0
  39 0002 FFF7FEFF 		bl	hal_lld_init
  40              		.loc 1 76 0
  41 0006 0748     		ldr	r0, .L2
  42 0008 FFF7FEFF 		bl	_pal_lld_init
  43              		.loc 1 79 0
  44 000c FFF7FEFF 		bl	adcInit
  45              		.loc 1 85 0
  46 0010 FFF7FEFF 		bl	extInit
  47              		.loc 1 103 0
  48 0014 FFF7FEFF 		bl	sdInit
  49              		.loc 1 109 0
  50 0018 FFF7FEFF 		bl	spiInit
  51              		.loc 1 127 0
  52 001c FFF7FEFF 		bl	boardInit
  53              		.loc 1 128 0
  54 0020 08BD     		pop	{r3, pc}
  55              	.L3:
  56 0022 00BF     		.align	2
  57              	.L2:
ARM GAS  /tmp/cczI1NL6.s 			page 2


  58 0024 00000000 		.word	pal_default_config
  59              		.cfi_endproc
  60              	.LFE118:
  61              		.size	halInit, .-halInit
  62 0028 AFF30080 		.section	.text.halIsCounterWithin,"ax",%progbits
  62      AFF30080 
  63              		.align	2
  64              		.p2align 4,,15
  65              		.global	halIsCounterWithin
  66              		.thumb
  67              		.thumb_func
  68              		.type	halIsCounterWithin, %function
  69              	halIsCounterWithin:
  70              	.LFB119:
  71              		.loc 1 174 0
  72              		.cfi_startproc
  73              		@ args = 0, pretend = 0, frame = 16
  74              		@ frame_needed = 0, uses_anonymous_args = 0
  75              		@ link register save eliminated.
  76 0000 84B0     		sub	sp, sp, #16
  77              		.cfi_def_cfa_offset 16
  78 0002 0190     		str	r0, [sp, #4]
  79 0004 0091     		str	r1, [sp]
  80              		.loc 1 175 0
  81 0006 134B     		ldr	r3, .L13
  82 0008 5B68     		ldr	r3, [r3, #4]
  83 000a 0393     		str	r3, [sp, #12]
  84              		.loc 1 177 0
  85 000c 009A     		ldr	r2, [sp]
  86 000e 019B     		ldr	r3, [sp, #4]
  87 0010 9A42     		cmp	r2, r3
  88 0012 0ED9     		bls	.L5
  89              		.loc 1 177 0 is_stmt 0 discriminator 1
  90 0014 039A     		ldr	r2, [sp, #12]
  91 0016 019B     		ldr	r3, [sp, #4]
  92 0018 9A42     		cmp	r2, r3
  93 001a 05D3     		bcc	.L6
  94 001c 039A     		ldr	r2, [sp, #12]
  95 001e 009B     		ldr	r3, [sp]
  96 0020 9A42     		cmp	r2, r3
  97 0022 01D2     		bcs	.L6
  98              		.loc 1 177 0 discriminator 3
  99 0024 0123     		movs	r3, #1
 100 0026 00E0     		b	.L7
 101              	.L6:
 102              		.loc 1 177 0 discriminator 2
 103 0028 0023     		movs	r3, #0
 104              	.L7:
 105              		.loc 1 177 0 discriminator 4
 106 002a 03F00103 		and	r3, r3, #1
 107 002e DBB2     		uxtb	r3, r3
 108 0030 0DE0     		b	.L8
 109              	.L5:
 110              		.loc 1 178 0 is_stmt 1
 111 0032 039A     		ldr	r2, [sp, #12]
 112 0034 019B     		ldr	r3, [sp, #4]
 113 0036 9A42     		cmp	r2, r3
ARM GAS  /tmp/cczI1NL6.s 			page 3


 114 0038 03D2     		bcs	.L9
 115              		.loc 1 178 0 is_stmt 0 discriminator 2
 116 003a 039A     		ldr	r2, [sp, #12]
 117 003c 009B     		ldr	r3, [sp]
 118 003e 9A42     		cmp	r2, r3
 119 0040 01D2     		bcs	.L10
 120              	.L9:
 121              		.loc 1 178 0 discriminator 1
 122 0042 0123     		movs	r3, #1
 123 0044 00E0     		b	.L11
 124              	.L10:
 125              		.loc 1 178 0 discriminator 3
 126 0046 0023     		movs	r3, #0
 127              	.L11:
 128              		.loc 1 177 0 is_stmt 1
 129 0048 03F00103 		and	r3, r3, #1
 130 004c DBB2     		uxtb	r3, r3
 131              	.L8:
 132              		.loc 1 179 0 discriminator 2
 133 004e 1846     		mov	r0, r3
 134 0050 04B0     		add	sp, sp, #16
 135              		@ sp needed
 136 0052 7047     		bx	lr
 137              	.L14:
 138              		.align	2
 139              	.L13:
 140 0054 001000E0 		.word	-536866816
 141              		.cfi_endproc
 142              	.LFE119:
 143              		.size	halIsCounterWithin, .-halIsCounterWithin
 144 0058 AFF30080 		.section	.text.halPolledDelay,"ax",%progbits
 144      AFF30080 
 145              		.align	2
 146              		.p2align 4,,15
 147              		.global	halPolledDelay
 148              		.thumb
 149              		.thumb_func
 150              		.type	halPolledDelay, %function
 151              	halPolledDelay:
 152              	.LFB120:
 153              		.loc 1 193 0
 154              		.cfi_startproc
 155              		@ args = 0, pretend = 0, frame = 16
 156              		@ frame_needed = 0, uses_anonymous_args = 0
 157 0000 00B5     		push	{lr}
 158              		.cfi_def_cfa_offset 4
 159              		.cfi_offset 14, -4
 160 0002 85B0     		sub	sp, sp, #20
 161              		.cfi_def_cfa_offset 24
 162 0004 0190     		str	r0, [sp, #4]
 163              		.loc 1 194 0
 164 0006 094B     		ldr	r3, .L17
 165 0008 5B68     		ldr	r3, [r3, #4]
 166 000a 0393     		str	r3, [sp, #12]
 167              		.loc 1 195 0
 168 000c 039A     		ldr	r2, [sp, #12]
 169 000e 019B     		ldr	r3, [sp, #4]
ARM GAS  /tmp/cczI1NL6.s 			page 4


 170 0010 1344     		add	r3, r3, r2
 171 0012 0293     		str	r3, [sp, #8]
 172              		.loc 1 196 0
 173 0014 00BF     		nop
 174              	.L16:
 175              		.loc 1 196 0 is_stmt 0 discriminator 1
 176 0016 0398     		ldr	r0, [sp, #12]
 177 0018 0299     		ldr	r1, [sp, #8]
 178 001a FFF7FEFF 		bl	halIsCounterWithin
 179 001e 0346     		mov	r3, r0
 180 0020 002B     		cmp	r3, #0
 181 0022 F8D1     		bne	.L16
 182              		.loc 1 198 0 is_stmt 1
 183 0024 05B0     		add	sp, sp, #20
 184              		@ sp needed
 185 0026 5DF804FB 		ldr	pc, [sp], #4
 186              	.L18:
 187 002a 00BF     		.align	2
 188              	.L17:
 189 002c 001000E0 		.word	-536866816
 190              		.cfi_endproc
 191              	.LFE120:
 192              		.size	halPolledDelay, .-halPolledDelay
 193              		.text
 194              	.Letext0:
 195              		.file 2 "/usr/include/newlib/machine/_default_types.h"
 196              		.file 3 "/usr/include/newlib/stdint.h"
 197              		.file 4 "/home/dave/r2p-sdk/core/ChibiOS/os/ports/GCC/ARMCMx/chtypes.h"
 198              		.file 5 "/home/dave/r2p-sdk/core/ChibiOS/os/ports/common/ARMCMx/nvic.h"
 199              		.file 6 "/home/dave/r2p-sdk/core/ChibiOS/os/hal/platforms/STM32F30x/hal_lld.h"
 200              		.file 7 "/home/dave/r2p-sdk/core/ChibiOS/os/hal/platforms/STM32/GPIOv2/pal_lld.h"
 201              		.file 8 "/home/dave/r2p-sdk/core/ChibiOS/os/ports/common/ARMCMx/CMSIS/include/core_cm4.h"