ARM GAS  /tmp/cczI1NL6.s 			page 1


   1              		.syntax unified
   2              		.cpu cortex-m4
   3              		.eabi_attribute 27, 3
   4              		.eabi_attribute 28, 1
   5              		.fpu fpv4-sp-d16
   6              		.eabi_attribute 20, 1
   7              		.eabi_attribute 21, 1
   8              		.eabi_attribute 23, 3
   9              		.eabi_attribute 24, 1
  10              		.eabi_attribute 25, 1
  11              		.eabi_attribute 26, 1
  12              		.eabi_attribute 30, 6
  13              		.eabi_attribute 34, 1
  14              		.eabi_attribute 18, 4
  15              		.thumb
  16              		.file	"hal.c"
  17              		.text
  18              	.Ltext0:
  19              		.cfi_sections	.debug_frame
  20              		.section	.text.halInit,"ax",%progbits
  21              		.align	2
  22              		.p2align 4,,15
  23              		.global	halInit
  24              		.thumb
  25              		.thumb_func
  26              		.type	halInit, %function
  27              	halInit:
  28              	.LFB118:
  29              		.file 1 "/home/dave/r2p-sdk/core/ChibiOS/os/hal/src/hal.c"
  30              		.loc 1 68 0
  31              		.cfi_startproc
  32              		@ args = 0, pretend = 0, frame = 0
  33              		@ frame_needed = 0, uses_anonymous_args = 0
  34 0000 08B5     		push	{r3, lr}
  35              		.cfi_def_cfa_offset 8
  36              		.cfi_offset 3, -8
  37              		.cfi_offset 14, -4
  38              		.loc 1 70 0
  39 0002 FFF7FEFF 		bl	hal_lld_init
  40              		.loc 1 76 0
  41 0006 0748     		ldr	r0, .L2
  42 0008 FFF7FEFF 		bl	_pal_lld_init
  43              		.loc 1 79 0
  44 000c FFF7FEFF 		bl	adcInit
  45              		.loc 1 85 0
  46 0010 FFF7FEFF 		bl	extInit
  47              		.loc 1 103 0
  48 0014 FFF7FEFF 		bl	sdInit
  49              		.loc 1 109 0
  50 0018 FFF7FEFF 		bl	spiInit
  51              		.loc 1 127 0
  52 001c FFF7FEFF 		bl	boardInit
  53              		.loc 1 128 0
  54 0020 08BD     		pop	{r3, pc}
  55              	.L3:
  56 0022 00BF     		.align	2
  57              	.L2:
ARM GAS  /tmp/cczI1NL6.s 			page 2


  58 0024 00000000 		.word	pal_default_config
  59              		.cfi_endproc
  60              	.LFE118:
  61              		.size	halInit, .-halInit
  62 0028 AFF30080 		.section	.text.halIsCounterWithin,"ax",%progbits
  62      AFF30080 
  63              		.align	2
  64              		.p2align 4,,15
  65              		.global	halIsCounterWithin
  66              		.thumb
  67              		.thumb_func
  68              		.type	halIsCounterWithin, %function
  69              	halIsCounterWithin:
  70              	.LFB119:
  71              		.loc 1 174 0
  72              		.cfi_startproc
  73              		@ args = 0, pretend = 0, frame = 16
  74              		@ frame_needed = 0, uses_anonymous_args = 0
  75              		@ link register save eliminated.
  76 0000 84B0     		sub	sp, sp, #16
  77              		.cfi_def_cfa_offset 16
  78 0002 0190     		str	r0, [sp, #4]
  79 0004 0091     		str	r1, [sp]
  80              		.loc 1 175 0
  81 0006 134B     		ldr	r3, .L13
  82 0008 5B68     		ldr	r3, [r3, #4]
  83 000a 0393     		str	r3, [sp, #12]
  84              		.loc 1 177 0
  85 000c 009A     		ldr	r2, [sp]
  86 000e 019B     		ldr	r3, [sp, #4]
  87 0010 9A42     		cmp	r2, r3
  88 0012 0ED9     		bls	.L5
  89              		.loc 1 177 0 is_stmt 0 discriminator 1
  90 0014 039A     		ldr	r2, [sp, #12]
  91 0016 019B     		ldr	r3, [sp, #4]
  92 0018 9A42     		cmp	r2, r3
  93 001a 05D3     		bcc	.L6
  94 001c 039A     		ldr	r2, [sp, #12]
  95 001e 009B     		ldr	r3, [sp]
  96 0020 9A42     		cmp	r2, r3
  97 0022 01D2     		bcs	.L6
  98              		.loc 1 177 0 discriminator 3
  99 0024 0123     		movs	r3, #1
 100 0026 00E0     		b	.L7
 101              	.L6:
 102              		.loc 1 177 0 discriminator 2
 103 0028 0023     		movs	r3, #0
 104              	.L7:
 105              		.loc 1 177 0 discriminator 4
 106 002a 03F00103 		and	r3, r3, #1
 107 002e DBB2     		uxtb	r3, r3
 108 0030 0DE0     		b	.L8
 109              	.L5:
 110              		.loc 1 178 0 is_stmt 1
 111 0032 039A     		ldr	r2, [sp, #12]
 112 0034 019B     		ldr	r3, [sp, #4]
 113 0036 9A42     		cmp	r2, r3
ARM GAS  /tmp/cczI1NL6.s 			page 3


 114 0038 03D2     		bcs	.L9
 115              		.loc 1 178 0 is_stmt 0 discriminator 2
 116 003a 039A     		ldr	r2, [sp, #12]
 117 003c 009B     		ldr	r3, [sp]
 118 003e 9A42     		cmp	r2, r3
 119 0040 01D2     		bcs	.L10
 120              	.L9:
 121              		.loc 1 178 0 discriminator 1
 122 0042 0123     		movs	r3, #1
 123 0044 00E0     		b	.L11
 124              	.L10:
 125              		.loc 1 178 0 discriminator 3
 126 0046 0023     		movs	r3, #0
 127              	.L11:
 128              		.loc 1 177 0 is_stmt 1
 129 0048 03F00103 		and	r3, r3, #1
 130 004c DBB2     		uxtb	r3, r3
 131              	.L8:
 132              		.loc 1 179 0 discriminator 2
 133 004e 1846     		mov	r0, r3
 134 0050 04B0     		add	sp, sp, #16
 135              		@ sp needed
 136 0052 7047     		bx	lr
 137              	.L14:
 138              		.align	2
 139              	.L13:
 140 0054 001000E0 		.word	-536866816
 141              		.cfi_endproc
 142              	.LFE119:
 143              		.size	halIsCounterWithin, .-halIsCounterWithin
 144 0058 AFF30080 		.section	.text.halPolledDelay,"ax",%progbits
 144      AFF30080 
 145              		.align	2
 146              		.p2align 4,,15
 147              		.global	halPolledDelay
 148              		.thumb
 149              		.thumb_func
 150              		.type	halPolledDelay, %function
 151              	halPolledDelay:
 152              	.LFB120:
 153              		.loc 1 193 0
 154              		.cfi_startproc
 155              		@ args = 0, pretend = 0, frame = 16
 156              		@ frame_needed = 0, uses_anonymous_args = 0
 157 0000 00B5     		push	{lr}
 158              		.cfi_def_cfa_offset 4
 159              		.cfi_offset 14, -4
 160 0002 85B0     		sub	sp, sp, #20
 161              		.cfi_def_cfa_offset 24
 162 0004 0190     		str	r0, [sp, #4]
 163              		.loc 1 194 0
 164 0006 094B     		ldr	r3, .L17
 165 0008 5B68     		ldr	r3, [r3, #4]
 166 000a 0393     		str	r3, [sp, #12]
 167              		.loc 1 195 0
 168 000c 039A     		ldr	r2, [sp, #12]
 169 000e 019B     		ldr	r3, [sp, #4]
ARM GAS  /tmp/cczI1NL6.s 			page 4


 170 0010 1344     		add	r3, r3, r2
 171 0012 0293     		str	r3, [sp, #8]
 172              		.loc 1 196 0
 173 0014 00BF     		nop
 174              	.L16:
 175              		.loc 1 196 0 is_stmt 0 discriminator 1
 176 0016 0398     		ldr	r0, [sp, #12]
 177 0018 0299     		ldr	r1, [sp, #8]
 178 001a FFF7FEFF 		bl	halIsCounterWithin
 179 001e 0346     		mov	r3, r0
 180 0020 002B     		cmp	r3, #0
 181 0022 F8D1     		bne	.L16
 182              		.loc 1 198 0 is_stmt 1
 183 0024 05B0     		add	sp, sp, #20
 184              		@ sp needed
 185 0026 5DF804FB 		ldr	pc, [sp], #4
 186              	.L18:
 187 002a 00BF     		.align	2
 188              	.L17:
 189 002c 001000E0 		.word	-536866816
 190              		.cfi_endproc
 191              	.LFE120:
 192              		.size	halPolledDelay, .-halPolledDelay
 193              		.text
 194              	.Letext0:
 195              		.file 2 "/usr/include/newlib/machine/_default_types.h"
 196              		.file 3 "/usr/include/newlib/stdint.h"
 197              		.file 4 "/home/dave/r2p-sdk/core/ChibiOS/os/ports/GCC/ARMCMx/chtypes.h"
 198              		.file 5 "/home/dave/r2p-sdk/core/ChibiOS/os/ports/common/ARMCMx/nvic.h"
 199              		.file 6 "/home/dave/r2p-sdk/core/ChibiOS/os/hal/platforms/STM32F30x/hal_lld.h"
 200              		.file 7 "/home/dave/r2p-sdk/core/ChibiOS/os/hal/platforms/STM32/GPIOv2/pal_lld.h"
 201              		.file 8 "/home/dave/r2p-sdk/core/ChibiOS/os/ports/common/ARMCMx/CMSIS/include/core_cm4.h"
 202              		.section	.debug_info,"",%progbits
 203              	.Ldebug_info0:
 204 0000 C5020000 		.4byte	0x2c5
 205 0004 0400     		.2byte	0x4
 206 0006 00000000 		.4byte	.Ldebug_abbrev0
 207 000a 04       		.byte	0x4
 208 000b 01       		.uleb128 0x1
 209 000c A9010000 		.4byte	.LASF47
 210 0010 01       		.byte	0x1
 211 0011 68010000 		.4byte	.LASF48
 212 0015 00000000 		.4byte	.Ldebug_ranges0+0
 213 0019 00000000 		.4byte	0
 214 001d 00000000 		.4byte	.Ldebug_line0
 215 0021 02       		.uleb128 0x2
 216 0022 04       		.byte	0x4
 217 0023 05       		.byte	0x5
 218 0024 696E7400 		.ascii	"int\000"
 219 0028 03       		.uleb128 0x3
 220 0029 04       		.byte	0x4
 221 002a 07       		.byte	0x7
 222 002b 43000000 		.4byte	.LASF0
 223 002f 03       		.uleb128 0x3
 224 0030 01       		.byte	0x1
 225 0031 06       		.byte	0x6
 226 0032 D8020000 		.4byte	.LASF1
ARM GAS  /tmp/cczI1NL6.s 			page 5


 227 0036 03       		.uleb128 0x3
 228 0037 01       		.byte	0x1
 229 0038 08       		.byte	0x8
 230 0039 85000000 		.4byte	.LASF2
 231 003d 03       		.uleb128 0x3
 232 003e 02       		.byte	0x2
 233 003f 05       		.byte	0x5
 234 0040 A7020000 		.4byte	.LASF3
 235 0044 03       		.uleb128 0x3
 236 0045 02       		.byte	0x2
 237 0046 07       		.byte	0x7
 238 0047 30000000 		.4byte	.LASF4
 239 004b 04       		.uleb128 0x4
 240 004c 20000000 		.4byte	.LASF6
 241 0050 02       		.byte	0x2
 242 0051 3F       		.byte	0x3f
 243 0052 56000000 		.4byte	0x56
 244 0056 03       		.uleb128 0x3
 245 0057 04       		.byte	0x4
 246 0058 05       		.byte	0x5
 247 0059 C9020000 		.4byte	.LASF5
 248 005d 04       		.uleb128 0x4
 249 005e FD000000 		.4byte	.LASF7
 250 0062 02       		.byte	0x2
 251 0063 41       		.byte	0x41
 252 0064 68000000 		.4byte	0x68
 253 0068 03       		.uleb128 0x3
 254 0069 04       		.byte	0x4
 255 006a 07       		.byte	0x7
 256 006b AD000000 		.4byte	.LASF8
 257 006f 03       		.uleb128 0x3
 258 0070 08       		.byte	0x8
 259 0071 05       		.byte	0x5
 260 0072 00000000 		.4byte	.LASF9
 261 0076 03       		.uleb128 0x3
 262 0077 08       		.byte	0x8
 263 0078 07       		.byte	0x7
 264 0079 EA020000 		.4byte	.LASF10
 265 007d 04       		.uleb128 0x4
 266 007e 57010000 		.4byte	.LASF11
 267 0082 03       		.byte	0x3
 268 0083 41       		.byte	0x41
 269 0084 4B000000 		.4byte	0x4b
 270 0088 04       		.uleb128 0x4
 271 0089 C0020000 		.4byte	.LASF12
 272 008d 03       		.byte	0x3
 273 008e 42       		.byte	0x42
 274 008f 5D000000 		.4byte	0x5d
 275 0093 04       		.uleb128 0x4
 276 0094 57000000 		.4byte	.LASF13
 277 0098 04       		.byte	0x4
 278 0099 2B       		.byte	0x2b
 279 009a 9E000000 		.4byte	0x9e
 280 009e 03       		.uleb128 0x3
 281 009f 01       		.byte	0x1
 282 00a0 02       		.byte	0x2
 283 00a1 E4020000 		.4byte	.LASF14
ARM GAS  /tmp/cczI1NL6.s 			page 6


 284 00a5 04       		.uleb128 0x4
 285 00a6 6E000000 		.4byte	.LASF15
 286 00aa 05       		.byte	0x5
 287 00ab 3A       		.byte	0x3a
 288 00ac B0000000 		.4byte	0xb0
 289 00b0 05       		.uleb128 0x5
 290 00b1 88000000 		.4byte	0x88
 291 00b5 03       		.uleb128 0x3
 292 00b6 04       		.byte	0x4
 293 00b7 07       		.byte	0x7
 294 00b8 5F010000 		.4byte	.LASF16
 295 00bc 06       		.uleb128 0x6
 296 00bd 20       		.byte	0x20
 297 00be 05       		.byte	0x5
 298 00bf 0601     		.2byte	0x106
 299 00c1 2E010000 		.4byte	0x12e
 300 00c5 07       		.uleb128 0x7
 301 00c6 3F010000 		.4byte	.LASF17
 302 00ca 05       		.byte	0x5
 303 00cb 0701     		.2byte	0x107
 304 00cd A5000000 		.4byte	0xa5
 305 00d1 00       		.byte	0
 306 00d2 07       		.uleb128 0x7
 307 00d3 0F010000 		.4byte	.LASF18
 308 00d7 05       		.byte	0x5
 309 00d8 0801     		.2byte	0x108
 310 00da A5000000 		.4byte	0xa5
 311 00de 04       		.byte	0x4
 312 00df 07       		.uleb128 0x7
 313 00e0 C4000000 		.4byte	.LASF19
 314 00e4 05       		.byte	0x5
 315 00e5 0901     		.2byte	0x109
 316 00e7 A5000000 		.4byte	0xa5
 317 00eb 08       		.byte	0x8
 318 00ec 07       		.uleb128 0x7
 319 00ed 5E000000 		.4byte	.LASF20
 320 00f1 05       		.byte	0x5
 321 00f2 0A01     		.2byte	0x10a
 322 00f4 A5000000 		.4byte	0xa5
 323 00f8 0C       		.byte	0xc
 324 00f9 07       		.uleb128 0x7
 325 00fa 65000000 		.4byte	.LASF21
 326 00fe 05       		.byte	0x5
 327 00ff 0B01     		.2byte	0x10b
 328 0101 A5000000 		.4byte	0xa5
 329 0105 10       		.byte	0x10
 330 0106 07       		.uleb128 0x7
 331 0107 08010000 		.4byte	.LASF22
 332 010b 05       		.byte	0x5
 333 010c 0C01     		.2byte	0x10c
 334 010e A5000000 		.4byte	0xa5
 335 0112 14       		.byte	0x14
 336 0113 07       		.uleb128 0x7
 337 0114 D8000000 		.4byte	.LASF23
 338 0118 05       		.byte	0x5
 339 0119 0D01     		.2byte	0x10d
 340 011b A5000000 		.4byte	0xa5
ARM GAS  /tmp/cczI1NL6.s 			page 7


 341 011f 18       		.byte	0x18
 342 0120 07       		.uleb128 0x7
 343 0121 1B000000 		.4byte	.LASF24
 344 0125 05       		.byte	0x5
 345 0126 0E01     		.2byte	0x10e
 346 0128 A5000000 		.4byte	0xa5
 347 012c 1C       		.byte	0x1c
 348 012d 00       		.byte	0
 349 012e 08       		.uleb128 0x8
 350 012f B8020000 		.4byte	.LASF25
 351 0133 05       		.byte	0x5
 352 0134 0F01     		.2byte	0x10f
 353 0136 BC000000 		.4byte	0xbc
 354 013a 03       		.uleb128 0x3
 355 013b 01       		.byte	0x1
 356 013c 08       		.byte	0x8
 357 013d 3A010000 		.4byte	.LASF26
 358 0141 05       		.uleb128 0x5
 359 0142 7D000000 		.4byte	0x7d
 360 0146 08       		.uleb128 0x8
 361 0147 2F010000 		.4byte	.LASF27
 362 014b 06       		.byte	0x6
 363 014c 4004     		.2byte	0x440
 364 014e 88000000 		.4byte	0x88
 365 0152 09       		.uleb128 0x9
 366 0153 1C       		.byte	0x1c
 367 0154 07       		.byte	0x7
 368 0155 A3       		.byte	0xa3
 369 0156 AF010000 		.4byte	0x1af
 370 015a 0A       		.uleb128 0xa
 371 015b D2020000 		.4byte	.LASF28
 372 015f 07       		.byte	0x7
 373 0160 A5       		.byte	0xa5
 374 0161 88000000 		.4byte	0x88
 375 0165 00       		.byte	0
 376 0166 0A       		.uleb128 0xa
 377 0167 50000000 		.4byte	.LASF29
 378 016b 07       		.byte	0x7
 379 016c A7       		.byte	0xa7
 380 016d 88000000 		.4byte	0x88
 381 0171 04       		.byte	0x4
 382 0172 0A       		.uleb128 0xa
 383 0173 99010000 		.4byte	.LASF30
 384 0177 07       		.byte	0x7
 385 0178 A9       		.byte	0xa9
 386 0179 88000000 		.4byte	0x88
 387 017d 08       		.byte	0x8
 388 017e 0A       		.uleb128 0xa
 389 017f 16010000 		.4byte	.LASF31
 390 0183 07       		.byte	0x7
 391 0184 AB       		.byte	0xab
 392 0185 88000000 		.4byte	0x88
 393 0189 0C       		.byte	0xc
 394 018a 0B       		.uleb128 0xb
 395 018b 6F647200 		.ascii	"odr\000"
 396 018f 07       		.byte	0x7
 397 0190 AD       		.byte	0xad
ARM GAS  /tmp/cczI1NL6.s 			page 8


 398 0191 88000000 		.4byte	0x88
 399 0195 10       		.byte	0x10
 400 0196 0A       		.uleb128 0xa
 401 0197 2A010000 		.4byte	.LASF32
 402 019b 07       		.byte	0x7
 403 019c AF       		.byte	0xaf
 404 019d 88000000 		.4byte	0x88
 405 01a1 14       		.byte	0x14
 406 01a2 0A       		.uleb128 0xa
 407 01a3 BF000000 		.4byte	.LASF33
 408 01a7 07       		.byte	0x7
 409 01a8 B1       		.byte	0xb1
 410 01a9 88000000 		.4byte	0x88
 411 01ad 18       		.byte	0x18
 412 01ae 00       		.byte	0
 413 01af 04       		.uleb128 0x4
 414 01b0 93000000 		.4byte	.LASF34
 415 01b4 07       		.byte	0x7
 416 01b5 B2       		.byte	0xb2
 417 01b6 52010000 		.4byte	0x152
 418 01ba 09       		.uleb128 0x9
 419 01bb A8       		.byte	0xa8
 420 01bc 07       		.byte	0x7
 421 01bd BB       		.byte	0xbb
 422 01be 0B020000 		.4byte	0x20b
 423 01c2 0A       		.uleb128 0xa
 424 01c3 A6000000 		.4byte	.LASF35
 425 01c7 07       		.byte	0x7
 426 01c8 BE       		.byte	0xbe
 427 01c9 AF010000 		.4byte	0x1af
 428 01cd 00       		.byte	0
 429 01ce 0A       		.uleb128 0xa
 430 01cf 23010000 		.4byte	.LASF36
 431 01d3 07       		.byte	0x7
 432 01d4 C2       		.byte	0xc2
 433 01d5 AF010000 		.4byte	0x1af
 434 01d9 1C       		.byte	0x1c
 435 01da 0A       		.uleb128 0xa
 436 01db B1020000 		.4byte	.LASF37
 437 01df 07       		.byte	0x7
 438 01e0 C6       		.byte	0xc6
 439 01e1 AF010000 		.4byte	0x1af
 440 01e5 38       		.byte	0x38
 441 01e6 0A       		.uleb128 0xa
 442 01e7 14000000 		.4byte	.LASF38
 443 01eb 07       		.byte	0x7
 444 01ec CA       		.byte	0xca
 445 01ed AF010000 		.4byte	0x1af
 446 01f1 54       		.byte	0x54
 447 01f2 0A       		.uleb128 0xa
 448 01f3 7E000000 		.4byte	.LASF39
 449 01f7 07       		.byte	0x7
 450 01f8 CE       		.byte	0xce
 451 01f9 AF010000 		.4byte	0x1af
 452 01fd 70       		.byte	0x70
 453 01fe 0A       		.uleb128 0xa
 454 01ff 1C010000 		.4byte	.LASF40
ARM GAS  /tmp/cczI1NL6.s 			page 9


 455 0203 07       		.byte	0x7
 456 0204 D2       		.byte	0xd2
 457 0205 AF010000 		.4byte	0x1af
 458 0209 8C       		.byte	0x8c
 459 020a 00       		.byte	0
 460 020b 04       		.uleb128 0x4
 461 020c E0000000 		.4byte	.LASF41
 462 0210 07       		.byte	0x7
 463 0211 E0       		.byte	0xe0
 464 0212 BA010000 		.4byte	0x1ba
 465 0216 0C       		.uleb128 0xc
 466 0217 76000000 		.4byte	.LASF49
 467 021b 01       		.byte	0x1
 468 021c 44       		.byte	0x44
 469 021d 00000000 		.4byte	.LFB118
 470 0221 28000000 		.4byte	.LFE118-.LFB118
 471 0225 01       		.uleb128 0x1
 472 0226 9C       		.byte	0x9c
 473 0227 0D       		.uleb128 0xd
 474 0228 44010000 		.4byte	.LASF50
 475 022c 01       		.byte	0x1
 476 022d AE       		.byte	0xae
 477 022e 93000000 		.4byte	0x93
 478 0232 00000000 		.4byte	.LFB119
 479 0236 58000000 		.4byte	.LFE119-.LFB119
 480 023a 01       		.uleb128 0x1
 481 023b 9C       		.byte	0x9c
 482 023c 6B020000 		.4byte	0x26b
 483 0240 0E       		.uleb128 0xe
 484 0241 2A000000 		.4byte	.LASF42
 485 0245 01       		.byte	0x1
 486 0246 AE       		.byte	0xae
 487 0247 46010000 		.4byte	0x146
 488 024b 02       		.uleb128 0x2
 489 024c 91       		.byte	0x91
 490 024d 74       		.sleb128 -12
 491 024e 0F       		.uleb128 0xf
 492 024f 656E6400 		.ascii	"end\000"
 493 0253 01       		.byte	0x1
 494 0254 AE       		.byte	0xae
 495 0255 46010000 		.4byte	0x146
 496 0259 02       		.uleb128 0x2
 497 025a 91       		.byte	0x91
 498 025b 70       		.sleb128 -16
 499 025c 10       		.uleb128 0x10
 500 025d 6E6F7700 		.ascii	"now\000"
 501 0261 01       		.byte	0x1
 502 0262 AF       		.byte	0xaf
 503 0263 46010000 		.4byte	0x146
 504 0267 02       		.uleb128 0x2
 505 0268 91       		.byte	0x91
 506 0269 7C       		.sleb128 -4
 507 026a 00       		.byte	0
 508 026b 11       		.uleb128 0x11
 509 026c 98020000 		.4byte	.LASF51
 510 0270 01       		.byte	0x1
 511 0271 C1       		.byte	0xc1
ARM GAS  /tmp/cczI1NL6.s 			page 10


 512 0272 00000000 		.4byte	.LFB120
 513 0276 30000000 		.4byte	.LFE120-.LFB120
 514 027a 01       		.uleb128 0x1
 515 027b 9C       		.byte	0x9c
 516 027c AB020000 		.4byte	0x2ab
 517 0280 0E       		.uleb128 0xe
 518 0281 0E000000 		.4byte	.LASF43
 519 0285 01       		.byte	0x1
 520 0286 C1       		.byte	0xc1
 521 0287 46010000 		.4byte	0x146
 522 028b 02       		.uleb128 0x2
 523 028c 91       		.byte	0x91
 524 028d 6C       		.sleb128 -20
 525 028e 12       		.uleb128 0x12
 526 028f 2A000000 		.4byte	.LASF42
 527 0293 01       		.byte	0x1
 528 0294 C2       		.byte	0xc2
 529 0295 46010000 		.4byte	0x146
 530 0299 02       		.uleb128 0x2
 531 029a 91       		.byte	0x91
 532 029b 74       		.sleb128 -12
 533 029c 12       		.uleb128 0x12
 534 029d A1010000 		.4byte	.LASF44
 535 02a1 01       		.byte	0x1
 536 02a2 C3       		.byte	0xc3
 537 02a3 46010000 		.4byte	0x146
 538 02a7 02       		.uleb128 0x2
 539 02a8 91       		.byte	0x91
 540 02a9 70       		.sleb128 -16
 541 02aa 00       		.byte	0
 542 02ab 13       		.uleb128 0x13
 543 02ac CB000000 		.4byte	.LASF45
 544 02b0 08       		.byte	0x8
 545 02b1 9806     		.2byte	0x698
 546 02b3 41010000 		.4byte	0x141
 547 02b7 13       		.uleb128 0x13
 548 02b8 EA000000 		.4byte	.LASF46
 549 02bc 07       		.byte	0x7
 550 02bd BC01     		.2byte	0x1bc
 551 02bf C3020000 		.4byte	0x2c3
 552 02c3 14       		.uleb128 0x14
 553 02c4 0B020000 		.4byte	0x20b
 554 02c8 00       		.byte	0
 555              		.section	.debug_abbrev,"",%progbits
 556              	.Ldebug_abbrev0:
 557 0000 01       		.uleb128 0x1
 558 0001 11       		.uleb128 0x11
 559 0002 01       		.byte	0x1
 560 0003 25       		.uleb128 0x25
 561 0004 0E       		.uleb128 0xe
 562 0005 13       		.uleb128 0x13
 563 0006 0B       		.uleb128 0xb
 564 0007 03       		.uleb128 0x3
 565 0008 0E       		.uleb128 0xe
 566 0009 55       		.uleb128 0x55
 567 000a 17       		.uleb128 0x17
 568 000b 11       		.uleb128 0x11
ARM GAS  /tmp/cczI1NL6.s 			page 11


 569 000c 01       		.uleb128 0x1
 570 000d 10       		.uleb128 0x10
 571 000e 17       		.uleb128 0x17
 572 000f 00       		.byte	0
 573 0010 00       		.byte	0
 574 0011 02       		.uleb128 0x2
 575 0012 24       		.uleb128 0x24
 576 0013 00       		.byte	0
 577 0014 0B       		.uleb128 0xb
 578 0015 0B       		.uleb128 0xb
 579 0016 3E       		.uleb128 0x3e
 580 0017 0B       		.uleb128 0xb
 581 0018 03       		.uleb128 0x3
 582 0019 08       		.uleb128 0x8
 583 001a 00       		.byte	0
 584 001b 00       		.byte	0
 585 001c 03       		.uleb128 0x3
 586 001d 24       		.uleb128 0x24
 587 001e 00       		.byte	0
 588 001f 0B       		.uleb128 0xb
 589 0020 0B       		.uleb128 0xb
 590 0021 3E       		.uleb128 0x3e
 591 0022 0B       		.uleb128 0xb
 592 0023 03       		.uleb128 0x3
 593 0024 0E       		.uleb128 0xe
 594 0025 00       		.byte	0
 595 0026 00       		.byte	0
 596 0027 04       		.uleb128 0x4
 597 0028 16       		.uleb128 0x16
 598 0029 00       		.byte	0
 599 002a 03       		.uleb128 0x3
 600 002b 0E       		.uleb128 0xe
 601 002c 3A       		.uleb128 0x3a
 602 002d 0B       		.uleb128 0xb
 603 002e 3B       		.uleb128 0x3b
 604 002f 0B       		.uleb128 0xb
 605 0030 49       		.uleb128 0x49
 606 0031 13       		.uleb128 0x13
 607 0032 00       		.byte	0
 608 0033 00       		.byte	0
 609 0034 05       		.uleb128 0x5
 610 0035 35       		.uleb128 0x35
 611 0036 00       		.byte	0
 612 0037 49       		.uleb128 0x49
 613 0038 13       		.uleb128 0x13
 614 0039 00       		.byte	0
 615 003a 00       		.byte	0
 616 003b 06       		.uleb128 0x6
 617 003c 13       		.uleb128 0x13
 618 003d 01       		.byte	0x1
 619 003e 0B       		.uleb128 0xb
 620 003f 0B       		.uleb128 0xb
 621 0040 3A       		.uleb128 0x3a
 622 0041 0B       		.uleb128 0xb
 623 0042 3B       		.uleb128 0x3b
 624 0043 05       		.uleb128 0x5
 625 0044 01       		.uleb128 0x1
ARM GAS  /tmp/cczI1NL6.s 			page 12


 626 0045 13       		.uleb128 0x13
 627 0046 00       		.byte	0
 628 0047 00       		.byte	0
 629 0048 07       		.uleb128 0x7
 630 0049 0D       		.uleb128 0xd
 631 004a 00       		.byte	0
 632 004b 03       		.uleb128 0x3
 633 004c 0E       		.uleb128 0xe
 634 004d 3A       		.uleb128 0x3a
 635 004e 0B       		.uleb128 0xb
 636 004f 3B       		.uleb128 0x3b
 637 0050 05       		.uleb128 0x5
 638 0051 49       		.uleb128 0x49
 639 0052 13       		.uleb128 0x13
 640 0053 38       		.uleb128 0x38
 641 0054 0B       		.uleb128 0xb
 642 0055 00       		.byte	0
 643 0056 00       		.byte	0
 644 0057 08       		.uleb128 0x8
 645 0058 16       		.uleb128 0x16
 646 0059 00       		.byte	0
 647 005a 03       		.uleb128 0x3
 648 005b 0E       		.uleb128 0xe
 649 005c 3A       		.uleb128 0x3a
 650 005d 0B       		.uleb128 0xb
 651 005e 3B       		.uleb128 0x3b
 652 005f 05       		.uleb128 0x5
 653 0060 49       		.uleb128 0x49
 654 0061 13       		.uleb128 0x13
 655 0062 00       		.byte	0
 656 0063 00       		.byte	0
 657 0064 09       		.uleb128 0x9
 658 0065 13       		.uleb128 0x13
 659 0066 01       		.byte	0x1
 660 0067 0B       		.uleb128 0xb
 661 0068 0B       		.uleb128 0xb
 662 0069 3A       		.uleb128 0x3a
 663 006a 0B       		.uleb128 0xb
 664 006b 3B       		.uleb128 0x3b
 665 006c 0B       		.uleb128 0xb
 666 006d 01       		.uleb128 0x1
 667 006e 13       		.uleb128 0x13
 668 006f 00       		.byte	0
 669 0070 00       		.byte	0
 670 0071 0A       		.uleb128 0xa
 671 0072 0D       		.uleb128 0xd
 672 0073 00       		.byte	0
 673 0074 03       		.uleb128 0x3
 674 0075 0E       		.uleb128 0xe
 675 0076 3A       		.uleb128 0x3a
 676 0077 0B       		.uleb128 0xb
 677 0078 3B       		.uleb128 0x3b
 678 0079 0B       		.uleb128 0xb
 679 007a 49       		.uleb128 0x49
 680 007b 13       		.uleb128 0x13
 681 007c 38       		.uleb128 0x38
 682 007d 0B       		.uleb128 0xb
ARM GAS  /tmp/cczI1NL6.s 			page 13


 683 007e 00       		.byte	0
 684 007f 00       		.byte	0
 685 0080 0B       		.uleb128 0xb
 686 0081 0D       		.uleb128 0xd
 687 0082 00       		.byte	0
 688 0083 03       		.uleb128 0x3
 689 0084 08       		.uleb128 0x8
 690 0085 3A       		.uleb128 0x3a
 691 0086 0B       		.uleb128 0xb
 692 0087 3B       		.uleb128 0x3b
 693 0088 0B       		.uleb128 0xb
 694 0089 49       		.uleb128 0x49
 695 008a 13       		.uleb128 0x13
 696 008b 38       		.uleb128 0x38
 697 008c 0B       		.uleb128 0xb
 698 008d 00       		.byte	0
 699 008e 00       		.byte	0
 700 008f 0C       		.uleb128 0xc
 701 0090 2E       		.uleb128 0x2e
 702 0091 00       		.byte	0
 703 0092 3F       		.uleb128 0x3f
 704 0093 19       		.uleb128 0x19
 705 0094 03       		.uleb128 0x3
 706 0095 0E       		.uleb128 0xe
 707 0096 3A       		.uleb128 0x3a
 708 0097 0B       		.uleb128 0xb
 709 0098 3B       		.uleb128 0x3b
 710 0099 0B       		.uleb128 0xb
 711 009a 27       		.uleb128 0x27
 712 009b 19       		.uleb128 0x19
 713 009c 11       		.uleb128 0x11
 714 009d 01       		.uleb128 0x1
 715 009e 12       		.uleb128 0x12
 716 009f 06       		.uleb128 0x6
 717 00a0 40       		.uleb128 0x40
 718 00a1 18       		.uleb128 0x18
 719 00a2 9642     		.uleb128 0x2116
 720 00a4 19       		.uleb128 0x19
 721 00a5 00       		.byte	0
 722 00a6 00       		.byte	0
 723 00a7 0D       		.uleb128 0xd
 724 00a8 2E       		.uleb128 0x2e
 725 00a9 01       		.byte	0x1
 726 00aa 3F       		.uleb128 0x3f
 727 00ab 19       		.uleb128 0x19
 728 00ac 03       		.uleb128 0x3
 729 00ad 0E       		.uleb128 0xe
 730 00ae 3A       		.uleb128 0x3a
 731 00af 0B       		.uleb128 0xb
 732 00b0 3B       		.uleb128 0x3b
 733 00b1 0B       		.uleb128 0xb
 734 00b2 27       		.uleb128 0x27
 735 00b3 19       		.uleb128 0x19
 736 00b4 49       		.uleb128 0x49
 737 00b5 13       		.uleb128 0x13
 738 00b6 11       		.uleb128 0x11
 739 00b7 01       		.uleb128 0x1
ARM GAS  /tmp/cczI1NL6.s 			page 14


 740 00b8 12       		.uleb128 0x12
 741 00b9 06       		.uleb128 0x6
 742 00ba 40       		.uleb128 0x40
 743 00bb 18       		.uleb128 0x18
 744 00bc 9742     		.uleb128 0x2117
 745 00be 19       		.uleb128 0x19
 746 00bf 01       		.uleb128 0x1
 747 00c0 13       		.uleb128 0x13
 748 00c1 00       		.byte	0
 749 00c2 00       		.byte	0
 750 00c3 0E       		.uleb128 0xe
 751 00c4 05       		.uleb128 0x5
 752 00c5 00       		.byte	0
 753 00c6 03       		.uleb128 0x3
 754 00c7 0E       		.uleb128 0xe
 755 00c8 3A       		.uleb128 0x3a
 756 00c9 0B       		.uleb128 0xb
 757 00ca 3B       		.uleb128 0x3b
 758 00cb 0B       		.uleb128 0xb
 759 00cc 49       		.uleb128 0x49
 760 00cd 13       		.uleb128 0x13
 761 00ce 02       		.uleb128 0x2
 762 00cf 18       		.uleb128 0x18
 763 00d0 00       		.byte	0
 764 00d1 00       		.byte	0
 765 00d2 0F       		.uleb128 0xf
 766 00d3 05       		.uleb128 0x5
 767 00d4 00       		.byte	0
 768 00d5 03       		.uleb128 0x3
 769 00d6 08       		.uleb128 0x8
 770 00d7 3A       		.uleb128 0x3a
 771 00d8 0B       		.uleb128 0xb
 772 00d9 3B       		.uleb128 0x3b
 773 00da 0B       		.uleb128 0xb
 774 00db 49       		.uleb128 0x49
 775 00dc 13       		.uleb128 0x13
 776 00dd 02       		.uleb128 0x2
 777 00de 18       		.uleb128 0x18
 778 00df 00       		.byte	0
 779 00e0 00       		.byte	0
 780 00e1 10       		.uleb128 0x10
 781 00e2 34       		.uleb128 0x34
 782 00e3 00       		.byte	0
 783 00e4 03       		.uleb128 0x3
 784 00e5 08       		.uleb128 0x8
 785 00e6 3A       		.uleb128 0x3a
 786 00e7 0B       		.uleb128 0xb
 787 00e8 3B       		.uleb128 0x3b
 788 00e9 0B       		.uleb128 0xb
 789 00ea 49       		.uleb128 0x49
 790 00eb 13       		.uleb128 0x13
 791 00ec 02       		.uleb128 0x2
 792 00ed 18       		.uleb128 0x18
 793 00ee 00       		.byte	0
 794 00ef 00       		.byte	0
 795 00f0 11       		.uleb128 0x11
 796 00f1 2E       		.uleb128 0x2e
ARM GAS  /tmp/cczI1NL6.s 			page 15


 797 00f2 01       		.byte	0x1
 798 00f3 3F       		.uleb128 0x3f
 799 00f4 19       		.uleb128 0x19
 800 00f5 03       		.uleb128 0x3
 801 00f6 0E       		.uleb128 0xe
 802 00f7 3A       		.uleb128 0x3a
 803 00f8 0B       		.uleb128 0xb
 804 00f9 3B       		.uleb128 0x3b
 805 00fa 0B       		.uleb128 0xb
 806 00fb 27       		.uleb128 0x27
 807 00fc 19       		.uleb128 0x19
 808 00fd 11       		.uleb128 0x11
 809 00fe 01       		.uleb128 0x1
 810 00ff 12       		.uleb128 0x12
 811 0100 06       		.uleb128 0x6
 812 0101 40       		.uleb128 0x40
 813 0102 18       		.uleb128 0x18
 814 0103 9642     		.uleb128 0x2116
 815 0105 19       		.uleb128 0x19
 816 0106 01       		.uleb128 0x1
 817 0107 13       		.uleb128 0x13
 818 0108 00       		.byte	0
 819 0109 00       		.byte	0
 820 010a 12       		.uleb128 0x12
 821 010b 34       		.uleb128 0x34
 822 010c 00       		.byte	0
 823 010d 03       		.uleb128 0x3
 824 010e 0E       		.uleb128 0xe
 825 010f 3A       		.uleb128 0x3a
 826 0110 0B       		.uleb128 0xb
 827 0111 3B       		.uleb128 0x3b
 828 0112 0B       		.uleb128 0xb
 829 0113 49       		.uleb128 0x49
 830 0114 13       		.uleb128 0x13
 831 0115 02       		.uleb128 0x2
 832 0116 18       		.uleb128 0x18
 833 0117 00       		.byte	0
 834 0118 00       		.byte	0
 835 0119 13       		.uleb128 0x13
 836 011a 34       		.uleb128 0x34
 837 011b 00       		.byte	0
 838 011c 03       		.uleb128 0x3
 839 011d 0E       		.uleb128 0xe
 840 011e 3A       		.uleb128 0x3a
 841 011f 0B       		.uleb128 0xb
 842 0120 3B       		.uleb128 0x3b
 843 0121 05       		.uleb128 0x5
 844 0122 49       		.uleb128 0x49
 845 0123 13       		.uleb128 0x13
 846 0124 3F       		.uleb128 0x3f
 847 0125 19       		.uleb128 0x19
 848 0126 3C       		.uleb128 0x3c
 849 0127 19       		.uleb128 0x19
 850 0128 00       		.byte	0
 851 0129 00       		.byte	0
 852 012a 14       		.uleb128 0x14
 853 012b 26       		.uleb128 0x26
ARM GAS  /tmp/cczI1NL6.s 			page 16


 854 012c 00       		.byte	0
 855 012d 49       		.uleb128 0x49
 856 012e 13       		.uleb128 0x13
 857 012f 00       		.byte	0
 858 0130 00       		.byte	0
 859 0131 00       		.byte	0
 860              		.section	.debug_aranges,"",%progbits
 861 0000 2C000000 		.4byte	0x2c
 862 0004 0200     		.2byte	0x2
 863 0006 00000000 		.4byte	.Ldebug_info0
 864 000a 04       		.byte	0x4
 865 000b 00       		.byte	0
 866 000c 0000     		.2byte	0
 867 000e 0000     		.2byte	0
 868 0010 00000000 		.4byte	.LFB118
 869 0014 28000000 		.4byte	.LFE118-.LFB118
 870 0018 00000000 		.4byte	.LFB119
 871 001c 58000000 		.4byte	.LFE119-.LFB119
 872 0020 00000000 		.4byte	.LFB120
 873 0024 30000000 		.4byte	.LFE120-.LFB120
 874 0028 00000000 		.4byte	0
 875 002c 00000000 		.4byte	0
 876              		.section	.debug_ranges,"",%progbits
 877              	.Ldebug_ranges0:
 878 0000 00000000 		.4byte	.LFB118
 879 0004 28000000 		.4byte	.LFE118
 880 0008 00000000 		.4byte	.LFB119
 881 000c 58000000 		.4byte	.LFE119
 882 0010 00000000 		.4byte	.LFB120
 883 0014 30000000 		.4byte	.LFE120
 884 0018 00000000 		.4byte	0
 885 001c 00000000 		.4byte	0
 886              		.section	.debug_line,"",%progbits
 887              	.Ldebug_line0:
 888 0000 7C020000 		.section	.debug_str,"MS",%progbits,1
 888      0200FF01 
 888      00000201 
 888      FB0E0D00 
 888      01010101 
 889              	.LASF9:
 890 0000 6C6F6E67 		.ascii	"long long int\000"
 890      206C6F6E 
 890      6720696E 
 890      7400
 891              	.LASF43:
 892 000e 7469636B 		.ascii	"ticks\000"
 892      7300
 893              	.LASF38:
 894 0014 50444461 		.ascii	"PDData\000"
 894      746100
 895              	.LASF24:
 896 001b 50435352 		.ascii	"PCSR\000"
 896      00
 897              	.LASF6:
 898 0020 5F5F696E 		.ascii	"__int32_t\000"
 898      7433325F 
 898      7400
ARM GAS  /tmp/cczI1NL6.s 			page 17


 899              	.LASF42:
 900 002a 73746172 		.ascii	"start\000"
 900      7400
 901              	.LASF4:
 902 0030 73686F72 		.ascii	"short unsigned int\000"
 902      7420756E 
 902      7369676E 
 902      65642069 
 902      6E7400
 903              	.LASF0:
 904 0043 756E7369 		.ascii	"unsigned int\000"
 904      676E6564 
 904      20696E74 
 904      00
 905              	.LASF29:
 906 0050 6F747970 		.ascii	"otyper\000"
 906      657200
 907              	.LASF13:
 908 0057 626F6F6C 		.ascii	"bool_t\000"
 908      5F7400
 909              	.LASF20:
 910 005e 45584343 		.ascii	"EXCCNT\000"
 910      4E5400
 911              	.LASF21:
 912 0065 534C4545 		.ascii	"SLEEPCNT\000"
 912      50434E54 
 912      00
 913              	.LASF15:
 914 006e 494F5245 		.ascii	"IOREG32\000"
 914      47333200 
 915              	.LASF49:
 916 0076 68616C49 		.ascii	"halInit\000"
 916      6E697400 
 917              	.LASF39:
 918 007e 50454461 		.ascii	"PEData\000"
 918      746100
 919              	.LASF2:
 920 0085 756E7369 		.ascii	"unsigned char\000"
 920      676E6564 
 920      20636861 
 920      7200
 921              	.LASF34:
 922 0093 73746D33 		.ascii	"stm32_gpio_setup_t\000"
 922      325F6770 
 922      696F5F73 
 922      65747570 
 922      5F7400
 923              	.LASF35:
 924 00a6 50414461 		.ascii	"PAData\000"
 924      746100
 925              	.LASF8:
 926 00ad 6C6F6E67 		.ascii	"long unsigned int\000"
 926      20756E73 
 926      69676E65 
 926      6420696E 
 926      7400
 927              	.LASF33:
ARM GAS  /tmp/cczI1NL6.s 			page 18


 928 00bf 61667268 		.ascii	"afrh\000"
 928      00
 929              	.LASF19:
 930 00c4 43504943 		.ascii	"CPICNT\000"
 930      4E5400
 931              	.LASF45:
 932 00cb 49544D5F 		.ascii	"ITM_RxBuffer\000"
 932      52784275 
 932      66666572 
 932      00
 933              	.LASF23:
 934 00d8 464F4C44 		.ascii	"FOLDCNT\000"
 934      434E5400 
 935              	.LASF41:
 936 00e0 50414C43 		.ascii	"PALConfig\000"
 936      6F6E6669 
 936      6700
 937              	.LASF46:
 938 00ea 70616C5F 		.ascii	"pal_default_config\000"
 938      64656661 
 938      756C745F 
 938      636F6E66 
 938      696700
 939              	.LASF7:
 940 00fd 5F5F7569 		.ascii	"__uint32_t\000"
 940      6E743332 
 940      5F7400
 941              	.LASF22:
 942 0108 4C535543 		.ascii	"LSUCNT\000"
 942      4E5400
 943              	.LASF18:
 944 010f 43594343 		.ascii	"CYCCNT\000"
 944      4E5400
 945              	.LASF31:
 946 0116 70757064 		.ascii	"pupdr\000"
 946      7200
 947              	.LASF40:
 948 011c 50464461 		.ascii	"PFData\000"
 948      746100
 949              	.LASF36:
 950 0123 50424461 		.ascii	"PBData\000"
 950      746100
 951              	.LASF32:
 952 012a 6166726C 		.ascii	"afrl\000"
 952      00
 953              	.LASF27:
 954 012f 68616C72 		.ascii	"halrtcnt_t\000"
 954      74636E74 
 954      5F7400
 955              	.LASF26:
 956 013a 63686172 		.ascii	"char\000"
 956      00
 957              	.LASF17:
 958 013f 4354524C 		.ascii	"CTRL\000"
 958      00
 959              	.LASF50:
 960 0144 68616C49 		.ascii	"halIsCounterWithin\000"
ARM GAS  /tmp/cczI1NL6.s 			page 19


 960      73436F75 
 960      6E746572 
 960      57697468 
 960      696E00
 961              	.LASF11:
 962 0157 696E7433 		.ascii	"int32_t\000"
 962      325F7400 
 963              	.LASF16:
 964 015f 73697A65 		.ascii	"sizetype\000"
 964      74797065 
 964      00
 965              	.LASF48:
 966 0168 2F686F6D 		.ascii	"/home/dave/r2p-sdk/core/ChibiOS/os/hal/src/hal.c\000"
 966      652F6461 
 966      76652F72 
 966      32702D73 
 966      646B2F63 
 967              	.LASF30:
 968 0199 6F737065 		.ascii	"ospeedr\000"
 968      65647200 
 969              	.LASF44:
 970 01a1 74696D65 		.ascii	"timeout\000"
 970      6F757400 
 971              	.LASF47:
 972 01a9 474E5520 		.ascii	"GNU C 4.8.4 20141219 (release) -mcpu=cortex-m4 -mfl"
 972      4320342E 
 972      382E3420 
 972      32303134 
 972      31323139 
 973 01dc 6F61742D 		.ascii	"oat-abi=hard -mfpu=fpv4-sp-d16 -mno-thumb-interwork"
 973      6162693D 
 973      68617264 
 973      202D6D66 
 973      70753D66 
 974 020f 202D6D74 		.ascii	" -mthumb -ggdb -O0 -fomit-frame-pointer -falign-fun"
 974      68756D62 
 974      202D6767 
 974      6462202D 
 974      4F30202D 
 975 0242 6374696F 		.ascii	"ctions=16 -ffunction-sections -fdata-sections -fno-"
 975      6E733D31 
 975      36202D66 
 975      66756E63 
 975      74696F6E 
 976 0275 636F6D6D 		.ascii	"common -fsingle-precision-constant\000"
 976      6F6E202D 
 976      6673696E 
 976      676C652D 
 976      70726563 
 977              	.LASF51:
 978 0298 68616C50 		.ascii	"halPolledDelay\000"
 978      6F6C6C65 
 978      6444656C 
 978      617900
 979              	.LASF3:
 980 02a7 73686F72 		.ascii	"short int\000"
 980      7420696E 
ARM GAS  /tmp/cczI1NL6.s 			page 20


 980      7400
 981              	.LASF37:
 982 02b1 50434461 		.ascii	"PCData\000"
 982      746100
 983              	.LASF25:
 984 02b8 434D785F 		.ascii	"CMx_DWT\000"
 984      44575400 
 985              	.LASF12:
 986 02c0 75696E74 		.ascii	"uint32_t\000"
 986      33325F74 
 986      00
 987              	.LASF5:
 988 02c9 6C6F6E67 		.ascii	"long int\000"
 988      20696E74 
 988      00
 989              	.LASF28:
 990 02d2 6D6F6465 		.ascii	"moder\000"
 990      7200
 991              	.LASF1:
 992 02d8 7369676E 		.ascii	"signed char\000"
 992      65642063 
 992      68617200 
 993              	.LASF14:
 994 02e4 5F426F6F 		.ascii	"_Bool\000"
 994      6C00
 995              	.LASF10:
 996 02ea 6C6F6E67 		.ascii	"long long unsigned int\000"
 996      206C6F6E 
 996      6720756E 
 996      7369676E 
 996      65642069 
 997              		.ident	"GCC: (4.8.4-1+11-1) 4.8.4 20141219 (release)"
ARM GAS  /tmp/cczI1NL6.s 			page 21


DEFINED SYMBOLS
                            *ABS*:0000000000000000 hal.c
     /tmp/cczI1NL6.s:21     .text.halInit:0000000000000000 $t
     /tmp/cczI1NL6.s:27     .text.halInit:0000000000000000 halInit
     /tmp/cczI1NL6.s:58     .text.halInit:0000000000000024 $d
     /tmp/cczI1NL6.s:63     .text.halIsCounterWithin:0000000000000000 $t
     /tmp/cczI1NL6.s:69     .text.halIsCounterWithin:0000000000000000 halIsCounterWithin
     /tmp/cczI1NL6.s:140    .text.halIsCounterWithin:0000000000000054 $d
     /tmp/cczI1NL6.s:145    .text.halPolledDelay:0000000000000000 $t
     /tmp/cczI1NL6.s:151    .text.halPolledDelay:0000000000000000 halPolledDelay
     /tmp/cczI1NL6.s:189    .text.halPolledDelay:000000000000002c $d
                     .debug_frame:0000000000000010 $d
     /tmp/cczI1NL6.s:62     .text.halInit:0000000000000028 $t
     /tmp/cczI1NL6.s:144    .text.halIsCounterWithin:0000000000000058 $t

UNDEFINED SYMBOLS
hal_lld_init
_pal_lld_init
adcInit
extInit
sdInit
spiInit
boardInit
pal_default_config
