ARM GAS  /tmp/ccuOmY29.s 			page 1


   1              		.syntax unified
   2              		.cpu cortex-m4
   3              		.eabi_attribute 27, 3
   4              		.eabi_attribute 28, 1
   5              		.fpu fpv4-sp-d16
   6              		.eabi_attribute 20, 1
   7              		.eabi_attribute 21, 1
   8              		.eabi_attribute 23, 3
   9              		.eabi_attribute 24, 1
  10              		.eabi_attribute 25, 1
  11              		.eabi_attribute 26, 1
  12              		.eabi_attribute 30, 6
  13              		.eabi_attribute 34, 1
  14              		.eabi_attribute 18, 4
  15              		.thumb
  16              		.file	"l3gd20h.c"
  17              		.text
  18              	.Ltext0:
  19              		.cfi_sections	.debug_frame
  20              		.section	.bss.txbuf,"aw",%nobits
  21              		.align	2
  22              		.type	txbuf, %object
  23              		.size	txbuf, 2
  24              	txbuf:
  25 0000 0000     		.space	2
  26 0002 0000     		.section	.bss.rxbuf,"aw",%nobits
  27              		.align	2
  28              		.type	rxbuf, %object
  29              		.size	rxbuf, 2
  30              	rxbuf:
  31 0000 0000     		.space	2
  32 0002 0000     		.section	.bss.gyrotp,"aw",%nobits
  33              		.align	2
  34              		.type	gyrotp, %object
  35              		.size	gyrotp, 4
  36              	gyrotp:
  37 0000 00000000 		.space	4
  38              		.global	gyro_data
  39              		.section	.bss.gyro_data,"aw",%nobits
  40              		.align	2
  41              		.type	gyro_data, %object
  42              		.size	gyro_data, 12
  43              	gyro_data:
  44 0000 00000000 		.space	12
  44      00000000 
  44      00000000 
  45              		.section	.text.init_l3gd20h,"ax",%progbits
  46              		.align	2
  47              		.p2align 4,,15
  48              		.global	init_l3gd20h
  49              		.thumb
  50              		.thumb_func
  51              		.type	init_l3gd20h, %function
  52              	init_l3gd20h:
  53              	.LFB118:
  54              		.file 1 "/home/dave/r2p-sdk/modules/IMU_module/l3gd20h.c"
  55              		.loc 1 30 0
ARM GAS  /tmp/ccuOmY29.s 			page 2


  56              		.cfi_startproc
  57              		@ args = 0, pretend = 0, frame = 16
  58              		@ frame_needed = 0, uses_anonymous_args = 0
  59 0000 00B5     		push	{lr}
  60              		.cfi_def_cfa_offset 4
  61              		.cfi_offset 14, -4
  62 0002 85B0     		sub	sp, sp, #20
  63              		.cfi_def_cfa_offset 24
  64 0004 0190     		str	r0, [sp, #4]
  65              		.loc 1 33 0
  66 0006 0198     		ldr	r0, [sp, #4]
  67 0008 FFF7FEFF 		bl	spiAcquireBus
  68              		.loc 1 34 0
  69 000c 0198     		ldr	r0, [sp, #4]
  70 000e 0F21     		movs	r1, #15
  71 0010 FFF7FEFF 		bl	l3gd20hReadRegister
  72 0014 0346     		mov	r3, r0
  73 0016 8DF80F30 		strb	r3, [sp, #15]
  74              		.loc 1 36 0
  75 001a 9DF80F30 		ldrb	r3, [sp, #15]	@ zero_extendqisi2
  76 001e D72B     		cmp	r3, #215
  77 0020 05D0     		beq	.L2
  78              		.loc 1 37 0
  79 0022 0198     		ldr	r0, [sp, #4]
  80 0024 FFF7FEFF 		bl	spiReleaseBus
  81              		.loc 1 38 0
  82 0028 4FF0FF33 		mov	r3, #-1
  83 002c 1FE0     		b	.L3
  84              	.L2:
  85              		.loc 1 41 0
  86 002e 0198     		ldr	r0, [sp, #4]
  87 0030 2021     		movs	r1, #32
  88 0032 7F22     		movs	r2, #127
  89 0034 FFF7FEFF 		bl	l3gd20hWriteRegister
  90              		.loc 1 42 0
  91 0038 0198     		ldr	r0, [sp, #4]
  92 003a 2121     		movs	r1, #33
  93 003c 0022     		movs	r2, #0
  94 003e FFF7FEFF 		bl	l3gd20hWriteRegister
  95              		.loc 1 43 0
  96 0042 0198     		ldr	r0, [sp, #4]
  97 0044 2221     		movs	r1, #34
  98 0046 0822     		movs	r2, #8
  99 0048 FFF7FEFF 		bl	l3gd20hWriteRegister
 100              		.loc 1 44 0
 101 004c 0198     		ldr	r0, [sp, #4]
 102 004e 2321     		movs	r1, #35
 103 0050 1022     		movs	r2, #16
 104 0052 FFF7FEFF 		bl	l3gd20hWriteRegister
 105              		.loc 1 45 0
 106 0056 0198     		ldr	r0, [sp, #4]
 107 0058 2421     		movs	r1, #36
 108 005a 0022     		movs	r2, #0
 109 005c FFF7FEFF 		bl	l3gd20hWriteRegister
 110              		.loc 1 46 0
 111 0060 0198     		ldr	r0, [sp, #4]
 112 0062 FFF7FEFF 		bl	spiReleaseBus
ARM GAS  /tmp/ccuOmY29.s 			page 3


 113              		.loc 1 48 0
 114 0066 FA20     		movs	r0, #250
 115 0068 FFF7FEFF 		bl	chThdSleep
 116              		.loc 1 49 0
 117 006c 0023     		movs	r3, #0
 118              	.L3:
 119              		.loc 1 50 0
 120 006e 1846     		mov	r0, r3
 121 0070 05B0     		add	sp, sp, #20
 122              		@ sp needed
 123 0072 5DF804FB 		ldr	pc, [sp], #4
 124              		.cfi_endproc
 125              	.LFE118:
 126              		.size	init_l3gd20h, .-init_l3gd20h
 127 0076 00BFAFF3 		.section	.text.l3gd20hReadRegister,"ax",%progbits
 127      0080AFF3 
 127      0080
 128              		.align	2
 129              		.p2align 4,,15
 130              		.global	l3gd20hReadRegister
 131              		.thumb
 132              		.thumb_func
 133              		.type	l3gd20hReadRegister, %function
 134              	l3gd20hReadRegister:
 135              	.LFB119:
 136              		.loc 1 60 0
 137              		.cfi_startproc
 138              		@ args = 0, pretend = 0, frame = 8
 139              		@ frame_needed = 0, uses_anonymous_args = 0
 140 0000 00B5     		push	{lr}
 141              		.cfi_def_cfa_offset 4
 142              		.cfi_offset 14, -4
 143 0002 83B0     		sub	sp, sp, #12
 144              		.cfi_def_cfa_offset 16
 145 0004 0190     		str	r0, [sp, #4]
 146 0006 0B46     		mov	r3, r1
 147 0008 8DF80330 		strb	r3, [sp, #3]
 148              		.loc 1 62 0
 149 000c 0D4B     		ldr	r3, .L6
 150 000e 0422     		movs	r2, #4
 151 0010 5A83     		strh	r2, [r3, #26]	@ movhi
 152              		.loc 1 63 0
 153 0012 9DF80330 		ldrb	r3, [sp, #3]
 154 0016 63F07F03 		orn	r3, r3, #127
 155 001a DAB2     		uxtb	r2, r3
 156 001c 0A4B     		ldr	r3, .L6+4
 157 001e 1A70     		strb	r2, [r3]
 158              		.loc 1 64 0
 159 0020 094B     		ldr	r3, .L6+4
 160 0022 FF22     		movs	r2, #255
 161 0024 5A70     		strb	r2, [r3, #1]
 162              		.loc 1 65 0
 163 0026 0198     		ldr	r0, [sp, #4]
 164 0028 0221     		movs	r1, #2
 165 002a 074A     		ldr	r2, .L6+4
 166 002c 074B     		ldr	r3, .L6+8
 167 002e FFF7FEFF 		bl	spiExchange
ARM GAS  /tmp/ccuOmY29.s 			page 4


 168              		.loc 1 66 0
 169 0032 044B     		ldr	r3, .L6
 170 0034 0422     		movs	r2, #4
 171 0036 1A83     		strh	r2, [r3, #24]	@ movhi
 172              		.loc 1 67 0
 173 0038 044B     		ldr	r3, .L6+8
 174 003a 5B78     		ldrb	r3, [r3, #1]	@ zero_extendqisi2
 175              		.loc 1 68 0
 176 003c 1846     		mov	r0, r3
 177 003e 03B0     		add	sp, sp, #12
 178              		@ sp needed
 179 0040 5DF804FB 		ldr	pc, [sp], #4
 180              	.L7:
 181              		.align	2
 182              	.L6:
 183 0044 00040048 		.word	1207960576
 184 0048 00000000 		.word	txbuf
 185 004c 00000000 		.word	rxbuf
 186              		.cfi_endproc
 187              	.LFE119:
 188              		.size	l3gd20hReadRegister, .-l3gd20hReadRegister
 189              		.section	.rodata
 190              		.align	2
 191              	.LC0:
 192 0000 4C334744 		.ascii	"L3GD20HWriteRegister(), #1\000"
 192      32304857 
 192      72697465 
 192      52656769 
 192      73746572 
 193 001b 00       		.section	.text.l3gd20hWriteRegister,"ax",%progbits
 194              		.align	2
 195              		.p2align 4,,15
 196              		.global	l3gd20hWriteRegister
 197              		.thumb
 198              		.thumb_func
 199              		.type	l3gd20hWriteRegister, %function
 200              	l3gd20hWriteRegister:
 201              	.LFB120:
 202              		.loc 1 78 0
 203              		.cfi_startproc
 204              		@ args = 0, pretend = 0, frame = 8
 205              		@ frame_needed = 0, uses_anonymous_args = 0
 206 0000 00B5     		push	{lr}
 207              		.cfi_def_cfa_offset 4
 208              		.cfi_offset 14, -4
 209 0002 83B0     		sub	sp, sp, #12
 210              		.cfi_def_cfa_offset 16
 211 0004 0190     		str	r0, [sp, #4]
 212 0006 1346     		mov	r3, r2
 213 0008 0A46     		mov	r2, r1
 214 000a 8DF80320 		strb	r2, [sp, #3]
 215 000e 8DF80230 		strb	r3, [sp, #2]
 216              		.loc 1 80 0
 217 0012 9DF80330 		ldrb	r3, [sp, #3]	@ zero_extendqisi2
 218 0016 0F3B     		subs	r3, r3, #15
 219 0018 2A2B     		cmp	r3, #42
 220 001a 6DD8     		bhi	.L9
ARM GAS  /tmp/ccuOmY29.s 			page 5


 221 001c 01A2     		adr	r2, .L11
 222 001e 52F823F0 		ldr	pc, [r2, r3, lsl #2]
 223 0022 00BF     		.p2align 2
 224              	.L11:
 225 0024 03010000 		.word	.L14+1
 226 0028 F9000000 		.word	.L9+1
 227 002c F9000000 		.word	.L9+1
 228 0030 F9000000 		.word	.L9+1
 229 0034 F9000000 		.word	.L9+1
 230 0038 F9000000 		.word	.L9+1
 231 003c F9000000 		.word	.L9+1
 232 0040 F9000000 		.word	.L9+1
 233 0044 F9000000 		.word	.L9+1
 234 0048 F9000000 		.word	.L9+1
 235 004c F9000000 		.word	.L9+1
 236 0050 F9000000 		.word	.L9+1
 237 0054 F9000000 		.word	.L9+1
 238 0058 F9000000 		.word	.L9+1
 239 005c F9000000 		.word	.L9+1
 240 0060 F9000000 		.word	.L9+1
 241 0064 F9000000 		.word	.L9+1
 242 0068 D1000000 		.word	.L12+1
 243 006c D1000000 		.word	.L12+1
 244 0070 D1000000 		.word	.L12+1
 245 0074 D1000000 		.word	.L12+1
 246 0078 D1000000 		.word	.L12+1
 247 007c D1000000 		.word	.L12+1
 248 0080 03010000 		.word	.L14+1
 249 0084 03010000 		.word	.L14+1
 250 0088 03010000 		.word	.L14+1
 251 008c 03010000 		.word	.L14+1
 252 0090 03010000 		.word	.L14+1
 253 0094 03010000 		.word	.L14+1
 254 0098 03010000 		.word	.L14+1
 255 009c 03010000 		.word	.L14+1
 256 00a0 D1000000 		.word	.L12+1
 257 00a4 D1000000 		.word	.L12+1
 258 00a8 D1000000 		.word	.L12+1
 259 00ac D1000000 		.word	.L12+1
 260 00b0 D1000000 		.word	.L12+1
 261 00b4 D1000000 		.word	.L12+1
 262 00b8 D1000000 		.word	.L12+1
 263 00bc D1000000 		.word	.L12+1
 264 00c0 D1000000 		.word	.L12+1
 265 00c4 D1000000 		.word	.L12+1
 266 00c8 D1000000 		.word	.L12+1
 267 00cc D1000000 		.word	.L12+1
 268              		.p2align 1
 269              	.L12:
 270              		.loc 1 110 0
 271 00d0 0E4B     		ldr	r3, .L15
 272 00d2 0422     		movs	r2, #4
 273 00d4 5A83     		strh	r2, [r3, #26]	@ movhi
 274              		.loc 1 111 0
 275 00d6 0E4B     		ldr	r3, .L15+4
 276 00d8 9DF80320 		ldrb	r2, [sp, #3]
 277 00dc 1A70     		strb	r2, [r3]
ARM GAS  /tmp/ccuOmY29.s 			page 6


 278              		.loc 1 112 0
 279 00de 0C4B     		ldr	r3, .L15+4
 280 00e0 9DF80220 		ldrb	r2, [sp, #2]
 281 00e4 5A70     		strb	r2, [r3, #1]
 282              		.loc 1 113 0
 283 00e6 0198     		ldr	r0, [sp, #4]
 284 00e8 0221     		movs	r1, #2
 285 00ea 094A     		ldr	r2, .L15+4
 286 00ec FFF7FEFF 		bl	spiSend
 287              		.loc 1 114 0
 288 00f0 064B     		ldr	r3, .L15
 289 00f2 0422     		movs	r2, #4
 290 00f4 1A83     		strh	r2, [r3, #24]	@ movhi
 291              		.loc 1 115 0
 292 00f6 05E0     		b	.L8
 293              	.L9:
 294              		.loc 1 119 0
 295 00f8 0648     		ldr	r0, .L15+8
 296 00fa FFF7FEFF 		bl	chDbgPanic
 297              		.loc 1 120 0
 298 00fe 00BF     		nop
 299 0100 00E0     		b	.L8
 300              	.L14:
 301              		.loc 1 91 0
 302 0102 00BF     		nop
 303              	.L8:
 304              		.loc 1 122 0
 305 0104 03B0     		add	sp, sp, #12
 306              		@ sp needed
 307 0106 5DF804FB 		ldr	pc, [sp], #4
 308              	.L16:
 309 010a 00BF     		.align	2
 310              	.L15:
 311 010c 00040048 		.word	1207960576
 312 0110 00000000 		.word	txbuf
 313 0114 00000000 		.word	.LC0
 314              		.cfi_endproc
 315              	.LFE120:
 316              		.size	l3gd20hWriteRegister, .-l3gd20hWriteRegister
 317 0118 AFF30080 		.section	.text.l3gd20hGetAxis,"ax",%progbits
 317      AFF30080 
 318              		.align	2
 319              		.p2align 4,,15
 320              		.global	l3gd20hGetAxis
 321              		.thumb
 322              		.thumb_func
 323              		.type	l3gd20hGetAxis, %function
 324              	l3gd20hGetAxis:
 325              	.LFB121:
 326              		.loc 1 124 0
 327              		.cfi_startproc
 328              		@ args = 0, pretend = 0, frame = 16
 329              		@ frame_needed = 0, uses_anonymous_args = 0
 330 0000 00B5     		push	{lr}
 331              		.cfi_def_cfa_offset 4
 332              		.cfi_offset 14, -4
 333 0002 85B0     		sub	sp, sp, #20
ARM GAS  /tmp/ccuOmY29.s 			page 7


 334              		.cfi_def_cfa_offset 24
 335 0004 0190     		str	r0, [sp, #4]
 336 0006 0B46     		mov	r3, r1
 337 0008 8DF80330 		strb	r3, [sp, #3]
 338              		.loc 1 125 0
 339 000c 0023     		movs	r3, #0
 340 000e ADF80E30 		strh	r3, [sp, #14]	@ movhi
 341              		.loc 1 127 0
 342 0012 9DF80330 		ldrb	r3, [sp, #3]	@ zero_extendqisi2
 343 0016 012B     		cmp	r3, #1
 344 0018 17D0     		beq	.L19
 345 001a 022B     		cmp	r3, #2
 346 001c 29D0     		beq	.L20
 347 001e 002B     		cmp	r3, #0
 348 0020 3BD1     		bne	.L18
 349              		.loc 1 129 0
 350 0022 0198     		ldr	r0, [sp, #4]
 351 0024 2921     		movs	r1, #41
 352 0026 FFF7FEFF 		bl	l3gd20hReadRegister
 353 002a 0346     		mov	r3, r0
 354 002c 1B02     		lsls	r3, r3, #8
 355 002e ADF80E30 		strh	r3, [sp, #14]	@ movhi
 356              		.loc 1 130 0
 357 0032 0198     		ldr	r0, [sp, #4]
 358 0034 2821     		movs	r1, #40
 359 0036 FFF7FEFF 		bl	l3gd20hReadRegister
 360 003a 0346     		mov	r3, r0
 361 003c 1A46     		mov	r2, r3	@ movhi
 362 003e BDF80E30 		ldrh	r3, [sp, #14]	@ movhi
 363 0042 1343     		orrs	r3, r3, r2
 364 0044 ADF80E30 		strh	r3, [sp, #14]	@ movhi
 365              		.loc 1 131 0
 366 0048 27E0     		b	.L18
 367              	.L19:
 368              		.loc 1 133 0
 369 004a 0198     		ldr	r0, [sp, #4]
 370 004c 2B21     		movs	r1, #43
 371 004e FFF7FEFF 		bl	l3gd20hReadRegister
 372 0052 0346     		mov	r3, r0
 373 0054 1B02     		lsls	r3, r3, #8
 374 0056 ADF80E30 		strh	r3, [sp, #14]	@ movhi
 375              		.loc 1 134 0
 376 005a 0198     		ldr	r0, [sp, #4]
 377 005c 2A21     		movs	r1, #42
 378 005e FFF7FEFF 		bl	l3gd20hReadRegister
 379 0062 0346     		mov	r3, r0
 380 0064 1A46     		mov	r2, r3	@ movhi
 381 0066 BDF80E30 		ldrh	r3, [sp, #14]	@ movhi
 382 006a 1343     		orrs	r3, r3, r2
 383 006c ADF80E30 		strh	r3, [sp, #14]	@ movhi
 384              		.loc 1 135 0
 385 0070 13E0     		b	.L18
 386              	.L20:
 387              		.loc 1 137 0
 388 0072 0198     		ldr	r0, [sp, #4]
 389 0074 2D21     		movs	r1, #45
 390 0076 FFF7FEFF 		bl	l3gd20hReadRegister
ARM GAS  /tmp/ccuOmY29.s 			page 8


 391 007a 0346     		mov	r3, r0
 392 007c 1B02     		lsls	r3, r3, #8
 393 007e ADF80E30 		strh	r3, [sp, #14]	@ movhi
 394              		.loc 1 138 0
 395 0082 0198     		ldr	r0, [sp, #4]
 396 0084 2C21     		movs	r1, #44
 397 0086 FFF7FEFF 		bl	l3gd20hReadRegister
 398 008a 0346     		mov	r3, r0
 399 008c 1A46     		mov	r2, r3	@ movhi
 400 008e BDF80E30 		ldrh	r3, [sp, #14]	@ movhi
 401 0092 1343     		orrs	r3, r3, r2
 402 0094 ADF80E30 		strh	r3, [sp, #14]	@ movhi
 403              		.loc 1 139 0
 404 0098 00BF     		nop
 405              	.L18:
 406              		.loc 1 142 0
 407 009a BDF80E30 		ldrh	r3, [sp, #14]
 408 009e 1BB2     		sxth	r3, r3
 409              		.loc 1 143 0
 410 00a0 1846     		mov	r0, r3
 411 00a2 05B0     		add	sp, sp, #20
 412              		@ sp needed
 413 00a4 5DF804FB 		ldr	pc, [sp], #4
 414              		.cfi_endproc
 415              	.LFE121:
 416              		.size	l3gd20hGetAxis, .-l3gd20hGetAxis
 417 00a8 AFF30080 		.section	.text.l3gd20h_update,"ax",%progbits
 417      AFF30080 
 418              		.align	2
 419              		.p2align 4,,15
 420              		.global	l3gd20h_update
 421              		.thumb
 422              		.thumb_func
 423              		.type	l3gd20h_update, %function
 424              	l3gd20h_update:
 425              	.LFB122:
 426              		.loc 1 145 0
 427              		.cfi_startproc
 428              		@ args = 0, pretend = 0, frame = 24
 429              		@ frame_needed = 0, uses_anonymous_args = 0
 430 0000 10B5     		push	{r4, lr}
 431              		.cfi_def_cfa_offset 8
 432              		.cfi_offset 4, -8
 433              		.cfi_offset 14, -4
 434 0002 86B0     		sub	sp, sp, #24
 435              		.cfi_def_cfa_offset 32
 436 0004 0190     		str	r0, [sp, #4]
 437              		.loc 1 149 0
 438 0006 314B     		ldr	r3, .L24
 439 0008 DB68     		ldr	r3, [r3, #12]
 440 000a 0593     		str	r3, [sp, #20]
 441              		.loc 1 152 0
 442 000c 0198     		ldr	r0, [sp, #4]
 443 000e FFF7FEFF 		bl	spiAcquireBus
 444              		.loc 1 153 0
 445 0012 0198     		ldr	r0, [sp, #4]
 446 0014 2921     		movs	r1, #41
ARM GAS  /tmp/ccuOmY29.s 			page 9


 447 0016 FFF7FEFF 		bl	l3gd20hReadRegister
 448 001a 0346     		mov	r3, r0
 449 001c 1B02     		lsls	r3, r3, #8
 450 001e 9BB2     		uxth	r3, r3
 451 0020 ADF80C30 		strh	r3, [sp, #12]	@ movhi
 452              		.loc 1 154 0
 453 0024 BDF80C40 		ldrh	r4, [sp, #12]
 454 0028 0198     		ldr	r0, [sp, #4]
 455 002a 2821     		movs	r1, #40
 456 002c FFF7FEFF 		bl	l3gd20hReadRegister
 457 0030 0346     		mov	r3, r0
 458 0032 2246     		mov	r2, r4	@ movhi
 459 0034 1343     		orrs	r3, r3, r2
 460 0036 9BB2     		uxth	r3, r3
 461 0038 ADF80C30 		strh	r3, [sp, #12]	@ movhi
 462              		.loc 1 155 0
 463 003c 0198     		ldr	r0, [sp, #4]
 464 003e 2B21     		movs	r1, #43
 465 0040 FFF7FEFF 		bl	l3gd20hReadRegister
 466 0044 0346     		mov	r3, r0
 467 0046 1B02     		lsls	r3, r3, #8
 468 0048 9BB2     		uxth	r3, r3
 469 004a ADF80E30 		strh	r3, [sp, #14]	@ movhi
 470              		.loc 1 156 0
 471 004e BDF80E40 		ldrh	r4, [sp, #14]
 472 0052 0198     		ldr	r0, [sp, #4]
 473 0054 2A21     		movs	r1, #42
 474 0056 FFF7FEFF 		bl	l3gd20hReadRegister
 475 005a 0346     		mov	r3, r0
 476 005c 2246     		mov	r2, r4	@ movhi
 477 005e 1343     		orrs	r3, r3, r2
 478 0060 9BB2     		uxth	r3, r3
 479 0062 ADF80E30 		strh	r3, [sp, #14]	@ movhi
 480              		.loc 1 157 0
 481 0066 0198     		ldr	r0, [sp, #4]
 482 0068 2D21     		movs	r1, #45
 483 006a FFF7FEFF 		bl	l3gd20hReadRegister
 484 006e 0346     		mov	r3, r0
 485 0070 1B02     		lsls	r3, r3, #8
 486 0072 9BB2     		uxth	r3, r3
 487 0074 ADF81030 		strh	r3, [sp, #16]	@ movhi
 488              		.loc 1 158 0
 489 0078 BDF81040 		ldrh	r4, [sp, #16]
 490 007c 0198     		ldr	r0, [sp, #4]
 491 007e 2C21     		movs	r1, #44
 492 0080 FFF7FEFF 		bl	l3gd20hReadRegister
 493 0084 0346     		mov	r3, r0
 494 0086 2246     		mov	r2, r4	@ movhi
 495 0088 1343     		orrs	r3, r3, r2
 496 008a 9BB2     		uxth	r3, r3
 497 008c ADF81030 		strh	r3, [sp, #16]	@ movhi
 498              		.loc 1 159 0
 499 0090 0198     		ldr	r0, [sp, #4]
 500 0092 FFF7FEFF 		bl	spiReleaseBus
 501              	.LBB2:
 502              		.loc 1 161 0
 503 0096 2023     		movs	r3, #32
ARM GAS  /tmp/ccuOmY29.s 			page 10


 504              	@ 161 "/home/dave/r2p-sdk/modules/IMU_module/l3gd20h.c" 1
 505 0098 83F31188 		msr     BASEPRI, r3
 506              	@ 0 "" 2
 507              		.thumb
 508              	.LBE2:
 509 009c FFF7FEFF 		bl	dbg_check_lock
 510              		.loc 1 162 0
 511 00a0 0B4B     		ldr	r3, .L24+4
 512 00a2 059A     		ldr	r2, [sp, #20]
 513 00a4 1A60     		str	r2, [r3]
 514              		.loc 1 163 0
 515 00a6 BDF80C20 		ldrh	r2, [sp, #12]
 516 00aa 094B     		ldr	r3, .L24+4
 517 00ac 9A80     		strh	r2, [r3, #4]	@ movhi
 518              		.loc 1 164 0
 519 00ae BDF80E20 		ldrh	r2, [sp, #14]
 520 00b2 074B     		ldr	r3, .L24+4
 521 00b4 DA80     		strh	r2, [r3, #6]	@ movhi
 522              		.loc 1 165 0
 523 00b6 BDF81020 		ldrh	r2, [sp, #16]
 524 00ba 054B     		ldr	r3, .L24+4
 525 00bc 1A81     		strh	r2, [r3, #8]	@ movhi
 526              		.loc 1 166 0
 527 00be FFF7FEFF 		bl	dbg_check_unlock
 528              	.LBB3:
 529 00c2 0023     		movs	r3, #0
 530              	@ 166 "/home/dave/r2p-sdk/modules/IMU_module/l3gd20h.c" 1
 531 00c4 83F31188 		msr     BASEPRI, r3
 532              	@ 0 "" 2
 533              		.thumb
 534              	.LBE3:
 535              		.loc 1 167 0
 536 00c8 06B0     		add	sp, sp, #24
 537              		@ sp needed
 538 00ca 10BD     		pop	{r4, pc}
 539              	.L25:
 540              		.align	2
 541              	.L24:
 542 00cc 00000000 		.word	vtlist
 543 00d0 00000000 		.word	gyro_data
 544              		.cfi_endproc
 545              	.LFE122:
 546              		.size	l3gd20h_update, .-l3gd20h_update
 547 00d4 AFF30080 		.section	.text.l3gd20h_drdy_callback,"ax",%progbits
 547      AFF30080 
 547      AFF30080 
 548              		.align	2
 549              		.p2align 4,,15
 550              		.global	l3gd20h_drdy_callback
 551              		.thumb
 552              		.thumb_func
 553              		.type	l3gd20h_drdy_callback, %function
 554              	l3gd20h_drdy_callback:
 555              	.LFB123:
 556              		.loc 1 169 0
 557              		.cfi_startproc
 558              		@ args = 0, pretend = 0, frame = 8
ARM GAS  /tmp/ccuOmY29.s 			page 11


 559              		@ frame_needed = 0, uses_anonymous_args = 0
 560 0000 00B5     		push	{lr}
 561              		.cfi_def_cfa_offset 4
 562              		.cfi_offset 14, -4
 563 0002 83B0     		sub	sp, sp, #12
 564              		.cfi_def_cfa_offset 16
 565 0004 0190     		str	r0, [sp, #4]
 566 0006 0091     		str	r1, [sp]
 567              	.LBB4:
 568              		.loc 1 173 0
 569 0008 2023     		movs	r3, #32
 570              	@ 173 "/home/dave/r2p-sdk/modules/IMU_module/l3gd20h.c" 1
 571 000a 83F31188 		msr     BASEPRI, r3
 572              	@ 0 "" 2
 573              		.thumb
 574              	.LBE4:
 575 000e FFF7FEFF 		bl	dbg_check_lock_from_isr
 576              		.loc 1 175 0
 577 0012 0C4B     		ldr	r3, .L28
 578 0014 1B68     		ldr	r3, [r3]
 579 0016 002B     		cmp	r3, #0
 580 0018 0BD0     		beq	.L27
 581              		.loc 1 176 0
 582 001a 0A4B     		ldr	r3, .L28
 583 001c 1B68     		ldr	r3, [r3]
 584 001e 7B22     		movs	r2, #123
 585 0020 9A62     		str	r2, [r3, #40]
 586              		.loc 1 177 0
 587 0022 084B     		ldr	r3, .L28
 588 0024 1B68     		ldr	r3, [r3]
 589 0026 1846     		mov	r0, r3
 590 0028 FFF7FEFF 		bl	chSchReadyI
 591              		.loc 1 178 0
 592 002c 054B     		ldr	r3, .L28
 593 002e 0022     		movs	r2, #0
 594 0030 1A60     		str	r2, [r3]
 595              	.L27:
 596              		.loc 1 180 0
 597 0032 FFF7FEFF 		bl	dbg_check_unlock_from_isr
 598              	.LBB5:
 599 0036 0023     		movs	r3, #0
 600              	@ 180 "/home/dave/r2p-sdk/modules/IMU_module/l3gd20h.c" 1
 601 0038 83F31188 		msr     BASEPRI, r3
 602              	@ 0 "" 2
 603              		.thumb
 604              	.LBE5:
 605              		.loc 1 181 0
 606 003c 03B0     		add	sp, sp, #12
 607              		@ sp needed
 608 003e 5DF804FB 		ldr	pc, [sp], #4
 609              	.L29:
 610 0042 00BF     		.align	2
 611              	.L28:
 612 0044 00000000 		.word	gyrotp
 613              		.cfi_endproc
 614              	.LFE123:
 615              		.size	l3gd20h_drdy_callback, .-l3gd20h_drdy_callback
ARM GAS  /tmp/ccuOmY29.s 			page 12


 616 0048 AFF30080 		.section	.text.l3gd20h_update_thread,"ax",%progbits
 616      AFF30080 
 617              		.align	2
 618              		.p2align 4,,15
 619              		.thumb
 620              		.thumb_func
 621              		.type	l3gd20h_update_thread, %function
 622              	l3gd20h_update_thread:
 623              	.LFB124:
 624              		.loc 1 183 0
 625              		.cfi_startproc
 626              		@ args = 0, pretend = 0, frame = 16
 627              		@ frame_needed = 0, uses_anonymous_args = 0
 628 0000 00B5     		push	{lr}
 629              		.cfi_def_cfa_offset 4
 630              		.cfi_offset 14, -4
 631 0002 85B0     		sub	sp, sp, #20
 632              		.cfi_def_cfa_offset 24
 633 0004 0190     		str	r0, [sp, #4]
 634              		.loc 1 184 0
 635 0006 019B     		ldr	r3, [sp, #4]
 636 0008 0393     		str	r3, [sp, #12]
 637              	.L32:
 638              	.LBB6:
 639              	.LBB7:
 640              		.loc 1 189 0
 641 000a 2023     		movs	r3, #32
 642              	@ 189 "/home/dave/r2p-sdk/modules/IMU_module/l3gd20h.c" 1
 643 000c 83F31188 		msr     BASEPRI, r3
 644              	@ 0 "" 2
 645              		.thumb
 646              	.LBE7:
 647 0010 FFF7FEFF 		bl	dbg_check_lock
 648              		.loc 1 191 0
 649 0014 0B4B     		ldr	r3, .L33
 650 0016 9A69     		ldr	r2, [r3, #24]
 651 0018 0B4B     		ldr	r3, .L33+4
 652 001a 1A60     		str	r2, [r3]
 653              		.loc 1 192 0
 654 001c 0220     		movs	r0, #2
 655 001e FFF7FEFF 		bl	chSchGoSleepS
 656              		.loc 1 193 0
 657 0022 084B     		ldr	r3, .L33
 658 0024 9B69     		ldr	r3, [r3, #24]
 659 0026 9B6A     		ldr	r3, [r3, #40]
 660 0028 0293     		str	r3, [sp, #8]
 661              		.loc 1 194 0
 662 002a FFF7FEFF 		bl	dbg_check_unlock
 663              	.LBB8:
 664 002e 0023     		movs	r3, #0
 665              	@ 194 "/home/dave/r2p-sdk/modules/IMU_module/l3gd20h.c" 1
 666 0030 83F31188 		msr     BASEPRI, r3
 667              	@ 0 "" 2
 668              		.thumb
 669              	.LBE8:
 670              		.loc 1 197 0
 671 0034 029B     		ldr	r3, [sp, #8]
ARM GAS  /tmp/ccuOmY29.s 			page 13


 672 0036 7B2B     		cmp	r3, #123
 673 0038 03D1     		bne	.L31
 674              		.loc 1 198 0
 675 003a 0398     		ldr	r0, [sp, #12]
 676 003c FFF7FEFF 		bl	l3gd20h_update
 677              	.LBE6:
 678              		.loc 1 200 0
 679 0040 E3E7     		b	.L32
 680              	.L31:
 681 0042 E2E7     		b	.L32
 682              	.L34:
 683              		.align	2
 684              	.L33:
 685 0044 00000000 		.word	rlist
 686 0048 00000000 		.word	gyrotp
 687              		.cfi_endproc
 688              	.LFE124:
 689              		.size	l3gd20h_update_thread, .-l3gd20h_update_thread
 690 004c AFF30080 		.section	.text.gyroRun,"ax",%progbits
 691              		.align	2
 692              		.p2align 4,,15
 693              		.global	gyroRun
 694              		.thumb
 695              		.thumb_func
 696              		.type	gyroRun, %function
 697              	gyroRun:
 698              	.LFB125:
 699              		.loc 1 205 0
 700              		.cfi_startproc
 701              		@ args = 0, pretend = 0, frame = 16
 702              		@ frame_needed = 0, uses_anonymous_args = 0
 703 0000 00B5     		push	{lr}
 704              		.cfi_def_cfa_offset 4
 705              		.cfi_offset 14, -4
 706 0002 87B0     		sub	sp, sp, #28
 707              		.cfi_def_cfa_offset 32
 708 0004 0390     		str	r0, [sp, #12]
 709 0006 0291     		str	r1, [sp, #8]
 710              		.loc 1 208 0
 711 0008 0398     		ldr	r0, [sp, #12]
 712 000a FFF7FEFF 		bl	init_l3gd20h
 713 000e 0346     		mov	r3, r0
 714 0010 002B     		cmp	r3, #0
 715 0012 01D0     		beq	.L36
 716              		.loc 1 208 0 is_stmt 0 discriminator 1
 717 0014 FFF7FEFF 		bl	port_halt
 718              	.L36:
 719              		.loc 1 210 0 is_stmt 1
 720 0018 039B     		ldr	r3, [sp, #12]
 721 001a 0093     		str	r3, [sp]
 722 001c 0020     		movs	r0, #0
 723 001e 4FF41671 		mov	r1, #600
 724 0022 029A     		ldr	r2, [sp, #8]
 725 0024 074B     		ldr	r3, .L38
 726 0026 FFF7FEFF 		bl	chThdCreateFromHeap
 727 002a 0590     		str	r0, [sp, #20]
 728              		.loc 1 211 0
ARM GAS  /tmp/ccuOmY29.s 			page 14


 729 002c 0648     		ldr	r0, .L38+4
 730 002e 0121     		movs	r1, #1
 731 0030 FFF7FEFF 		bl	extChannelEnable
 732              		.loc 1 212 0
 733 0034 0398     		ldr	r0, [sp, #12]
 734 0036 FFF7FEFF 		bl	l3gd20h_update
 735              		.loc 1 214 0
 736 003a 059B     		ldr	r3, [sp, #20]
 737              		.loc 1 215 0
 738 003c 1846     		mov	r0, r3
 739 003e 07B0     		add	sp, sp, #28
 740              		@ sp needed
 741 0040 5DF804FB 		ldr	pc, [sp], #4
 742              	.L39:
 743              		.align	2
 744              	.L38:
 745 0044 00000000 		.word	l3gd20h_update_thread
 746 0048 00000000 		.word	EXTD1
 747              		.cfi_endproc
 748              	.LFE125:
 749              		.size	gyroRun, .-gyroRun
 750 004c AFF30080 		.text
 751              	.Letext0:
 752              		.file 2 "/usr/include/newlib/machine/_default_types.h"
 753              		.file 3 "/usr/include/newlib/stdint.h"
 754              		.file 4 "/home/dave/r2p-sdk/core/ChibiOS/os/ports/GCC/ARMCMx/chtypes.h"
 755              		.file 5 "/home/dave/r2p-sdk/core/ChibiOS/os/kernel/include/chlists.h"
 756              		.file 6 "/home/dave/r2p-sdk/core/ChibiOS/os/kernel/include/chthreads.h"
 757              		.file 7 "/home/dave/r2p-sdk/core/ChibiOS/os/ports/GCC/ARMCMx/chcore_v7m.h"
 758              		.file 8 "/home/dave/r2p-sdk/core/ChibiOS/os/kernel/include/chvt.h"
 759              		.file 9 "/home/dave/r2p-sdk/core/ChibiOS/os/kernel/include/chschd.h"
 760              		.file 10 "/home/dave/r2p-sdk/core/ChibiOS/os/kernel/include/chmtx.h"
 761              		.file 11 "/home/dave/r2p-sdk/core/ChibiOS/os/hal/platforms/STM32F30x/stm32f30x.h"
 762              		.file 12 "/home/dave/r2p-sdk/core/ChibiOS/os/hal/platforms/STM32F30x/stm32_dma.h"
 763              		.file 13 "/home/dave/r2p-sdk/core/ChibiOS/os/hal/platforms/STM32/GPIOv2/pal_lld.h"
 764              		.file 14 "/home/dave/r2p-sdk/core/ChibiOS/os/hal/include/ext.h"
 765              		.file 15 "/home/dave/r2p-sdk/core/ChibiOS/os/hal/platforms/STM32/ext_lld.h"
 766              		.file 16 "/home/dave/r2p-sdk/core/ChibiOS/os/hal/include/spi.h"
 767              		.file 17 "/home/dave/r2p-sdk/core/ChibiOS/os/hal/platforms/STM32/SPIv2/spi_lld.h"
 768              		.file 18 "/home/dave/r2p-sdk/modules/IMU_module/l3gd20h.h"
 769              		.file 19 "/home/dave/r2p-sdk/core/ChibiOS/os/ports/common/ARMCMx/CMSIS/include/core_cm4.h"