ARM GAS  /tmp/ccqazdZf.s 			page 1


   1              		.syntax unified
   2              		.cpu cortex-m4
   3              		.eabi_attribute 27, 3
   4              		.eabi_attribute 28, 1
   5              		.fpu fpv4-sp-d16
   6              		.eabi_attribute 20, 1
   7              		.eabi_attribute 21, 1
   8              		.eabi_attribute 23, 3
   9              		.eabi_attribute 24, 1
  10              		.eabi_attribute 25, 1
  11              		.eabi_attribute 26, 1
  12              		.eabi_attribute 30, 6
  13              		.eabi_attribute 34, 1
  14              		.eabi_attribute 18, 4
  15              		.thumb
  16              		.file	"lps331ap.c"
  17              		.text
  18              	.Ltext0:
  19              		.cfi_sections	.debug_frame
  20              		.section	.bss.txbuf,"aw",%nobits
  21              		.align	2
  22              		.type	txbuf, %object
  23              		.size	txbuf, 2
  24              	txbuf:
  25 0000 0000     		.space	2
  26 0002 0000     		.section	.bss.rxbuf,"aw",%nobits
  27              		.align	2
  28              		.type	rxbuf, %object
  29              		.size	rxbuf, 2
  30              	rxbuf:
  31 0000 0000     		.space	2
  32 0002 0000     		.section	.bss.bartp,"aw",%nobits
  33              		.align	2
  34              		.type	bartp, %object
  35              		.size	bartp, 4
  36              	bartp:
  37 0000 00000000 		.space	4
  38              		.global	bar_data
  39              		.section	.bss.bar_data,"aw",%nobits
  40              		.align	2
  41              		.type	bar_data, %object
  42              		.size	bar_data, 4
  43              	bar_data:
  44 0000 00000000 		.space	4
  45              		.section	.text.init_lps331ap,"ax",%progbits
  46              		.align	2
  47              		.p2align 4,,15
  48              		.global	init_lps331ap
  49              		.thumb
  50              		.thumb_func
  51              		.type	init_lps331ap, %function
  52              	init_lps331ap:
  53              	.LFB118:
  54              		.file 1 "/home/dave/r2p-sdk/modules/IMU_module/lps331ap.c"
  55              		.loc 1 30 0
  56              		.cfi_startproc
  57              		@ args = 0, pretend = 0, frame = 16
ARM GAS  /tmp/ccqazdZf.s 			page 2


  58              		@ frame_needed = 0, uses_anonymous_args = 0
  59 0000 00B5     		push	{lr}
  60              		.cfi_def_cfa_offset 4
  61              		.cfi_offset 14, -4
  62 0002 85B0     		sub	sp, sp, #20
  63              		.cfi_def_cfa_offset 24
  64 0004 0190     		str	r0, [sp, #4]
  65              		.loc 1 33 0
  66 0006 0198     		ldr	r0, [sp, #4]
  67 0008 FFF7FEFF 		bl	spiAcquireBus
  68              		.loc 1 34 0
  69 000c 0198     		ldr	r0, [sp, #4]
  70 000e 0F21     		movs	r1, #15
  71 0010 FFF7FEFF 		bl	lps331apReadRegister
  72 0014 0346     		mov	r3, r0
  73 0016 8DF80F30 		strb	r3, [sp, #15]
  74              		.loc 1 36 0
  75 001a 9DF80F30 		ldrb	r3, [sp, #15]	@ zero_extendqisi2
  76 001e BB2B     		cmp	r3, #187
  77 0020 05D0     		beq	.L2
  78              		.loc 1 37 0
  79 0022 0198     		ldr	r0, [sp, #4]
  80 0024 FFF7FEFF 		bl	spiReleaseBus
  81              		.loc 1 38 0
  82 0028 4FF0FF33 		mov	r3, #-1
  83 002c 06E0     		b	.L3
  84              	.L2:
  85              		.loc 1 46 0
  86 002e 0198     		ldr	r0, [sp, #4]
  87 0030 FFF7FEFF 		bl	spiReleaseBus
  88              		.loc 1 48 0
  89 0034 FA20     		movs	r0, #250
  90 0036 FFF7FEFF 		bl	chThdSleep
  91              		.loc 1 49 0
  92 003a 0023     		movs	r3, #0
  93              	.L3:
  94              		.loc 1 50 0
  95 003c 1846     		mov	r0, r3
  96 003e 05B0     		add	sp, sp, #20
  97              		@ sp needed
  98 0040 5DF804FB 		ldr	pc, [sp], #4
  99              		.cfi_endproc
 100              	.LFE118:
 101              		.size	init_lps331ap, .-init_lps331ap
 102 0044 AFF30080 		.section	.text.lps331apReadRegister,"ax",%progbits
 102      AFF30080 
 102      AFF30080 
 103              		.align	2
 104              		.p2align 4,,15
 105              		.global	lps331apReadRegister
 106              		.thumb
 107              		.thumb_func
 108              		.type	lps331apReadRegister, %function
 109              	lps331apReadRegister:
 110              	.LFB119:
 111              		.loc 1 60 0
 112              		.cfi_startproc
ARM GAS  /tmp/ccqazdZf.s 			page 3


 113              		@ args = 0, pretend = 0, frame = 8
 114              		@ frame_needed = 0, uses_anonymous_args = 0
 115 0000 00B5     		push	{lr}
 116              		.cfi_def_cfa_offset 4
 117              		.cfi_offset 14, -4
 118 0002 83B0     		sub	sp, sp, #12
 119              		.cfi_def_cfa_offset 16
 120 0004 0190     		str	r0, [sp, #4]
 121 0006 0B46     		mov	r3, r1
 122 0008 8DF80330 		strb	r3, [sp, #3]
 123              		.loc 1 62 0
 124 000c 0E4B     		ldr	r3, .L6
 125 000e 4FF48052 		mov	r2, #4096
 126 0012 5A83     		strh	r2, [r3, #26]	@ movhi
 127              		.loc 1 63 0
 128 0014 9DF80330 		ldrb	r3, [sp, #3]
 129 0018 63F07F03 		orn	r3, r3, #127
 130 001c DAB2     		uxtb	r2, r3
 131 001e 0B4B     		ldr	r3, .L6+4
 132 0020 1A70     		strb	r2, [r3]
 133              		.loc 1 64 0
 134 0022 0A4B     		ldr	r3, .L6+4
 135 0024 FF22     		movs	r2, #255
 136 0026 5A70     		strb	r2, [r3, #1]
 137              		.loc 1 65 0
 138 0028 0198     		ldr	r0, [sp, #4]
 139 002a 0221     		movs	r1, #2
 140 002c 074A     		ldr	r2, .L6+4
 141 002e 084B     		ldr	r3, .L6+8
 142 0030 FFF7FEFF 		bl	spiExchange
 143              		.loc 1 66 0
 144 0034 044B     		ldr	r3, .L6
 145 0036 4FF48052 		mov	r2, #4096
 146 003a 1A83     		strh	r2, [r3, #24]	@ movhi
 147              		.loc 1 67 0
 148 003c 044B     		ldr	r3, .L6+8
 149 003e 5B78     		ldrb	r3, [r3, #1]	@ zero_extendqisi2
 150              		.loc 1 68 0
 151 0040 1846     		mov	r0, r3
 152 0042 03B0     		add	sp, sp, #12
 153              		@ sp needed
 154 0044 5DF804FB 		ldr	pc, [sp], #4
 155              	.L7:
 156              		.align	2
 157              	.L6:
 158 0048 00040048 		.word	1207960576
 159 004c 00000000 		.word	txbuf
 160 0050 00000000 		.word	rxbuf
 161              		.cfi_endproc
 162              	.LFE119:
 163              		.size	lps331apReadRegister, .-lps331apReadRegister
 164 0054 AFF30080 		.section	.rodata
 164      AFF30080 
 164      AFF30080 
 165              		.align	2
 166              	.LC0:
 167 0000 6C707333 		.ascii	"lps331apWriteRegister(), #1\000"
ARM GAS  /tmp/ccqazdZf.s 			page 4


 167      33316170 
 167      57726974 
 167      65526567 
 167      69737465 
 168              		.section	.text.lps331apWriteRegister,"ax",%progbits
 169              		.align	2
 170              		.p2align 4,,15
 171              		.global	lps331apWriteRegister
 172              		.thumb
 173              		.thumb_func
 174              		.type	lps331apWriteRegister, %function
 175              	lps331apWriteRegister:
 176              	.LFB120:
 177              		.loc 1 78 0
 178              		.cfi_startproc
 179              		@ args = 0, pretend = 0, frame = 8
 180              		@ frame_needed = 0, uses_anonymous_args = 0
 181 0000 00B5     		push	{lr}
 182              		.cfi_def_cfa_offset 4
 183              		.cfi_offset 14, -4
 184 0002 83B0     		sub	sp, sp, #12
 185              		.cfi_def_cfa_offset 16
 186 0004 0190     		str	r0, [sp, #4]
 187 0006 1346     		mov	r3, r2
 188 0008 0A46     		mov	r2, r1
 189 000a 8DF80320 		strb	r2, [sp, #3]
 190 000e 8DF80230 		strb	r3, [sp, #2]
 191              		.loc 1 80 0
 192 0012 9DF80330 		ldrb	r3, [sp, #3]	@ zero_extendqisi2
 193 0016 0F2B     		cmp	r3, #15
 194 0018 1FD0     		beq	.L13
 195 001a 0F2B     		cmp	r3, #15
 196 001c 18DB     		blt	.L9
 197 001e 203B     		subs	r3, r3, #32
 198 0020 022B     		cmp	r3, #2
 199 0022 15D8     		bhi	.L9
 200              		.loc 1 87 0
 201 0024 0F4B     		ldr	r3, .L14
 202 0026 4FF48052 		mov	r2, #4096
 203 002a 5A83     		strh	r2, [r3, #26]	@ movhi
 204              		.loc 1 88 0
 205 002c 0E4B     		ldr	r3, .L14+4
 206 002e 9DF80320 		ldrb	r2, [sp, #3]
 207 0032 1A70     		strb	r2, [r3]
 208              		.loc 1 89 0
 209 0034 0C4B     		ldr	r3, .L14+4
 210 0036 9DF80220 		ldrb	r2, [sp, #2]
 211 003a 5A70     		strb	r2, [r3, #1]
 212              		.loc 1 90 0
 213 003c 0198     		ldr	r0, [sp, #4]
 214 003e 0221     		movs	r1, #2
 215 0040 094A     		ldr	r2, .L14+4
 216 0042 FFF7FEFF 		bl	spiSend
 217              		.loc 1 91 0
 218 0046 074B     		ldr	r3, .L14
 219 0048 4FF48052 		mov	r2, #4096
 220 004c 1A83     		strh	r2, [r3, #24]	@ movhi
ARM GAS  /tmp/ccqazdZf.s 			page 5


 221              		.loc 1 92 0
 222 004e 05E0     		b	.L8
 223              	.L9:
 224              		.loc 1 96 0
 225 0050 0648     		ldr	r0, .L14+8
 226 0052 FFF7FEFF 		bl	chDbgPanic
 227              		.loc 1 97 0
 228 0056 00BF     		nop
 229 0058 00E0     		b	.L8
 230              	.L13:
 231              		.loc 1 83 0
 232 005a 00BF     		nop
 233              	.L8:
 234              		.loc 1 99 0
 235 005c 03B0     		add	sp, sp, #12
 236              		@ sp needed
 237 005e 5DF804FB 		ldr	pc, [sp], #4
 238              	.L15:
 239 0062 00BF     		.align	2
 240              	.L14:
 241 0064 00040048 		.word	1207960576
 242 0068 00000000 		.word	txbuf
 243 006c 00000000 		.word	.LC0
 244              		.cfi_endproc
 245              	.LFE120:
 246              		.size	lps331apWriteRegister, .-lps331apWriteRegister
 247              		.text
 248              	.Letext0:
 249              		.file 2 "/usr/include/newlib/machine/_default_types.h"
 250              		.file 3 "/usr/include/newlib/stdint.h"
 251              		.file 4 "/home/dave/r2p-sdk/core/ChibiOS/os/ports/GCC/ARMCMx/chtypes.h"
 252              		.file 5 "/home/dave/r2p-sdk/core/ChibiOS/os/kernel/include/chlists.h"
 253              		.file 6 "/home/dave/r2p-sdk/core/ChibiOS/os/kernel/include/chthreads.h"
 254              		.file 7 "/home/dave/r2p-sdk/core/ChibiOS/os/ports/GCC/ARMCMx/chcore_v7m.h"
 255              		.file 8 "/home/dave/r2p-sdk/core/ChibiOS/os/kernel/include/chmtx.h"
 256              		.file 9 "/home/dave/r2p-sdk/core/ChibiOS/os/hal/platforms/STM32F30x/stm32f30x.h"
 257              		.file 10 "/home/dave/r2p-sdk/core/ChibiOS/os/hal/platforms/STM32F30x/stm32_dma.h"
 258              		.file 11 "/home/dave/r2p-sdk/core/ChibiOS/os/hal/platforms/STM32/GPIOv2/pal_lld.h"
 259              		.file 12 "/home/dave/r2p-sdk/core/ChibiOS/os/hal/include/spi.h"
 260              		.file 13 "/home/dave/r2p-sdk/core/ChibiOS/os/hal/platforms/STM32/SPIv2/spi_lld.h"
 261              		.file 14 "/home/dave/r2p-sdk/modules/IMU_module/lps331ap.h"
 262              		.file 15 "/home/dave/r2p-sdk/core/ChibiOS/os/ports/common/ARMCMx/CMSIS/include/core_cm4.h"