ARM GAS  /tmp/ccpR2FOi.s 			page 1


   1              		.syntax unified
   2              		.cpu cortex-m4
   3              		.eabi_attribute 27, 3
   4              		.eabi_attribute 28, 1
   5              		.fpu fpv4-sp-d16
   6              		.eabi_attribute 20, 1
   7              		.eabi_attribute 21, 1
   8              		.eabi_attribute 23, 3
   9              		.eabi_attribute 24, 1
  10              		.eabi_attribute 25, 1
  11              		.eabi_attribute 26, 1
  12              		.eabi_attribute 30, 6
  13              		.eabi_attribute 34, 1
  14              		.eabi_attribute 18, 4
  15              		.thumb
  16              		.file	"lsm303d.c"
  17              		.text
  18              	.Ltext0:
  19              		.cfi_sections	.debug_frame
  20              		.section	.bss.txbuf,"aw",%nobits
  21              		.align	2
  22              		.type	txbuf, %object
  23              		.size	txbuf, 2
  24              	txbuf:
  25 0000 0000     		.space	2
  26 0002 0000     		.section	.bss.rxbuf,"aw",%nobits
  27              		.align	2
  28              		.type	rxbuf, %object
  29              		.size	rxbuf, 2
  30              	rxbuf:
  31 0000 0000     		.space	2
  32 0002 0000     		.section	.bss.acctp,"aw",%nobits
  33              		.align	2
  34              		.type	acctp, %object
  35              		.size	acctp, 4
  36              	acctp:
  37 0000 00000000 		.space	4
  38              		.section	.bss.magtp,"aw",%nobits
  39              		.align	2
  40              		.type	magtp, %object
  41              		.size	magtp, 4
  42              	magtp:
  43 0000 00000000 		.space	4
  44              		.global	acc_data
  45              		.section	.bss.acc_data,"aw",%nobits
  46              		.align	2
  47              		.type	acc_data, %object
  48              		.size	acc_data, 12
  49              	acc_data:
  50 0000 00000000 		.space	12
  50      00000000 
  50      00000000 
  51              		.global	mag_data
  52              		.section	.bss.mag_data,"aw",%nobits
  53              		.align	2
  54              		.type	mag_data, %object
  55              		.size	mag_data, 12
ARM GAS  /tmp/ccpR2FOi.s 			page 2


  56              	mag_data:
  57 0000 00000000 		.space	12
  57      00000000 
  57      00000000 
  58              		.section	.text.lsm303dReadRegister,"ax",%progbits
  59              		.align	2
  60              		.p2align 4,,15
  61              		.global	lsm303dReadRegister
  62              		.thumb
  63              		.thumb_func
  64              		.type	lsm303dReadRegister, %function
  65              	lsm303dReadRegister:
  66              	.LFB118:
  67              		.file 1 "/home/dave/r2p-sdk/modules/IMU_module/lsm303d.c"
  68              		.loc 1 28 0
  69              		.cfi_startproc
  70              		@ args = 0, pretend = 0, frame = 8
  71              		@ frame_needed = 0, uses_anonymous_args = 0
  72 0000 00B5     		push	{lr}
  73              		.cfi_def_cfa_offset 4
  74              		.cfi_offset 14, -4
  75 0002 83B0     		sub	sp, sp, #12
  76              		.cfi_def_cfa_offset 16
  77 0004 0190     		str	r0, [sp, #4]
  78 0006 0B46     		mov	r3, r1
  79 0008 8DF80330 		strb	r3, [sp, #3]
  80              		.loc 1 30 0
  81 000c 4FF09043 		mov	r3, #1207959552
  82 0010 1022     		movs	r2, #16
  83 0012 5A83     		strh	r2, [r3, #26]	@ movhi
  84              		.loc 1 31 0
  85 0014 9DF80330 		ldrb	r3, [sp, #3]
  86 0018 63F07F03 		orn	r3, r3, #127
  87 001c DAB2     		uxtb	r2, r3
  88 001e 0A4B     		ldr	r3, .L3
  89 0020 1A70     		strb	r2, [r3]
  90              		.loc 1 32 0
  91 0022 094B     		ldr	r3, .L3
  92 0024 FF22     		movs	r2, #255
  93 0026 5A70     		strb	r2, [r3, #1]
  94              		.loc 1 33 0
  95 0028 0198     		ldr	r0, [sp, #4]
  96 002a 0221     		movs	r1, #2
  97 002c 064A     		ldr	r2, .L3
  98 002e 074B     		ldr	r3, .L3+4
  99 0030 FFF7FEFF 		bl	spiExchange
 100              		.loc 1 34 0
 101 0034 4FF09043 		mov	r3, #1207959552
 102 0038 1022     		movs	r2, #16
 103 003a 1A83     		strh	r2, [r3, #24]	@ movhi
 104              		.loc 1 35 0
 105 003c 034B     		ldr	r3, .L3+4
 106 003e 5B78     		ldrb	r3, [r3, #1]	@ zero_extendqisi2
 107              		.loc 1 36 0
 108 0040 1846     		mov	r0, r3
 109 0042 03B0     		add	sp, sp, #12
 110              		@ sp needed
ARM GAS  /tmp/ccpR2FOi.s 			page 3


 111 0044 5DF804FB 		ldr	pc, [sp], #4
 112              	.L4:
 113              		.align	2
 114              	.L3:
 115 0048 00000000 		.word	txbuf
 116 004c 00000000 		.word	rxbuf
 117              		.cfi_endproc
 118              	.LFE118:
 119              		.size	lsm303dReadRegister, .-lsm303dReadRegister
 120              		.section	.rodata
 121              		.align	2
 122              	.LC0:
 123 0000 6C736D33 		.ascii	"lsm303dWriteRegister(), #1\000"
 123      30336457 
 123      72697465 
 123      52656769 
 123      73746572 
 124 001b 00       		.section	.text.lsm303dWriteRegister,"ax",%progbits
 125              		.align	2
 126              		.p2align 4,,15
 127              		.global	lsm303dWriteRegister
 128              		.thumb
 129              		.thumb_func
 130              		.type	lsm303dWriteRegister, %function
 131              	lsm303dWriteRegister:
 132              	.LFB119:
 133              		.loc 1 46 0
 134              		.cfi_startproc
 135              		@ args = 0, pretend = 0, frame = 8
 136              		@ frame_needed = 0, uses_anonymous_args = 0
 137 0000 00B5     		push	{lr}
 138              		.cfi_def_cfa_offset 4
 139              		.cfi_offset 14, -4
 140 0002 83B0     		sub	sp, sp, #12
 141              		.cfi_def_cfa_offset 16
 142 0004 0190     		str	r0, [sp, #4]
 143 0006 1346     		mov	r3, r2
 144 0008 0A46     		mov	r2, r1
 145 000a 8DF80320 		strb	r2, [sp, #3]
 146 000e 8DF80230 		strb	r3, [sp, #2]
 147              		.loc 1 48 0
 148 0012 9DF80330 		ldrb	r3, [sp, #3]	@ zero_extendqisi2
 149 0016 053B     		subs	r3, r3, #5
 150 0018 3A2B     		cmp	r3, #58
 151 001a 00F28F80 		bhi	.L6
 152 001e 01A2     		adr	r2, .L8
 153 0020 52F823F0 		ldr	pc, [r2, r3, lsl #2]
 154              		.p2align 2
 155              	.L8:
 156 0024 47010000 		.word	.L11+1
 157 0028 47010000 		.word	.L11+1
 158 002c 47010000 		.word	.L11+1
 159 0030 47010000 		.word	.L11+1
 160 0034 47010000 		.word	.L11+1
 161 0038 47010000 		.word	.L11+1
 162 003c 47010000 		.word	.L11+1
 163 0040 47010000 		.word	.L11+1
ARM GAS  /tmp/ccpR2FOi.s 			page 4


 164 0044 47010000 		.word	.L11+1
 165 0048 3D010000 		.word	.L6+1
 166 004c 47010000 		.word	.L11+1
 167 0050 3D010000 		.word	.L6+1
 168 0054 3D010000 		.word	.L6+1
 169 0058 11010000 		.word	.L9+1
 170 005c 47010000 		.word	.L11+1
 171 0060 11010000 		.word	.L9+1
 172 0064 11010000 		.word	.L9+1
 173 0068 11010000 		.word	.L9+1
 174 006c 11010000 		.word	.L9+1
 175 0070 11010000 		.word	.L9+1
 176 0074 11010000 		.word	.L9+1
 177 0078 11010000 		.word	.L9+1
 178 007c 11010000 		.word	.L9+1
 179 0080 11010000 		.word	.L9+1
 180 0084 11010000 		.word	.L9+1
 181 0088 11010000 		.word	.L9+1
 182 008c 11010000 		.word	.L9+1
 183 0090 11010000 		.word	.L9+1
 184 0094 11010000 		.word	.L9+1
 185 0098 11010000 		.word	.L9+1
 186 009c 11010000 		.word	.L9+1
 187 00a0 11010000 		.word	.L9+1
 188 00a4 11010000 		.word	.L9+1
 189 00a8 11010000 		.word	.L9+1
 190 00ac 47010000 		.word	.L11+1
 191 00b0 47010000 		.word	.L11+1
 192 00b4 47010000 		.word	.L11+1
 193 00b8 47010000 		.word	.L11+1
 194 00bc 47010000 		.word	.L11+1
 195 00c0 47010000 		.word	.L11+1
 196 00c4 47010000 		.word	.L11+1
 197 00c8 11010000 		.word	.L9+1
 198 00cc 47010000 		.word	.L11+1
 199 00d0 11010000 		.word	.L9+1
 200 00d4 47010000 		.word	.L11+1
 201 00d8 11010000 		.word	.L9+1
 202 00dc 11010000 		.word	.L9+1
 203 00e0 11010000 		.word	.L9+1
 204 00e4 47010000 		.word	.L11+1
 205 00e8 11010000 		.word	.L9+1
 206 00ec 11010000 		.word	.L9+1
 207 00f0 11010000 		.word	.L9+1
 208 00f4 47010000 		.word	.L11+1
 209 00f8 11010000 		.word	.L9+1
 210 00fc 11010000 		.word	.L9+1
 211 0100 11010000 		.word	.L9+1
 212 0104 11010000 		.word	.L9+1
 213 0108 11010000 		.word	.L9+1
 214 010c 11010000 		.word	.L9+1
 215              		.p2align 1
 216              	.L9:
 217              		.loc 1 107 0
 218 0110 4FF09043 		mov	r3, #1207959552
 219 0114 1022     		movs	r2, #16
 220 0116 5A83     		strh	r2, [r3, #26]	@ movhi
ARM GAS  /tmp/ccpR2FOi.s 			page 5


 221              		.loc 1 108 0
 222 0118 0D4B     		ldr	r3, .L12
 223 011a 9DF80320 		ldrb	r2, [sp, #3]
 224 011e 1A70     		strb	r2, [r3]
 225              		.loc 1 109 0
 226 0120 0B4B     		ldr	r3, .L12
 227 0122 9DF80220 		ldrb	r2, [sp, #2]
 228 0126 5A70     		strb	r2, [r3, #1]
 229              		.loc 1 110 0
 230 0128 0198     		ldr	r0, [sp, #4]
 231 012a 0221     		movs	r1, #2
 232 012c 084A     		ldr	r2, .L12
 233 012e FFF7FEFF 		bl	spiSend
 234              		.loc 1 111 0
 235 0132 4FF09043 		mov	r3, #1207959552
 236 0136 1022     		movs	r2, #16
 237 0138 1A83     		strh	r2, [r3, #24]	@ movhi
 238              		.loc 1 112 0
 239 013a 05E0     		b	.L5
 240              	.L6:
 241              		.loc 1 116 0
 242 013c 0548     		ldr	r0, .L12+4
 243 013e FFF7FEFF 		bl	chDbgPanic
 244              		.loc 1 117 0
 245 0142 00BF     		nop
 246 0144 00E0     		b	.L5
 247              	.L11:
 248              		.loc 1 72 0
 249 0146 00BF     		nop
 250              	.L5:
 251              		.loc 1 119 0
 252 0148 03B0     		add	sp, sp, #12
 253              		@ sp needed
 254 014a 5DF804FB 		ldr	pc, [sp], #4
 255              	.L13:
 256 014e 00BF     		.align	2
 257              	.L12:
 258 0150 00000000 		.word	txbuf
 259 0154 00000000 		.word	.LC0
 260              		.cfi_endproc
 261              	.LFE119:
 262              		.size	lsm303dWriteRegister, .-lsm303dWriteRegister
 263 0158 AFF30080 		.section	.text.lsm303_init,"ax",%progbits
 263      AFF30080 
 264              		.align	2
 265              		.p2align 4,,15
 266              		.global	lsm303_init
 267              		.thumb
 268              		.thumb_func
 269              		.type	lsm303_init, %function
 270              	lsm303_init:
 271              	.LFB120:
 272              		.loc 1 124 0
 273              		.cfi_startproc
 274              		@ args = 0, pretend = 0, frame = 16
 275              		@ frame_needed = 0, uses_anonymous_args = 0
 276 0000 00B5     		push	{lr}
ARM GAS  /tmp/ccpR2FOi.s 			page 6


 277              		.cfi_def_cfa_offset 4
 278              		.cfi_offset 14, -4
 279 0002 85B0     		sub	sp, sp, #20
 280              		.cfi_def_cfa_offset 24
 281 0004 0190     		str	r0, [sp, #4]
 282              		.loc 1 128 0
 283 0006 0198     		ldr	r0, [sp, #4]
 284 0008 FFF7FEFF 		bl	spiAcquireBus
 285              		.loc 1 129 0
 286 000c 0198     		ldr	r0, [sp, #4]
 287 000e 0F21     		movs	r1, #15
 288 0010 FFF7FEFF 		bl	lsm303dReadRegister
 289 0014 0346     		mov	r3, r0
 290 0016 8DF80F30 		strb	r3, [sp, #15]
 291              		.loc 1 131 0
 292 001a 9DF80F30 		ldrb	r3, [sp, #15]	@ zero_extendqisi2
 293 001e 492B     		cmp	r3, #73
 294 0020 05D0     		beq	.L15
 295              		.loc 1 132 0
 296 0022 0198     		ldr	r0, [sp, #4]
 297 0024 FFF7FEFF 		bl	spiReleaseBus
 298              		.loc 1 133 0
 299 0028 4FF0FF33 		mov	r3, #-1
 300 002c 2EE0     		b	.L16
 301              	.L15:
 302              		.loc 1 136 0
 303 002e 0198     		ldr	r0, [sp, #4]
 304 0030 1F21     		movs	r1, #31
 305 0032 0022     		movs	r2, #0
 306 0034 FFF7FEFF 		bl	lsm303dWriteRegister
 307              		.loc 1 137 0
 308 0038 0198     		ldr	r0, [sp, #4]
 309 003a 2121     		movs	r1, #33
 310 003c 4022     		movs	r2, #64
 311 003e FFF7FEFF 		bl	lsm303dWriteRegister
 312              		.loc 1 138 0
 313 0042 0198     		ldr	r0, [sp, #4]
 314 0044 2221     		movs	r1, #34
 315 0046 0422     		movs	r2, #4
 316 0048 FFF7FEFF 		bl	lsm303dWriteRegister
 317              		.loc 1 139 0
 318 004c 0198     		ldr	r0, [sp, #4]
 319 004e 2321     		movs	r1, #35
 320 0050 0422     		movs	r2, #4
 321 0052 FFF7FEFF 		bl	lsm303dWriteRegister
 322              		.loc 1 140 0
 323 0056 0198     		ldr	r0, [sp, #4]
 324 0058 2421     		movs	r1, #36
 325 005a F422     		movs	r2, #244
 326 005c FFF7FEFF 		bl	lsm303dWriteRegister
 327              		.loc 1 141 0
 328 0060 0198     		ldr	r0, [sp, #4]
 329 0062 2521     		movs	r1, #37
 330 0064 0022     		movs	r2, #0
 331 0066 FFF7FEFF 		bl	lsm303dWriteRegister
 332              		.loc 1 142 0
 333 006a 0198     		ldr	r0, [sp, #4]
ARM GAS  /tmp/ccpR2FOi.s 			page 7


 334 006c 2621     		movs	r1, #38
 335 006e 0022     		movs	r2, #0
 336 0070 FFF7FEFF 		bl	lsm303dWriteRegister
 337              		.loc 1 143 0
 338 0074 0198     		ldr	r0, [sp, #4]
 339 0076 2021     		movs	r1, #32
 340 0078 6722     		movs	r2, #103
 341 007a FFF7FEFF 		bl	lsm303dWriteRegister
 342              		.loc 1 144 0
 343 007e 0198     		ldr	r0, [sp, #4]
 344 0080 FFF7FEFF 		bl	spiReleaseBus
 345              		.loc 1 146 0
 346 0084 FA20     		movs	r0, #250
 347 0086 FFF7FEFF 		bl	chThdSleep
 348              		.loc 1 147 0
 349 008a 0023     		movs	r3, #0
 350              	.L16:
 351              		.loc 1 148 0
 352 008c 1846     		mov	r0, r3
 353 008e 05B0     		add	sp, sp, #20
 354              		@ sp needed
 355 0090 5DF804FB 		ldr	pc, [sp], #4
 356              		.cfi_endproc
 357              	.LFE120:
 358              		.size	lsm303_init, .-lsm303_init
 359 0094 AFF30080 		.section	.text.lsm303_acc_update,"ax",%progbits
 359      AFF30080 
 359      AFF30080 
 360              		.align	2
 361              		.p2align 4,,15
 362              		.global	lsm303_acc_update
 363              		.thumb
 364              		.thumb_func
 365              		.type	lsm303_acc_update, %function
 366              	lsm303_acc_update:
 367              	.LFB121:
 368              		.loc 1 150 0
 369              		.cfi_startproc
 370              		@ args = 0, pretend = 0, frame = 24
 371              		@ frame_needed = 0, uses_anonymous_args = 0
 372 0000 00B5     		push	{lr}
 373              		.cfi_def_cfa_offset 4
 374              		.cfi_offset 14, -4
 375 0002 87B0     		sub	sp, sp, #28
 376              		.cfi_def_cfa_offset 32
 377 0004 0190     		str	r0, [sp, #4]
 378              		.loc 1 155 0
 379 0006 244B     		ldr	r3, .L18
 380 0008 DB68     		ldr	r3, [r3, #12]
 381 000a 0593     		str	r3, [sp, #20]
 382              		.loc 1 157 0
 383 000c E823     		movs	r3, #232
 384 000e 8DF81330 		strb	r3, [sp, #19]
 385              		.loc 1 158 0
 386 0012 0198     		ldr	r0, [sp, #4]
 387 0014 FFF7FEFF 		bl	spiAcquireBus
 388              		.loc 1 159 0
ARM GAS  /tmp/ccpR2FOi.s 			page 8


 389 0018 4FF09043 		mov	r3, #1207959552
 390 001c 1022     		movs	r2, #16
 391 001e 5A83     		strh	r2, [r3, #26]	@ movhi
 392              		.loc 1 160 0
 393 0020 0DF11303 		add	r3, sp, #19
 394 0024 0198     		ldr	r0, [sp, #4]
 395 0026 0121     		movs	r1, #1
 396 0028 1A46     		mov	r2, r3
 397 002a FFF7FEFF 		bl	spiSend
 398              		.loc 1 161 0
 399 002e 03AB     		add	r3, sp, #12
 400 0030 0198     		ldr	r0, [sp, #4]
 401 0032 0621     		movs	r1, #6
 402 0034 1A46     		mov	r2, r3
 403 0036 FFF7FEFF 		bl	spiReceive
 404              		.loc 1 162 0
 405 003a 4FF09043 		mov	r3, #1207959552
 406 003e 1022     		movs	r2, #16
 407 0040 1A83     		strh	r2, [r3, #24]	@ movhi
 408              		.loc 1 163 0
 409 0042 0198     		ldr	r0, [sp, #4]
 410 0044 FFF7FEFF 		bl	spiReleaseBus
 411              	.LBB2:
 412              		.loc 1 165 0
 413 0048 2023     		movs	r3, #32
 414              	@ 165 "/home/dave/r2p-sdk/modules/IMU_module/lsm303d.c" 1
 415 004a 83F31188 		msr     BASEPRI, r3
 416              	@ 0 "" 2
 417              		.thumb
 418              	.LBE2:
 419 004e FFF7FEFF 		bl	dbg_check_lock
 420              		.loc 1 166 0
 421 0052 124B     		ldr	r3, .L18+4
 422 0054 059A     		ldr	r2, [sp, #20]
 423 0056 1A60     		str	r2, [r3]
 424              		.loc 1 167 0
 425 0058 03AB     		add	r3, sp, #12
 426 005a 1B88     		ldrh	r3, [r3]
 427 005c 1BB2     		sxth	r3, r3
 428 005e 1B11     		asrs	r3, r3, #4
 429 0060 9AB2     		uxth	r2, r3
 430 0062 0E4B     		ldr	r3, .L18+4
 431 0064 9A80     		strh	r2, [r3, #4]	@ movhi
 432              		.loc 1 168 0
 433 0066 03AB     		add	r3, sp, #12
 434 0068 0233     		adds	r3, r3, #2
 435 006a 1B88     		ldrh	r3, [r3]
 436 006c 1BB2     		sxth	r3, r3
 437 006e 1B11     		asrs	r3, r3, #4
 438 0070 9AB2     		uxth	r2, r3
 439 0072 0A4B     		ldr	r3, .L18+4
 440 0074 DA80     		strh	r2, [r3, #6]	@ movhi
 441              		.loc 1 169 0
 442 0076 03AB     		add	r3, sp, #12
 443 0078 0433     		adds	r3, r3, #4
 444 007a 1B88     		ldrh	r3, [r3]
 445 007c 1BB2     		sxth	r3, r3
ARM GAS  /tmp/ccpR2FOi.s 			page 9


 446 007e 1B11     		asrs	r3, r3, #4
 447 0080 9AB2     		uxth	r2, r3
 448 0082 064B     		ldr	r3, .L18+4
 449 0084 1A81     		strh	r2, [r3, #8]	@ movhi
 450              		.loc 1 170 0
 451 0086 FFF7FEFF 		bl	dbg_check_unlock
 452              	.LBB3:
 453 008a 0023     		movs	r3, #0
 454              	@ 170 "/home/dave/r2p-sdk/modules/IMU_module/lsm303d.c" 1
 455 008c 83F31188 		msr     BASEPRI, r3
 456              	@ 0 "" 2
 457              		.thumb
 458              	.LBE3:
 459              		.loc 1 171 0
 460 0090 07B0     		add	sp, sp, #28
 461              		@ sp needed
 462 0092 5DF804FB 		ldr	pc, [sp], #4
 463              	.L19:
 464 0096 00BF     		.align	2
 465              	.L18:
 466 0098 00000000 		.word	vtlist
 467 009c 00000000 		.word	acc_data
 468              		.cfi_endproc
 469              	.LFE121:
 470              		.size	lsm303_acc_update, .-lsm303_acc_update
 471              		.section	.text.lsm303_int1_cb,"ax",%progbits
 472              		.align	2
 473              		.p2align 4,,15
 474              		.global	lsm303_int1_cb
 475              		.thumb
 476              		.thumb_func
 477              		.type	lsm303_int1_cb, %function
 478              	lsm303_int1_cb:
 479              	.LFB122:
 480              		.loc 1 173 0
 481              		.cfi_startproc
 482              		@ args = 0, pretend = 0, frame = 8
 483              		@ frame_needed = 0, uses_anonymous_args = 0
 484 0000 00B5     		push	{lr}
 485              		.cfi_def_cfa_offset 4
 486              		.cfi_offset 14, -4
 487 0002 83B0     		sub	sp, sp, #12
 488              		.cfi_def_cfa_offset 16
 489 0004 0190     		str	r0, [sp, #4]
 490 0006 0091     		str	r1, [sp]
 491              	.LBB4:
 492              		.loc 1 177 0
 493 0008 2023     		movs	r3, #32
 494              	@ 177 "/home/dave/r2p-sdk/modules/IMU_module/lsm303d.c" 1
 495 000a 83F31188 		msr     BASEPRI, r3
 496              	@ 0 "" 2
 497              		.thumb
 498              	.LBE4:
 499 000e FFF7FEFF 		bl	dbg_check_lock_from_isr
 500              		.loc 1 179 0
 501 0012 0C4B     		ldr	r3, .L22
 502 0014 1B68     		ldr	r3, [r3]
ARM GAS  /tmp/ccpR2FOi.s 			page 10


 503 0016 002B     		cmp	r3, #0
 504 0018 0BD0     		beq	.L21
 505              		.loc 1 180 0
 506 001a 0A4B     		ldr	r3, .L22
 507 001c 1B68     		ldr	r3, [r3]
 508 001e 7B22     		movs	r2, #123
 509 0020 9A62     		str	r2, [r3, #40]
 510              		.loc 1 181 0
 511 0022 084B     		ldr	r3, .L22
 512 0024 1B68     		ldr	r3, [r3]
 513 0026 1846     		mov	r0, r3
 514 0028 FFF7FEFF 		bl	chSchReadyI
 515              		.loc 1 182 0
 516 002c 054B     		ldr	r3, .L22
 517 002e 0022     		movs	r2, #0
 518 0030 1A60     		str	r2, [r3]
 519              	.L21:
 520              		.loc 1 184 0
 521 0032 FFF7FEFF 		bl	dbg_check_unlock_from_isr
 522              	.LBB5:
 523 0036 0023     		movs	r3, #0
 524              	@ 184 "/home/dave/r2p-sdk/modules/IMU_module/lsm303d.c" 1
 525 0038 83F31188 		msr     BASEPRI, r3
 526              	@ 0 "" 2
 527              		.thumb
 528              	.LBE5:
 529              		.loc 1 185 0
 530 003c 03B0     		add	sp, sp, #12
 531              		@ sp needed
 532 003e 5DF804FB 		ldr	pc, [sp], #4
 533              	.L23:
 534 0042 00BF     		.align	2
 535              	.L22:
 536 0044 00000000 		.word	acctp
 537              		.cfi_endproc
 538              	.LFE122:
 539              		.size	lsm303_int1_cb, .-lsm303_int1_cb
 540 0048 AFF30080 		.section	.text.lsm303_acc_update_thread,"ax",%progbits
 540      AFF30080 
 541              		.align	2
 542              		.p2align 4,,15
 543              		.thumb
 544              		.thumb_func
 545              		.type	lsm303_acc_update_thread, %function
 546              	lsm303_acc_update_thread:
 547              	.LFB123:
 548              		.loc 1 187 0
 549              		.cfi_startproc
 550              		@ args = 0, pretend = 0, frame = 16
 551              		@ frame_needed = 0, uses_anonymous_args = 0
 552 0000 00B5     		push	{lr}
 553              		.cfi_def_cfa_offset 4
 554              		.cfi_offset 14, -4
 555 0002 85B0     		sub	sp, sp, #20
 556              		.cfi_def_cfa_offset 24
 557 0004 0190     		str	r0, [sp, #4]
 558              		.loc 1 188 0
ARM GAS  /tmp/ccpR2FOi.s 			page 11


 559 0006 019B     		ldr	r3, [sp, #4]
 560 0008 0393     		str	r3, [sp, #12]
 561              	.L26:
 562              	.LBB6:
 563              	.LBB7:
 564              		.loc 1 195 0
 565 000a 2023     		movs	r3, #32
 566              	@ 195 "/home/dave/r2p-sdk/modules/IMU_module/lsm303d.c" 1
 567 000c 83F31188 		msr     BASEPRI, r3
 568              	@ 0 "" 2
 569              		.thumb
 570              	.LBE7:
 571 0010 FFF7FEFF 		bl	dbg_check_lock
 572              		.loc 1 196 0
 573 0014 0B4B     		ldr	r3, .L27
 574 0016 9A69     		ldr	r2, [r3, #24]
 575 0018 0B4B     		ldr	r3, .L27+4
 576 001a 1A60     		str	r2, [r3]
 577              		.loc 1 197 0
 578 001c 0220     		movs	r0, #2
 579 001e FFF7FEFF 		bl	chSchGoSleepS
 580              		.loc 1 198 0
 581 0022 084B     		ldr	r3, .L27
 582 0024 9B69     		ldr	r3, [r3, #24]
 583 0026 9B6A     		ldr	r3, [r3, #40]
 584 0028 0293     		str	r3, [sp, #8]
 585              		.loc 1 199 0
 586 002a FFF7FEFF 		bl	dbg_check_unlock
 587              	.LBB8:
 588 002e 0023     		movs	r3, #0
 589              	@ 199 "/home/dave/r2p-sdk/modules/IMU_module/lsm303d.c" 1
 590 0030 83F31188 		msr     BASEPRI, r3
 591              	@ 0 "" 2
 592              		.thumb
 593              	.LBE8:
 594              		.loc 1 202 0
 595 0034 029B     		ldr	r3, [sp, #8]
 596 0036 7B2B     		cmp	r3, #123
 597 0038 03D1     		bne	.L25
 598              		.loc 1 203 0
 599 003a 0398     		ldr	r0, [sp, #12]
 600 003c FFF7FEFF 		bl	lsm303_acc_update
 601              	.LBE6:
 602              		.loc 1 205 0
 603 0040 E3E7     		b	.L26
 604              	.L25:
 605 0042 E2E7     		b	.L26
 606              	.L28:
 607              		.align	2
 608              	.L27:
 609 0044 00000000 		.word	rlist
 610 0048 00000000 		.word	acctp
 611              		.cfi_endproc
 612              	.LFE123:
 613              		.size	lsm303_acc_update_thread, .-lsm303_acc_update_thread
 614 004c AFF30080 		.section	.text.lsm303_mag_update,"ax",%progbits
 615              		.align	2
ARM GAS  /tmp/ccpR2FOi.s 			page 12


 616              		.p2align 4,,15
 617              		.global	lsm303_mag_update
 618              		.thumb
 619              		.thumb_func
 620              		.type	lsm303_mag_update, %function
 621              	lsm303_mag_update:
 622              	.LFB124:
 623              		.loc 1 213 0
 624              		.cfi_startproc
 625              		@ args = 0, pretend = 0, frame = 24
 626              		@ frame_needed = 0, uses_anonymous_args = 0
 627 0000 00B5     		push	{lr}
 628              		.cfi_def_cfa_offset 4
 629              		.cfi_offset 14, -4
 630 0002 87B0     		sub	sp, sp, #28
 631              		.cfi_def_cfa_offset 32
 632 0004 0190     		str	r0, [sp, #4]
 633              		.loc 1 218 0
 634 0006 244B     		ldr	r3, .L30
 635 0008 DB68     		ldr	r3, [r3, #12]
 636 000a 0593     		str	r3, [sp, #20]
 637              		.loc 1 220 0
 638 000c C823     		movs	r3, #200
 639 000e 8DF81330 		strb	r3, [sp, #19]
 640              		.loc 1 221 0
 641 0012 0198     		ldr	r0, [sp, #4]
 642 0014 FFF7FEFF 		bl	spiAcquireBus
 643              		.loc 1 222 0
 644 0018 4FF09043 		mov	r3, #1207959552
 645 001c 1022     		movs	r2, #16
 646 001e 5A83     		strh	r2, [r3, #26]	@ movhi
 647              		.loc 1 223 0
 648 0020 0DF11303 		add	r3, sp, #19
 649 0024 0198     		ldr	r0, [sp, #4]
 650 0026 0121     		movs	r1, #1
 651 0028 1A46     		mov	r2, r3
 652 002a FFF7FEFF 		bl	spiSend
 653              		.loc 1 224 0
 654 002e 03AB     		add	r3, sp, #12
 655 0030 0198     		ldr	r0, [sp, #4]
 656 0032 0621     		movs	r1, #6
 657 0034 1A46     		mov	r2, r3
 658 0036 FFF7FEFF 		bl	spiReceive
 659              		.loc 1 225 0
 660 003a 4FF09043 		mov	r3, #1207959552
 661 003e 1022     		movs	r2, #16
 662 0040 1A83     		strh	r2, [r3, #24]	@ movhi
 663              		.loc 1 226 0
 664 0042 0198     		ldr	r0, [sp, #4]
 665 0044 FFF7FEFF 		bl	spiReleaseBus
 666              	.LBB9:
 667              		.loc 1 228 0
 668 0048 2023     		movs	r3, #32
 669              	@ 228 "/home/dave/r2p-sdk/modules/IMU_module/lsm303d.c" 1
 670 004a 83F31188 		msr     BASEPRI, r3
 671              	@ 0 "" 2
 672              		.thumb
ARM GAS  /tmp/ccpR2FOi.s 			page 13


 673              	.LBE9:
 674 004e FFF7FEFF 		bl	dbg_check_lock
 675              		.loc 1 229 0
 676 0052 124B     		ldr	r3, .L30+4
 677 0054 059A     		ldr	r2, [sp, #20]
 678 0056 1A60     		str	r2, [r3]
 679              		.loc 1 230 0
 680 0058 03AB     		add	r3, sp, #12
 681 005a 1B88     		ldrh	r3, [r3]
 682 005c 1BB2     		sxth	r3, r3
 683 005e 1B11     		asrs	r3, r3, #4
 684 0060 9AB2     		uxth	r2, r3
 685 0062 0E4B     		ldr	r3, .L30+4
 686 0064 9A80     		strh	r2, [r3, #4]	@ movhi
 687              		.loc 1 231 0
 688 0066 03AB     		add	r3, sp, #12
 689 0068 0233     		adds	r3, r3, #2
 690 006a 1B88     		ldrh	r3, [r3]
 691 006c 1BB2     		sxth	r3, r3
 692 006e 1B11     		asrs	r3, r3, #4
 693 0070 9AB2     		uxth	r2, r3
 694 0072 0A4B     		ldr	r3, .L30+4
 695 0074 DA80     		strh	r2, [r3, #6]	@ movhi
 696              		.loc 1 232 0
 697 0076 03AB     		add	r3, sp, #12
 698 0078 0433     		adds	r3, r3, #4
 699 007a 1B88     		ldrh	r3, [r3]
 700 007c 1BB2     		sxth	r3, r3
 701 007e 1B11     		asrs	r3, r3, #4
 702 0080 9AB2     		uxth	r2, r3
 703 0082 064B     		ldr	r3, .L30+4
 704 0084 1A81     		strh	r2, [r3, #8]	@ movhi
 705              		.loc 1 233 0
 706 0086 FFF7FEFF 		bl	dbg_check_unlock
 707              	.LBB10:
 708 008a 0023     		movs	r3, #0
 709              	@ 233 "/home/dave/r2p-sdk/modules/IMU_module/lsm303d.c" 1
 710 008c 83F31188 		msr     BASEPRI, r3
 711              	@ 0 "" 2
 712              		.thumb
 713              	.LBE10:
 714              		.loc 1 234 0
 715 0090 07B0     		add	sp, sp, #28
 716              		@ sp needed
 717 0092 5DF804FB 		ldr	pc, [sp], #4
 718              	.L31:
 719 0096 00BF     		.align	2
 720              	.L30:
 721 0098 00000000 		.word	vtlist
 722 009c 00000000 		.word	mag_data
 723              		.cfi_endproc
 724              	.LFE124:
 725              		.size	lsm303_mag_update, .-lsm303_mag_update
 726              		.section	.text.lsm303_int2_cb,"ax",%progbits
 727              		.align	2
 728              		.p2align 4,,15
 729              		.global	lsm303_int2_cb
ARM GAS  /tmp/ccpR2FOi.s 			page 14


 730              		.thumb
 731              		.thumb_func
 732              		.type	lsm303_int2_cb, %function
 733              	lsm303_int2_cb:
 734              	.LFB125:
 735              		.loc 1 236 0
 736              		.cfi_startproc
 737              		@ args = 0, pretend = 0, frame = 8
 738              		@ frame_needed = 0, uses_anonymous_args = 0
 739 0000 00B5     		push	{lr}
 740              		.cfi_def_cfa_offset 4
 741              		.cfi_offset 14, -4
 742 0002 83B0     		sub	sp, sp, #12
 743              		.cfi_def_cfa_offset 16
 744 0004 0190     		str	r0, [sp, #4]
 745 0006 0091     		str	r1, [sp]
 746              	.LBB11:
 747              		.loc 1 240 0
 748 0008 2023     		movs	r3, #32
 749              	@ 240 "/home/dave/r2p-sdk/modules/IMU_module/lsm303d.c" 1
 750 000a 83F31188 		msr     BASEPRI, r3
 751              	@ 0 "" 2
 752              		.thumb
 753              	.LBE11:
 754 000e FFF7FEFF 		bl	dbg_check_lock_from_isr
 755              		.loc 1 242 0
 756 0012 0C4B     		ldr	r3, .L34
 757 0014 1B68     		ldr	r3, [r3]
 758 0016 002B     		cmp	r3, #0
 759 0018 0CD0     		beq	.L33
 760              		.loc 1 243 0
 761 001a 0A4B     		ldr	r3, .L34
 762 001c 1B68     		ldr	r3, [r3]
 763 001e 4FF4E472 		mov	r2, #456
 764 0022 9A62     		str	r2, [r3, #40]
 765              		.loc 1 244 0
 766 0024 074B     		ldr	r3, .L34
 767 0026 1B68     		ldr	r3, [r3]
 768 0028 1846     		mov	r0, r3
 769 002a FFF7FEFF 		bl	chSchReadyI
 770              		.loc 1 245 0
 771 002e 054B     		ldr	r3, .L34
 772 0030 0022     		movs	r2, #0
 773 0032 1A60     		str	r2, [r3]
 774              	.L33:
 775              		.loc 1 247 0
 776 0034 FFF7FEFF 		bl	dbg_check_unlock_from_isr
 777              	.LBB12:
 778 0038 0023     		movs	r3, #0
 779              	@ 247 "/home/dave/r2p-sdk/modules/IMU_module/lsm303d.c" 1
 780 003a 83F31188 		msr     BASEPRI, r3
 781              	@ 0 "" 2
 782              		.thumb
 783              	.LBE12:
 784              		.loc 1 248 0
 785 003e 03B0     		add	sp, sp, #12
 786              		@ sp needed
ARM GAS  /tmp/ccpR2FOi.s 			page 15


 787 0040 5DF804FB 		ldr	pc, [sp], #4
 788              	.L35:
 789              		.align	2
 790              	.L34:
 791 0044 00000000 		.word	magtp
 792              		.cfi_endproc
 793              	.LFE125:
 794              		.size	lsm303_int2_cb, .-lsm303_int2_cb
 795 0048 AFF30080 		.section	.text.lsm303_mag_update_thread,"ax",%progbits
 795      AFF30080 
 796              		.align	2
 797              		.p2align 4,,15
 798              		.thumb
 799              		.thumb_func
 800              		.type	lsm303_mag_update_thread, %function
 801              	lsm303_mag_update_thread:
 802              	.LFB126:
 803              		.loc 1 250 0
 804              		.cfi_startproc
 805              		@ args = 0, pretend = 0, frame = 16
 806              		@ frame_needed = 0, uses_anonymous_args = 0
 807 0000 00B5     		push	{lr}
 808              		.cfi_def_cfa_offset 4
 809              		.cfi_offset 14, -4
 810 0002 85B0     		sub	sp, sp, #20
 811              		.cfi_def_cfa_offset 24
 812 0004 0190     		str	r0, [sp, #4]
 813              		.loc 1 251 0
 814 0006 019B     		ldr	r3, [sp, #4]
 815 0008 0393     		str	r3, [sp, #12]
 816              	.L38:
 817              	.LBB13:
 818              	.LBB14:
 819              		.loc 1 258 0
 820 000a 2023     		movs	r3, #32
 821              	@ 258 "/home/dave/r2p-sdk/modules/IMU_module/lsm303d.c" 1
 822 000c 83F31188 		msr     BASEPRI, r3
 823              	@ 0 "" 2
 824              		.thumb
 825              	.LBE14:
 826 0010 FFF7FEFF 		bl	dbg_check_lock
 827              		.loc 1 259 0
 828 0014 0C4B     		ldr	r3, .L39
 829 0016 9A69     		ldr	r2, [r3, #24]
 830 0018 0C4B     		ldr	r3, .L39+4
 831 001a 1A60     		str	r2, [r3]
 832              		.loc 1 260 0
 833 001c 0220     		movs	r0, #2
 834 001e FFF7FEFF 		bl	chSchGoSleepS
 835              		.loc 1 261 0
 836 0022 094B     		ldr	r3, .L39
 837 0024 9B69     		ldr	r3, [r3, #24]
 838 0026 9B6A     		ldr	r3, [r3, #40]
 839 0028 0293     		str	r3, [sp, #8]
 840              		.loc 1 262 0
 841 002a FFF7FEFF 		bl	dbg_check_unlock
 842              	.LBB15:
ARM GAS  /tmp/ccpR2FOi.s 			page 16


 843 002e 0023     		movs	r3, #0
 844              	@ 262 "/home/dave/r2p-sdk/modules/IMU_module/lsm303d.c" 1
 845 0030 83F31188 		msr     BASEPRI, r3
 846              	@ 0 "" 2
 847              		.thumb
 848              	.LBE15:
 849              		.loc 1 265 0
 850 0034 029B     		ldr	r3, [sp, #8]
 851 0036 B3F5E47F 		cmp	r3, #456
 852 003a 03D1     		bne	.L37
 853              		.loc 1 266 0
 854 003c 0398     		ldr	r0, [sp, #12]
 855 003e FFF7FEFF 		bl	lsm303_mag_update
 856              	.LBE13:
 857              		.loc 1 268 0
 858 0042 E2E7     		b	.L38
 859              	.L37:
 860 0044 E1E7     		b	.L38
 861              	.L40:
 862 0046 00BF     		.align	2
 863              	.L39:
 864 0048 00000000 		.word	rlist
 865 004c 00000000 		.word	magtp
 866              		.cfi_endproc
 867              	.LFE126:
 868              		.size	lsm303_mag_update_thread, .-lsm303_mag_update_thread
 869              		.section	.text.accRun,"ax",%progbits
 870              		.align	2
 871              		.p2align 4,,15
 872              		.global	accRun
 873              		.thumb
 874              		.thumb_func
 875              		.type	accRun, %function
 876              	accRun:
 877              	.LFB127:
 878              		.loc 1 277 0
 879              		.cfi_startproc
 880              		@ args = 0, pretend = 0, frame = 16
 881              		@ frame_needed = 0, uses_anonymous_args = 0
 882 0000 00B5     		push	{lr}
 883              		.cfi_def_cfa_offset 4
 884              		.cfi_offset 14, -4
 885 0002 87B0     		sub	sp, sp, #28
 886              		.cfi_def_cfa_offset 32
 887 0004 0390     		str	r0, [sp, #12]
 888 0006 0291     		str	r1, [sp, #8]
 889              		.loc 1 280 0
 890 0008 0398     		ldr	r0, [sp, #12]
 891 000a FFF7FEFF 		bl	lsm303_init
 892 000e 0346     		mov	r3, r0
 893 0010 002B     		cmp	r3, #0
 894 0012 01D0     		beq	.L42
 895              		.loc 1 280 0 is_stmt 0 discriminator 1
 896 0014 FFF7FEFF 		bl	port_halt
 897              	.L42:
 898              		.loc 1 282 0 is_stmt 1
 899 0018 C820     		movs	r0, #200
ARM GAS  /tmp/ccpR2FOi.s 			page 17


 900 001a FFF7FEFF 		bl	chThdSleep
 901              		.loc 1 283 0
 902 001e 0398     		ldr	r0, [sp, #12]
 903 0020 FFF7FEFF 		bl	lsm303_acc_update
 904              		.loc 1 284 0
 905 0024 039B     		ldr	r3, [sp, #12]
 906 0026 0093     		str	r3, [sp]
 907 0028 0020     		movs	r0, #0
 908 002a 4FF41671 		mov	r1, #600
 909 002e 029A     		ldr	r2, [sp, #8]
 910 0030 064B     		ldr	r3, .L44
 911 0032 FFF7FEFF 		bl	chThdCreateFromHeap
 912 0036 0590     		str	r0, [sp, #20]
 913              		.loc 1 285 0
 914 0038 0548     		ldr	r0, .L44+4
 915 003a 0221     		movs	r1, #2
 916 003c FFF7FEFF 		bl	extChannelEnable
 917              		.loc 1 287 0
 918 0040 059B     		ldr	r3, [sp, #20]
 919              		.loc 1 288 0
 920 0042 1846     		mov	r0, r3
 921 0044 07B0     		add	sp, sp, #28
 922              		@ sp needed
 923 0046 5DF804FB 		ldr	pc, [sp], #4
 924              	.L45:
 925 004a 00BF     		.align	2
 926              	.L44:
 927 004c 00000000 		.word	lsm303_acc_update_thread
 928 0050 00000000 		.word	EXTD1
 929              		.cfi_endproc
 930              	.LFE127:
 931              		.size	accRun, .-accRun
 932 0054 AFF30080 		.section	.text.magRun,"ax",%progbits
 932      AFF30080 
 932      AFF30080 
 933              		.align	2
 934              		.p2align 4,,15
 935              		.global	magRun
 936              		.thumb
 937              		.thumb_func
 938              		.type	magRun, %function
 939              	magRun:
 940              	.LFB128:
 941              		.loc 1 290 0
 942              		.cfi_startproc
 943              		@ args = 0, pretend = 0, frame = 16
 944              		@ frame_needed = 0, uses_anonymous_args = 0
 945 0000 00B5     		push	{lr}
 946              		.cfi_def_cfa_offset 4
 947              		.cfi_offset 14, -4
 948 0002 87B0     		sub	sp, sp, #28
 949              		.cfi_def_cfa_offset 32
 950 0004 0390     		str	r0, [sp, #12]
 951 0006 0291     		str	r1, [sp, #8]
 952              		.loc 1 294 0
 953 0008 C820     		movs	r0, #200
 954 000a FFF7FEFF 		bl	chThdSleep
ARM GAS  /tmp/ccpR2FOi.s 			page 18


 955              		.loc 1 295 0
 956 000e 0398     		ldr	r0, [sp, #12]
 957 0010 FFF7FEFF 		bl	lsm303_mag_update
 958              		.loc 1 296 0
 959 0014 039B     		ldr	r3, [sp, #12]
 960 0016 0093     		str	r3, [sp]
 961 0018 0020     		movs	r0, #0
 962 001a 4FF41671 		mov	r1, #600
 963 001e 029A     		ldr	r2, [sp, #8]
 964 0020 064B     		ldr	r3, .L48
 965 0022 FFF7FEFF 		bl	chThdCreateFromHeap
 966 0026 0590     		str	r0, [sp, #20]
 967              		.loc 1 297 0
 968 0028 0548     		ldr	r0, .L48+4
 969 002a 0321     		movs	r1, #3
 970 002c FFF7FEFF 		bl	extChannelEnable
 971              		.loc 1 299 0
 972 0030 059B     		ldr	r3, [sp, #20]
 973              		.loc 1 300 0
 974 0032 1846     		mov	r0, r3
 975 0034 07B0     		add	sp, sp, #28
 976              		@ sp needed
 977 0036 5DF804FB 		ldr	pc, [sp], #4
 978              	.L49:
 979 003a 00BF     		.align	2
 980              	.L48:
 981 003c 00000000 		.word	lsm303_mag_update_thread
 982 0040 00000000 		.word	EXTD1
 983              		.cfi_endproc
 984              	.LFE128:
 985              		.size	magRun, .-magRun
 986 0044 AFF30080 		.text
 986      AFF30080 
 986      AFF30080 
 987              	.Letext0:
 988              		.file 2 "/usr/include/newlib/machine/_default_types.h"
 989              		.file 3 "/usr/include/newlib/stdint.h"
 990              		.file 4 "/home/dave/r2p-sdk/core/ChibiOS/os/ports/GCC/ARMCMx/chtypes.h"
 991              		.file 5 "/home/dave/r2p-sdk/core/ChibiOS/os/kernel/include/chlists.h"
 992              		.file 6 "/home/dave/r2p-sdk/core/ChibiOS/os/kernel/include/chthreads.h"
 993              		.file 7 "/home/dave/r2p-sdk/core/ChibiOS/os/ports/GCC/ARMCMx/chcore_v7m.h"
 994              		.file 8 "/home/dave/r2p-sdk/core/ChibiOS/os/kernel/include/chvt.h"
 995              		.file 9 "/home/dave/r2p-sdk/core/ChibiOS/os/kernel/include/chschd.h"
 996              		.file 10 "/home/dave/r2p-sdk/core/ChibiOS/os/kernel/include/chmtx.h"
 997              		.file 11 "/home/dave/r2p-sdk/core/ChibiOS/os/hal/platforms/STM32F30x/stm32f30x.h"
 998              		.file 12 "/home/dave/r2p-sdk/core/ChibiOS/os/hal/platforms/STM32F30x/stm32_dma.h"
 999              		.file 13 "/home/dave/r2p-sdk/core/ChibiOS/os/hal/platforms/STM32/GPIOv2/pal_lld.h"
 1000              		.file 14 "/home/dave/r2p-sdk/core/ChibiOS/os/hal/include/ext.h"
 1001              		.file 15 "/home/dave/r2p-sdk/core/ChibiOS/os/hal/platforms/STM32/ext_lld.h"
 1002              		.file 16 "/home/dave/r2p-sdk/core/ChibiOS/os/hal/include/spi.h"
 1003              		.file 17 "/home/dave/r2p-sdk/core/ChibiOS/os/hal/platforms/STM32/SPIv2/spi_lld.h"
 1004              		.file 18 "/home/dave/r2p-sdk/modules/IMU_module/lsm303d.h"
 1005              		.file 19 "/home/dave/r2p-sdk/core/ChibiOS/os/ports/common/ARMCMx/CMSIS/include/core_cm4.h"