ARM GAS  /tmp/ccjqfgnD.s 			page 1


   1              		.syntax unified
   2              		.cpu cortex-m4
   3              		.eabi_attribute 27, 3
   4              		.eabi_attribute 28, 1
   5              		.fpu fpv4-sp-d16
   6              		.eabi_attribute 20, 1
   7              		.eabi_attribute 21, 1
   8              		.eabi_attribute 23, 3
   9              		.eabi_attribute 24, 1
  10              		.eabi_attribute 25, 1
  11              		.eabi_attribute 26, 1
  12              		.eabi_attribute 30, 6
  13              		.eabi_attribute 34, 1
  14              		.eabi_attribute 18, 4
  15              		.thumb
  16              		.file	"main.cpp"
  17              		.text
  18              	.Ltext0:
  19              		.cfi_sections	.debug_frame
  20              		.section	.text._ZN3r2p10UncopyableD2Ev,"axG",%progbits,_ZN3r2p10UncopyableD5Ev,comdat
  21              		.align	2
  22              		.p2align 4,,15
  23              		.weak	_ZN3r2p10UncopyableD2Ev
  24              		.thumb
  25              		.thumb_func
  26              		.type	_ZN3r2p10UncopyableD2Ev, %function
  27              	_ZN3r2p10UncopyableD2Ev:
  28              	.LFB127:
  29              		.file 1 "/home/dave/r2p-sdk/core/Middleware/include/r2p/Uncopyable.hpp"
  30              		.loc 1 21 0
  31              		.cfi_startproc
  32              		@ args = 0, pretend = 0, frame = 8
  33              		@ frame_needed = 0, uses_anonymous_args = 0
  34              		@ link register save eliminated.
  35 0000 82B0     		sub	sp, sp, #8
  36              		.cfi_def_cfa_offset 8
  37 0002 0190     		str	r0, [sp, #4]
  38              		.loc 1 21 0
  39 0004 019B     		ldr	r3, [sp, #4]
  40 0006 1846     		mov	r0, r3
  41 0008 02B0     		add	sp, sp, #8
  42              		@ sp needed
  43 000a 7047     		bx	lr
  44              		.cfi_endproc
  45              	.LFE127:
  46              		.size	_ZN3r2p10UncopyableD2Ev, .-_ZN3r2p10UncopyableD2Ev
  47              		.weak	_ZN3r2p10UncopyableD1Ev
  48              		.thumb_set _ZN3r2p10UncopyableD1Ev,_ZN3r2p10UncopyableD2Ev
  49 000c AFF30080 		.section	.text._ZN3r2p8SysLock_7acquireEv,"axG",%progbits,_ZN3r2p8SysLock_7acquireEv,comdat
  50              		.align	2
  51              		.p2align 4,,15
  52              		.weak	_ZN3r2p8SysLock_7acquireEv
  53              		.thumb
  54              		.thumb_func
  55              		.type	_ZN3r2p8SysLock_7acquireEv, %function
  56              	_ZN3r2p8SysLock_7acquireEv:
  57              	.LFB129:
ARM GAS  /tmp/ccjqfgnD.s 			page 2


  58              		.file 2 "/home/dave/r2p-sdk/core/Middleware/port/chibios/include/r2p/impl/SysLock_.hpp"
  59              		.loc 2 20 0
  60              		.cfi_startproc
  61              		@ args = 0, pretend = 0, frame = 0
  62              		@ frame_needed = 0, uses_anonymous_args = 0
  63 0000 08B5     		push	{r3, lr}
  64              		.cfi_def_cfa_offset 8
  65              		.cfi_offset 3, -8
  66              		.cfi_offset 14, -4
  67              	.LBB107:
  68              	.LBB108:
  69              	.LBB109:
  70              		.loc 2 22 0
  71 0002 2023     		movs	r3, #32
  72              	@ 22 "/home/dave/r2p-sdk/core/Middleware/port/chibios/include/r2p/impl/SysLock_.hpp" 1
  73 0004 83F31188 		msr     BASEPRI, r3
  74              	@ 0 "" 2
  75              		.thumb
  76              	.LBE109:
  77 0008 FFF7FEFF 		bl	dbg_check_lock
  78              	.LBE108:
  79              	.LBE107:
  80              		.loc 2 23 0
  81 000c 08BD     		pop	{r3, pc}
  82              		.cfi_endproc
  83              	.LFE129:
  84              		.size	_ZN3r2p8SysLock_7acquireEv, .-_ZN3r2p8SysLock_7acquireEv
  85 000e 00BF     		.section	.text._ZN3r2p8SysLock_7releaseEv,"axG",%progbits,_ZN3r2p8SysLock_7releaseEv,comdat
  86              		.align	2
  87              		.p2align 4,,15
  88              		.weak	_ZN3r2p8SysLock_7releaseEv
  89              		.thumb
  90              		.thumb_func
  91              		.type	_ZN3r2p8SysLock_7releaseEv, %function
  92              	_ZN3r2p8SysLock_7releaseEv:
  93              	.LFB130:
  94              		.loc 2 27 0
  95              		.cfi_startproc
  96              		@ args = 0, pretend = 0, frame = 0
  97              		@ frame_needed = 0, uses_anonymous_args = 0
  98 0000 08B5     		push	{r3, lr}
  99              		.cfi_def_cfa_offset 8
 100              		.cfi_offset 3, -8
 101              		.cfi_offset 14, -4
 102              	.LBB110:
 103              	.LBB111:
 104              		.loc 2 29 0
 105 0002 FFF7FEFF 		bl	dbg_check_unlock
 106              	.LBB112:
 107 0006 0023     		movs	r3, #0
 108              	@ 29 "/home/dave/r2p-sdk/core/Middleware/port/chibios/include/r2p/impl/SysLock_.hpp" 1
 109 0008 83F31188 		msr     BASEPRI, r3
 110              	@ 0 "" 2
 111              		.thumb
 112              	.LBE112:
 113              	.LBE111:
 114              	.LBE110:
ARM GAS  /tmp/ccjqfgnD.s 			page 3


 115              		.loc 2 30 0
 116 000c 08BD     		pop	{r3, pc}
 117              		.cfi_endproc
 118              	.LFE130:
 119              		.size	_ZN3r2p8SysLock_7releaseEv, .-_ZN3r2p8SysLock_7releaseEv
 120 000e 00BF     		.section	.text._ZN3r2p7SysLock7acquireEv,"axG",%progbits,_ZN3r2p7SysLock7acquireEv,comdat
 121              		.align	2
 122              		.p2align 4,,15
 123              		.weak	_ZN3r2p7SysLock7acquireEv
 124              		.thumb
 125              		.thumb_func
 126              		.type	_ZN3r2p7SysLock7acquireEv, %function
 127              	_ZN3r2p7SysLock7acquireEv:
 128              	.LFB137:
 129              		.file 3 "/home/dave/r2p-sdk/core/Middleware/include/r2p/SysLock.hpp"
 130              		.loc 3 27 0
 131              		.cfi_startproc
 132              		@ args = 0, pretend = 0, frame = 0
 133              		@ frame_needed = 0, uses_anonymous_args = 0
 134 0000 08B5     		push	{r3, lr}
 135              		.cfi_def_cfa_offset 8
 136              		.cfi_offset 3, -8
 137              		.cfi_offset 14, -4
 138              		.loc 3 29 0
 139 0002 FFF7FEFF 		bl	_ZN3r2p8SysLock_7acquireEv
 140              		.loc 3 30 0
 141 0006 08BD     		pop	{r3, pc}
 142              		.cfi_endproc
 143              	.LFE137:
 144              		.size	_ZN3r2p7SysLock7acquireEv, .-_ZN3r2p7SysLock7acquireEv
 145 0008 AFF30080 		.section	.text._ZN3r2p7SysLock7releaseEv,"axG",%progbits,_ZN3r2p7SysLock7releaseEv,comdat
 145      AFF30080 
 146              		.align	2
 147              		.p2align 4,,15
 148              		.weak	_ZN3r2p7SysLock7releaseEv
 149              		.thumb
 150              		.thumb_func
 151              		.type	_ZN3r2p7SysLock7releaseEv, %function
 152              	_ZN3r2p7SysLock7releaseEv:
 153              	.LFB138:
 154              		.loc 3 34 0
 155              		.cfi_startproc
 156              		@ args = 0, pretend = 0, frame = 0
 157              		@ frame_needed = 0, uses_anonymous_args = 0
 158 0000 08B5     		push	{r3, lr}
 159              		.cfi_def_cfa_offset 8
 160              		.cfi_offset 3, -8
 161              		.cfi_offset 14, -4
 162              		.loc 3 36 0
 163 0002 FFF7FEFF 		bl	_ZN3r2p8SysLock_7releaseEv
 164              		.loc 3 37 0
 165 0006 08BD     		pop	{r3, pc}
 166              		.cfi_endproc
 167              	.LFE138:
 168              		.size	_ZN3r2p7SysLock7releaseEv, .-_ZN3r2p7SysLock7releaseEv
 169 0008 AFF30080 		.section	.text._ZN3r2p11MemoryPool_12alloc_unsafeEv,"axG",%progbits,_ZN3r2p11MemoryPool_12alloc_un
 169      AFF30080 
ARM GAS  /tmp/ccjqfgnD.s 			page 4


 170              		.align	2
 171              		.p2align 4,,15
 172              		.weak	_ZN3r2p11MemoryPool_12alloc_unsafeEv
 173              		.thumb
 174              		.thumb_func
 175              		.type	_ZN3r2p11MemoryPool_12alloc_unsafeEv, %function
 176              	_ZN3r2p11MemoryPool_12alloc_unsafeEv:
 177              	.LFB236:
 178              		.file 4 "/home/dave/r2p-sdk/core/Middleware/port/chibios/include/r2p/impl/MemoryPool_.hpp"
 179              		.loc 4 53 0
 180              		.cfi_startproc
 181              		@ args = 0, pretend = 0, frame = 8
 182              		@ frame_needed = 0, uses_anonymous_args = 0
 183 0000 00B5     		push	{lr}
 184              		.cfi_def_cfa_offset 4
 185              		.cfi_offset 14, -4
 186 0002 83B0     		sub	sp, sp, #12
 187              		.cfi_def_cfa_offset 16
 188 0004 0190     		str	r0, [sp, #4]
 189              		.loc 4 55 0
 190 0006 019B     		ldr	r3, [sp, #4]
 191 0008 1846     		mov	r0, r3
 192 000a FFF7FEFF 		bl	chPoolAllocI
 193 000e 0346     		mov	r3, r0
 194              		.loc 4 56 0
 195 0010 1846     		mov	r0, r3
 196 0012 03B0     		add	sp, sp, #12
 197              		@ sp needed
 198 0014 5DF804FB 		ldr	pc, [sp], #4
 199              		.cfi_endproc
 200              	.LFE236:
 201              		.size	_ZN3r2p11MemoryPool_12alloc_unsafeEv, .-_ZN3r2p11MemoryPool_12alloc_unsafeEv
 202 0018 AFF30080 		.section	.text._ZNK3r2p4Time8to_s_rawEv,"axG",%progbits,_ZNK3r2p4Time8to_s_rawEv,comdat
 202      AFF30080 
 203              		.align	2
 204              		.p2align 4,,15
 205              		.weak	_ZNK3r2p4Time8to_s_rawEv
 206              		.thumb
 207              		.thumb_func
 208              		.type	_ZNK3r2p4Time8to_s_rawEv, %function
 209              	_ZNK3r2p4Time8to_s_rawEv:
 210              	.LFB256:
 211              		.file 5 "/home/dave/r2p-sdk/core/Middleware/include/r2p/Time.hpp"
 212              		.loc 5 89 0
 213              		.cfi_startproc
 214              		@ args = 0, pretend = 0, frame = 8
 215              		@ frame_needed = 0, uses_anonymous_args = 0
 216              		@ link register save eliminated.
 217 0000 82B0     		sub	sp, sp, #8
 218              		.cfi_def_cfa_offset 8
 219 0002 0190     		str	r0, [sp, #4]
 220              		.loc 5 91 0
 221 0004 019B     		ldr	r3, [sp, #4]
 222 0006 1B68     		ldr	r3, [r3]
 223 0008 044A     		ldr	r2, .L12
 224 000a 82FB0312 		smull	r1, r2, r2, r3
 225 000e 9214     		asrs	r2, r2, #18
ARM GAS  /tmp/ccjqfgnD.s 			page 5


 226 0010 DB17     		asrs	r3, r3, #31
 227 0012 D31A     		subs	r3, r2, r3
 228              		.loc 5 92 0
 229 0014 1846     		mov	r0, r3
 230 0016 02B0     		add	sp, sp, #8
 231              		@ sp needed
 232 0018 7047     		bx	lr
 233              	.L13:
 234 001a 00BF     		.align	2
 235              	.L12:
 236 001c 83DE1B43 		.word	1125899907
 237              		.cfi_endproc
 238              	.LFE256:
 239              		.size	_ZNK3r2p4Time8to_s_rawEv, .-_ZNK3r2p4Time8to_s_rawEv
 240              		.section	.text._ZN3r2p4TimeaSERKS0_,"axG",%progbits,_ZN3r2p4TimeaSERKS0_,comdat
 241              		.align	2
 242              		.p2align 4,,15
 243              		.weak	_ZN3r2p4TimeaSERKS0_
 244              		.thumb
 245              		.thumb_func
 246              		.type	_ZN3r2p4TimeaSERKS0_, %function
 247              	_ZN3r2p4TimeaSERKS0_:
 248              	.LFB262:
 249              		.loc 5 131 0
 250              		.cfi_startproc
 251              		@ args = 0, pretend = 0, frame = 8
 252              		@ frame_needed = 0, uses_anonymous_args = 0
 253              		@ link register save eliminated.
 254 0000 82B0     		sub	sp, sp, #8
 255              		.cfi_def_cfa_offset 8
 256 0002 0190     		str	r0, [sp, #4]
 257 0004 0091     		str	r1, [sp]
 258              		.loc 5 133 0
 259 0006 009B     		ldr	r3, [sp]
 260 0008 1A68     		ldr	r2, [r3]
 261 000a 019B     		ldr	r3, [sp, #4]
 262 000c 1A60     		str	r2, [r3]
 263              		.loc 5 134 0
 264 000e 019B     		ldr	r3, [sp, #4]
 265              		.loc 5 135 0
 266 0010 1846     		mov	r0, r3
 267 0012 02B0     		add	sp, sp, #8
 268              		@ sp needed
 269 0014 7047     		bx	lr
 270              		.cfi_endproc
 271              	.LFE262:
 272              		.size	_ZN3r2p4TimeaSERKS0_, .-_ZN3r2p4TimeaSERKS0_
 273 0016 00BFAFF3 		.section	.text._ZN3r2p4Time2msEl,"axG",%progbits,_ZN3r2p4Time2msEl,comdat
 273      0080AFF3 
 273      0080
 274              		.align	2
 275              		.p2align 4,,15
 276              		.weak	_ZN3r2p4Time2msEl
 277              		.thumb
 278              		.thumb_func
 279              		.type	_ZN3r2p4Time2msEl, %function
 280              	_ZN3r2p4Time2msEl:
ARM GAS  /tmp/ccjqfgnD.s 			page 6


 281              	.LFB276:
 282              		.loc 5 184 0
 283              		.cfi_startproc
 284              		@ args = 0, pretend = 0, frame = 8
 285              		@ frame_needed = 0, uses_anonymous_args = 0
 286 0000 00B5     		push	{lr}
 287              		.cfi_def_cfa_offset 4
 288              		.cfi_offset 14, -4
 289 0002 83B0     		sub	sp, sp, #12
 290              		.cfi_def_cfa_offset 16
 291 0004 0190     		str	r0, [sp, #4]
 292 0006 0091     		str	r1, [sp]
 293              		.loc 5 186 0
 294 0008 009B     		ldr	r3, [sp]
 295 000a 4FF47A72 		mov	r2, #1000
 296 000e 02FB03F3 		mul	r3, r2, r3
 297 0012 0198     		ldr	r0, [sp, #4]
 298 0014 1946     		mov	r1, r3
 299 0016 FFF7FEFF 		bl	_ZN3r2p4TimeC1IlEET_
 300              		.loc 5 187 0
 301 001a 0198     		ldr	r0, [sp, #4]
 302 001c 03B0     		add	sp, sp, #12
 303              		@ sp needed
 304 001e 5DF804FB 		ldr	pc, [sp], #4
 305              		.cfi_endproc
 306              	.LFE276:
 307              		.size	_ZN3r2p4Time2msEl, .-_ZN3r2p4Time2msEl
 308 0022 00BFAFF3 		.section	.text._ZN3r2p7Message12reset_unsafeEv,"axG",%progbits,_ZN3r2p7Message12reset_unsafeEv,com
 308      0080AFF3 
 308      0080AFF3 
 308      0080
 309              		.align	2
 310              		.p2align 4,,15
 311              		.weak	_ZN3r2p7Message12reset_unsafeEv
 312              		.thumb
 313              		.thumb_func
 314              		.type	_ZN3r2p7Message12reset_unsafeEv, %function
 315              	_ZN3r2p7Message12reset_unsafeEv:
 316              	.LFB292:
 317              		.file 6 "/home/dave/r2p-sdk/core/Middleware/include/r2p/Message.hpp"
 318              		.loc 6 122 0
 319              		.cfi_startproc
 320              		@ args = 0, pretend = 0, frame = 8
 321              		@ frame_needed = 0, uses_anonymous_args = 0
 322              		@ link register save eliminated.
 323 0000 82B0     		sub	sp, sp, #8
 324              		.cfi_def_cfa_offset 8
 325 0002 0190     		str	r0, [sp, #4]
 326              		.loc 6 127 0
 327 0004 019B     		ldr	r3, [sp, #4]
 328 0006 0022     		movs	r2, #0
 329 0008 1A70     		strb	r2, [r3]
 330 000a 0022     		movs	r2, #0
 331 000c 5A70     		strb	r2, [r3, #1]
 332              		.loc 6 128 0
 333 000e 02B0     		add	sp, sp, #8
 334              		@ sp needed
ARM GAS  /tmp/ccjqfgnD.s 			page 7


 335 0010 7047     		bx	lr
 336              		.cfi_endproc
 337              	.LFE292:
 338              		.size	_ZN3r2p7Message12reset_unsafeEv, .-_ZN3r2p7Message12reset_unsafeEv
 339 0012 00BFAFF3 		.section	.text._ZN3r2p7MessageC2Ev,"axG",%progbits,_ZN3r2p7MessageC5Ev,comdat
 339      0080AFF3 
 339      0080AFF3 
 339      0080
 340              		.align	2
 341              		.p2align 4,,15
 342              		.weak	_ZN3r2p7MessageC2Ev
 343              		.thumb
 344              		.thumb_func
 345              		.type	_ZN3r2p7MessageC2Ev, %function
 346              	_ZN3r2p7MessageC2Ev:
 347              	.LFB294:
 348              		.loc 6 132 0
 349              		.cfi_startproc
 350              		@ args = 0, pretend = 0, frame = 8
 351              		@ frame_needed = 0, uses_anonymous_args = 0
 352              		@ link register save eliminated.
 353 0000 82B0     		sub	sp, sp, #8
 354              		.cfi_def_cfa_offset 8
 355 0002 0190     		str	r0, [sp, #4]
 356              	.LBB113:
 357              		.loc 6 137 0
 358 0004 019B     		ldr	r3, [sp, #4]
 359 0006 0022     		movs	r2, #0
 360 0008 1A70     		strb	r2, [r3]
 361 000a 0022     		movs	r2, #0
 362 000c 5A70     		strb	r2, [r3, #1]
 363              	.LBE113:
 364              		.loc 6 138 0
 365 000e 019B     		ldr	r3, [sp, #4]
 366 0010 1846     		mov	r0, r3
 367 0012 02B0     		add	sp, sp, #8
 368              		@ sp needed
 369 0014 7047     		bx	lr
 370              		.cfi_endproc
 371              	.LFE294:
 372              		.size	_ZN3r2p7MessageC2Ev, .-_ZN3r2p7MessageC2Ev
 373              		.weak	_ZN3r2p7MessageC1Ev
 374              		.thumb_set _ZN3r2p7MessageC1Ev,_ZN3r2p7MessageC2Ev
 375 0016 00BFAFF3 		.section	.rodata
 375      0080AFF3 
 375      0080
 376              		.align	2
 377              	.LC2:
 378 0000 5232505F 		.ascii	"R2P_ASSERT()\000"
 378      41535345 
 378      52542829 
 378      00
 379              		.section	.text._ZN3r2p13BasePublisher12alloc_unsafeERPNS_7MessageE,"axG",%progbits,_ZN3r2p13BasePu
 380              		.align	2
 381              		.p2align 4,,15
 382              		.weak	_ZN3r2p13BasePublisher12alloc_unsafeERPNS_7MessageE
 383              		.thumb
ARM GAS  /tmp/ccjqfgnD.s 			page 8


 384              		.thumb_func
 385              		.type	_ZN3r2p13BasePublisher12alloc_unsafeERPNS_7MessageE, %function
 386              	_ZN3r2p13BasePublisher12alloc_unsafeERPNS_7MessageE:
 387              	.LFB303:
 388              		.file 7 "/home/dave/r2p-sdk/core/Middleware/include/r2p/BasePublisher.hpp"
 389              		.loc 7 64 0
 390              		.cfi_startproc
 391              		@ args = 0, pretend = 0, frame = 8
 392              		@ frame_needed = 0, uses_anonymous_args = 0
 393 0000 00B5     		push	{lr}
 394              		.cfi_def_cfa_offset 4
 395              		.cfi_offset 14, -4
 396 0002 83B0     		sub	sp, sp, #12
 397              		.cfi_def_cfa_offset 16
 398 0004 0190     		str	r0, [sp, #4]
 399 0006 0091     		str	r1, [sp]
 400              		.loc 7 66 0
 401 0008 019B     		ldr	r3, [sp, #4]
 402 000a 5B68     		ldr	r3, [r3, #4]
 403 000c 002B     		cmp	r3, #0
 404 000e 02D1     		bne	.L23
 405              		.loc 7 66 0 is_stmt 0 discriminator 1
 406 0010 0A48     		ldr	r0, .L25
 407 0012 FFF7FEFF 		bl	chDbgPanic
 408              	.L23:
 409              		.loc 7 68 0 is_stmt 1
 410 0016 019B     		ldr	r3, [sp, #4]
 411 0018 5B68     		ldr	r3, [r3, #4]
 412 001a 1846     		mov	r0, r3
 413 001c FFF7FEFF 		bl	_ZN3r2p5Topic12alloc_unsafeEv
 414 0020 0246     		mov	r2, r0
 415 0022 009B     		ldr	r3, [sp]
 416 0024 1A60     		str	r2, [r3]
 417              		.loc 7 69 0
 418 0026 009B     		ldr	r3, [sp]
 419 0028 1B68     		ldr	r3, [r3]
 420 002a 002B     		cmp	r3, #0
 421 002c 0CBF     		ite	eq
 422 002e 0023     		moveq	r3, #0
 423 0030 0123     		movne	r3, #1
 424 0032 DBB2     		uxtb	r3, r3
 425              		.loc 7 70 0
 426 0034 1846     		mov	r0, r3
 427 0036 03B0     		add	sp, sp, #12
 428              		@ sp needed
 429 0038 5DF804FB 		ldr	pc, [sp], #4
 430              	.L26:
 431              		.align	2
 432              	.L25:
 433 003c 00000000 		.word	.LC2
 434              		.cfi_endproc
 435              	.LFE303:
 436              		.size	_ZN3r2p13BasePublisher12alloc_unsafeERPNS_7MessageE, .-_ZN3r2p13BasePublisher12alloc_unsafeE
 437              		.section	.text._ZN3r2p13BasePublisher5allocERPNS_7MessageE,"axG",%progbits,_ZN3r2p13BasePublisher5
 438              		.align	2
 439              		.p2align 4,,15
 440              		.weak	_ZN3r2p13BasePublisher5allocERPNS_7MessageE
ARM GAS  /tmp/ccjqfgnD.s 			page 9


 441              		.thumb
 442              		.thumb_func
 443              		.type	_ZN3r2p13BasePublisher5allocERPNS_7MessageE, %function
 444              	_ZN3r2p13BasePublisher5allocERPNS_7MessageE:
 445              	.LFB304:
 446              		.loc 7 74 0
 447              		.cfi_startproc
 448              		@ args = 0, pretend = 0, frame = 16
 449              		@ frame_needed = 0, uses_anonymous_args = 0
 450 0000 00B5     		push	{lr}
 451              		.cfi_def_cfa_offset 4
 452              		.cfi_offset 14, -4
 453 0002 85B0     		sub	sp, sp, #20
 454              		.cfi_def_cfa_offset 24
 455 0004 0190     		str	r0, [sp, #4]
 456 0006 0091     		str	r1, [sp]
 457              	.LBB114:
 458              		.loc 7 76 0
 459 0008 FFF7FEFF 		bl	_ZN3r2p7SysLock7acquireEv
 460              		.loc 7 77 0
 461 000c 0198     		ldr	r0, [sp, #4]
 462 000e 0099     		ldr	r1, [sp]
 463 0010 FFF7FEFF 		bl	_ZN3r2p13BasePublisher12alloc_unsafeERPNS_7MessageE
 464 0014 0346     		mov	r3, r0
 465 0016 8DF80F30 		strb	r3, [sp, #15]
 466              		.loc 7 78 0
 467 001a FFF7FEFF 		bl	_ZN3r2p7SysLock7releaseEv
 468              		.loc 7 79 0
 469 001e 9DF80F30 		ldrb	r3, [sp, #15]	@ zero_extendqisi2
 470              	.LBE114:
 471              		.loc 7 80 0
 472 0022 1846     		mov	r0, r3
 473 0024 05B0     		add	sp, sp, #20
 474              		@ sp needed
 475 0026 5DF804FB 		ldr	pc, [sp], #4
 476              		.cfi_endproc
 477              	.LFE304:
 478              		.size	_ZN3r2p13BasePublisher5allocERPNS_7MessageE, .-_ZN3r2p13BasePublisher5allocERPNS_7MessageE
 479 002a 00BFAFF3 		.section	.text._ZN3r2p7Thread_11create_heapEPvjmPFlS1_ES1_PKc,"axG",%progbits,_ZN3r2p7Thread_11cre
 479      0080
 480              		.align	2
 481              		.p2align 4,,15
 482              		.weak	_ZN3r2p7Thread_11create_heapEPvjmPFlS1_ES1_PKc
 483              		.thumb
 484              		.thumb_func
 485              		.type	_ZN3r2p7Thread_11create_heapEPvjmPFlS1_ES1_PKc, %function
 486              	_ZN3r2p7Thread_11create_heapEPvjmPFlS1_ES1_PKc:
 487              	.LFB334:
 488              		.file 8 "/home/dave/r2p-sdk/core/Middleware/port/chibios/include/r2p/impl/Thread_.hpp"
 489              		.loc 8 115 0
 490              		.cfi_startproc
 491              		@ args = 8, pretend = 0, frame = 24
 492              		@ frame_needed = 0, uses_anonymous_args = 0
 493 0000 00B5     		push	{lr}
 494              		.cfi_def_cfa_offset 4
 495              		.cfi_offset 14, -4
 496 0002 89B0     		sub	sp, sp, #36
ARM GAS  /tmp/ccjqfgnD.s 			page 10


 497              		.cfi_def_cfa_offset 40
 498 0004 0590     		str	r0, [sp, #20]
 499 0006 0491     		str	r1, [sp, #16]
 500 0008 0392     		str	r2, [sp, #12]
 501 000a 0293     		str	r3, [sp, #8]
 502              	.LBB115:
 503              		.loc 8 120 0
 504 000c 0A9B     		ldr	r3, [sp, #40]
 505 000e 0093     		str	r3, [sp]
 506 0010 0598     		ldr	r0, [sp, #20]
 507 0012 0499     		ldr	r1, [sp, #16]
 508 0014 039A     		ldr	r2, [sp, #12]
 509 0016 029B     		ldr	r3, [sp, #8]
 510 0018 FFF7FEFF 		bl	chThdCreateFromHeap
 511 001c 0790     		str	r0, [sp, #28]
 512              		.loc 8 122 0
 513 001e 079B     		ldr	r3, [sp, #28]
 514 0020 002B     		cmp	r3, #0
 515 0022 02D0     		beq	.L30
 516              		.loc 8 123 0
 517 0024 079B     		ldr	r3, [sp, #28]
 518 0026 0B9A     		ldr	r2, [sp, #44]
 519 0028 9A61     		str	r2, [r3, #24]
 520              	.L30:
 521              		.loc 8 128 0
 522 002a 079B     		ldr	r3, [sp, #28]
 523              	.LBE115:
 524              		.loc 8 129 0
 525 002c 1846     		mov	r0, r3
 526 002e 09B0     		add	sp, sp, #36
 527              		@ sp needed
 528 0030 5DF804FB 		ldr	pc, [sp], #4
 529              		.cfi_endproc
 530              	.LFE334:
 531              		.size	_ZN3r2p7Thread_11create_heapEPvjmPFlS1_ES1_PKc, .-_ZN3r2p7Thread_11create_heapEPvjmPFlS1_ES1
 532 0034 AFF30080 		.section	.text._ZN3r2p7Thread_5sleepERKNS_4TimeE,"axG",%progbits,_ZN3r2p7Thread_5sleepERKNS_4TimeE
 532      AFF30080 
 532      AFF30080 
 533              		.align	2
 534              		.p2align 4,,15
 535              		.weak	_ZN3r2p7Thread_5sleepERKNS_4TimeE
 536              		.thumb
 537              		.thumb_func
 538              		.type	_ZN3r2p7Thread_5sleepERKNS_4TimeE, %function
 539              	_ZN3r2p7Thread_5sleepERKNS_4TimeE:
 540              	.LFB340:
 541              		.loc 8 180 0
 542              		.cfi_startproc
 543              		@ args = 0, pretend = 0, frame = 8
 544              		@ frame_needed = 0, uses_anonymous_args = 0
 545 0000 00B5     		push	{lr}
 546              		.cfi_def_cfa_offset 4
 547              		.cfi_offset 14, -4
 548 0002 83B0     		sub	sp, sp, #12
 549              		.cfi_def_cfa_offset 16
 550 0004 0190     		str	r0, [sp, #4]
 551              		.loc 8 182 0
ARM GAS  /tmp/ccjqfgnD.s 			page 11


 552 0006 019B     		ldr	r3, [sp, #4]
 553 0008 1B68     		ldr	r3, [r3]
 554 000a 002B     		cmp	r3, #0
 555 000c 20DD     		ble	.L33
 556              		.loc 8 183 0
 557 000e 019B     		ldr	r3, [sp, #4]
 558 0010 1A68     		ldr	r2, [r3]
 559 0012 124B     		ldr	r3, .L37
 560 0014 9A42     		cmp	r2, r3
 561 0016 0FDC     		bgt	.L34
 562              		.loc 8 184 0
 563 0018 019B     		ldr	r3, [sp, #4]
 564 001a 1B68     		ldr	r3, [r3]
 565 001c 4FF47A72 		mov	r2, #1000
 566 0020 02FB03F3 		mul	r3, r2, r3
 567 0024 5A1E     		subs	r2, r3, #1
 568 0026 0E4B     		ldr	r3, .L37+4
 569 0028 A3FB0213 		umull	r1, r3, r3, r2
 570 002c 9B0C     		lsrs	r3, r3, #18
 571 002e 0133     		adds	r3, r3, #1
 572 0030 1846     		mov	r0, r3
 573 0032 FFF7FEFF 		bl	chThdSleep
 574 0036 0DE0     		b	.L32
 575              	.L34:
 576              		.loc 8 186 0
 577 0038 0198     		ldr	r0, [sp, #4]
 578 003a FFF7FEFF 		bl	_ZNK3r2p4Time8to_s_rawEv
 579 003e 0346     		mov	r3, r0
 580 0040 4FF47A72 		mov	r2, #1000
 581 0044 02FB03F3 		mul	r3, r2, r3
 582 0048 1846     		mov	r0, r3
 583 004a FFF7FEFF 		bl	chThdSleep
 584 004e 01E0     		b	.L32
 585              	.L33:
 586              		.loc 8 189 0
 587 0050 FFF7FEFF 		bl	chThdYield
 588              	.L32:
 589              		.loc 8 191 0
 590 0054 03B0     		add	sp, sp, #12
 591              		@ sp needed
 592 0056 5DF804FB 		ldr	pc, [sp], #4
 593              	.L38:
 594 005a 00BF     		.align	2
 595              	.L37:
 596 005c 3F420F00 		.word	999999
 597 0060 83DE1B43 		.word	1125899907
 598              		.cfi_endproc
 599              	.LFE340:
 600              		.size	_ZN3r2p7Thread_5sleepERKNS_4TimeE, .-_ZN3r2p7Thread_5sleepERKNS_4TimeE
 601 0064 AFF30080 		.section	.text._ZN3r2p6Thread11create_heapEPvjmPFlS1_ES1_PKc,"axG",%progbits,_ZN3r2p6Thread11creat
 601      AFF30080 
 601      AFF30080 
 602              		.align	2
 603              		.p2align 4,,15
 604              		.weak	_ZN3r2p6Thread11create_heapEPvjmPFlS1_ES1_PKc
 605              		.thumb
 606              		.thumb_func
ARM GAS  /tmp/ccjqfgnD.s 			page 12


 607              		.type	_ZN3r2p6Thread11create_heapEPvjmPFlS1_ES1_PKc, %function
 608              	_ZN3r2p6Thread11create_heapEPvjmPFlS1_ES1_PKc:
 609              	.LFB345:
 610              		.file 9 "/home/dave/r2p-sdk/core/Middleware/include/r2p/Thread.hpp"
 611              		.loc 9 92 0
 612              		.cfi_startproc
 613              		@ args = 8, pretend = 0, frame = 16
 614              		@ frame_needed = 0, uses_anonymous_args = 0
 615 0000 00B5     		push	{lr}
 616              		.cfi_def_cfa_offset 4
 617              		.cfi_offset 14, -4
 618 0002 87B0     		sub	sp, sp, #28
 619              		.cfi_def_cfa_offset 32
 620 0004 0590     		str	r0, [sp, #20]
 621 0006 0491     		str	r1, [sp, #16]
 622 0008 0392     		str	r2, [sp, #12]
 623 000a 0293     		str	r3, [sp, #8]
 624              		.loc 9 96 0
 625 000c 089B     		ldr	r3, [sp, #32]
 626 000e 0093     		str	r3, [sp]
 627 0010 099B     		ldr	r3, [sp, #36]
 628 0012 0193     		str	r3, [sp, #4]
 629 0014 0598     		ldr	r0, [sp, #20]
 630 0016 0499     		ldr	r1, [sp, #16]
 631 0018 039A     		ldr	r2, [sp, #12]
 632 001a 029B     		ldr	r3, [sp, #8]
 633 001c FFF7FEFF 		bl	_ZN3r2p7Thread_11create_heapEPvjmPFlS1_ES1_PKc
 634 0020 0346     		mov	r3, r0
 635              		.loc 9 97 0
 636 0022 1846     		mov	r0, r3
 637 0024 07B0     		add	sp, sp, #28
 638              		@ sp needed
 639 0026 5DF804FB 		ldr	pc, [sp], #4
 640              		.cfi_endproc
 641              	.LFE345:
 642              		.size	_ZN3r2p6Thread11create_heapEPvjmPFlS1_ES1_PKc, .-_ZN3r2p6Thread11create_heapEPvjmPFlS1_ES1_P
 643 002a 00BFAFF3 		.section	.text._ZN3r2p6Thread5sleepERKNS_4TimeE,"axG",%progbits,_ZN3r2p6Thread5sleepERKNS_4TimeE,c
 643      0080
 644              		.align	2
 645              		.p2align 4,,15
 646              		.weak	_ZN3r2p6Thread5sleepERKNS_4TimeE
 647              		.thumb
 648              		.thumb_func
 649              		.type	_ZN3r2p6Thread5sleepERKNS_4TimeE, %function
 650              	_ZN3r2p6Thread5sleepERKNS_4TimeE:
 651              	.LFB351:
 652              		.loc 9 140 0
 653              		.cfi_startproc
 654              		@ args = 0, pretend = 0, frame = 8
 655              		@ frame_needed = 0, uses_anonymous_args = 0
 656 0000 00B5     		push	{lr}
 657              		.cfi_def_cfa_offset 4
 658              		.cfi_offset 14, -4
 659 0002 83B0     		sub	sp, sp, #12
 660              		.cfi_def_cfa_offset 16
 661 0004 0190     		str	r0, [sp, #4]
 662              		.loc 9 142 0
ARM GAS  /tmp/ccjqfgnD.s 			page 13


 663 0006 0198     		ldr	r0, [sp, #4]
 664 0008 FFF7FEFF 		bl	_ZN3r2p7Thread_5sleepERKNS_4TimeE
 665              		.loc 9 143 0
 666 000c 03B0     		add	sp, sp, #12
 667              		@ sp needed
 668 000e 5DF804FB 		ldr	pc, [sp], #4
 669              		.cfi_endproc
 670              	.LFE351:
 671              		.size	_ZN3r2p6Thread5sleepERKNS_4TimeE, .-_ZN3r2p6Thread5sleepERKNS_4TimeE
 672 0012 00BFAFF3 		.section	.text._ZNK3r2p10SpinEvent_10get_threadEv,"axG",%progbits,_ZNK3r2p10SpinEvent_10get_thread
 672      0080AFF3 
 672      0080AFF3 
 672      0080
 673              		.align	2
 674              		.p2align 4,,15
 675              		.weak	_ZNK3r2p10SpinEvent_10get_threadEv
 676              		.thumb
 677              		.thumb_func
 678              		.type	_ZNK3r2p10SpinEvent_10get_threadEv, %function
 679              	_ZNK3r2p10SpinEvent_10get_threadEv:
 680              	.LFB353:
 681              		.file 10 "/home/dave/r2p-sdk/core/Middleware/port/chibios/include/r2p/impl/SpinEvent_.hpp"
 682              		.loc 10 36 0
 683              		.cfi_startproc
 684              		@ args = 0, pretend = 0, frame = 8
 685              		@ frame_needed = 0, uses_anonymous_args = 0
 686              		@ link register save eliminated.
 687 0000 82B0     		sub	sp, sp, #8
 688              		.cfi_def_cfa_offset 8
 689 0002 0190     		str	r0, [sp, #4]
 690              		.loc 10 38 0
 691 0004 019B     		ldr	r3, [sp, #4]
 692 0006 1B68     		ldr	r3, [r3]
 693              		.loc 10 39 0
 694 0008 1846     		mov	r0, r3
 695 000a 02B0     		add	sp, sp, #8
 696              		@ sp needed
 697 000c 7047     		bx	lr
 698              		.cfi_endproc
 699              	.LFE353:
 700              		.size	_ZNK3r2p10SpinEvent_10get_threadEv, .-_ZNK3r2p10SpinEvent_10get_threadEv
 701 000e 00BF     		.section	.text._ZN3r2p10SpinEvent_13signal_unsafeEj,"axG",%progbits,_ZN3r2p10SpinEvent_13signal_un
 702              		.align	2
 703              		.p2align 4,,15
 704              		.weak	_ZN3r2p10SpinEvent_13signal_unsafeEj
 705              		.thumb
 706              		.thumb_func
 707              		.type	_ZN3r2p10SpinEvent_13signal_unsafeEj, %function
 708              	_ZN3r2p10SpinEvent_13signal_unsafeEj:
 709              	.LFB355:
 710              		.loc 10 50 0
 711              		.cfi_startproc
 712              		@ args = 0, pretend = 0, frame = 8
 713              		@ frame_needed = 0, uses_anonymous_args = 0
 714 0000 00B5     		push	{lr}
 715              		.cfi_def_cfa_offset 4
 716              		.cfi_offset 14, -4
ARM GAS  /tmp/ccjqfgnD.s 			page 14


 717 0002 83B0     		sub	sp, sp, #12
 718              		.cfi_def_cfa_offset 16
 719 0004 0190     		str	r0, [sp, #4]
 720 0006 0091     		str	r1, [sp]
 721              		.loc 10 52 0
 722 0008 019B     		ldr	r3, [sp, #4]
 723 000a 1B68     		ldr	r3, [r3]
 724 000c 002B     		cmp	r3, #0
 725 000e 10D0     		beq	.L44
 726              		.loc 10 53 0
 727 0010 2022     		movs	r2, #32
 728 0012 009B     		ldr	r3, [sp]
 729 0014 9A42     		cmp	r2, r3
 730 0016 02D8     		bhi	.L46
 731              		.loc 10 53 0 is_stmt 0 discriminator 1
 732 0018 0748     		ldr	r0, .L47
 733 001a FFF7FEFF 		bl	chDbgPanic
 734              	.L46:
 735              		.loc 10 54 0 is_stmt 1 discriminator 1
 736 001e 019B     		ldr	r3, [sp, #4]
 737 0020 1A68     		ldr	r2, [r3]
 738 0022 009B     		ldr	r3, [sp]
 739 0024 0121     		movs	r1, #1
 740 0026 01FA03F3 		lsl	r3, r1, r3
 741 002a 1046     		mov	r0, r2
 742 002c 1946     		mov	r1, r3
 743 002e FFF7FEFF 		bl	chEvtSignalI
 744              	.L44:
 745              		.loc 10 56 0
 746 0032 03B0     		add	sp, sp, #12
 747              		@ sp needed
 748 0034 5DF804FB 		ldr	pc, [sp], #4
 749              	.L48:
 750              		.align	2
 751              	.L47:
 752 0038 00000000 		.word	.LC2
 753              		.cfi_endproc
 754              	.LFE355:
 755              		.size	_ZN3r2p10SpinEvent_13signal_unsafeEj, .-_ZN3r2p10SpinEvent_13signal_unsafeEj
 756 003c AFF30080 		.section	.text._ZNK3r2p9SpinEvent10get_threadEv,"axG",%progbits,_ZNK3r2p9SpinEvent10get_threadEv,c
 757              		.align	2
 758              		.p2align 4,,15
 759              		.weak	_ZNK3r2p9SpinEvent10get_threadEv
 760              		.thumb
 761              		.thumb_func
 762              		.type	_ZNK3r2p9SpinEvent10get_threadEv, %function
 763              	_ZNK3r2p9SpinEvent10get_threadEv:
 764              	.LFB361:
 765              		.file 11 "/home/dave/r2p-sdk/core/Middleware/include/r2p/SpinEvent.hpp"
 766              		.loc 11 35 0
 767              		.cfi_startproc
 768              		@ args = 0, pretend = 0, frame = 8
 769              		@ frame_needed = 0, uses_anonymous_args = 0
 770 0000 00B5     		push	{lr}
 771              		.cfi_def_cfa_offset 4
 772              		.cfi_offset 14, -4
 773 0002 83B0     		sub	sp, sp, #12
ARM GAS  /tmp/ccjqfgnD.s 			page 15


 774              		.cfi_def_cfa_offset 16
 775 0004 0190     		str	r0, [sp, #4]
 776              		.loc 11 37 0
 777 0006 019B     		ldr	r3, [sp, #4]
 778 0008 1846     		mov	r0, r3
 779 000a FFF7FEFF 		bl	_ZNK3r2p10SpinEvent_10get_threadEv
 780 000e 0346     		mov	r3, r0
 781              		.loc 11 38 0
 782 0010 1846     		mov	r0, r3
 783 0012 03B0     		add	sp, sp, #12
 784              		@ sp needed
 785 0014 5DF804FB 		ldr	pc, [sp], #4
 786              		.cfi_endproc
 787              	.LFE361:
 788              		.size	_ZNK3r2p9SpinEvent10get_threadEv, .-_ZNK3r2p9SpinEvent10get_threadEv
 789 0018 AFF30080 		.section	.text._ZN3r2p9SpinEvent13signal_unsafeEj,"axG",%progbits,_ZN3r2p9SpinEvent13signal_unsafe
 789      AFF30080 
 790              		.align	2
 791              		.p2align 4,,15
 792              		.weak	_ZN3r2p9SpinEvent13signal_unsafeEj
 793              		.thumb
 794              		.thumb_func
 795              		.type	_ZN3r2p9SpinEvent13signal_unsafeEj, %function
 796              	_ZN3r2p9SpinEvent13signal_unsafeEj:
 797              	.LFB363:
 798              		.loc 11 49 0
 799              		.cfi_startproc
 800              		@ args = 0, pretend = 0, frame = 8
 801              		@ frame_needed = 0, uses_anonymous_args = 0
 802 0000 00B5     		push	{lr}
 803              		.cfi_def_cfa_offset 4
 804              		.cfi_offset 14, -4
 805 0002 83B0     		sub	sp, sp, #12
 806              		.cfi_def_cfa_offset 16
 807 0004 0190     		str	r0, [sp, #4]
 808 0006 0091     		str	r1, [sp]
 809              		.loc 11 51 0
 810 0008 019B     		ldr	r3, [sp, #4]
 811 000a 1846     		mov	r0, r3
 812 000c 0099     		ldr	r1, [sp]
 813 000e FFF7FEFF 		bl	_ZN3r2p10SpinEvent_13signal_unsafeEj
 814              		.loc 11 52 0
 815 0012 03B0     		add	sp, sp, #12
 816              		@ sp needed
 817 0014 5DF804FB 		ldr	pc, [sp], #4
 818              		.cfi_endproc
 819              	.LFE363:
 820              		.size	_ZN3r2p9SpinEvent13signal_unsafeEj, .-_ZN3r2p9SpinEvent13signal_unsafeEj
 821 0018 AFF30080 		.section	.text._ZNK3r2p4Node11get_enabledEv,"axG",%progbits,_ZNK3r2p4Node11get_enabledEv,comdat
 821      AFF30080 
 822              		.align	2
 823              		.p2align 4,,15
 824              		.weak	_ZNK3r2p4Node11get_enabledEv
 825              		.thumb
 826              		.thumb_func
 827              		.type	_ZNK3r2p4Node11get_enabledEv, %function
 828              	_ZNK3r2p4Node11get_enabledEv:
ARM GAS  /tmp/ccjqfgnD.s 			page 16


 829              	.LFB380:
 830              		.file 12 "/home/dave/r2p-sdk/core/Middleware/include/r2p/Node.hpp"
 831              		.loc 12 103 0
 832              		.cfi_startproc
 833              		@ args = 0, pretend = 0, frame = 8
 834              		@ frame_needed = 0, uses_anonymous_args = 0
 835 0000 00B5     		push	{lr}
 836              		.cfi_def_cfa_offset 4
 837              		.cfi_offset 14, -4
 838 0002 83B0     		sub	sp, sp, #12
 839              		.cfi_def_cfa_offset 16
 840 0004 0190     		str	r0, [sp, #4]
 841              		.loc 12 105 0
 842 0006 019B     		ldr	r3, [sp, #4]
 843 0008 0C33     		adds	r3, r3, #12
 844 000a 1846     		mov	r0, r3
 845 000c FFF7FEFF 		bl	_ZNK3r2p9SpinEvent10get_threadEv
 846 0010 0346     		mov	r3, r0
 847 0012 002B     		cmp	r3, #0
 848 0014 0CBF     		ite	eq
 849 0016 0023     		moveq	r3, #0
 850 0018 0123     		movne	r3, #1
 851 001a DBB2     		uxtb	r3, r3
 852              		.loc 12 106 0
 853 001c 1846     		mov	r0, r3
 854 001e 03B0     		add	sp, sp, #12
 855              		@ sp needed
 856 0020 5DF804FB 		ldr	pc, [sp], #4
 857              		.cfi_endproc
 858              	.LFE380:
 859              		.size	_ZNK3r2p4Node11get_enabledEv, .-_ZNK3r2p4Node11get_enabledEv
 860 0024 AFF30080 		.section	.text._ZN3r2p4Node13notify_unsafeEj,"axG",%progbits,_ZN3r2p4Node13notify_unsafeEj,comdat
 860      AFF30080 
 860      AFF30080 
 861              		.align	2
 862              		.p2align 4,,15
 863              		.weak	_ZN3r2p4Node13notify_unsafeEj
 864              		.thumb
 865              		.thumb_func
 866              		.type	_ZN3r2p4Node13notify_unsafeEj, %function
 867              	_ZN3r2p4Node13notify_unsafeEj:
 868              	.LFB385:
 869              		.loc 12 140 0
 870              		.cfi_startproc
 871              		@ args = 0, pretend = 0, frame = 8
 872              		@ frame_needed = 0, uses_anonymous_args = 0
 873 0000 00B5     		push	{lr}
 874              		.cfi_def_cfa_offset 4
 875              		.cfi_offset 14, -4
 876 0002 83B0     		sub	sp, sp, #12
 877              		.cfi_def_cfa_offset 16
 878 0004 0190     		str	r0, [sp, #4]
 879 0006 0091     		str	r1, [sp]
 880              		.loc 12 142 0
 881 0008 019B     		ldr	r3, [sp, #4]
 882 000a 0C33     		adds	r3, r3, #12
 883 000c 1846     		mov	r0, r3
ARM GAS  /tmp/ccjqfgnD.s 			page 17


 884 000e 0099     		ldr	r1, [sp]
 885 0010 FFF7FEFF 		bl	_ZN3r2p9SpinEvent13signal_unsafeEj
 886              		.loc 12 143 0
 887 0014 03B0     		add	sp, sp, #12
 888              		@ sp needed
 889 0016 5DF804FB 		ldr	pc, [sp], #4
 890              		.cfi_endproc
 891              	.LFE385:
 892              		.size	_ZN3r2p4Node13notify_unsafeEj, .-_ZN3r2p4Node13notify_unsafeEj
 893 001a 00BFAFF3 		.section	.text._ZNK3r2p15LocalSubscriber16get_queue_lengthEv,"axG",%progbits,_ZNK3r2p15LocalSubscr
 893      0080
 894              		.align	2
 895              		.p2align 4,,15
 896              		.weak	_ZNK3r2p15LocalSubscriber16get_queue_lengthEv
 897              		.thumb
 898              		.thumb_func
 899              		.type	_ZNK3r2p15LocalSubscriber16get_queue_lengthEv, %function
 900              	_ZNK3r2p15LocalSubscriber16get_queue_lengthEv:
 901              	.LFB391:
 902              		.file 13 "/home/dave/r2p-sdk/core/Middleware/include/r2p/LocalSubscriber.hpp"
 903              		.loc 13 64 0
 904              		.cfi_startproc
 905              		@ args = 0, pretend = 0, frame = 8
 906              		@ frame_needed = 0, uses_anonymous_args = 0
 907 0000 00B5     		push	{lr}
 908              		.cfi_def_cfa_offset 4
 909              		.cfi_offset 14, -4
 910 0002 83B0     		sub	sp, sp, #12
 911              		.cfi_def_cfa_offset 16
 912 0004 0190     		str	r0, [sp, #4]
 913              		.loc 13 66 0
 914 0006 019B     		ldr	r3, [sp, #4]
 915 0008 1033     		adds	r3, r3, #16
 916 000a 1846     		mov	r0, r3
 917 000c FFF7FEFF 		bl	_ZNK3r2p10ArrayQueueIPNS_7MessageEE10get_lengthEv
 918 0010 0346     		mov	r3, r0
 919              		.loc 13 67 0
 920 0012 1846     		mov	r0, r3
 921 0014 03B0     		add	sp, sp, #12
 922              		@ sp needed
 923 0016 5DF804FB 		ldr	pc, [sp], #4
 924              		.cfi_endproc
 925              	.LFE391:
 926              		.size	_ZNK3r2p15LocalSubscriber16get_queue_lengthEv, .-_ZNK3r2p15LocalSubscriber16get_queue_length
 927 001a 00BFAFF3 		.section	.text._ZN3r2p15LocalSubscriber12fetch_unsafeERPNS_7MessageERNS_4TimeE,"axG",%progbits,_ZN
 927      0080
 928              		.align	2
 929              		.p2align 4,,15
 930              		.weak	_ZN3r2p15LocalSubscriber12fetch_unsafeERPNS_7MessageERNS_4TimeE
 931              		.thumb
 932              		.thumb_func
 933              		.type	_ZN3r2p15LocalSubscriber12fetch_unsafeERPNS_7MessageERNS_4TimeE, %function
 934              	_ZN3r2p15LocalSubscriber12fetch_unsafeERPNS_7MessageERNS_4TimeE:
 935              	.LFB392:
 936              		.loc 13 71 0
 937              		.cfi_startproc
 938              		@ args = 0, pretend = 0, frame = 24
ARM GAS  /tmp/ccjqfgnD.s 			page 18


 939              		@ frame_needed = 0, uses_anonymous_args = 0
 940 0000 00B5     		push	{lr}
 941              		.cfi_def_cfa_offset 4
 942              		.cfi_offset 14, -4
 943 0002 87B0     		sub	sp, sp, #28
 944              		.cfi_def_cfa_offset 32
 945 0004 0390     		str	r0, [sp, #12]
 946 0006 0291     		str	r1, [sp, #8]
 947 0008 0192     		str	r2, [sp, #4]
 948              		.loc 13 73 0
 949 000a 039B     		ldr	r3, [sp, #12]
 950 000c 1033     		adds	r3, r3, #16
 951 000e 1846     		mov	r0, r3
 952 0010 0299     		ldr	r1, [sp, #8]
 953 0012 FFF7FEFF 		bl	_ZN3r2p10ArrayQueueIPNS_7MessageEE12fetch_unsafeERS2_
 954 0016 0346     		mov	r3, r0
 955 0018 002B     		cmp	r3, #0
 956 001a 0AD0     		beq	.L58
 957              		.loc 13 74 0
 958 001c 05AB     		add	r3, sp, #20
 959 001e 1846     		mov	r0, r3
 960 0020 FFF7FEFF 		bl	_ZN3r2p4Time3nowEv
 961 0024 05AB     		add	r3, sp, #20
 962 0026 0198     		ldr	r0, [sp, #4]
 963 0028 1946     		mov	r1, r3
 964 002a FFF7FEFF 		bl	_ZN3r2p4TimeaSERKS0_
 965              		.loc 13 75 0
 966 002e 0123     		movs	r3, #1
 967 0030 00E0     		b	.L59
 968              	.L58:
 969              		.loc 13 77 0
 970 0032 0023     		movs	r3, #0
 971              	.L59:
 972              		.loc 13 78 0
 973 0034 1846     		mov	r0, r3
 974 0036 07B0     		add	sp, sp, #28
 975              		@ sp needed
 976 0038 5DF804FB 		ldr	pc, [sp], #4
 977              		.cfi_endproc
 978              	.LFE392:
 979              		.size	_ZN3r2p15LocalSubscriber12fetch_unsafeERPNS_7MessageERNS_4TimeE, .-_ZN3r2p15LocalSubscriber1
 980 003c AFF30080 		.section	.text._ZN3r2p15LocalSubscriber13notify_unsafeERNS_7MessageERKNS_4TimeE,"axG",%progbits,_Z
 981              		.align	2
 982              		.p2align 4,,15
 983              		.weak	_ZN3r2p15LocalSubscriber13notify_unsafeERNS_7MessageERKNS_4TimeE
 984              		.thumb
 985              		.thumb_func
 986              		.type	_ZN3r2p15LocalSubscriber13notify_unsafeERNS_7MessageERKNS_4TimeE, %function
 987              	_ZN3r2p15LocalSubscriber13notify_unsafeERNS_7MessageERKNS_4TimeE:
 988              	.LFB393:
 989              		.loc 13 82 0
 990              		.cfi_startproc
 991              		@ args = 0, pretend = 0, frame = 16
 992              		@ frame_needed = 0, uses_anonymous_args = 0
 993 0000 00B5     		push	{lr}
 994              		.cfi_def_cfa_offset 4
 995              		.cfi_offset 14, -4
ARM GAS  /tmp/ccjqfgnD.s 			page 19


 996 0002 85B0     		sub	sp, sp, #20
 997              		.cfi_def_cfa_offset 24
 998 0004 0390     		str	r0, [sp, #12]
 999 0006 0291     		str	r1, [sp, #8]
 1000 0008 0192     		str	r2, [sp, #4]
 1001              		.loc 13 86 0
 1002 000a 039B     		ldr	r3, [sp, #12]
 1003 000c 9B68     		ldr	r3, [r3, #8]
 1004 000e 1846     		mov	r0, r3
 1005 0010 FFF7FEFF 		bl	_ZNK3r2p4Node11get_enabledEv
 1006 0014 0346     		mov	r3, r0
 1007 0016 002B     		cmp	r3, #0
 1008 0018 0AD0     		beq	.L61
 1009              		.loc 13 86 0 is_stmt 0 discriminator 1
 1010 001a 039B     		ldr	r3, [sp, #12]
 1011 001c 1033     		adds	r3, r3, #16
 1012 001e 1846     		mov	r0, r3
 1013 0020 0299     		ldr	r1, [sp, #8]
 1014 0022 FFF7FEFF 		bl	_ZN3r2p10ArrayQueueIPNS_7MessageEE11post_unsafeES2_
 1015 0026 0346     		mov	r3, r0
 1016 0028 002B     		cmp	r3, #0
 1017 002a 01D0     		beq	.L61
 1018              		.loc 13 86 0 discriminator 3
 1019 002c 0123     		movs	r3, #1
 1020 002e 00E0     		b	.L62
 1021              	.L61:
 1022              		.loc 13 86 0 discriminator 2
 1023 0030 0023     		movs	r3, #0
 1024              	.L62:
 1025              		.loc 13 86 0 discriminator 4
 1026 0032 002B     		cmp	r3, #0
 1027 0034 0AD0     		beq	.L63
 1028              		.loc 13 87 0 is_stmt 1
 1029 0036 039B     		ldr	r3, [sp, #12]
 1030 0038 9A68     		ldr	r2, [r3, #8]
 1031 003a 039B     		ldr	r3, [sp, #12]
 1032 003c 93F82430 		ldrb	r3, [r3, #36]	@ zero_extendqisi2
 1033 0040 1046     		mov	r0, r2
 1034 0042 1946     		mov	r1, r3
 1035 0044 FFF7FEFF 		bl	_ZN3r2p4Node13notify_unsafeEj
 1036              		.loc 13 88 0
 1037 0048 0123     		movs	r3, #1
 1038 004a 00E0     		b	.L64
 1039              	.L63:
 1040              		.loc 13 90 0
 1041 004c 0023     		movs	r3, #0
 1042              	.L64:
 1043              		.loc 13 91 0
 1044 004e 1846     		mov	r0, r3
 1045 0050 05B0     		add	sp, sp, #20
 1046              		@ sp needed
 1047 0052 5DF804FB 		ldr	pc, [sp], #4
 1048              		.cfi_endproc
 1049              	.LFE393:
 1050              		.size	_ZN3r2p15LocalSubscriber13notify_unsafeERNS_7MessageERKNS_4TimeE, .-_ZN3r2p15LocalSubscriber
 1051 0056 00BFAFF3 		.section	.text._ZN3r2p5Topic12alloc_unsafeEv,"axG",%progbits,_ZN3r2p5Topic12alloc_unsafeEv,comdat
 1051      0080AFF3 
ARM GAS  /tmp/ccjqfgnD.s 			page 20


 1051      0080
 1052              		.align	2
 1053              		.p2align 4,,15
 1054              		.weak	_ZN3r2p5Topic12alloc_unsafeEv
 1055              		.thumb
 1056              		.thumb_func
 1057              		.type	_ZN3r2p5Topic12alloc_unsafeEv, %function
 1058              	_ZN3r2p5Topic12alloc_unsafeEv:
 1059              	.LFB412:
 1060              		.file 14 "/home/dave/r2p-sdk/core/Middleware/include/r2p/Topic.hpp"
 1061              		.loc 14 250 0
 1062              		.cfi_startproc
 1063              		@ args = 0, pretend = 0, frame = 8
 1064              		@ frame_needed = 0, uses_anonymous_args = 0
 1065 0000 10B5     		push	{r4, lr}
 1066              		.cfi_def_cfa_offset 8
 1067              		.cfi_offset 4, -8
 1068              		.cfi_offset 14, -4
 1069 0002 82B0     		sub	sp, sp, #8
 1070              		.cfi_def_cfa_offset 16
 1071 0004 0190     		str	r0, [sp, #4]
 1072              	.LBB116:
 1073              		.loc 14 252 0
 1074 0006 019B     		ldr	r3, [sp, #4]
 1075 0008 0833     		adds	r3, r3, #8
 1076 000a 1846     		mov	r0, r3
 1077 000c FFF7FEFF 		bl	_ZN3r2p11MemoryPool_12alloc_unsafeEv
 1078 0010 0446     		mov	r4, r0
 1079              		.loc 14 253 0
 1080 0012 002C     		cmp	r4, #0
 1081 0014 04D0     		beq	.L66
 1082              		.loc 14 254 0
 1083 0016 2046     		mov	r0, r4
 1084 0018 FFF7FEFF 		bl	_ZN3r2p7Message12reset_unsafeEv
 1085              		.loc 14 255 0
 1086 001c 2346     		mov	r3, r4
 1087 001e 00E0     		b	.L67
 1088              	.L66:
 1089              		.loc 14 257 0
 1090 0020 0023     		movs	r3, #0
 1091              	.L67:
 1092              	.LBE116:
 1093              		.loc 14 258 0
 1094 0022 1846     		mov	r0, r3
 1095 0024 02B0     		add	sp, sp, #8
 1096              		@ sp needed
 1097 0026 10BD     		pop	{r4, pc}
 1098              		.cfi_endproc
 1099              	.LFE412:
 1100              		.size	_ZN3r2p5Topic12alloc_unsafeEv, .-_ZN3r2p5Topic12alloc_unsafeEv
 1101 0028 AFF30080 		.section	.text._ZN3r2p6Mutex_D2Ev,"axG",%progbits,_ZN3r2p6Mutex_D5Ev,comdat
 1101      AFF30080 
 1102              		.align	2
 1103              		.p2align 4,,15
 1104              		.weak	_ZN3r2p6Mutex_D2Ev
 1105              		.thumb
 1106              		.thumb_func
ARM GAS  /tmp/ccjqfgnD.s 			page 21


 1107              		.type	_ZN3r2p6Mutex_D2Ev, %function
 1108              	_ZN3r2p6Mutex_D2Ev:
 1109              	.LFB459:
 1110              		.file 15 "/home/dave/r2p-sdk/core/Middleware/port/chibios/include/r2p/impl/Mutex_.hpp"
 1111              		.loc 15 9 0
 1112              		.cfi_startproc
 1113              		@ args = 0, pretend = 0, frame = 8
 1114              		@ frame_needed = 0, uses_anonymous_args = 0
 1115 0000 00B5     		push	{lr}
 1116              		.cfi_def_cfa_offset 4
 1117              		.cfi_offset 14, -4
 1118 0002 83B0     		sub	sp, sp, #12
 1119              		.cfi_def_cfa_offset 16
 1120 0004 0190     		str	r0, [sp, #4]
 1121              	.LBB117:
 1122              		.loc 15 9 0
 1123 0006 0198     		ldr	r0, [sp, #4]
 1124 0008 FFF7FEFF 		bl	_ZN3r2p10UncopyableD2Ev
 1125              	.LBE117:
 1126 000c 019B     		ldr	r3, [sp, #4]
 1127 000e 1846     		mov	r0, r3
 1128 0010 03B0     		add	sp, sp, #12
 1129              		@ sp needed
 1130 0012 5DF804FB 		ldr	pc, [sp], #4
 1131              		.cfi_endproc
 1132              	.LFE459:
 1133              		.size	_ZN3r2p6Mutex_D2Ev, .-_ZN3r2p6Mutex_D2Ev
 1134              		.weak	_ZN3r2p6Mutex_D1Ev
 1135              		.thumb_set _ZN3r2p6Mutex_D1Ev,_ZN3r2p6Mutex_D2Ev
 1136 0016 00BFAFF3 		.section	.text._ZN3r2p5MutexD2Ev,"axG",%progbits,_ZN3r2p5MutexD5Ev,comdat
 1136      0080AFF3 
 1136      0080
 1137              		.align	2
 1138              		.p2align 4,,15
 1139              		.weak	_ZN3r2p5MutexD2Ev
 1140              		.thumb
 1141              		.thumb_func
 1142              		.type	_ZN3r2p5MutexD2Ev, %function
 1143              	_ZN3r2p5MutexD2Ev:
 1144              	.LFB473:
 1145              		.file 16 "/home/dave/r2p-sdk/core/Middleware/include/r2p/Mutex.hpp"
 1146              		.loc 16 9 0
 1147              		.cfi_startproc
 1148              		@ args = 0, pretend = 0, frame = 8
 1149              		@ frame_needed = 0, uses_anonymous_args = 0
 1150 0000 00B5     		push	{lr}
 1151              		.cfi_def_cfa_offset 4
 1152              		.cfi_offset 14, -4
 1153 0002 83B0     		sub	sp, sp, #12
 1154              		.cfi_def_cfa_offset 16
 1155 0004 0190     		str	r0, [sp, #4]
 1156              	.LBB118:
 1157              		.loc 16 9 0
 1158 0006 019B     		ldr	r3, [sp, #4]
 1159 0008 0433     		adds	r3, r3, #4
 1160 000a 1846     		mov	r0, r3
 1161 000c FFF7FEFF 		bl	_ZN3r2p6Mutex_D1Ev
ARM GAS  /tmp/ccjqfgnD.s 			page 22


 1162 0010 0198     		ldr	r0, [sp, #4]
 1163 0012 FFF7FEFF 		bl	_ZN3r2p10UncopyableD2Ev
 1164              	.LBE118:
 1165 0016 019B     		ldr	r3, [sp, #4]
 1166 0018 1846     		mov	r0, r3
 1167 001a 03B0     		add	sp, sp, #12
 1168              		@ sp needed
 1169 001c 5DF804FB 		ldr	pc, [sp], #4
 1170              		.cfi_endproc
 1171              	.LFE473:
 1172              		.size	_ZN3r2p5MutexD2Ev, .-_ZN3r2p5MutexD2Ev
 1173              		.weak	_ZN3r2p5MutexD1Ev
 1174              		.thumb_set _ZN3r2p5MutexD1Ev,_ZN3r2p5MutexD2Ev
 1175              		.section	.text._ZN3PIDC2Ev,"ax",%progbits
 1176              		.align	2
 1177              		.p2align 4,,15
 1178              		.global	_ZN3PIDC2Ev
 1179              		.thumb
 1180              		.thumb_func
 1181              		.type	_ZN3PIDC2Ev, %function
 1182              	_ZN3PIDC2Ev:
 1183              	.LFB597:
 1184              		.file 17 "pid.hpp"
 1185              		.loc 17 24 0
 1186              		.cfi_startproc
 1187              		@ args = 0, pretend = 0, frame = 8
 1188              		@ frame_needed = 0, uses_anonymous_args = 0
 1189              		@ link register save eliminated.
 1190 0000 82B0     		sub	sp, sp, #8
 1191              		.cfi_def_cfa_offset 8
 1192 0002 0190     		str	r0, [sp, #4]
 1193              	.LBB119:
 1194              		.loc 17 25 0
 1195 0004 019B     		ldr	r3, [sp, #4]
 1196 0006 4FF00002 		mov	r2, #0
 1197 000a 1A60     		str	r2, [r3]	@ float
 1198              		.loc 17 26 0
 1199 000c 019B     		ldr	r3, [sp, #4]
 1200 000e 4FF00002 		mov	r2, #0
 1201 0012 5A60     		str	r2, [r3, #4]	@ float
 1202              		.loc 17 27 0
 1203 0014 019B     		ldr	r3, [sp, #4]
 1204 0016 4FF00002 		mov	r2, #0
 1205 001a 9A60     		str	r2, [r3, #8]	@ float
 1206              		.loc 17 28 0
 1207 001c 019B     		ldr	r3, [sp, #4]
 1208 001e 4FF00002 		mov	r2, #0
 1209 0022 DA60     		str	r2, [r3, #12]	@ float
 1210              		.loc 17 29 0
 1211 0024 019B     		ldr	r3, [sp, #4]
 1212 0026 4FF00002 		mov	r2, #0
 1213 002a 1A61     		str	r2, [r3, #16]	@ float
 1214              		.loc 17 30 0
 1215 002c 019B     		ldr	r3, [sp, #4]
 1216 002e 4FF00002 		mov	r2, #0
 1217 0032 5A61     		str	r2, [r3, #20]	@ float
 1218              		.loc 17 31 0
ARM GAS  /tmp/ccjqfgnD.s 			page 23


 1219 0034 019B     		ldr	r3, [sp, #4]
 1220 0036 6FF40002 		mvn	r2, #8388608
 1221 003a 9A61     		str	r2, [r3, #24]	@ float
 1222              		.loc 17 32 0
 1223 003c 019B     		ldr	r3, [sp, #4]
 1224 003e 034A     		ldr	r2, .L77
 1225 0040 DA61     		str	r2, [r3, #28]	@ float
 1226              	.LBE119:
 1227              		.loc 17 34 0
 1228 0042 019B     		ldr	r3, [sp, #4]
 1229 0044 1846     		mov	r0, r3
 1230 0046 02B0     		add	sp, sp, #8
 1231              		@ sp needed
 1232 0048 7047     		bx	lr
 1233              	.L78:
 1234 004a 00BF     		.align	2
 1235              	.L77:
 1236 004c FFFF7F7F 		.word	2139095039
 1237              		.cfi_endproc
 1238              	.LFE597:
 1239              		.size	_ZN3PIDC2Ev, .-_ZN3PIDC2Ev
 1240              		.global	_ZN3PIDC1Ev
 1241              		.thumb_set _ZN3PIDC1Ev,_ZN3PIDC2Ev
 1242              		.section	.text._ZN3PID6configEffffff,"ax",%progbits
 1243              		.align	2
 1244              		.p2align 4,,15
 1245              		.global	_ZN3PID6configEffffff
 1246              		.thumb
 1247              		.thumb_func
 1248              		.type	_ZN3PID6configEffffff, %function
 1249              	_ZN3PID6configEffffff:
 1250              	.LFB599:
 1251              		.loc 17 37 0
 1252              		.cfi_startproc
 1253              		@ args = 0, pretend = 0, frame = 32
 1254              		@ frame_needed = 0, uses_anonymous_args = 0
 1255 0000 00B5     		push	{lr}
 1256              		.cfi_def_cfa_offset 4
 1257              		.cfi_offset 14, -4
 1258 0002 89B0     		sub	sp, sp, #36
 1259              		.cfi_def_cfa_offset 40
 1260 0004 0790     		str	r0, [sp, #28]
 1261 0006 8DED060A 		fsts	s0, [sp, #24]
 1262 000a CDED050A 		fsts	s1, [sp, #20]
 1263 000e 8DED041A 		fsts	s2, [sp, #16]
 1264 0012 CDED031A 		fsts	s3, [sp, #12]
 1265 0016 8DED022A 		fsts	s4, [sp, #8]
 1266 001a CDED012A 		fsts	s5, [sp, #4]
 1267              	.LBB120:
 1268              	.LBB121:
 1269              	.LBB122:
 1270              		.loc 17 39 0
 1271 001e 2023     		movs	r3, #32
 1272              	@ 39 "pid.hpp" 1
 1273 0020 83F31188 		msr     BASEPRI, r3
 1274              	@ 0 "" 2
 1275              		.thumb
ARM GAS  /tmp/ccjqfgnD.s 			page 24


 1276              	.LBE122:
 1277 0024 FFF7FEFF 		bl	dbg_check_lock
 1278              	.LBE121:
 1279              		.loc 17 40 0
 1280 0028 079B     		ldr	r3, [sp, #28]
 1281 002a 069A     		ldr	r2, [sp, #24]	@ float
 1282 002c DA60     		str	r2, [r3, #12]	@ float
 1283              		.loc 17 41 0
 1284 002e DDED057A 		flds	s15, [sp, #20]
 1285 0032 F5EE407A 		fcmpzs	s15
 1286 0036 F1EE10FA 		fmstat
 1287 003a 0AD0     		beq	.L80
 1288              		.loc 17 41 0 is_stmt 0 discriminator 1
 1289 003c 9DED037A 		flds	s14, [sp, #12]
 1290 0040 DDED057A 		flds	s15, [sp, #20]
 1291 0044 87EE277A 		fdivs	s14, s14, s15
 1292 0048 DDED067A 		flds	s15, [sp, #24]
 1293 004c 67EE277A 		fmuls	s15, s14, s15
 1294 0050 01E0     		b	.L81
 1295              	.L80:
 1296              		.loc 17 41 0 discriminator 2
 1297 0052 DFED147A 		flds	s15, .L82
 1298              	.L81:
 1299              		.loc 17 41 0 discriminator 3
 1300 0056 079B     		ldr	r3, [sp, #28]
 1301 0058 C3ED047A 		fsts	s15, [r3, #16]
 1302              		.loc 17 42 0 is_stmt 1 discriminator 3
 1303 005c 9DED047A 		flds	s14, [sp, #16]
 1304 0060 DDED037A 		flds	s15, [sp, #12]
 1305 0064 87EE277A 		fdivs	s14, s14, s15
 1306 0068 DDED067A 		flds	s15, [sp, #24]
 1307 006c 67EE277A 		fmuls	s15, s14, s15
 1308 0070 079B     		ldr	r3, [sp, #28]
 1309 0072 C3ED057A 		fsts	s15, [r3, #20]
 1310              		.loc 17 43 0 discriminator 3
 1311 0076 079B     		ldr	r3, [sp, #28]
 1312 0078 029A     		ldr	r2, [sp, #8]	@ float
 1313 007a 9A61     		str	r2, [r3, #24]	@ float
 1314              		.loc 17 44 0 discriminator 3
 1315 007c 079B     		ldr	r3, [sp, #28]
 1316 007e 019A     		ldr	r2, [sp, #4]	@ float
 1317 0080 DA61     		str	r2, [r3, #28]	@ float
 1318              		.loc 17 45 0 discriminator 3
 1319 0082 079B     		ldr	r3, [sp, #28]
 1320 0084 4FF00002 		mov	r2, #0
 1321 0088 1A60     		str	r2, [r3]	@ float
 1322              		.loc 17 46 0 discriminator 3
 1323 008a 079B     		ldr	r3, [sp, #28]
 1324 008c 4FF00002 		mov	r2, #0
 1325 0090 5A60     		str	r2, [r3, #4]	@ float
 1326              	.LBB123:
 1327              		.loc 17 47 0 discriminator 3
 1328 0092 FFF7FEFF 		bl	dbg_check_unlock
 1329              	.LBB124:
 1330 0096 0023     		movs	r3, #0
 1331              	@ 47 "pid.hpp" 1
 1332 0098 83F31188 		msr     BASEPRI, r3
ARM GAS  /tmp/ccjqfgnD.s 			page 25


 1333              	@ 0 "" 2
 1334              		.thumb
 1335              	.LBE124:
 1336              	.LBE123:
 1337              	.LBE120:
 1338              		.loc 17 48 0 discriminator 3
 1339 009c 09B0     		add	sp, sp, #36
 1340              		@ sp needed
 1341 009e 5DF804FB 		ldr	pc, [sp], #4
 1342              	.L83:
 1343 00a2 00BF     		.align	2
 1344              	.L82:
 1345 00a4 00000000 		.word	0
 1346              		.cfi_endproc
 1347              	.LFE599:
 1348              		.size	_ZN3PID6configEffffff, .-_ZN3PID6configEffffff
 1349 00a8 AFF30080 		.section	.text._ZN3PID3setEf,"ax",%progbits
 1349      AFF30080 
 1350              		.align	2
 1351              		.p2align 4,,15
 1352              		.global	_ZN3PID3setEf
 1353              		.thumb
 1354              		.thumb_func
 1355              		.type	_ZN3PID3setEf, %function
 1356              	_ZN3PID3setEf:
 1357              	.LFB600:
 1358              		.loc 17 51 0
 1359              		.cfi_startproc
 1360              		@ args = 0, pretend = 0, frame = 8
 1361              		@ frame_needed = 0, uses_anonymous_args = 0
 1362 0000 00B5     		push	{lr}
 1363              		.cfi_def_cfa_offset 4
 1364              		.cfi_offset 14, -4
 1365 0002 83B0     		sub	sp, sp, #12
 1366              		.cfi_def_cfa_offset 16
 1367 0004 0190     		str	r0, [sp, #4]
 1368 0006 8DED000A 		fsts	s0, [sp]
 1369              	.LBB125:
 1370              	.LBB126:
 1371              	.LBB127:
 1372              		.loc 17 53 0
 1373 000a 2023     		movs	r3, #32
 1374              	@ 53 "pid.hpp" 1
 1375 000c 83F31188 		msr     BASEPRI, r3
 1376              	@ 0 "" 2
 1377              		.thumb
 1378              	.LBE127:
 1379 0010 FFF7FEFF 		bl	dbg_check_lock
 1380              	.LBE126:
 1381              		.loc 17 55 0
 1382 0014 DDED007A 		flds	s15, [sp]
 1383 0018 F5EEC07A 		fcmpezs	s15
 1384 001c F1EE10FA 		fmstat
 1385 0020 D4BF     		ite	le
 1386 0022 0023     		movle	r3, #0
 1387 0024 0123     		movgt	r3, #1
 1388 0026 DAB2     		uxtb	r2, r3
ARM GAS  /tmp/ccjqfgnD.s 			page 26


 1389 0028 019B     		ldr	r3, [sp, #4]
 1390 002a D3ED027A 		flds	s15, [r3, #8]
 1391 002e F5EEC07A 		fcmpezs	s15
 1392 0032 F1EE10FA 		fmstat
 1393 0036 D4BF     		ite	le
 1394 0038 0023     		movle	r3, #0
 1395 003a 0123     		movgt	r3, #1
 1396 003c DBB2     		uxtb	r3, r3
 1397 003e 5340     		eors	r3, r3, r2
 1398 0040 DBB2     		uxtb	r3, r3
 1399 0042 002B     		cmp	r3, #0
 1400 0044 07D0     		beq	.L85
 1401              		.loc 17 56 0
 1402 0046 019B     		ldr	r3, [sp, #4]
 1403 0048 4FF00002 		mov	r2, #0
 1404 004c 1A60     		str	r2, [r3]	@ float
 1405              		.loc 17 57 0
 1406 004e 019B     		ldr	r3, [sp, #4]
 1407 0050 4FF00002 		mov	r2, #0
 1408 0054 5A60     		str	r2, [r3, #4]	@ float
 1409              	.L85:
 1410              		.loc 17 60 0
 1411 0056 019B     		ldr	r3, [sp, #4]
 1412 0058 009A     		ldr	r2, [sp]	@ float
 1413 005a 9A60     		str	r2, [r3, #8]	@ float
 1414              	.LBB128:
 1415              		.loc 17 61 0
 1416 005c FFF7FEFF 		bl	dbg_check_unlock
 1417              	.LBB129:
 1418 0060 0023     		movs	r3, #0
 1419              	@ 61 "pid.hpp" 1
 1420 0062 83F31188 		msr     BASEPRI, r3
 1421              	@ 0 "" 2
 1422              		.thumb
 1423              	.LBE129:
 1424              	.LBE128:
 1425              	.LBE125:
 1426              		.loc 17 62 0
 1427 0066 03B0     		add	sp, sp, #12
 1428              		@ sp needed
 1429 0068 5DF804FB 		ldr	pc, [sp], #4
 1430              		.cfi_endproc
 1431              	.LFE600:
 1432              		.size	_ZN3PID3setEf, .-_ZN3PID3setEf
 1433 006c AFF30080 		.section	.text._ZN3PID6updateEf,"ax",%progbits
 1434              		.align	2
 1435              		.p2align 4,,15
 1436              		.global	_ZN3PID6updateEf
 1437              		.thumb
 1438              		.thumb_func
 1439              		.type	_ZN3PID6updateEf, %function
 1440              	_ZN3PID6updateEf:
 1441              	.LFB601:
 1442              		.loc 17 65 0
 1443              		.cfi_startproc
 1444              		@ args = 0, pretend = 0, frame = 16
 1445              		@ frame_needed = 0, uses_anonymous_args = 0
ARM GAS  /tmp/ccjqfgnD.s 			page 27


 1446              		@ link register save eliminated.
 1447 0000 84B0     		sub	sp, sp, #16
 1448              		.cfi_def_cfa_offset 16
 1449 0002 0190     		str	r0, [sp, #4]
 1450 0004 8DED000A 		fsts	s0, [sp]
 1451              	.LBB130:
 1452              		.loc 17 70 0
 1453 0008 019B     		ldr	r3, [sp, #4]
 1454 000a 93ED027A 		flds	s14, [r3, #8]
 1455 000e DDED007A 		flds	s15, [sp]
 1456 0012 77EE677A 		fsubs	s15, s14, s15
 1457 0016 CDED027A 		fsts	s15, [sp, #8]
 1458              		.loc 17 73 0
 1459 001a 019B     		ldr	r3, [sp, #4]
 1460 001c 93ED037A 		flds	s14, [r3, #12]
 1461 0020 DDED027A 		flds	s15, [sp, #8]
 1462 0024 67EE277A 		fmuls	s15, s14, s15
 1463 0028 CDED037A 		fsts	s15, [sp, #12]
 1464              		.loc 17 76 0
 1465 002c 019B     		ldr	r3, [sp, #4]
 1466 002e 93ED007A 		flds	s14, [r3]
 1467 0032 019B     		ldr	r3, [sp, #4]
 1468 0034 D3ED046A 		flds	s13, [r3, #16]
 1469 0038 DDED027A 		flds	s15, [sp, #8]
 1470 003c 66EEA77A 		fmuls	s15, s13, s15
 1471 0040 77EE277A 		fadds	s15, s14, s15
 1472 0044 019B     		ldr	r3, [sp, #4]
 1473 0046 C3ED007A 		fsts	s15, [r3]
 1474              		.loc 17 77 0
 1475 004a 019B     		ldr	r3, [sp, #4]
 1476 004c D3ED007A 		flds	s15, [r3]
 1477 0050 9DED037A 		flds	s14, [sp, #12]
 1478 0054 77EE277A 		fadds	s15, s14, s15
 1479 0058 CDED037A 		fsts	s15, [sp, #12]
 1480              		.loc 17 80 0
 1481 005c 019B     		ldr	r3, [sp, #4]
 1482 005e 93ED057A 		flds	s14, [r3, #20]
 1483 0062 019B     		ldr	r3, [sp, #4]
 1484 0064 D3ED017A 		flds	s15, [r3, #4]
 1485 0068 DDED026A 		flds	s13, [sp, #8]
 1486 006c 76EEE77A 		fsubs	s15, s13, s15
 1487 0070 67EE277A 		fmuls	s15, s14, s15
 1488 0074 9DED037A 		flds	s14, [sp, #12]
 1489 0078 77EE277A 		fadds	s15, s14, s15
 1490 007c CDED037A 		fsts	s15, [sp, #12]
 1491              		.loc 17 81 0
 1492 0080 019B     		ldr	r3, [sp, #4]
 1493 0082 029A     		ldr	r2, [sp, #8]	@ float
 1494 0084 5A60     		str	r2, [r3, #4]	@ float
 1495              		.loc 17 84 0
 1496 0086 019B     		ldr	r3, [sp, #4]
 1497 0088 93ED077A 		flds	s14, [r3, #28]
 1498 008c DDED037A 		flds	s15, [sp, #12]
 1499 0090 B4EEE77A 		fcmpes	s14, s15
 1500 0094 F1EE10FA 		fmstat
 1501 0098 12D5     		bpl	.L94
 1502              		.loc 17 85 0
ARM GAS  /tmp/ccjqfgnD.s 			page 28


 1503 009a 019B     		ldr	r3, [sp, #4]
 1504 009c DB69     		ldr	r3, [r3, #28]	@ float
 1505 009e 0393     		str	r3, [sp, #12]	@ float
 1506              		.loc 17 87 0
 1507 00a0 019B     		ldr	r3, [sp, #4]
 1508 00a2 93ED007A 		flds	s14, [r3]
 1509 00a6 019B     		ldr	r3, [sp, #4]
 1510 00a8 D3ED046A 		flds	s13, [r3, #16]
 1511 00ac DDED027A 		flds	s15, [sp, #8]
 1512 00b0 66EEA77A 		fmuls	s15, s13, s15
 1513 00b4 77EE677A 		fsubs	s15, s14, s15
 1514 00b8 019B     		ldr	r3, [sp, #4]
 1515 00ba C3ED007A 		fsts	s15, [r3]
 1516 00be 1BE0     		b	.L89
 1517              	.L94:
 1518              		.loc 17 88 0
 1519 00c0 019B     		ldr	r3, [sp, #4]
 1520 00c2 93ED067A 		flds	s14, [r3, #24]
 1521 00c6 DDED037A 		flds	s15, [sp, #12]
 1522 00ca B4EEE77A 		fcmpes	s14, s15
 1523 00ce F1EE10FA 		fmstat
 1524 00d2 11DD     		ble	.L89
 1525              		.loc 17 89 0
 1526 00d4 019B     		ldr	r3, [sp, #4]
 1527 00d6 9B69     		ldr	r3, [r3, #24]	@ float
 1528 00d8 0393     		str	r3, [sp, #12]	@ float
 1529              		.loc 17 91 0
 1530 00da 019B     		ldr	r3, [sp, #4]
 1531 00dc 93ED007A 		flds	s14, [r3]
 1532 00e0 019B     		ldr	r3, [sp, #4]
 1533 00e2 D3ED046A 		flds	s13, [r3, #16]
 1534 00e6 DDED027A 		flds	s15, [sp, #8]
 1535 00ea 66EEA77A 		fmuls	s15, s13, s15
 1536 00ee 77EE677A 		fsubs	s15, s14, s15
 1537 00f2 019B     		ldr	r3, [sp, #4]
 1538 00f4 C3ED007A 		fsts	s15, [r3]
 1539              	.L89:
 1540              		.loc 17 94 0
 1541 00f8 039B     		ldr	r3, [sp, #12]	@ float
 1542 00fa 07EE903A 		fmsr	s15, r3
 1543              	.LBE130:
 1544              		.loc 17 95 0
 1545 00fe B0EE670A 		fcpys	s0, s15
 1546 0102 04B0     		add	sp, sp, #16
 1547              		@ sp needed
 1548 0104 7047     		bx	lr
 1549              		.cfi_endproc
 1550              	.LFE601:
 1551              		.size	_ZN3PID6updateEf, .-_ZN3PID6updateEf
 1552 0106 00BFAFF3 		.section	.bss._ZL7wa_info,"aw",%nobits
 1552      0080AFF3 
 1552      0080
 1553              		.align	3
 1554              		.type	_ZL7wa_info, %object
 1555              		.size	_ZL7wa_info, 1368
 1556              	_ZL7wa_info:
 1557 0000 00000000 		.space	1368
ARM GAS  /tmp/ccjqfgnD.s 			page 29


 1557      00000000 
 1557      00000000 
 1557      00000000 
 1557      00000000 
 1558              		.section	.bss._ZL8rtcantra,"aw",%nobits
 1559              		.align	2
 1560              		.type	_ZL8rtcantra, %object
 1561              		.size	_ZL8rtcantra, 572
 1562              	_ZL8rtcantra:
 1563 0000 00000000 		.space	572
 1563      00000000 
 1563      00000000 
 1563      00000000 
 1563      00000000 
 1564              		.global	rtcan_config
 1565              		.section	.data.rtcan_config,"aw",%progbits
 1566              		.align	2
 1567              		.type	rtcan_config, %object
 1568              		.size	rtcan_config, 12
 1569              	rtcan_config:
 1570 0000 40420F00 		.word	1000000
 1571 0004 64000000 		.word	100
 1572 0008 3C000000 		.word	60
 1573              		.global	_ZN3r2p10Middleware8instanceE
 1574              		.section	.bss._ZN3r2p10Middleware8instanceE,"aw",%nobits
 1575              		.align	2
 1576              		.type	_ZN3r2p10Middleware8instanceE, %object
 1577              		.size	_ZN3r2p10Middleware8instanceE, 608
 1578              	_ZN3r2p10Middleware8instanceE:
 1579 0000 00000000 		.space	608
 1579      00000000 
 1579      00000000 
 1579      00000000 
 1579      00000000 
 1580              		.global	vel_pid
 1581              		.section	.bss.vel_pid,"aw",%nobits
 1582              		.align	2
 1583              		.type	vel_pid, %object
 1584              		.size	vel_pid, 32
 1585              	vel_pid:
 1586 0000 00000000 		.space	32
 1586      00000000 
 1586      00000000 
 1586      00000000 
 1586      00000000 
 1587              		.global	vel_setpoint
 1588              		.section	.bss.vel_setpoint,"aw",%nobits
 1589              		.align	2
 1590              		.type	vel_setpoint, %object
 1591              		.size	vel_setpoint, 4
 1592              	vel_setpoint:
 1593 0000 00000000 		.space	4
 1594              		.global	w_setpoint
 1595              		.section	.bss.w_setpoint,"aw",%nobits
 1596              		.align	2
 1597              		.type	w_setpoint, %object
 1598              		.size	w_setpoint, 4
ARM GAS  /tmp/ccjqfgnD.s 			page 30


 1599              	w_setpoint:
 1600 0000 00000000 		.space	4
 1601              		.global	angle_setpoint
 1602              		.section	.bss.angle_setpoint,"aw",%nobits
 1603              		.align	2
 1604              		.type	angle_setpoint, %object
 1605              		.size	angle_setpoint, 4
 1606              	angle_setpoint:
 1607 0000 00000000 		.space	4
 1608              		.global	right_speed
 1609              		.section	.bss.right_speed,"aw",%nobits
 1610              		.align	2
 1611              		.type	right_speed, %object
 1612              		.size	right_speed, 4
 1613              	right_speed:
 1614 0000 00000000 		.space	4
 1615              		.global	left_speed
 1616              		.section	.bss.left_speed,"aw",%nobits
 1617              		.align	2
 1618              		.type	left_speed, %object
 1619              		.size	left_speed, 4
 1620              	left_speed:
 1621 0000 00000000 		.space	4
 1622              		.section	.text._Z13enc0_callbackRKN3r2p10EncoderMsgE,"ax",%progbits
 1623              		.align	2
 1624              		.p2align 4,,15
 1625              		.global	_Z13enc0_callbackRKN3r2p10EncoderMsgE
 1626              		.thumb
 1627              		.thumb_func
 1628              		.type	_Z13enc0_callbackRKN3r2p10EncoderMsgE, %function
 1629              	_Z13enc0_callbackRKN3r2p10EncoderMsgE:
 1630              	.LFB602:
 1631              		.file 18 "main.cpp"
 1632              		.loc 18 59 0
 1633              		.cfi_startproc
 1634              		@ args = 0, pretend = 0, frame = 8
 1635              		@ frame_needed = 0, uses_anonymous_args = 0
 1636              		@ link register save eliminated.
 1637 0000 82B0     		sub	sp, sp, #8
 1638              		.cfi_def_cfa_offset 8
 1639 0002 0190     		str	r0, [sp, #4]
 1640              		.loc 18 60 0
 1641 0004 019B     		ldr	r3, [sp, #4]
 1642 0006 D3F80230 		ldr	r3, [r3, #2]	@ unaligned
 1643 000a 07EE903A 		fmsr	s15, r3
 1644 000e B1EE677A 		fnegs	s14, s15
 1645 0012 DFED077A 		flds	s15, .L97
 1646 0016 27EE277A 		fmuls	s14, s14, s15
 1647 001a F3EE047A 		fconsts	s15, #52
 1648 001e 67EE277A 		fmuls	s15, s14, s15
 1649 0022 044B     		ldr	r3, .L97+4
 1650 0024 C3ED007A 		fsts	s15, [r3]
 1651              		.loc 18 62 0
 1652 0028 0123     		movs	r3, #1
 1653              		.loc 18 63 0
 1654 002a 1846     		mov	r0, r3
 1655 002c 02B0     		add	sp, sp, #8
ARM GAS  /tmp/ccjqfgnD.s 			page 31


 1656              		@ sp needed
 1657 002e 7047     		bx	lr
 1658              	.L98:
 1659              		.align	2
 1660              	.L97:
 1661 0030 52B89E3D 		.word	1033812050
 1662 0034 00000000 		.word	right_speed
 1663              		.cfi_endproc
 1664              	.LFE602:
 1665              		.size	_Z13enc0_callbackRKN3r2p10EncoderMsgE, .-_Z13enc0_callbackRKN3r2p10EncoderMsgE
 1666 0038 AFF30080 		.section	.text._Z13enc1_callbackRKN3r2p10EncoderMsgE,"ax",%progbits
 1666      AFF30080 
 1667              		.align	2
 1668              		.p2align 4,,15
 1669              		.global	_Z13enc1_callbackRKN3r2p10EncoderMsgE
 1670              		.thumb
 1671              		.thumb_func
 1672              		.type	_Z13enc1_callbackRKN3r2p10EncoderMsgE, %function
 1673              	_Z13enc1_callbackRKN3r2p10EncoderMsgE:
 1674              	.LFB603:
 1675              		.loc 18 65 0
 1676              		.cfi_startproc
 1677              		@ args = 0, pretend = 0, frame = 8
 1678              		@ frame_needed = 0, uses_anonymous_args = 0
 1679              		@ link register save eliminated.
 1680 0000 82B0     		sub	sp, sp, #8
 1681              		.cfi_def_cfa_offset 8
 1682 0002 0190     		str	r0, [sp, #4]
 1683              		.loc 18 66 0
 1684 0004 019B     		ldr	r3, [sp, #4]
 1685 0006 D3F80230 		ldr	r3, [r3, #2]	@ unaligned
 1686 000a DFED087A 		flds	s15, .L101
 1687 000e 06EE903A 		fmsr	s13, r3
 1688 0012 26EEA77A 		fmuls	s14, s13, s15
 1689 0016 F3EE047A 		fconsts	s15, #52
 1690 001a 67EE277A 		fmuls	s15, s14, s15
 1691 001e 044B     		ldr	r3, .L101+4
 1692 0020 C3ED007A 		fsts	s15, [r3]
 1693              		.loc 18 68 0
 1694 0024 0123     		movs	r3, #1
 1695              		.loc 18 69 0
 1696 0026 1846     		mov	r0, r3
 1697 0028 02B0     		add	sp, sp, #8
 1698              		@ sp needed
 1699 002a 7047     		bx	lr
 1700              	.L102:
 1701              		.align	2
 1702              	.L101:
 1703 002c 52B89E3D 		.word	1033812050
 1704 0030 00000000 		.word	left_speed
 1705              		.cfi_endproc
 1706              	.LFE603:
 1707              		.size	_Z13enc1_callbackRKN3r2p10EncoderMsgE, .-_Z13enc1_callbackRKN3r2p10EncoderMsgE
 1708 0034 AFF30080 		.section	.rodata
 1708      AFF30080 
 1708      AFF30080 
 1709 000d 000000   		.align	2
ARM GAS  /tmp/ccjqfgnD.s 			page 32


 1710              	.LC3:
 1711 0010 76656C6F 		.ascii	"velocity\000"
 1711      63697479 
 1711      00
 1712 0019 000000   		.align	2
 1713              	.LC4:
 1714 001c 656E636F 		.ascii	"encoder0\000"
 1714      64657230 
 1714      00
 1715 0025 000000   		.align	2
 1716              	.LC5:
 1717 0028 656E636F 		.ascii	"encoder1\000"
 1717      64657231 
 1717      00
 1718 0031 000000   		.align	2
 1719              	.LC6:
 1720 0034 76656C63 		.ascii	"velcfg\000"
 1720      666700
 1721 003b 00       		.align	2
 1722              	.LC7:
 1723 003c 6F646F6D 		.ascii	"odometry\000"
 1723      65747279 
 1723      00
 1724              		.section	.text._Z13velocity_nodePv,"ax",%progbits
 1725              		.align	2
 1726              		.p2align 4,,15
 1727              		.global	_Z13velocity_nodePv
 1728              		.thumb
 1729              		.thumb_func
 1730              		.type	_Z13velocity_nodePv, %function
 1731              	_Z13velocity_nodePv:
 1732              	.LFB604:
 1733              		.loc 18 71 0
 1734              		.cfi_startproc
 1735              		@ args = 0, pretend = 0, frame = 688
 1736              		@ frame_needed = 0, uses_anonymous_args = 0
 1737 0000 00B5     		push	{lr}
 1738              		.cfi_def_cfa_offset 4
 1739              		.cfi_offset 14, -4
 1740 0002 ADF52D7D 		sub	sp, sp, #692
 1741              		.cfi_def_cfa_offset 696
 1742 0006 01AB     		add	r3, sp, #4
 1743 0008 1860     		str	r0, [r3]
 1744              	.LBB131:
 1745              		.loc 18 72 0
 1746 000a A2AB     		add	r3, sp, #648
 1747 000c 1846     		mov	r0, r3
 1748 000e 8049     		ldr	r1, .L112
 1749 0010 0122     		movs	r2, #1
 1750 0012 FFF7FEFF 		bl	_ZN3r2p4NodeC1EPKcb
 1751              		.loc 18 73 0
 1752 0016 03AB     		add	r3, sp, #12
 1753 0018 1846     		mov	r0, r3
 1754 001a 0021     		movs	r1, #0
 1755 001c FFF7FEFF 		bl	_ZN3r2p10SubscriberINS_12Velocity3MsgELj5EEC1EPFbRKS1_E
 1756              		.loc 18 75 0
 1757 0020 4DAB     		add	r3, sp, #308
ARM GAS  /tmp/ccjqfgnD.s 			page 33


 1758 0022 1846     		mov	r0, r3
 1759 0024 7B49     		ldr	r1, .L112+4
 1760 0026 FFF7FEFF 		bl	_ZN3r2p10SubscriberINS_10EncoderMsgELj10EEC1EPFbRKS1_E
 1761              		.loc 18 76 0
 1762 002a 74AB     		add	r3, sp, #464
 1763 002c 1846     		mov	r0, r3
 1764 002e 7A49     		ldr	r1, .L112+8
 1765 0030 FFF7FEFF 		bl	_ZN3r2p10SubscriberINS_10EncoderMsgELj10EEC1EPFbRKS1_E
 1766              		.loc 18 77 0
 1767 0034 9DAB     		add	r3, sp, #628
 1768 0036 1846     		mov	r0, r3
 1769 0038 FFF7FEFF 		bl	_ZN3r2p9PublisherINS_12Velocity3MsgEEC1Ev
 1770              		.loc 18 78 0
 1771 003c 28AB     		add	r3, sp, #160
 1772 003e 1846     		mov	r0, r3
 1773 0040 0021     		movs	r1, #0
 1774 0042 FFF7FEFF 		bl	_ZN3r2p10SubscriberINS_9PIDCfgMsgELj5EEC1EPFbRKS1_E
 1775              		.loc 18 84 0
 1776 0046 754B     		ldr	r3, .L112+12
 1777 0048 9B69     		ldr	r3, [r3, #24]
 1778 004a 714A     		ldr	r2, .L112
 1779 004c 9A61     		str	r2, [r3, #24]
 1780              		.loc 18 86 0
 1781 004e A2AA     		add	r2, sp, #648
 1782 0050 4DAB     		add	r3, sp, #308
 1783 0052 1046     		mov	r0, r2
 1784 0054 1946     		mov	r1, r3
 1785 0056 724A     		ldr	r2, .L112+16
 1786 0058 FFF7FEFF 		bl	_ZN3r2p4Node9subscribeINS_10EncoderMsgELj10EEEbRNS_10SubscriberIT_XT0_EEEPKc
 1787              		.loc 18 87 0
 1788 005c A2AA     		add	r2, sp, #648
 1789 005e 74AB     		add	r3, sp, #464
 1790 0060 1046     		mov	r0, r2
 1791 0062 1946     		mov	r1, r3
 1792 0064 6F4A     		ldr	r2, .L112+20
 1793 0066 FFF7FEFF 		bl	_ZN3r2p4Node9subscribeINS_10EncoderMsgELj10EEEbRNS_10SubscriberIT_XT0_EEEPKc
 1794              		.loc 18 88 0
 1795 006a A2AA     		add	r2, sp, #648
 1796 006c 03AB     		add	r3, sp, #12
 1797 006e 1046     		mov	r0, r2
 1798 0070 1946     		mov	r1, r3
 1799 0072 674A     		ldr	r2, .L112
 1800 0074 FFF7FEFF 		bl	_ZN3r2p4Node9subscribeINS_12Velocity3MsgELj5EEEbRNS_10SubscriberIT_XT0_EEEPKc
 1801              		.loc 18 89 0
 1802 0078 A2AA     		add	r2, sp, #648
 1803 007a 28AB     		add	r3, sp, #160
 1804 007c 1046     		mov	r0, r2
 1805 007e 1946     		mov	r1, r3
 1806 0080 694A     		ldr	r2, .L112+24
 1807 0082 FFF7FEFF 		bl	_ZN3r2p4Node9subscribeINS_9PIDCfgMsgELj5EEEbRNS_10SubscriberIT_XT0_EEEPKc
 1808              		.loc 18 91 0
 1809 0086 A2AA     		add	r2, sp, #648
 1810 0088 9DAB     		add	r3, sp, #628
 1811 008a 1046     		mov	r0, r2
 1812 008c 1946     		mov	r1, r3
 1813 008e 674A     		ldr	r2, .L112+28
 1814 0090 674B     		ldr	r3, .L112+32
ARM GAS  /tmp/ccjqfgnD.s 			page 34


 1815 0092 FFF7FEFF 		bl	_ZN3r2p4Node9advertiseINS_12Velocity3MsgEEEbRNS_9PublisherIT_EEPKcRKNS_4TimeE
 1816              		.loc 18 93 0
 1817 0096 6748     		ldr	r0, .L112+36
 1818 0098 B0EE000A 		fconsts	s0, #0
 1819 009c DFED660A 		flds	s1, .L112+40
 1820 00a0 9FED661A 		flds	s2, .L112+44
 1821 00a4 DFED661A 		flds	s3, .L112+48
 1822 00a8 BAEE042A 		fconsts	s4, #164
 1823 00ac F2EE042A 		fconsts	s5, #36
 1824 00b0 FFF7FEFF 		bl	_ZN3PID6configEffffff
 1825              		.loc 18 94 0
 1826 00b4 5F48     		ldr	r0, .L112+36
 1827 00b6 9FED600A 		flds	s0, .L112+40
 1828 00ba FFF7FEFF 		bl	_ZN3PID3setEf
 1829              	.L111:
 1830              	.LBB132:
 1831              	.LBB133:
 1832              		.loc 18 97 0
 1833 00be A9AB     		add	r3, sp, #676
 1834 00c0 1846     		mov	r0, r3
 1835 00c2 4FF4FA71 		mov	r1, #500
 1836 00c6 FFF7FEFF 		bl	_ZN3r2p4Time2msEl
 1837 00ca A2AA     		add	r2, sp, #648
 1838 00cc A9AB     		add	r3, sp, #676
 1839 00ce 1046     		mov	r0, r2
 1840 00d0 1946     		mov	r1, r3
 1841 00d2 FFF7FEFF 		bl	_ZN3r2p4Node4spinERKNS_4TimeE
 1842 00d6 0346     		mov	r3, r0
 1843 00d8 83F00103 		eor	r3, r3, #1
 1844 00dc DBB2     		uxtb	r3, r3
 1845 00de 002B     		cmp	r3, #0
 1846 00e0 04D0     		beq	.L104
 1847              		.loc 18 98 0
 1848 00e2 584B     		ldr	r3, .L112+52
 1849 00e4 4FF00002 		mov	r2, #0
 1850 00e8 1A60     		str	r2, [r3]	@ float
 1851              	.LBE133:
 1852              		.loc 18 126 0
 1853 00ea E8E7     		b	.L111
 1854              	.L104:
 1855              	.LBB134:
 1856              		.loc 18 102 0
 1857 00ec 564B     		ldr	r3, .L112+56
 1858 00ee 93ED007A 		flds	s14, [r3]
 1859 00f2 564B     		ldr	r3, .L112+60
 1860 00f4 D3ED007A 		flds	s15, [r3]
 1861 00f8 37EE277A 		fadds	s14, s14, s15
 1862 00fc F0EE007A 		fconsts	s15, #0
 1863 0100 C7EE277A 		fdivs	s15, s14, s15
 1864 0104 CDEDAB7A 		fsts	s15, [sp, #684]
 1865              		.loc 18 103 0
 1866 0108 504B     		ldr	r3, .L112+60
 1867 010a 93ED007A 		flds	s14, [r3]
 1868 010e 4E4B     		ldr	r3, .L112+56
 1869 0110 D3ED007A 		flds	s15, [r3]
 1870 0114 37EE677A 		fsubs	s14, s14, s15
 1871 0118 DFED4D7A 		flds	s15, .L112+64
ARM GAS  /tmp/ccjqfgnD.s 			page 35


 1872 011c C7EE277A 		fdivs	s15, s14, s15
 1873 0120 CDEDAA7A 		fsts	s15, [sp, #680]
 1874              		.loc 18 104 0
 1875 0124 4348     		ldr	r0, .L112+36
 1876 0126 9DEDAB0A 		flds	s0, [sp, #684]
 1877 012a FFF7FEFF 		bl	_ZN3PID6updateEf
 1878 012e F0EE407A 		fcpys	s15, s0
 1879 0132 444B     		ldr	r3, .L112+52
 1880 0134 C3ED007A 		fsts	s15, [r3]
 1881              		.loc 18 107 0
 1882 0138 9DAA     		add	r2, sp, #628
 1883 013a 9BAB     		add	r3, sp, #620
 1884 013c 1046     		mov	r0, r2
 1885 013e 1946     		mov	r1, r3
 1886 0140 FFF7FEFF 		bl	_ZN3r2p9PublisherINS_12Velocity3MsgEE5allocERPS1_
 1887 0144 0346     		mov	r3, r0
 1888 0146 002B     		cmp	r3, #0
 1889 0148 12D0     		beq	.L106
 1890              		.loc 18 108 0
 1891 014a 9B9B     		ldr	r3, [sp, #620]
 1892 014c AB9A     		ldr	r2, [sp, #684]	@ float
 1893 014e C3F80220 		str	r2, [r3, #2]	@ unaligned
 1894              		.loc 18 109 0
 1895 0152 9B9B     		ldr	r3, [sp, #620]
 1896 0154 4FF00002 		mov	r2, #0
 1897 0158 C3F80620 		str	r2, [r3, #6]	@ unaligned
 1898              		.loc 18 110 0
 1899 015c 9B9B     		ldr	r3, [sp, #620]
 1900 015e AA9A     		ldr	r2, [sp, #680]	@ float
 1901 0160 C3F80A20 		str	r2, [r3, #10]	@ unaligned
 1902              		.loc 18 111 0
 1903 0164 9B9B     		ldr	r3, [sp, #620]
 1904 0166 9DAA     		add	r2, sp, #628
 1905 0168 1046     		mov	r0, r2
 1906 016a 1946     		mov	r1, r3
 1907 016c FFF7FEFF 		bl	_ZN3r2p9PublisherINS_12Velocity3MsgEE7publishERS1_
 1908              	.L106:
 1909              		.loc 18 114 0
 1910 0170 0FE0     		b	.L107
 1911              	.L108:
 1912              		.loc 18 115 0
 1913 0172 A19B     		ldr	r3, [sp, #644]
 1914 0174 D3F80230 		ldr	r3, [r3, #2]	@ unaligned
 1915 0178 364A     		ldr	r2, .L112+68
 1916 017a 1360     		str	r3, [r2]	@ float
 1917              		.loc 18 116 0
 1918 017c A19B     		ldr	r3, [sp, #644]
 1919 017e D3F80A30 		ldr	r3, [r3, #10]	@ unaligned
 1920 0182 354A     		ldr	r2, .L112+72
 1921 0184 1360     		str	r3, [r2]	@ float
 1922              		.loc 18 117 0
 1923 0186 A19B     		ldr	r3, [sp, #644]
 1924 0188 03AA     		add	r2, sp, #12
 1925 018a 1046     		mov	r0, r2
 1926 018c 1946     		mov	r1, r3
 1927 018e FFF7FEFF 		bl	_ZN3r2p16SubscriberExtBufINS_12Velocity3MsgEE7releaseERS1_
 1928              	.L107:
ARM GAS  /tmp/ccjqfgnD.s 			page 36


 1929              		.loc 18 114 0 discriminator 1
 1930 0192 03AA     		add	r2, sp, #12
 1931 0194 A1AB     		add	r3, sp, #644
 1932 0196 1046     		mov	r0, r2
 1933 0198 1946     		mov	r1, r3
 1934 019a FFF7FEFF 		bl	_ZN3r2p16SubscriberExtBufINS_12Velocity3MsgEE5fetchERPS1_
 1935 019e 0346     		mov	r3, r0
 1936 01a0 002B     		cmp	r3, #0
 1937 01a2 E6D1     		bne	.L108
 1938              		.loc 18 119 0
 1939 01a4 2B4B     		ldr	r3, .L112+68
 1940 01a6 D3ED007A 		flds	s15, [r3]
 1941 01aa 2248     		ldr	r0, .L112+36
 1942 01ac B0EE670A 		fcpys	s0, s15
 1943 01b0 FFF7FEFF 		bl	_ZN3PID3setEf
 1944              		.loc 18 121 0
 1945 01b4 21E0     		b	.L109
 1946              	.L110:
 1947              		.loc 18 122 0
 1948 01b6 9C9B     		ldr	r3, [sp, #624]
 1949 01b8 D3F80210 		ldr	r1, [r3, #2]	@ unaligned
 1950 01bc 0B46     		mov	r3, r1
 1951 01be 1946     		mov	r1, r3	@ float
 1952 01c0 9C9B     		ldr	r3, [sp, #624]
 1953 01c2 D3F80620 		ldr	r2, [r3, #6]	@ unaligned
 1954 01c6 1346     		mov	r3, r2
 1955 01c8 1A46     		mov	r2, r3	@ float
 1956 01ca 9C9B     		ldr	r3, [sp, #624]
 1957 01cc D3F80A30 		ldr	r3, [r3, #10]	@ unaligned
 1958 01d0 1848     		ldr	r0, .L112+36
 1959 01d2 00EE101A 		fmsr	s0, r1
 1960 01d6 00EE902A 		fmsr	s1, r2
 1961 01da 01EE103A 		fmsr	s2, r3
 1962 01de DFED181A 		flds	s3, .L112+48
 1963 01e2 BAEE042A 		fconsts	s4, #164
 1964 01e6 F2EE042A 		fconsts	s5, #36
 1965 01ea FFF7FEFF 		bl	_ZN3PID6configEffffff
 1966              		.loc 18 123 0
 1967 01ee 9C9B     		ldr	r3, [sp, #624]
 1968 01f0 28AA     		add	r2, sp, #160
 1969 01f2 1046     		mov	r0, r2
 1970 01f4 1946     		mov	r1, r3
 1971 01f6 FFF7FEFF 		bl	_ZN3r2p16SubscriberExtBufINS_9PIDCfgMsgEE7releaseERS1_
 1972              	.L109:
 1973              		.loc 18 121 0 discriminator 1
 1974 01fa 28AA     		add	r2, sp, #160
 1975 01fc 9CAB     		add	r3, sp, #624
 1976 01fe 1046     		mov	r0, r2
 1977 0200 1946     		mov	r1, r3
 1978 0202 FFF7FEFF 		bl	_ZN3r2p16SubscriberExtBufINS_9PIDCfgMsgEE5fetchERPS1_
 1979 0206 0346     		mov	r3, r0
 1980 0208 002B     		cmp	r3, #0
 1981 020a D4D1     		bne	.L110
 1982              	.LBE134:
 1983              		.loc 18 126 0
 1984 020c 57E7     		b	.L111
 1985              	.L113:
ARM GAS  /tmp/ccjqfgnD.s 			page 37


 1986 020e 00BF     		.align	2
 1987              	.L112:
 1988 0210 10000000 		.word	.LC3
 1989 0214 00000000 		.word	_Z13enc0_callbackRKN3r2p10EncoderMsgE
 1990 0218 00000000 		.word	_Z13enc1_callbackRKN3r2p10EncoderMsgE
 1991 021c 00000000 		.word	rlist
 1992 0220 1C000000 		.word	.LC4
 1993 0224 28000000 		.word	.LC5
 1994 0228 34000000 		.word	.LC6
 1995 022c 3C000000 		.word	.LC7
 1996 0230 00000000 		.word	_ZN3r2p4Time8INFINITEE
 1997 0234 00000000 		.word	vel_pid
 1998 0238 00000000 		.word	0
 1999 023c CDCCCCBD 		.word	3184315597
 2000 0240 CDCC4C3D 		.word	1028443341
 2001 0244 00000000 		.word	angle_setpoint
 2002 0248 00000000 		.word	left_speed
 2003 024c 00000000 		.word	right_speed
 2004 0250 AE47613E 		.word	1046562734
 2005 0254 00000000 		.word	vel_setpoint
 2006 0258 00000000 		.word	w_setpoint
 2007              	.LBE132:
 2008              	.LBE131:
 2009              		.cfi_endproc
 2010              	.LFE604:
 2011              		.size	_Z13velocity_nodePv, .-_Z13velocity_nodePv
 2012              		.global	balance_pid
 2013 025c AFF30080 		.section	.bss.balance_pid,"aw",%nobits
 2014              		.align	2
 2015              		.type	balance_pid, %object
 2016              		.size	balance_pid, 32
 2017              	balance_pid:
 2018 0000 00000000 		.space	32
 2018      00000000 
 2018      00000000 
 2018      00000000 
 2018      00000000 
 2019              		.section	.rodata
 2020 0045 000000   		.align	2
 2021              	.LC8:
 2022 0048 62616C61 		.ascii	"balance\000"
 2022      6E636500 
 2023              		.align	2
 2024              	.LC9:
 2025 0050 70776D00 		.ascii	"pwm\000"
 2026              		.align	2
 2027              	.LC10:
 2028 0054 696D7500 		.ascii	"imu\000"
 2029              		.align	2
 2030              	.LC11:
 2031 0058 62616C63 		.ascii	"balcfg\000"
 2031      666700
 2032              		.section	.text._Z12balance_nodePv,"ax",%progbits
 2033              		.align	2
 2034              		.p2align 4,,15
 2035              		.global	_Z12balance_nodePv
 2036              		.thumb
ARM GAS  /tmp/ccjqfgnD.s 			page 38


 2037              		.thumb_func
 2038              		.type	_Z12balance_nodePv, %function
 2039              	_Z12balance_nodePv:
 2040              	.LFB605:
 2041              		.loc 18 135 0
 2042              		.cfi_startproc
 2043              		@ args = 0, pretend = 0, frame = 368
 2044              		@ frame_needed = 0, uses_anonymous_args = 0
 2045 0000 00B5     		push	{lr}
 2046              		.cfi_def_cfa_offset 4
 2047              		.cfi_offset 14, -4
 2048 0002 DDB0     		sub	sp, sp, #372
 2049              		.cfi_def_cfa_offset 376
 2050 0004 01AB     		add	r3, sp, #4
 2051 0006 1860     		str	r0, [r3]
 2052              	.LBB135:
 2053              		.loc 18 136 0
 2054 0008 53AB     		add	r3, sp, #332
 2055 000a 1846     		mov	r0, r3
 2056 000c 7249     		ldr	r1, .L120
 2057 000e 0122     		movs	r2, #1
 2058 0010 FFF7FEFF 		bl	_ZN3r2p4NodeC1EPKcb
 2059              		.loc 18 137 0
 2060 0014 02AB     		add	r3, sp, #8
 2061 0016 1846     		mov	r0, r3
 2062 0018 0021     		movs	r1, #0
 2063 001a FFF7FEFF 		bl	_ZN3r2p10SubscriberINS_6IMUMsgELj5EEC1EPFbRKS1_E
 2064              		.loc 18 138 0
 2065 001e 27AB     		add	r3, sp, #156
 2066 0020 1846     		mov	r0, r3
 2067 0022 0021     		movs	r1, #0
 2068 0024 FFF7FEFF 		bl	_ZN3r2p10SubscriberINS_9PIDCfgMsgELj5EEC1EPFbRKS1_E
 2069              		.loc 18 142 0
 2070 0028 4DAB     		add	r3, sp, #308
 2071 002a 1846     		mov	r0, r3
 2072 002c FFF7FEFF 		bl	_ZN3r2p9PublisherINS_7PWM2MsgEEC1Ev
 2073              		.loc 18 145 0
 2074 0030 0023     		movs	r3, #0
 2075 0032 5B93     		str	r3, [sp, #364]
 2076              		.loc 18 148 0
 2077 0034 694B     		ldr	r3, .L120+4
 2078 0036 9B69     		ldr	r3, [r3, #24]
 2079 0038 674A     		ldr	r2, .L120
 2080 003a 9A61     		str	r2, [r3, #24]
 2081              		.loc 18 150 0
 2082 003c 53AA     		add	r2, sp, #332
 2083 003e 4DAB     		add	r3, sp, #308
 2084 0040 1046     		mov	r0, r2
 2085 0042 1946     		mov	r1, r3
 2086 0044 664A     		ldr	r2, .L120+8
 2087 0046 674B     		ldr	r3, .L120+12
 2088 0048 FFF7FEFF 		bl	_ZN3r2p4Node9advertiseINS_7PWM2MsgEEEbRNS_9PublisherIT_EEPKcRKNS_4TimeE
 2089              		.loc 18 151 0
 2090 004c 53AA     		add	r2, sp, #332
 2091 004e 02AB     		add	r3, sp, #8
 2092 0050 1046     		mov	r0, r2
 2093 0052 1946     		mov	r1, r3
ARM GAS  /tmp/ccjqfgnD.s 			page 39


 2094 0054 644A     		ldr	r2, .L120+16
 2095 0056 FFF7FEFF 		bl	_ZN3r2p4Node9subscribeINS_6IMUMsgELj5EEEbRNS_10SubscriberIT_XT0_EEEPKc
 2096              		.loc 18 152 0
 2097 005a 53AA     		add	r2, sp, #332
 2098 005c 27AB     		add	r3, sp, #156
 2099 005e 1046     		mov	r0, r2
 2100 0060 1946     		mov	r1, r3
 2101 0062 624A     		ldr	r2, .L120+20
 2102 0064 FFF7FEFF 		bl	_ZN3r2p4Node9subscribeINS_9PIDCfgMsgELj5EEEbRNS_10SubscriberIT_XT0_EEEPKc
 2103              		.loc 18 155 0
 2104 0068 6148     		ldr	r0, .L120+24
 2105 006a 9FED620A 		flds	s0, .L120+28
 2106 006e DFED620A 		flds	s1, .L120+32
 2107 0072 9FED621A 		flds	s2, .L120+36
 2108 0076 DFED611A 		flds	s3, .L120+36
 2109 007a 9FED612A 		flds	s4, .L120+40
 2110 007e DFED612A 		flds	s5, .L120+44
 2111 0082 FFF7FEFF 		bl	_ZN3PID6configEffffff
 2112              		.loc 18 156 0
 2113 0086 604B     		ldr	r3, .L120+48
 2114 0088 D3ED007A 		flds	s15, [r3]
 2115 008c 5848     		ldr	r0, .L120+24
 2116 008e B0EE670A 		fcpys	s0, s15
 2117 0092 FFF7FEFF 		bl	_ZN3PID3setEf
 2118              	.L119:
 2119              		.loc 18 159 0
 2120 0096 5C4B     		ldr	r3, .L120+48
 2121 0098 D3ED007A 		flds	s15, [r3]
 2122 009c 5448     		ldr	r0, .L120+24
 2123 009e B0EE670A 		fcpys	s0, s15
 2124 00a2 FFF7FEFF 		bl	_ZN3PID3setEf
 2125              		.loc 18 161 0
 2126 00a6 08E0     		b	.L115
 2127              	.L116:
 2128              		.loc 18 162 0
 2129 00a8 5AAB     		add	r3, sp, #360
 2130 00aa 1846     		mov	r0, r3
 2131 00ac 0121     		movs	r1, #1
 2132 00ae FFF7FEFF 		bl	_ZN3r2p4Time2msEl
 2133 00b2 5AAB     		add	r3, sp, #360
 2134 00b4 1846     		mov	r0, r3
 2135 00b6 FFF7FEFF 		bl	_ZN3r2p6Thread5sleepERKNS_4TimeE
 2136              	.L115:
 2137              		.loc 18 161 0 discriminator 1
 2138 00ba 02AA     		add	r2, sp, #8
 2139 00bc 52AB     		add	r3, sp, #328
 2140 00be 1046     		mov	r0, r2
 2141 00c0 1946     		mov	r1, r3
 2142 00c2 FFF7FEFF 		bl	_ZN3r2p16SubscriberExtBufINS_6IMUMsgEE5fetchERPS1_
 2143 00c6 0346     		mov	r3, r0
 2144 00c8 83F00103 		eor	r3, r3, #1
 2145 00cc DBB2     		uxtb	r3, r3
 2146 00ce 002B     		cmp	r3, #0
 2147 00d0 EAD1     		bne	.L116
 2148              		.loc 18 165 0
 2149 00d2 21E0     		b	.L117
 2150              	.L118:
ARM GAS  /tmp/ccjqfgnD.s 			page 40


 2151              		.loc 18 166 0
 2152 00d4 519B     		ldr	r3, [sp, #324]
 2153 00d6 D3F80210 		ldr	r1, [r3, #2]	@ unaligned
 2154 00da 0B46     		mov	r3, r1
 2155 00dc 1946     		mov	r1, r3	@ float
 2156 00de 519B     		ldr	r3, [sp, #324]
 2157 00e0 D3F80620 		ldr	r2, [r3, #6]	@ unaligned
 2158 00e4 1346     		mov	r3, r2
 2159 00e6 1A46     		mov	r2, r3	@ float
 2160 00e8 519B     		ldr	r3, [sp, #324]
 2161 00ea D3F80A30 		ldr	r3, [r3, #10]	@ unaligned
 2162 00ee 4048     		ldr	r0, .L120+24
 2163 00f0 00EE101A 		fmsr	s0, r1
 2164 00f4 00EE902A 		fmsr	s1, r2
 2165 00f8 01EE103A 		fmsr	s2, r3
 2166 00fc DFED3F1A 		flds	s3, .L120+36
 2167 0100 9FED3F2A 		flds	s4, .L120+40
 2168 0104 DFED3F2A 		flds	s5, .L120+44
 2169 0108 FFF7FEFF 		bl	_ZN3PID6configEffffff
 2170              		.loc 18 167 0
 2171 010c 519B     		ldr	r3, [sp, #324]
 2172 010e 27AA     		add	r2, sp, #156
 2173 0110 1046     		mov	r0, r2
 2174 0112 1946     		mov	r1, r3
 2175 0114 FFF7FEFF 		bl	_ZN3r2p16SubscriberExtBufINS_9PIDCfgMsgEE7releaseERS1_
 2176              	.L117:
 2177              		.loc 18 165 0 discriminator 1
 2178 0118 27AA     		add	r2, sp, #156
 2179 011a 51AB     		add	r3, sp, #324
 2180 011c 1046     		mov	r0, r2
 2181 011e 1946     		mov	r1, r3
 2182 0120 FFF7FEFF 		bl	_ZN3r2p16SubscriberExtBufINS_9PIDCfgMsgEE5fetchERPS1_
 2183 0124 0346     		mov	r3, r0
 2184 0126 002B     		cmp	r3, #0
 2185 0128 D4D1     		bne	.L118
 2186              		.loc 18 170 0
 2187 012a 529B     		ldr	r3, [sp, #328]
 2188 012c D3F80630 		ldr	r3, [r3, #6]	@ unaligned
 2189 0130 DFED367A 		flds	s15, .L120+52
 2190 0134 07EE103A 		fmsr	s14, r3
 2191 0138 77EE277A 		fadds	s15, s14, s15
 2192 013c 2C48     		ldr	r0, .L120+24
 2193 013e B0EE670A 		fcpys	s0, s15
 2194 0142 FFF7FEFF 		bl	_ZN3PID6updateEf
 2195 0146 F0EE407A 		fcpys	s15, s0
 2196 014a FDEEE77A 		ftosizs	s15, s15
 2197 014e 17EE903A 		fmrs	r3, s15	@ int
 2198 0152 5B93     		str	r3, [sp, #364]
 2199              		.loc 18 171 0
 2200 0154 529B     		ldr	r3, [sp, #328]
 2201 0156 02AA     		add	r2, sp, #8
 2202 0158 1046     		mov	r0, r2
 2203 015a 1946     		mov	r1, r3
 2204 015c FFF7FEFF 		bl	_ZN3r2p16SubscriberExtBufINS_6IMUMsgEE7releaseERS1_
 2205              		.loc 18 173 0
 2206 0160 4DAA     		add	r2, sp, #308
 2207 0162 4CAB     		add	r3, sp, #304
ARM GAS  /tmp/ccjqfgnD.s 			page 41


 2208 0164 1046     		mov	r0, r2
 2209 0166 1946     		mov	r1, r3
 2210 0168 FFF7FEFF 		bl	_ZN3r2p9PublisherINS_7PWM2MsgEE5allocERPS1_
 2211 016c 0346     		mov	r3, r0
 2212 016e 002B     		cmp	r3, #0
 2213 0170 91D0     		beq	.L119
 2214              		.loc 18 174 0
 2215 0172 4C9B     		ldr	r3, [sp, #304]
 2216 0174 5B9A     		ldr	r2, [sp, #364]
 2217 0176 07EE902A 		fmsr	s15, r2	@ int
 2218 017a B8EEE77A 		fsitos	s14, s15
 2219 017e 244A     		ldr	r2, .L120+56
 2220 0180 D2ED006A 		flds	s13, [r2]
 2221 0184 DFED237A 		flds	s15, .L120+60
 2222 0188 66EEA77A 		fmuls	s15, s13, s15
 2223 018c 77EE677A 		fsubs	s15, s14, s15
 2224 0190 FDEEE77A 		ftosizs	s15, s15
 2225 0194 17EE902A 		fmrs	r2, s15	@ int
 2226 0198 92B2     		uxth	r2, r2
 2227 019a 5A80     		strh	r2, [r3, #2]	@ unaligned
 2228              		.loc 18 175 0
 2229 019c 4C9B     		ldr	r3, [sp, #304]
 2230 019e 5B9A     		ldr	r2, [sp, #364]
 2231 01a0 07EE902A 		fmsr	s15, r2	@ int
 2232 01a4 B8EEE77A 		fsitos	s14, s15
 2233 01a8 194A     		ldr	r2, .L120+56
 2234 01aa D2ED006A 		flds	s13, [r2]
 2235 01ae DFED197A 		flds	s15, .L120+60
 2236 01b2 66EEA77A 		fmuls	s15, s13, s15
 2237 01b6 77EE277A 		fadds	s15, s14, s15
 2238 01ba F1EE677A 		fnegs	s15, s15
 2239 01be FDEEE77A 		ftosizs	s15, s15
 2240 01c2 17EE902A 		fmrs	r2, s15	@ int
 2241 01c6 92B2     		uxth	r2, r2
 2242 01c8 9A80     		strh	r2, [r3, #4]	@ unaligned
 2243              		.loc 18 176 0
 2244 01ca 4C9B     		ldr	r3, [sp, #304]
 2245 01cc 4DAA     		add	r2, sp, #308
 2246 01ce 1046     		mov	r0, r2
 2247 01d0 1946     		mov	r1, r3
 2248 01d2 FFF7FEFF 		bl	_ZN3r2p9PublisherINS_7PWM2MsgEE7publishERS1_
 2249 01d6 5EE7     		b	.L119
 2250              	.L121:
 2251              		.align	2
 2252              	.L120:
 2253 01d8 48000000 		.word	.LC8
 2254 01dc 00000000 		.word	rlist
 2255 01e0 50000000 		.word	.LC9
 2256 01e4 00000000 		.word	_ZN3r2p4Time8INFINITEE
 2257 01e8 54000000 		.word	.LC10
 2258 01ec 58000000 		.word	.LC11
 2259 01f0 00000000 		.word	balance_pid
 2260 01f4 00007A43 		.word	1132068864
 2261 01f8 CDCC4C3E 		.word	1045220557
 2262 01fc 0AD7A33C 		.word	1017370378
 2263 0200 00007AC5 		.word	3313106944
 2264 0204 00007A45 		.word	1165623296
ARM GAS  /tmp/ccjqfgnD.s 			page 42


 2265 0208 00000000 		.word	angle_setpoint
 2266 020c 3333333F 		.word	1060320051
 2267 0210 00000000 		.word	w_setpoint
 2268 0214 00004843 		.word	1128792064
 2269              	.LBE135:
 2270              		.cfi_endproc
 2271              	.LFE605:
 2272              		.size	_Z12balance_nodePv, .-_Z12balance_nodePv
 2273 0218 AFF30080 		.section	.rodata
 2273      AFF30080 
 2274 005f 00       		.align	2
 2275              	.LC12:
 2276 0060 6D616467 		.ascii	"madgwick\000"
 2276      7769636B 
 2276      00
 2277 0069 000000   		.align	2
 2278              	.LC13:
 2279 006c 696D755F 		.ascii	"imu_raw\000"
 2279      72617700 
 2280              		.section	.text._Z13madgwick_nodePv,"ax",%progbits
 2281              		.align	2
 2282              		.p2align 4,,15
 2283              		.global	_Z13madgwick_nodePv
 2284              		.thumb
 2285              		.thumb_func
 2286              		.type	_Z13madgwick_nodePv, %function
 2287              	_Z13madgwick_nodePv:
 2288              	.LFB606:
 2289              		.loc 18 209 0
 2290              		.cfi_startproc
 2291              		@ args = 0, pretend = 0, frame = 96
 2292              		@ frame_needed = 0, uses_anonymous_args = 0
 2293 0000 00B5     		push	{lr}
 2294              		.cfi_def_cfa_offset 4
 2295              		.cfi_offset 14, -4
 2296 0002 99B0     		sub	sp, sp, #100
 2297              		.cfi_def_cfa_offset 104
 2298 0004 0190     		str	r0, [sp, #4]
 2299              	.LBB136:
 2300              		.loc 18 210 0
 2301 0006 10AB     		add	r3, sp, #64
 2302 0008 1846     		mov	r0, r3
 2303 000a 8B49     		ldr	r1, .L126
 2304 000c 0122     		movs	r2, #1
 2305 000e FFF7FEFF 		bl	_ZN3r2p4NodeC1EPKcb
 2306              		.loc 18 211 0
 2307 0012 0CAB     		add	r3, sp, #48
 2308 0014 1846     		mov	r0, r3
 2309 0016 FFF7FEFF 		bl	_ZN3r2p9PublisherINS_6IMUMsgEEC1Ev
 2310              		.loc 18 212 0
 2311 001a 08AB     		add	r3, sp, #32
 2312 001c 1846     		mov	r0, r3
 2313 001e FFF7FEFF 		bl	_ZN3r2p9PublisherINS_7IMURaw9EEC1Ev
 2314              		.loc 18 217 0
 2315 0022 864B     		ldr	r3, .L126+4
 2316 0024 9B69     		ldr	r3, [r3, #24]
 2317 0026 844A     		ldr	r2, .L126
ARM GAS  /tmp/ccjqfgnD.s 			page 43


 2318 0028 9A61     		str	r2, [r3, #24]
 2319              		.loc 18 219 0
 2320 002a 8548     		ldr	r0, .L126+8
 2321 002c 8549     		ldr	r1, .L126+12
 2322 002e FFF7FEFF 		bl	spiStart
 2323              		.loc 18 220 0
 2324 0032 8548     		ldr	r0, .L126+16
 2325 0034 8549     		ldr	r1, .L126+20
 2326 0036 FFF7FEFF 		bl	extStart
 2327              		.loc 18 222 0
 2328 003a 4FF4FA70 		mov	r0, #500
 2329 003e FFF7FEFF 		bl	chThdSleep
 2330              		.loc 18 224 0
 2331 0042 7F48     		ldr	r0, .L126+8
 2332 0044 4021     		movs	r1, #64
 2333 0046 FFF7FEFF 		bl	gyroRun
 2334              		.loc 18 225 0
 2335 004a 7D48     		ldr	r0, .L126+8
 2336 004c 4021     		movs	r1, #64
 2337 004e FFF7FEFF 		bl	accRun
 2338              		.loc 18 226 0
 2339 0052 7B48     		ldr	r0, .L126+8
 2340 0054 4021     		movs	r1, #64
 2341 0056 FFF7FEFF 		bl	magRun
 2342              		.loc 18 228 0
 2343 005a 10AA     		add	r2, sp, #64
 2344 005c 0CAB     		add	r3, sp, #48
 2345 005e 1046     		mov	r0, r2
 2346 0060 1946     		mov	r1, r3
 2347 0062 7B4A     		ldr	r2, .L126+24
 2348 0064 7B4B     		ldr	r3, .L126+28
 2349 0066 FFF7FEFF 		bl	_ZN3r2p4Node9advertiseINS_6IMUMsgEEEbRNS_9PublisherIT_EEPKcRKNS_4TimeE
 2350              		.loc 18 229 0
 2351 006a 10AA     		add	r2, sp, #64
 2352 006c 08AB     		add	r3, sp, #32
 2353 006e 1046     		mov	r0, r2
 2354 0070 1946     		mov	r1, r3
 2355 0072 794A     		ldr	r2, .L126+32
 2356 0074 774B     		ldr	r3, .L126+28
 2357 0076 FFF7FEFF 		bl	_ZN3r2p4Node9advertiseINS_7IMURaw9EEEbRNS_9PublisherIT_EEPKcRKNS_4TimeE
 2358              		.loc 18 231 0
 2359 007a 784B     		ldr	r3, .L126+36
 2360 007c DB68     		ldr	r3, [r3, #12]
 2361 007e 1793     		str	r3, [sp, #92]
 2362              	.L125:
 2363              	.LBB137:
 2364              	.LBB138:
 2365              		.loc 18 234 0
 2366 0080 774B     		ldr	r3, .L126+40
 2367 0082 DB88     		ldrh	r3, [r3, #6]
 2368 0084 1BB2     		sxth	r3, r3
 2369 0086 07EE903A 		fmsr	s15, r3	@ int
 2370 008a B8EEE77A 		fsitos	s14, s15
 2371 008e DFED757A 		flds	s15, .L126+44
 2372 0092 87EE277A 		fdivs	s14, s14, s15
 2373 0096 DFED747A 		flds	s15, .L126+48
 2374 009a 27EE277A 		fmuls	s14, s14, s15
ARM GAS  /tmp/ccjqfgnD.s 			page 44


 2375              		.loc 18 236 0
 2376 009e DFED737A 		flds	s15, .L126+52
 2377 00a2 87EE275A 		fdivs	s10, s14, s15
 2378              		.loc 18 234 0
 2379 00a6 6E4B     		ldr	r3, .L126+40
 2380 00a8 9B88     		ldrh	r3, [r3, #4]
 2381 00aa 1BB2     		sxth	r3, r3
 2382 00ac 5B42     		negs	r3, r3
 2383 00ae 07EE903A 		fmsr	s15, r3	@ int
 2384 00b2 B8EEE77A 		fsitos	s14, s15
 2385 00b6 DFED6B7A 		flds	s15, .L126+44
 2386 00ba 87EE277A 		fdivs	s14, s14, s15
 2387 00be DFED6A7A 		flds	s15, .L126+48
 2388 00c2 27EE277A 		fmuls	s14, s14, s15
 2389              		.loc 18 236 0
 2390 00c6 DFED697A 		flds	s15, .L126+52
 2391 00ca C7EE275A 		fdivs	s11, s14, s15
 2392              		.loc 18 235 0
 2393 00ce 644B     		ldr	r3, .L126+40
 2394 00d0 1B89     		ldrh	r3, [r3, #8]
 2395 00d2 1BB2     		sxth	r3, r3
 2396 00d4 07EE903A 		fmsr	s15, r3	@ int
 2397 00d8 B8EEE77A 		fsitos	s14, s15
 2398 00dc DFED617A 		flds	s15, .L126+44
 2399 00e0 87EE277A 		fdivs	s14, s14, s15
 2400 00e4 DFED607A 		flds	s15, .L126+48
 2401 00e8 27EE277A 		fmuls	s14, s14, s15
 2402              		.loc 18 236 0
 2403 00ec DFED5F7A 		flds	s15, .L126+52
 2404 00f0 87EE276A 		fdivs	s12, s14, s15
 2405 00f4 5E4B     		ldr	r3, .L126+56
 2406 00f6 9B88     		ldrh	r3, [r3, #4]
 2407 00f8 1BB2     		sxth	r3, r3
 2408 00fa 07EE903A 		fmsr	s15, r3	@ int
 2409 00fe B8EEE77A 		fsitos	s14, s15
 2410 0102 DFED5C7A 		flds	s15, .L126+60
 2411 0106 C7EE276A 		fdivs	s13, s14, s15
 2412 010a 594B     		ldr	r3, .L126+56
 2413 010c DB88     		ldrh	r3, [r3, #6]
 2414 010e 1BB2     		sxth	r3, r3
 2415 0110 07EE903A 		fmsr	s15, r3	@ int
 2416 0114 B8EEE77A 		fsitos	s14, s15
 2417 0118 DFED567A 		flds	s15, .L126+60
 2418 011c 87EE277A 		fdivs	s14, s14, s15
 2419 0120 534B     		ldr	r3, .L126+56
 2420 0122 1B89     		ldrh	r3, [r3, #8]
 2421 0124 1BB2     		sxth	r3, r3
 2422 0126 07EE903A 		fmsr	s15, r3	@ int
 2423 012a F8EEE74A 		fsitos	s9, s15
 2424 012e DFED517A 		flds	s15, .L126+60
 2425 0132 C4EEA77A 		fdivs	s15, s9, s15
 2426 0136 B0EE450A 		fcpys	s0, s10
 2427 013a F0EE650A 		fcpys	s1, s11
 2428 013e B0EE461A 		fcpys	s2, s12
 2429 0142 F0EE661A 		fcpys	s3, s13
 2430 0146 B0EE472A 		fcpys	s4, s14
 2431 014a F0EE672A 		fcpys	s5, s15
ARM GAS  /tmp/ccjqfgnD.s 			page 45


 2432 014e FFF7FEFF 		bl	MadgwickAHRSupdateIMU
 2433              		.loc 18 237 0
 2434 0152 05AB     		add	r3, sp, #20
 2435 0154 1846     		mov	r0, r3
 2436 0156 FFF7FEFF 		bl	getMadAttitude
 2437              		.loc 18 240 0
 2438 015a 0CAA     		add	r2, sp, #48
 2439 015c 04AB     		add	r3, sp, #16
 2440 015e 1046     		mov	r0, r2
 2441 0160 1946     		mov	r1, r3
 2442 0162 FFF7FEFF 		bl	_ZN3r2p9PublisherINS_6IMUMsgEE5allocERPS1_
 2443 0166 0346     		mov	r3, r0
 2444 0168 002B     		cmp	r3, #0
 2445 016a 26D0     		beq	.L123
 2446              		.loc 18 241 0
 2447 016c 049B     		ldr	r3, [sp, #16]
 2448 016e 9DED057A 		flds	s14, [sp, #20]
 2449 0172 DFED417A 		flds	s15, .L126+64
 2450 0176 67EE277A 		fmuls	s15, s14, s15
 2451 017a 17EE902A 		fmrs	r2, s15
 2452 017e C3F80220 		str	r2, [r3, #2]	@ unaligned
 2453              		.loc 18 242 0
 2454 0182 049B     		ldr	r3, [sp, #16]
 2455 0184 9DED067A 		flds	s14, [sp, #24]
 2456 0188 DFED3B7A 		flds	s15, .L126+64
 2457 018c 67EE277A 		fmuls	s15, s14, s15
 2458 0190 17EE902A 		fmrs	r2, s15
 2459 0194 C3F80620 		str	r2, [r3, #6]	@ unaligned
 2460              		.loc 18 243 0
 2461 0198 049B     		ldr	r3, [sp, #16]
 2462 019a 9DED077A 		flds	s14, [sp, #28]
 2463 019e DFED367A 		flds	s15, .L126+64
 2464 01a2 67EE277A 		fmuls	s15, s14, s15
 2465 01a6 17EE902A 		fmrs	r2, s15
 2466 01aa C3F80A20 		str	r2, [r3, #10]	@ unaligned
 2467              		.loc 18 245 0
 2468 01ae 049B     		ldr	r3, [sp, #16]
 2469 01b0 0CAA     		add	r2, sp, #48
 2470 01b2 1046     		mov	r0, r2
 2471 01b4 1946     		mov	r1, r3
 2472 01b6 FFF7FEFF 		bl	_ZN3r2p9PublisherINS_6IMUMsgEE7publishERS1_
 2473              	.L123:
 2474              		.loc 18 249 0
 2475 01ba 08AA     		add	r2, sp, #32
 2476 01bc 03AB     		add	r3, sp, #12
 2477 01be 1046     		mov	r0, r2
 2478 01c0 1946     		mov	r1, r3
 2479 01c2 FFF7FEFF 		bl	_ZN3r2p9PublisherINS_7IMURaw9EE5allocERPS1_
 2480 01c6 0346     		mov	r3, r0
 2481 01c8 002B     		cmp	r3, #0
 2482 01ca 2DD0     		beq	.L124
 2483              		.loc 18 250 0
 2484 01cc 039B     		ldr	r3, [sp, #12]
 2485 01ce 284A     		ldr	r2, .L126+56
 2486 01d0 9288     		ldrh	r2, [r2, #4]
 2487 01d2 5A80     		strh	r2, [r3, #2]	@ unaligned
 2488              		.loc 18 251 0
ARM GAS  /tmp/ccjqfgnD.s 			page 46


 2489 01d4 039B     		ldr	r3, [sp, #12]
 2490 01d6 264A     		ldr	r2, .L126+56
 2491 01d8 D288     		ldrh	r2, [r2, #6]
 2492 01da 9A80     		strh	r2, [r3, #4]	@ unaligned
 2493              		.loc 18 252 0
 2494 01dc 039B     		ldr	r3, [sp, #12]
 2495 01de 244A     		ldr	r2, .L126+56
 2496 01e0 1289     		ldrh	r2, [r2, #8]
 2497 01e2 DA80     		strh	r2, [r3, #6]	@ unaligned
 2498              		.loc 18 253 0
 2499 01e4 039B     		ldr	r3, [sp, #12]
 2500 01e6 1E4A     		ldr	r2, .L126+40
 2501 01e8 D288     		ldrh	r2, [r2, #6]
 2502 01ea 1A81     		strh	r2, [r3, #8]	@ unaligned
 2503              		.loc 18 254 0
 2504 01ec 039B     		ldr	r3, [sp, #12]
 2505 01ee 1C4A     		ldr	r2, .L126+40
 2506 01f0 9288     		ldrh	r2, [r2, #4]
 2507 01f2 92B2     		uxth	r2, r2
 2508 01f4 5242     		negs	r2, r2
 2509 01f6 92B2     		uxth	r2, r2
 2510 01f8 92B2     		uxth	r2, r2
 2511 01fa 5A81     		strh	r2, [r3, #10]	@ unaligned
 2512              		.loc 18 255 0
 2513 01fc 039B     		ldr	r3, [sp, #12]
 2514 01fe 184A     		ldr	r2, .L126+40
 2515 0200 1289     		ldrh	r2, [r2, #8]
 2516 0202 9A81     		strh	r2, [r3, #12]	@ unaligned
 2517              		.loc 18 256 0
 2518 0204 039B     		ldr	r3, [sp, #12]
 2519 0206 1D4A     		ldr	r2, .L126+68
 2520 0208 9288     		ldrh	r2, [r2, #4]
 2521 020a DA81     		strh	r2, [r3, #14]	@ unaligned
 2522              		.loc 18 257 0
 2523 020c 039B     		ldr	r3, [sp, #12]
 2524 020e 1B4A     		ldr	r2, .L126+68
 2525 0210 D288     		ldrh	r2, [r2, #6]
 2526 0212 1A82     		strh	r2, [r3, #16]	@ unaligned
 2527              		.loc 18 258 0
 2528 0214 039B     		ldr	r3, [sp, #12]
 2529 0216 194A     		ldr	r2, .L126+68
 2530 0218 1289     		ldrh	r2, [r2, #8]
 2531 021a 5A82     		strh	r2, [r3, #18]	@ unaligned
 2532              		.loc 18 260 0
 2533 021c 039B     		ldr	r3, [sp, #12]
 2534 021e 08AA     		add	r2, sp, #32
 2535 0220 1046     		mov	r0, r2
 2536 0222 1946     		mov	r1, r3
 2537 0224 FFF7FEFF 		bl	_ZN3r2p9PublisherINS_7IMURaw9EE7publishERS1_
 2538              	.L124:
 2539              		.loc 18 263 0
 2540 0228 179B     		ldr	r3, [sp, #92]
 2541 022a 1433     		adds	r3, r3, #20
 2542 022c 1793     		str	r3, [sp, #92]
 2543              		.loc 18 264 0
 2544 022e 1798     		ldr	r0, [sp, #92]
 2545 0230 FFF7FEFF 		bl	chThdSleepUntil
ARM GAS  /tmp/ccjqfgnD.s 			page 47


 2546              	.LBE138:
 2547              		.loc 18 265 0
 2548 0234 24E7     		b	.L125
 2549              	.L127:
 2550 0236 00BF     		.align	2
 2551              	.L126:
 2552 0238 60000000 		.word	.LC12
 2553 023c 00000000 		.word	rlist
 2554 0240 00000000 		.word	SPID1
 2555 0244 00000000 		.word	_ZL7spi1cfg
 2556 0248 00000000 		.word	EXTD1
 2557 024c 00000000 		.word	_ZL6extcfg
 2558 0250 54000000 		.word	.LC10
 2559 0254 00000000 		.word	_ZN3r2p4Time8INFINITEE
 2560 0258 6C000000 		.word	.LC13
 2561 025c 00000000 		.word	vtlist
 2562 0260 00000000 		.word	gyro_data
 2563 0264 6F926442 		.word	1113887343
 2564 0268 D80F4940 		.word	1078530008
 2565 026c 00003443 		.word	1127481344
 2566 0270 00000000 		.word	acc_data
 2567 0274 00007A44 		.word	1148846080
 2568 0278 E12E6542 		.word	1113927393
 2569 027c 00000000 		.word	mag_data
 2570              	.LBE137:
 2571              	.LBE136:
 2572              		.cfi_endproc
 2573              	.LFE606:
 2574              		.size	_Z13madgwick_nodePv, .-_Z13madgwick_nodePv
 2575              		.section	.rodata
 2576              		.align	2
 2577              	.LC0:
 2578 0074 6C656400 		.ascii	"led\000"
 2579              		.align	2
 2580              	.LC14:
 2581 0078 74000000 		.word	.LC0
 2582 007c 01       		.byte	1
 2583 007d 000000   		.space	3
 2584              		.section	.text.main,"ax",%progbits
 2585              		.align	2
 2586              		.p2align 4,,15
 2587              		.global	main
 2588              		.thumb
 2589              		.thumb_func
 2590              		.type	main, %function
 2591              	main:
 2592              	.LFB607:
 2593              		.loc 18 273 0
 2594              		.cfi_startproc
 2595              		@ args = 0, pretend = 0, frame = 24
 2596              		@ frame_needed = 0, uses_anonymous_args = 0
 2597 0000 00B5     		push	{lr}
 2598              		.cfi_def_cfa_offset 4
 2599              		.cfi_offset 14, -4
 2600 0002 8BB0     		sub	sp, sp, #44
 2601              		.cfi_def_cfa_offset 48
 2602              	.LBB139:
ARM GAS  /tmp/ccjqfgnD.s 			page 48


 2603              		.loc 18 275 0
 2604 0004 FFF7FEFF 		bl	halInit
 2605              		.loc 18 276 0
 2606 0008 FFF7FEFF 		bl	chSysInit
 2607              		.loc 18 278 0
 2608 000c 0023     		movs	r3, #0
 2609 000e 0093     		str	r3, [sp]
 2610 0010 0023     		movs	r3, #0
 2611 0012 0193     		str	r3, [sp, #4]
 2612 0014 0223     		movs	r3, #2
 2613 0016 0293     		str	r3, [sp, #8]
 2614 0018 4448     		ldr	r0, .L130
 2615 001a 4549     		ldr	r1, .L130+4
 2616 001c 4FF4AB62 		mov	r2, #1368
 2617 0020 0223     		movs	r3, #2
 2618 0022 FFF7FEFF 		bl	_ZN3r2p10Middleware10initializeEPvjmS1_jm
 2619              		.loc 18 279 0
 2620 0026 4348     		ldr	r0, .L130+8
 2621 0028 4349     		ldr	r1, .L130+12
 2622 002a FFF7FEFF 		bl	_ZN3r2p14RTCANTransport10initializeERK11RTCANConfig
 2623              		.loc 18 280 0
 2624 002e 3F48     		ldr	r0, .L130
 2625 0030 FFF7FEFF 		bl	_ZN3r2p10Middleware5startEv
 2626              		.loc 18 282 0
 2627 0034 414A     		ldr	r2, .L130+16
 2628 0036 05AB     		add	r3, sp, #20
 2629 0038 92E80300 		ldmia	r2, {r0, r1}
 2630 003c 83E80300 		stmia	r3, {r0, r1}
 2631              		.loc 18 283 0
 2632 0040 B023     		movs	r3, #176
 2633 0042 6833     		adds	r3, r3, #104
 2634 0044 03F23F22 		addw	r2, r3, #575
 2635 0048 0723     		movs	r3, #7
 2636 004a 1343     		orrs	r3, r3, r2
 2637 004c 0133     		adds	r3, r3, #1
 2638 004e 05AA     		add	r2, sp, #20
 2639 0050 0092     		str	r2, [sp]
 2640 0052 0022     		movs	r2, #0
 2641 0054 0192     		str	r2, [sp, #4]
 2642 0056 0020     		movs	r0, #0
 2643 0058 1946     		mov	r1, r3
 2644 005a 4022     		movs	r2, #64
 2645 005c 384B     		ldr	r3, .L130+20
 2646 005e FFF7FEFF 		bl	_ZN3r2p6Thread11create_heapEPvjmPFlS1_ES1_PKc
 2647              		.loc 18 285 0
 2648 0062 384B     		ldr	r3, .L130+24
 2649 0064 0493     		str	r3, [sp, #16]
 2650              		.loc 18 286 0
 2651 0066 B023     		movs	r3, #176
 2652 0068 6833     		adds	r3, r3, #104
 2653 006a 03F23F22 		addw	r2, r3, #575
 2654 006e 0723     		movs	r3, #7
 2655 0070 1343     		orrs	r3, r3, r2
 2656 0072 0133     		adds	r3, r3, #1
 2657 0074 04AA     		add	r2, sp, #16
 2658 0076 0092     		str	r2, [sp]
 2659 0078 0022     		movs	r2, #0
ARM GAS  /tmp/ccjqfgnD.s 			page 49


 2660 007a 0192     		str	r2, [sp, #4]
 2661 007c 0020     		movs	r0, #0
 2662 007e 1946     		mov	r1, r3
 2663 0080 4022     		movs	r2, #64
 2664 0082 314B     		ldr	r3, .L130+28
 2665 0084 FFF7FEFF 		bl	_ZN3r2p6Thread11create_heapEPvjmPFlS1_ES1_PKc
 2666              		.loc 18 288 0
 2667 0088 B023     		movs	r3, #176
 2668 008a 6833     		adds	r3, r3, #104
 2669 008c 03F63F02 		addw	r2, r3, #2111
 2670 0090 0723     		movs	r3, #7
 2671 0092 1343     		orrs	r3, r3, r2
 2672 0094 0133     		adds	r3, r3, #1
 2673 0096 0022     		movs	r2, #0
 2674 0098 0092     		str	r2, [sp]
 2675 009a 0022     		movs	r2, #0
 2676 009c 0192     		str	r2, [sp, #4]
 2677 009e 0020     		movs	r0, #0
 2678 00a0 1946     		mov	r1, r3
 2679 00a2 4322     		movs	r2, #67
 2680 00a4 294B     		ldr	r3, .L130+32
 2681 00a6 FFF7FEFF 		bl	_ZN3r2p6Thread11create_heapEPvjmPFlS1_ES1_PKc
 2682              		.loc 18 289 0
 2683 00aa 07AB     		add	r3, sp, #28
 2684 00ac 1846     		mov	r0, r3
 2685 00ae 4FF4FA61 		mov	r1, #2000
 2686 00b2 FFF7FEFF 		bl	_ZN3r2p4Time2msEl
 2687 00b6 07AB     		add	r3, sp, #28
 2688 00b8 1846     		mov	r0, r3
 2689 00ba FFF7FEFF 		bl	_ZN3r2p6Thread5sleepERKNS_4TimeE
 2690              		.loc 18 291 0
 2691 00be B023     		movs	r3, #176
 2692 00c0 6833     		adds	r3, r3, #104
 2693 00c2 03F63F02 		addw	r2, r3, #2111
 2694 00c6 0723     		movs	r3, #7
 2695 00c8 1343     		orrs	r3, r3, r2
 2696 00ca 0133     		adds	r3, r3, #1
 2697 00cc 0022     		movs	r2, #0
 2698 00ce 0092     		str	r2, [sp]
 2699 00d0 0022     		movs	r2, #0
 2700 00d2 0192     		str	r2, [sp, #4]
 2701 00d4 0020     		movs	r0, #0
 2702 00d6 1946     		mov	r1, r3
 2703 00d8 4222     		movs	r2, #66
 2704 00da 1D4B     		ldr	r3, .L130+36
 2705 00dc FFF7FEFF 		bl	_ZN3r2p6Thread11create_heapEPvjmPFlS1_ES1_PKc
 2706              		.loc 18 292 0
 2707 00e0 08AB     		add	r3, sp, #32
 2708 00e2 1846     		mov	r0, r3
 2709 00e4 4FF4FA71 		mov	r1, #500
 2710 00e8 FFF7FEFF 		bl	_ZN3r2p4Time2msEl
 2711 00ec 08AB     		add	r3, sp, #32
 2712 00ee 1846     		mov	r0, r3
 2713 00f0 FFF7FEFF 		bl	_ZN3r2p6Thread5sleepERKNS_4TimeE
 2714              		.loc 18 293 0
 2715 00f4 B023     		movs	r3, #176
 2716 00f6 6833     		adds	r3, r3, #104
ARM GAS  /tmp/ccjqfgnD.s 			page 50


 2717 00f8 03F63F02 		addw	r2, r3, #2111
 2718 00fc 0723     		movs	r3, #7
 2719 00fe 1343     		orrs	r3, r3, r2
 2720 0100 0133     		adds	r3, r3, #1
 2721 0102 0022     		movs	r2, #0
 2722 0104 0092     		str	r2, [sp]
 2723 0106 0022     		movs	r2, #0
 2724 0108 0192     		str	r2, [sp, #4]
 2725 010a 0020     		movs	r0, #0
 2726 010c 1946     		mov	r1, r3
 2727 010e 4122     		movs	r2, #65
 2728 0110 104B     		ldr	r3, .L130+40
 2729 0112 FFF7FEFF 		bl	_ZN3r2p6Thread11create_heapEPvjmPFlS1_ES1_PKc
 2730              	.L129:
 2731              		.loc 18 296 0 discriminator 1
 2732 0116 09AB     		add	r3, sp, #36
 2733 0118 1846     		mov	r0, r3
 2734 011a 4FF4FA71 		mov	r1, #500
 2735 011e FFF7FEFF 		bl	_ZN3r2p4Time2msEl
 2736 0122 09AB     		add	r3, sp, #36
 2737 0124 1846     		mov	r0, r3
 2738 0126 FFF7FEFF 		bl	_ZN3r2p6Thread5sleepERKNS_4TimeE
 2739              		.loc 18 299 0 discriminator 1
 2740 012a F4E7     		b	.L129
 2741              	.L131:
 2742              		.align	2
 2743              	.L130:
 2744 012c 00000000 		.word	_ZN3r2p10Middleware8instanceE
 2745 0130 00000000 		.word	_ZL7wa_info
 2746 0134 00000000 		.word	_ZL8rtcantra
 2747 0138 00000000 		.word	rtcan_config
 2748 013c 78000000 		.word	.LC14
 2749 0140 00000000 		.word	_ZN3r2p11ledpub_nodeEPv
 2750 0144 74000000 		.word	.LC0
 2751 0148 00000000 		.word	_ZN3r2p11ledsub_nodeEPv
 2752 014c 00000000 		.word	_Z13madgwick_nodePv
 2753 0150 00000000 		.word	_Z12balance_nodePv
 2754 0154 00000000 		.word	_Z13velocity_nodePv
 2755              	.LBE139:
 2756              		.cfi_endproc
 2757              	.LFE607:
 2758              		.size	main, .-main
 2759 0158 AFF30080 		.section	.text._ZN3r2p4TimeC2IlEET_,"axG",%progbits,_ZN3r2p4TimeC5IlEET_,comdat
 2759      AFF30080 
 2760              		.align	2
 2761              		.p2align 4,,15
 2762              		.weak	_ZN3r2p4TimeC2IlEET_
 2763              		.thumb
 2764              		.thumb_func
 2765              		.type	_ZN3r2p4TimeC2IlEET_, %function
 2766              	_ZN3r2p4TimeC2IlEET_:
 2767              	.LFB609:
 2768              		.loc 5 159 0
 2769              		.cfi_startproc
 2770              		@ args = 0, pretend = 0, frame = 8
 2771              		@ frame_needed = 0, uses_anonymous_args = 0
 2772              		@ link register save eliminated.
ARM GAS  /tmp/ccjqfgnD.s 			page 51


 2773 0000 82B0     		sub	sp, sp, #8
 2774              		.cfi_def_cfa_offset 8
 2775 0002 0190     		str	r0, [sp, #4]
 2776 0004 0091     		str	r1, [sp]
 2777              	.LBB140:
 2778              		.loc 5 161 0
 2779 0006 019B     		ldr	r3, [sp, #4]
 2780 0008 009A     		ldr	r2, [sp]
 2781 000a 1A60     		str	r2, [r3]
 2782              	.LBE140:
 2783              		.loc 5 162 0
 2784 000c 019B     		ldr	r3, [sp, #4]
 2785 000e 1846     		mov	r0, r3
 2786 0010 02B0     		add	sp, sp, #8
 2787              		@ sp needed
 2788 0012 7047     		bx	lr
 2789              		.cfi_endproc
 2790              	.LFE609:
 2791              		.size	_ZN3r2p4TimeC2IlEET_, .-_ZN3r2p4TimeC2IlEET_
 2792              		.weak	_ZN3r2p4TimeC1IlEET_
 2793              		.thumb_set _ZN3r2p4TimeC1IlEET_,_ZN3r2p4TimeC2IlEET_
 2794 0014 AFF30080 		.section	.text._ZNK3r2p10ArrayQueueIPNS_7MessageEE10get_lengthEv,"axG",%progbits,_ZNK3r2p10ArrayQu
 2794      AFF30080 
 2794      AFF30080 
 2795              		.align	2
 2796              		.p2align 4,,15
 2797              		.weak	_ZNK3r2p10ArrayQueueIPNS_7MessageEE10get_lengthEv
 2798              		.thumb
 2799              		.thumb_func
 2800              		.type	_ZNK3r2p10ArrayQueueIPNS_7MessageEE10get_lengthEv, %function
 2801              	_ZNK3r2p10ArrayQueueIPNS_7MessageEE10get_lengthEv:
 2802              	.LFB617:
 2803              		.file 19 "/home/dave/r2p-sdk/core/Middleware/include/r2p/ArrayQueue.hpp"
 2804              		.loc 19 81 0
 2805              		.cfi_startproc
 2806              		@ args = 0, pretend = 0, frame = 8
 2807              		@ frame_needed = 0, uses_anonymous_args = 0
 2808              		@ link register save eliminated.
 2809 0000 82B0     		sub	sp, sp, #8
 2810              		.cfi_def_cfa_offset 8
 2811 0002 0190     		str	r0, [sp, #4]
 2812              		.loc 19 83 0
 2813 0004 019B     		ldr	r3, [sp, #4]
 2814 0006 5B68     		ldr	r3, [r3, #4]
 2815              		.loc 19 84 0
 2816 0008 1846     		mov	r0, r3
 2817 000a 02B0     		add	sp, sp, #8
 2818              		@ sp needed
 2819 000c 7047     		bx	lr
 2820              		.cfi_endproc
 2821              	.LFE617:
 2822              		.size	_ZNK3r2p10ArrayQueueIPNS_7MessageEE10get_lengthEv, .-_ZNK3r2p10ArrayQueueIPNS_7MessageEE10ge
 2823 000e 00BF     		.section	.text._ZN3r2p10ArrayQueueIPNS_7MessageEE12fetch_unsafeERS2_,"axG",%progbits,_ZN3r2p10Arra
 2824              		.align	2
 2825              		.p2align 4,,15
 2826              		.weak	_ZN3r2p10ArrayQueueIPNS_7MessageEE12fetch_unsafeERS2_
 2827              		.thumb
ARM GAS  /tmp/ccjqfgnD.s 			page 52


 2828              		.thumb_func
 2829              		.type	_ZN3r2p10ArrayQueueIPNS_7MessageEE12fetch_unsafeERS2_, %function
 2830              	_ZN3r2p10ArrayQueueIPNS_7MessageEE12fetch_unsafeERS2_:
 2831              	.LFB618:
 2832              		.loc 19 52 0
 2833              		.cfi_startproc
 2834              		@ args = 0, pretend = 0, frame = 8
 2835              		@ frame_needed = 0, uses_anonymous_args = 0
 2836              		@ link register save eliminated.
 2837 0000 82B0     		sub	sp, sp, #8
 2838              		.cfi_def_cfa_offset 8
 2839 0002 0190     		str	r0, [sp, #4]
 2840 0004 0091     		str	r1, [sp]
 2841              		.loc 19 54 0
 2842 0006 019B     		ldr	r3, [sp, #4]
 2843 0008 9B68     		ldr	r3, [r3, #8]
 2844 000a 002B     		cmp	r3, #0
 2845 000c 23D0     		beq	.L138
 2846              		.loc 19 55 0
 2847 000e 019B     		ldr	r3, [sp, #4]
 2848 0010 9B68     		ldr	r3, [r3, #8]
 2849 0012 5A1E     		subs	r2, r3, #1
 2850 0014 019B     		ldr	r3, [sp, #4]
 2851 0016 9A60     		str	r2, [r3, #8]
 2852              		.loc 19 56 0
 2853 0018 019B     		ldr	r3, [sp, #4]
 2854 001a DB68     		ldr	r3, [r3, #12]
 2855 001c 1A68     		ldr	r2, [r3]
 2856 001e 009B     		ldr	r3, [sp]
 2857 0020 1A60     		str	r2, [r3]
 2858              		.loc 19 57 0
 2859 0022 019B     		ldr	r3, [sp, #4]
 2860 0024 DB68     		ldr	r3, [r3, #12]
 2861 0026 1A1D     		adds	r2, r3, #4
 2862 0028 019B     		ldr	r3, [sp, #4]
 2863 002a DA60     		str	r2, [r3, #12]
 2864 002c 019B     		ldr	r3, [sp, #4]
 2865 002e DA68     		ldr	r2, [r3, #12]
 2866 0030 019B     		ldr	r3, [sp, #4]
 2867 0032 1968     		ldr	r1, [r3]
 2868 0034 019B     		ldr	r3, [sp, #4]
 2869 0036 5B68     		ldr	r3, [r3, #4]
 2870 0038 9B00     		lsls	r3, r3, #2
 2871 003a 0B44     		add	r3, r3, r1
 2872 003c 9A42     		cmp	r2, r3
 2873 003e 34BF     		ite	cc
 2874 0040 0023     		movcc	r3, #0
 2875 0042 0123     		movcs	r3, #1
 2876 0044 DBB2     		uxtb	r3, r3
 2877 0046 002B     		cmp	r3, #0
 2878 0048 03D0     		beq	.L139
 2879              		.loc 19 58 0
 2880 004a 019B     		ldr	r3, [sp, #4]
 2881 004c 1A68     		ldr	r2, [r3]
 2882 004e 019B     		ldr	r3, [sp, #4]
 2883 0050 DA60     		str	r2, [r3, #12]
 2884              	.L139:
ARM GAS  /tmp/ccjqfgnD.s 			page 53


 2885              		.loc 19 60 0
 2886 0052 0123     		movs	r3, #1
 2887 0054 00E0     		b	.L140
 2888              	.L138:
 2889              		.loc 19 62 0
 2890 0056 0023     		movs	r3, #0
 2891              	.L140:
 2892              		.loc 19 63 0
 2893 0058 1846     		mov	r0, r3
 2894 005a 02B0     		add	sp, sp, #8
 2895              		@ sp needed
 2896 005c 7047     		bx	lr
 2897              		.cfi_endproc
 2898              	.LFE618:
 2899              		.size	_ZN3r2p10ArrayQueueIPNS_7MessageEE12fetch_unsafeERS2_, .-_ZN3r2p10ArrayQueueIPNS_7MessageEE1
 2900              		.section	.text._ZN3r2p10ArrayQueueIPNS_7MessageEE11post_unsafeES2_,"axG",%progbits,_ZN3r2p10ArrayQ
 2901              		.align	2
 2902              		.p2align 4,,15
 2903              		.weak	_ZN3r2p10ArrayQueueIPNS_7MessageEE11post_unsafeES2_
 2904              		.thumb
 2905              		.thumb_func
 2906              		.type	_ZN3r2p10ArrayQueueIPNS_7MessageEE11post_unsafeES2_, %function
 2907              	_ZN3r2p10ArrayQueueIPNS_7MessageEE11post_unsafeES2_:
 2908              	.LFB619:
 2909              		.loc 19 37 0
 2910              		.cfi_startproc
 2911              		@ args = 0, pretend = 0, frame = 8
 2912              		@ frame_needed = 0, uses_anonymous_args = 0
 2913              		@ link register save eliminated.
 2914 0000 82B0     		sub	sp, sp, #8
 2915              		.cfi_def_cfa_offset 8
 2916 0002 0190     		str	r0, [sp, #4]
 2917 0004 0091     		str	r1, [sp]
 2918              		.loc 19 39 0
 2919 0006 019B     		ldr	r3, [sp, #4]
 2920 0008 9A68     		ldr	r2, [r3, #8]
 2921 000a 019B     		ldr	r3, [sp, #4]
 2922 000c 5B68     		ldr	r3, [r3, #4]
 2923 000e 9A42     		cmp	r2, r3
 2924 0010 22D2     		bcs	.L142
 2925              		.loc 19 40 0
 2926 0012 019B     		ldr	r3, [sp, #4]
 2927 0014 9B68     		ldr	r3, [r3, #8]
 2928 0016 5A1C     		adds	r2, r3, #1
 2929 0018 019B     		ldr	r3, [sp, #4]
 2930 001a 9A60     		str	r2, [r3, #8]
 2931              		.loc 19 41 0
 2932 001c 019B     		ldr	r3, [sp, #4]
 2933 001e 1B69     		ldr	r3, [r3, #16]
 2934 0020 009A     		ldr	r2, [sp]
 2935 0022 1A60     		str	r2, [r3]
 2936              		.loc 19 42 0
 2937 0024 019B     		ldr	r3, [sp, #4]
 2938 0026 1B69     		ldr	r3, [r3, #16]
 2939 0028 1A1D     		adds	r2, r3, #4
 2940 002a 019B     		ldr	r3, [sp, #4]
 2941 002c 1A61     		str	r2, [r3, #16]
ARM GAS  /tmp/ccjqfgnD.s 			page 54


 2942 002e 019B     		ldr	r3, [sp, #4]
 2943 0030 1A69     		ldr	r2, [r3, #16]
 2944 0032 019B     		ldr	r3, [sp, #4]
 2945 0034 1968     		ldr	r1, [r3]
 2946 0036 019B     		ldr	r3, [sp, #4]
 2947 0038 5B68     		ldr	r3, [r3, #4]
 2948 003a 9B00     		lsls	r3, r3, #2
 2949 003c 0B44     		add	r3, r3, r1
 2950 003e 9A42     		cmp	r2, r3
 2951 0040 34BF     		ite	cc
 2952 0042 0023     		movcc	r3, #0
 2953 0044 0123     		movcs	r3, #1
 2954 0046 DBB2     		uxtb	r3, r3
 2955 0048 002B     		cmp	r3, #0
 2956 004a 03D0     		beq	.L143
 2957              		.loc 19 43 0
 2958 004c 019B     		ldr	r3, [sp, #4]
 2959 004e 1A68     		ldr	r2, [r3]
 2960 0050 019B     		ldr	r3, [sp, #4]
 2961 0052 1A61     		str	r2, [r3, #16]
 2962              	.L143:
 2963              		.loc 19 45 0
 2964 0054 0123     		movs	r3, #1
 2965 0056 00E0     		b	.L144
 2966              	.L142:
 2967              		.loc 19 47 0
 2968 0058 0023     		movs	r3, #0
 2969              	.L144:
 2970              		.loc 19 48 0
 2971 005a 1846     		mov	r0, r3
 2972 005c 02B0     		add	sp, sp, #8
 2973              		@ sp needed
 2974 005e 7047     		bx	lr
 2975              		.cfi_endproc
 2976              	.LFE619:
 2977              		.size	_ZN3r2p10ArrayQueueIPNS_7MessageEE11post_unsafeES2_, .-_ZN3r2p10ArrayQueueIPNS_7MessageEE11p
 2978              		.section	.text._ZN3r2p12Velocity3MsgC2Ev,"axG",%progbits,_ZN3r2p12Velocity3MsgC5Ev,comdat
 2979              		.align	2
 2980              		.p2align 4,,15
 2981              		.weak	_ZN3r2p12Velocity3MsgC2Ev
 2982              		.thumb
 2983              		.thumb_func
 2984              		.type	_ZN3r2p12Velocity3MsgC2Ev, %function
 2985              	_ZN3r2p12Velocity3MsgC2Ev:
 2986              	.LFB631:
 2987              		.file 20 "/home/dave/r2p-sdk/core/Middleware/include/r2p/msg/motor.hpp"
 2988              		.loc 20 72 0
 2989              		.cfi_startproc
 2990              		@ args = 0, pretend = 0, frame = 8
 2991              		@ frame_needed = 0, uses_anonymous_args = 0
 2992 0000 00B5     		push	{lr}
 2993              		.cfi_def_cfa_offset 4
 2994              		.cfi_offset 14, -4
 2995 0002 83B0     		sub	sp, sp, #12
 2996              		.cfi_def_cfa_offset 16
 2997 0004 0190     		str	r0, [sp, #4]
 2998              	.LBB141:
ARM GAS  /tmp/ccjqfgnD.s 			page 55


 2999              		.loc 20 72 0
 3000 0006 019B     		ldr	r3, [sp, #4]
 3001 0008 1846     		mov	r0, r3
 3002 000a FFF7FEFF 		bl	_ZN3r2p7MessageC2Ev
 3003              	.LBE141:
 3004 000e 019B     		ldr	r3, [sp, #4]
 3005 0010 1846     		mov	r0, r3
 3006 0012 03B0     		add	sp, sp, #12
 3007              		@ sp needed
 3008 0014 5DF804FB 		ldr	pc, [sp], #4
 3009              		.cfi_endproc
 3010              	.LFE631:
 3011              		.size	_ZN3r2p12Velocity3MsgC2Ev, .-_ZN3r2p12Velocity3MsgC2Ev
 3012              		.weak	_ZN3r2p12Velocity3MsgC1Ev
 3013              		.thumb_set _ZN3r2p12Velocity3MsgC1Ev,_ZN3r2p12Velocity3MsgC2Ev
 3014 0018 AFF30080 		.section	.text._ZN3r2p10SubscriberINS_12Velocity3MsgELj5EEC2EPFbRKS1_E,"axG",%progbits,_ZN3r2p10Su
 3014      AFF30080 
 3015              		.align	2
 3016              		.p2align 4,,15
 3017              		.weak	_ZN3r2p10SubscriberINS_12Velocity3MsgELj5EEC2EPFbRKS1_E
 3018              		.thumb
 3019              		.thumb_func
 3020              		.type	_ZN3r2p10SubscriberINS_12Velocity3MsgELj5EEC2EPFbRKS1_E, %function
 3021              	_ZN3r2p10SubscriberINS_12Velocity3MsgELj5EEC2EPFbRKS1_E:
 3022              	.LFB633:
 3023              		.file 21 "/home/dave/r2p-sdk/core/Middleware/include/r2p/Subscriber.hpp"
 3024              		.loc 21 31 0
 3025              		.cfi_startproc
 3026              		@ args = 0, pretend = 0, frame = 8
 3027              		@ frame_needed = 0, uses_anonymous_args = 0
 3028 0000 30B5     		push	{r4, r5, lr}
 3029              		.cfi_def_cfa_offset 12
 3030              		.cfi_offset 4, -12
 3031              		.cfi_offset 5, -8
 3032              		.cfi_offset 14, -4
 3033 0002 83B0     		sub	sp, sp, #12
 3034              		.cfi_def_cfa_offset 24
 3035 0004 0190     		str	r0, [sp, #4]
 3036 0006 0091     		str	r1, [sp]
 3037              	.LBB142:
 3038              		.loc 21 33 0
 3039 0008 019A     		ldr	r2, [sp, #4]
 3040 000a 019B     		ldr	r3, [sp, #4]
 3041 000c 8033     		adds	r3, r3, #128
 3042 000e 1046     		mov	r0, r2
 3043 0010 1946     		mov	r1, r3
 3044 0012 0522     		movs	r2, #5
 3045 0014 009B     		ldr	r3, [sp]
 3046 0016 FFF7FEFF 		bl	_ZN3r2p16SubscriberExtBufINS_12Velocity3MsgEEC2EPPS1_jPFbRKS1_E
 3047 001a 019B     		ldr	r3, [sp, #4]
 3048 001c 094A     		ldr	r2, .L153
 3049 001e 1A60     		str	r2, [r3]
 3050 0020 019B     		ldr	r3, [sp, #4]
 3051 0022 3833     		adds	r3, r3, #56
 3052 0024 0424     		movs	r4, #4
 3053 0026 1D46     		mov	r5, r3
 3054 0028 04E0     		b	.L149
ARM GAS  /tmp/ccjqfgnD.s 			page 56


 3055              	.L150:
 3056              		.loc 21 33 0 is_stmt 0 discriminator 2
 3057 002a 2846     		mov	r0, r5
 3058 002c FFF7FEFF 		bl	_ZN3r2p12Velocity3MsgC1Ev
 3059 0030 0E35     		adds	r5, r5, #14
 3060 0032 013C     		subs	r4, r4, #1
 3061              	.L149:
 3062              		.loc 21 33 0 discriminator 1
 3063 0034 B4F1FF3F 		cmp	r4, #-1
 3064 0038 F7D1     		bne	.L150
 3065              	.LBE142:
 3066              		.loc 21 34 0 is_stmt 1 discriminator 3
 3067 003a 019B     		ldr	r3, [sp, #4]
 3068 003c 1846     		mov	r0, r3
 3069 003e 03B0     		add	sp, sp, #12
 3070              		@ sp needed
 3071 0040 30BD     		pop	{r4, r5, pc}
 3072              	.L154:
 3073 0042 00BF     		.align	2
 3074              	.L153:
 3075 0044 08000000 		.word	_ZTVN3r2p10SubscriberINS_12Velocity3MsgELj5EEE+8
 3076              		.cfi_endproc
 3077              	.LFE633:
 3078              		.size	_ZN3r2p10SubscriberINS_12Velocity3MsgELj5EEC2EPFbRKS1_E, .-_ZN3r2p10SubscriberINS_12Velocity
 3079              		.weak	_ZN3r2p10SubscriberINS_12Velocity3MsgELj5EEC1EPFbRKS1_E
 3080              		.thumb_set _ZN3r2p10SubscriberINS_12Velocity3MsgELj5EEC1EPFbRKS1_E,_ZN3r2p10SubscriberINS_12Veloci
 3081 0048 AFF30080 		.section	.text._ZN3r2p10SubscriberINS_12Velocity3MsgELj5EED2Ev,"axG",%progbits,_ZN3r2p10Subscriber
 3081      AFF30080 
 3082              		.align	2
 3083              		.p2align 4,,15
 3084              		.weak	_ZN3r2p10SubscriberINS_12Velocity3MsgELj5EED2Ev
 3085              		.thumb
 3086              		.thumb_func
 3087              		.type	_ZN3r2p10SubscriberINS_12Velocity3MsgELj5EED2Ev, %function
 3088              	_ZN3r2p10SubscriberINS_12Velocity3MsgELj5EED2Ev:
 3089              	.LFB636:
 3090              		.loc 21 38 0
 3091              		.cfi_startproc
 3092              		@ args = 0, pretend = 0, frame = 8
 3093              		@ frame_needed = 0, uses_anonymous_args = 0
 3094 0000 00B5     		push	{lr}
 3095              		.cfi_def_cfa_offset 4
 3096              		.cfi_offset 14, -4
 3097 0002 83B0     		sub	sp, sp, #12
 3098              		.cfi_def_cfa_offset 16
 3099 0004 0190     		str	r0, [sp, #4]
 3100              	.LBB143:
 3101              		.loc 21 38 0
 3102 0006 019B     		ldr	r3, [sp, #4]
 3103 0008 084A     		ldr	r2, .L159
 3104 000a 1A60     		str	r2, [r3]
 3105 000c 019B     		ldr	r3, [sp, #4]
 3106 000e 1846     		mov	r0, r3
 3107 0010 FFF7FEFF 		bl	_ZN3r2p16SubscriberExtBufINS_12Velocity3MsgEED2Ev
 3108              	.LBE143:
 3109 0014 0023     		movs	r3, #0
 3110 0016 002B     		cmp	r3, #0
ARM GAS  /tmp/ccjqfgnD.s 			page 57


 3111 0018 02D0     		beq	.L157
 3112              		.loc 21 38 0 is_stmt 0 discriminator 1
 3113 001a 0198     		ldr	r0, [sp, #4]
 3114 001c FFF7FEFF 		bl	_ZdlPv
 3115              	.L157:
 3116              		.loc 21 38 0 discriminator 2
 3117 0020 019B     		ldr	r3, [sp, #4]
 3118 0022 1846     		mov	r0, r3
 3119 0024 03B0     		add	sp, sp, #12
 3120              		@ sp needed
 3121 0026 5DF804FB 		ldr	pc, [sp], #4
 3122              	.L160:
 3123 002a 00BF     		.align	2
 3124              	.L159:
 3125 002c 08000000 		.word	_ZTVN3r2p10SubscriberINS_12Velocity3MsgELj5EEE+8
 3126              		.cfi_endproc
 3127              	.LFE636:
 3128              		.size	_ZN3r2p10SubscriberINS_12Velocity3MsgELj5EED2Ev, .-_ZN3r2p10SubscriberINS_12Velocity3MsgELj5
 3129              		.weak	_ZN3r2p10SubscriberINS_12Velocity3MsgELj5EED1Ev
 3130              		.thumb_set _ZN3r2p10SubscriberINS_12Velocity3MsgELj5EED1Ev,_ZN3r2p10SubscriberINS_12Velocity3MsgEL
 3131              		.section	.text._ZN3r2p10SubscriberINS_12Velocity3MsgELj5EED0Ev,"axG",%progbits,_ZN3r2p10Subscriber
 3132              		.align	2
 3133              		.p2align 4,,15
 3134              		.weak	_ZN3r2p10SubscriberINS_12Velocity3MsgELj5EED0Ev
 3135              		.thumb
 3136              		.thumb_func
 3137              		.type	_ZN3r2p10SubscriberINS_12Velocity3MsgELj5EED0Ev, %function
 3138              	_ZN3r2p10SubscriberINS_12Velocity3MsgELj5EED0Ev:
 3139              	.LFB638:
 3140              		.loc 21 38 0 is_stmt 1
 3141              		.cfi_startproc
 3142              		@ args = 0, pretend = 0, frame = 8
 3143              		@ frame_needed = 0, uses_anonymous_args = 0
 3144 0000 00B5     		push	{lr}
 3145              		.cfi_def_cfa_offset 4
 3146              		.cfi_offset 14, -4
 3147 0002 83B0     		sub	sp, sp, #12
 3148              		.cfi_def_cfa_offset 16
 3149 0004 0190     		str	r0, [sp, #4]
 3150              		.loc 21 38 0
 3151 0006 0198     		ldr	r0, [sp, #4]
 3152 0008 FFF7FEFF 		bl	_ZN3r2p10SubscriberINS_12Velocity3MsgELj5EED1Ev
 3153 000c 0198     		ldr	r0, [sp, #4]
 3154 000e FFF7FEFF 		bl	_ZdlPv
 3155 0012 019B     		ldr	r3, [sp, #4]
 3156 0014 1846     		mov	r0, r3
 3157 0016 03B0     		add	sp, sp, #12
 3158              		@ sp needed
 3159 0018 5DF804FB 		ldr	pc, [sp], #4
 3160              		.cfi_endproc
 3161              	.LFE638:
 3162              		.size	_ZN3r2p10SubscriberINS_12Velocity3MsgELj5EED0Ev, .-_ZN3r2p10SubscriberINS_12Velocity3MsgELj5
 3163 001c AFF30080 		.section	.text._ZN3r2p10EncoderMsgC2Ev,"axG",%progbits,_ZN3r2p10EncoderMsgC5Ev,comdat
 3164              		.align	2
 3165              		.p2align 4,,15
 3166              		.weak	_ZN3r2p10EncoderMsgC2Ev
 3167              		.thumb
ARM GAS  /tmp/ccjqfgnD.s 			page 58


 3168              		.thumb_func
 3169              		.type	_ZN3r2p10EncoderMsgC2Ev, %function
 3170              	_ZN3r2p10EncoderMsgC2Ev:
 3171              	.LFB641:
 3172              		.loc 20 51 0
 3173              		.cfi_startproc
 3174              		@ args = 0, pretend = 0, frame = 8
 3175              		@ frame_needed = 0, uses_anonymous_args = 0
 3176 0000 00B5     		push	{lr}
 3177              		.cfi_def_cfa_offset 4
 3178              		.cfi_offset 14, -4
 3179 0002 83B0     		sub	sp, sp, #12
 3180              		.cfi_def_cfa_offset 16
 3181 0004 0190     		str	r0, [sp, #4]
 3182              	.LBB144:
 3183              		.loc 20 51 0
 3184 0006 019B     		ldr	r3, [sp, #4]
 3185 0008 1846     		mov	r0, r3
 3186 000a FFF7FEFF 		bl	_ZN3r2p7MessageC2Ev
 3187              	.LBE144:
 3188 000e 019B     		ldr	r3, [sp, #4]
 3189 0010 1846     		mov	r0, r3
 3190 0012 03B0     		add	sp, sp, #12
 3191              		@ sp needed
 3192 0014 5DF804FB 		ldr	pc, [sp], #4
 3193              		.cfi_endproc
 3194              	.LFE641:
 3195              		.size	_ZN3r2p10EncoderMsgC2Ev, .-_ZN3r2p10EncoderMsgC2Ev
 3196              		.weak	_ZN3r2p10EncoderMsgC1Ev
 3197              		.thumb_set _ZN3r2p10EncoderMsgC1Ev,_ZN3r2p10EncoderMsgC2Ev
 3198 0018 AFF30080 		.section	.text._ZN3r2p10SubscriberINS_10EncoderMsgELj10EEC2EPFbRKS1_E,"axG",%progbits,_ZN3r2p10Sub
 3198      AFF30080 
 3199              		.align	2
 3200              		.p2align 4,,15
 3201              		.weak	_ZN3r2p10SubscriberINS_10EncoderMsgELj10EEC2EPFbRKS1_E
 3202              		.thumb
 3203              		.thumb_func
 3204              		.type	_ZN3r2p10SubscriberINS_10EncoderMsgELj10EEC2EPFbRKS1_E, %function
 3205              	_ZN3r2p10SubscriberINS_10EncoderMsgELj10EEC2EPFbRKS1_E:
 3206              	.LFB643:
 3207              		.loc 21 31 0
 3208              		.cfi_startproc
 3209              		@ args = 0, pretend = 0, frame = 8
 3210              		@ frame_needed = 0, uses_anonymous_args = 0
 3211 0000 30B5     		push	{r4, r5, lr}
 3212              		.cfi_def_cfa_offset 12
 3213              		.cfi_offset 4, -12
 3214              		.cfi_offset 5, -8
 3215              		.cfi_offset 14, -4
 3216 0002 83B0     		sub	sp, sp, #12
 3217              		.cfi_def_cfa_offset 24
 3218 0004 0190     		str	r0, [sp, #4]
 3219 0006 0091     		str	r1, [sp]
 3220              	.LBB145:
 3221              		.loc 21 33 0
 3222 0008 019A     		ldr	r2, [sp, #4]
 3223 000a 019B     		ldr	r3, [sp, #4]
ARM GAS  /tmp/ccjqfgnD.s 			page 59


 3224 000c 7433     		adds	r3, r3, #116
 3225 000e 1046     		mov	r0, r2
 3226 0010 1946     		mov	r1, r3
 3227 0012 0A22     		movs	r2, #10
 3228 0014 009B     		ldr	r3, [sp]
 3229 0016 FFF7FEFF 		bl	_ZN3r2p16SubscriberExtBufINS_10EncoderMsgEEC2EPPS1_jPFbRKS1_E
 3230 001a 019B     		ldr	r3, [sp, #4]
 3231 001c 094A     		ldr	r2, .L172
 3232 001e 1A60     		str	r2, [r3]
 3233 0020 019B     		ldr	r3, [sp, #4]
 3234 0022 3833     		adds	r3, r3, #56
 3235 0024 0924     		movs	r4, #9
 3236 0026 1D46     		mov	r5, r3
 3237 0028 04E0     		b	.L168
 3238              	.L169:
 3239              		.loc 21 33 0 is_stmt 0 discriminator 2
 3240 002a 2846     		mov	r0, r5
 3241 002c FFF7FEFF 		bl	_ZN3r2p10EncoderMsgC1Ev
 3242 0030 0635     		adds	r5, r5, #6
 3243 0032 013C     		subs	r4, r4, #1
 3244              	.L168:
 3245              		.loc 21 33 0 discriminator 1
 3246 0034 B4F1FF3F 		cmp	r4, #-1
 3247 0038 F7D1     		bne	.L169
 3248              	.LBE145:
 3249              		.loc 21 34 0 is_stmt 1 discriminator 3
 3250 003a 019B     		ldr	r3, [sp, #4]
 3251 003c 1846     		mov	r0, r3
 3252 003e 03B0     		add	sp, sp, #12
 3253              		@ sp needed
 3254 0040 30BD     		pop	{r4, r5, pc}
 3255              	.L173:
 3256 0042 00BF     		.align	2
 3257              	.L172:
 3258 0044 08000000 		.word	_ZTVN3r2p10SubscriberINS_10EncoderMsgELj10EEE+8
 3259              		.cfi_endproc
 3260              	.LFE643:
 3261              		.size	_ZN3r2p10SubscriberINS_10EncoderMsgELj10EEC2EPFbRKS1_E, .-_ZN3r2p10SubscriberINS_10EncoderMs
 3262              		.weak	_ZN3r2p10SubscriberINS_10EncoderMsgELj10EEC1EPFbRKS1_E
 3263              		.thumb_set _ZN3r2p10SubscriberINS_10EncoderMsgELj10EEC1EPFbRKS1_E,_ZN3r2p10SubscriberINS_10Encoder
 3264 0048 AFF30080 		.section	.text._ZN3r2p10SubscriberINS_10EncoderMsgELj10EED2Ev,"axG",%progbits,_ZN3r2p10SubscriberI
 3264      AFF30080 
 3265              		.align	2
 3266              		.p2align 4,,15
 3267              		.weak	_ZN3r2p10SubscriberINS_10EncoderMsgELj10EED2Ev
 3268              		.thumb
 3269              		.thumb_func
 3270              		.type	_ZN3r2p10SubscriberINS_10EncoderMsgELj10EED2Ev, %function
 3271              	_ZN3r2p10SubscriberINS_10EncoderMsgELj10EED2Ev:
 3272              	.LFB646:
 3273              		.loc 21 38 0
 3274              		.cfi_startproc
 3275              		@ args = 0, pretend = 0, frame = 8
 3276              		@ frame_needed = 0, uses_anonymous_args = 0
 3277 0000 00B5     		push	{lr}
 3278              		.cfi_def_cfa_offset 4
 3279              		.cfi_offset 14, -4
ARM GAS  /tmp/ccjqfgnD.s 			page 60


 3280 0002 83B0     		sub	sp, sp, #12
 3281              		.cfi_def_cfa_offset 16
 3282 0004 0190     		str	r0, [sp, #4]
 3283              	.LBB146:
 3284              		.loc 21 38 0
 3285 0006 019B     		ldr	r3, [sp, #4]
 3286 0008 084A     		ldr	r2, .L178
 3287 000a 1A60     		str	r2, [r3]
 3288 000c 019B     		ldr	r3, [sp, #4]
 3289 000e 1846     		mov	r0, r3
 3290 0010 FFF7FEFF 		bl	_ZN3r2p16SubscriberExtBufINS_10EncoderMsgEED2Ev
 3291              	.LBE146:
 3292 0014 0023     		movs	r3, #0
 3293 0016 002B     		cmp	r3, #0
 3294 0018 02D0     		beq	.L176
 3295              		.loc 21 38 0 is_stmt 0 discriminator 1
 3296 001a 0198     		ldr	r0, [sp, #4]
 3297 001c FFF7FEFF 		bl	_ZdlPv
 3298              	.L176:
 3299              		.loc 21 38 0 discriminator 2
 3300 0020 019B     		ldr	r3, [sp, #4]
 3301 0022 1846     		mov	r0, r3
 3302 0024 03B0     		add	sp, sp, #12
 3303              		@ sp needed
 3304 0026 5DF804FB 		ldr	pc, [sp], #4
 3305              	.L179:
 3306 002a 00BF     		.align	2
 3307              	.L178:
 3308 002c 08000000 		.word	_ZTVN3r2p10SubscriberINS_10EncoderMsgELj10EEE+8
 3309              		.cfi_endproc
 3310              	.LFE646:
 3311              		.size	_ZN3r2p10SubscriberINS_10EncoderMsgELj10EED2Ev, .-_ZN3r2p10SubscriberINS_10EncoderMsgELj10EE
 3312              		.weak	_ZN3r2p10SubscriberINS_10EncoderMsgELj10EED1Ev
 3313              		.thumb_set _ZN3r2p10SubscriberINS_10EncoderMsgELj10EED1Ev,_ZN3r2p10SubscriberINS_10EncoderMsgELj10
 3314              		.section	.text._ZN3r2p10SubscriberINS_10EncoderMsgELj10EED0Ev,"axG",%progbits,_ZN3r2p10SubscriberI
 3315              		.align	2
 3316              		.p2align 4,,15
 3317              		.weak	_ZN3r2p10SubscriberINS_10EncoderMsgELj10EED0Ev
 3318              		.thumb
 3319              		.thumb_func
 3320              		.type	_ZN3r2p10SubscriberINS_10EncoderMsgELj10EED0Ev, %function
 3321              	_ZN3r2p10SubscriberINS_10EncoderMsgELj10EED0Ev:
 3322              	.LFB648:
 3323              		.loc 21 38 0 is_stmt 1
 3324              		.cfi_startproc
 3325              		@ args = 0, pretend = 0, frame = 8
 3326              		@ frame_needed = 0, uses_anonymous_args = 0
 3327 0000 00B5     		push	{lr}
 3328              		.cfi_def_cfa_offset 4
 3329              		.cfi_offset 14, -4
 3330 0002 83B0     		sub	sp, sp, #12
 3331              		.cfi_def_cfa_offset 16
 3332 0004 0190     		str	r0, [sp, #4]
 3333              		.loc 21 38 0
 3334 0006 0198     		ldr	r0, [sp, #4]
 3335 0008 FFF7FEFF 		bl	_ZN3r2p10SubscriberINS_10EncoderMsgELj10EED1Ev
 3336 000c 0198     		ldr	r0, [sp, #4]
ARM GAS  /tmp/ccjqfgnD.s 			page 61


 3337 000e FFF7FEFF 		bl	_ZdlPv
 3338 0012 019B     		ldr	r3, [sp, #4]
 3339 0014 1846     		mov	r0, r3
 3340 0016 03B0     		add	sp, sp, #12
 3341              		@ sp needed
 3342 0018 5DF804FB 		ldr	pc, [sp], #4
 3343              		.cfi_endproc
 3344              	.LFE648:
 3345              		.size	_ZN3r2p10SubscriberINS_10EncoderMsgELj10EED0Ev, .-_ZN3r2p10SubscriberINS_10EncoderMsgELj10EE
 3346 001c AFF30080 		.section	.text._ZN3r2p9PublisherINS_12Velocity3MsgEEC2Ev,"axG",%progbits,_ZN3r2p9PublisherINS_12Ve
 3347              		.align	2
 3348              		.p2align 4,,15
 3349              		.weak	_ZN3r2p9PublisherINS_12Velocity3MsgEEC2Ev
 3350              		.thumb
 3351              		.thumb_func
 3352              		.type	_ZN3r2p9PublisherINS_12Velocity3MsgEEC2Ev, %function
 3353              	_ZN3r2p9PublisherINS_12Velocity3MsgEEC2Ev:
 3354              	.LFB650:
 3355              		.file 22 "/home/dave/r2p-sdk/core/Middleware/include/r2p/Publisher.hpp"
 3356              		.loc 22 47 0
 3357              		.cfi_startproc
 3358              		@ args = 0, pretend = 0, frame = 8
 3359              		@ frame_needed = 0, uses_anonymous_args = 0
 3360 0000 00B5     		push	{lr}
 3361              		.cfi_def_cfa_offset 4
 3362              		.cfi_offset 14, -4
 3363 0002 83B0     		sub	sp, sp, #12
 3364              		.cfi_def_cfa_offset 16
 3365 0004 0190     		str	r0, [sp, #4]
 3366              	.LBB147:
 3367              		.loc 22 47 0
 3368 0006 019B     		ldr	r3, [sp, #4]
 3369 0008 1846     		mov	r0, r3
 3370 000a FFF7FEFF 		bl	_ZN3r2p14LocalPublisherC2Ev
 3371 000e 019B     		ldr	r3, [sp, #4]
 3372 0010 034A     		ldr	r2, .L186
 3373 0012 1A60     		str	r2, [r3]
 3374              	.LBE147:
 3375              		.loc 22 50 0
 3376 0014 019B     		ldr	r3, [sp, #4]
 3377 0016 1846     		mov	r0, r3
 3378 0018 03B0     		add	sp, sp, #12
 3379              		@ sp needed
 3380 001a 5DF804FB 		ldr	pc, [sp], #4
 3381              	.L187:
 3382 001e 00BF     		.align	2
 3383              	.L186:
 3384 0020 08000000 		.word	_ZTVN3r2p9PublisherINS_12Velocity3MsgEEE+8
 3385              		.cfi_endproc
 3386              	.LFE650:
 3387              		.size	_ZN3r2p9PublisherINS_12Velocity3MsgEEC2Ev, .-_ZN3r2p9PublisherINS_12Velocity3MsgEEC2Ev
 3388              		.weak	_ZN3r2p9PublisherINS_12Velocity3MsgEEC1Ev
 3389              		.thumb_set _ZN3r2p9PublisherINS_12Velocity3MsgEEC1Ev,_ZN3r2p9PublisherINS_12Velocity3MsgEEC2Ev
 3390 0024 AFF30080 		.section	.text._ZN3r2p9PublisherINS_12Velocity3MsgEED2Ev,"axG",%progbits,_ZN3r2p9PublisherINS_12Ve
 3390      AFF30080 
 3390      AFF30080 
 3391              		.align	2
ARM GAS  /tmp/ccjqfgnD.s 			page 62


 3392              		.p2align 4,,15
 3393              		.weak	_ZN3r2p9PublisherINS_12Velocity3MsgEED2Ev
 3394              		.thumb
 3395              		.thumb_func
 3396              		.type	_ZN3r2p9PublisherINS_12Velocity3MsgEED2Ev, %function
 3397              	_ZN3r2p9PublisherINS_12Velocity3MsgEED2Ev:
 3398              	.LFB653:
 3399              		.loc 22 54 0
 3400              		.cfi_startproc
 3401              		@ args = 0, pretend = 0, frame = 8
 3402              		@ frame_needed = 0, uses_anonymous_args = 0
 3403 0000 00B5     		push	{lr}
 3404              		.cfi_def_cfa_offset 4
 3405              		.cfi_offset 14, -4
 3406 0002 83B0     		sub	sp, sp, #12
 3407              		.cfi_def_cfa_offset 16
 3408 0004 0190     		str	r0, [sp, #4]
 3409              	.LBB148:
 3410              		.loc 22 57 0
 3411 0006 019B     		ldr	r3, [sp, #4]
 3412 0008 084A     		ldr	r2, .L192
 3413 000a 1A60     		str	r2, [r3]
 3414 000c 019B     		ldr	r3, [sp, #4]
 3415 000e 1846     		mov	r0, r3
 3416 0010 FFF7FEFF 		bl	_ZN3r2p14LocalPublisherD2Ev
 3417              	.LBE148:
 3418 0014 0023     		movs	r3, #0
 3419 0016 002B     		cmp	r3, #0
 3420 0018 02D0     		beq	.L190
 3421              		.loc 22 57 0 is_stmt 0 discriminator 1
 3422 001a 0198     		ldr	r0, [sp, #4]
 3423 001c FFF7FEFF 		bl	_ZdlPv
 3424              	.L190:
 3425              		.loc 22 57 0 discriminator 2
 3426 0020 019B     		ldr	r3, [sp, #4]
 3427 0022 1846     		mov	r0, r3
 3428 0024 03B0     		add	sp, sp, #12
 3429              		@ sp needed
 3430 0026 5DF804FB 		ldr	pc, [sp], #4
 3431              	.L193:
 3432 002a 00BF     		.align	2
 3433              	.L192:
 3434 002c 08000000 		.word	_ZTVN3r2p9PublisherINS_12Velocity3MsgEEE+8
 3435              		.cfi_endproc
 3436              	.LFE653:
 3437              		.size	_ZN3r2p9PublisherINS_12Velocity3MsgEED2Ev, .-_ZN3r2p9PublisherINS_12Velocity3MsgEED2Ev
 3438              		.weak	_ZN3r2p9PublisherINS_12Velocity3MsgEED1Ev
 3439              		.thumb_set _ZN3r2p9PublisherINS_12Velocity3MsgEED1Ev,_ZN3r2p9PublisherINS_12Velocity3MsgEED2Ev
 3440              		.section	.text._ZN3r2p9PublisherINS_12Velocity3MsgEED0Ev,"axG",%progbits,_ZN3r2p9PublisherINS_12Ve
 3441              		.align	2
 3442              		.p2align 4,,15
 3443              		.weak	_ZN3r2p9PublisherINS_12Velocity3MsgEED0Ev
 3444              		.thumb
 3445              		.thumb_func
 3446              		.type	_ZN3r2p9PublisherINS_12Velocity3MsgEED0Ev, %function
 3447              	_ZN3r2p9PublisherINS_12Velocity3MsgEED0Ev:
 3448              	.LFB655:
ARM GAS  /tmp/ccjqfgnD.s 			page 63


 3449              		.loc 22 54 0 is_stmt 1
 3450              		.cfi_startproc
 3451              		@ args = 0, pretend = 0, frame = 8
 3452              		@ frame_needed = 0, uses_anonymous_args = 0
 3453 0000 00B5     		push	{lr}
 3454              		.cfi_def_cfa_offset 4
 3455              		.cfi_offset 14, -4
 3456 0002 83B0     		sub	sp, sp, #12
 3457              		.cfi_def_cfa_offset 16
 3458 0004 0190     		str	r0, [sp, #4]
 3459              		.loc 22 57 0
 3460 0006 0198     		ldr	r0, [sp, #4]
 3461 0008 FFF7FEFF 		bl	_ZN3r2p9PublisherINS_12Velocity3MsgEED1Ev
 3462 000c 0198     		ldr	r0, [sp, #4]
 3463 000e FFF7FEFF 		bl	_ZdlPv
 3464 0012 019B     		ldr	r3, [sp, #4]
 3465 0014 1846     		mov	r0, r3
 3466 0016 03B0     		add	sp, sp, #12
 3467              		@ sp needed
 3468 0018 5DF804FB 		ldr	pc, [sp], #4
 3469              		.cfi_endproc
 3470              	.LFE655:
 3471              		.size	_ZN3r2p9PublisherINS_12Velocity3MsgEED0Ev, .-_ZN3r2p9PublisherINS_12Velocity3MsgEED0Ev
 3472 001c AFF30080 		.section	.text._ZN3r2p9PIDCfgMsgC2Ev,"axG",%progbits,_ZN3r2p9PIDCfgMsgC5Ev,comdat
 3473              		.align	2
 3474              		.p2align 4,,15
 3475              		.weak	_ZN3r2p9PIDCfgMsgC2Ev
 3476              		.thumb
 3477              		.thumb_func
 3478              		.type	_ZN3r2p9PIDCfgMsgC2Ev, %function
 3479              	_ZN3r2p9PIDCfgMsgC2Ev:
 3480              	.LFB658:
 3481              		.loc 20 95 0
 3482              		.cfi_startproc
 3483              		@ args = 0, pretend = 0, frame = 8
 3484              		@ frame_needed = 0, uses_anonymous_args = 0
 3485 0000 00B5     		push	{lr}
 3486              		.cfi_def_cfa_offset 4
 3487              		.cfi_offset 14, -4
 3488 0002 83B0     		sub	sp, sp, #12
 3489              		.cfi_def_cfa_offset 16
 3490 0004 0190     		str	r0, [sp, #4]
 3491              	.LBB149:
 3492              		.loc 20 95 0
 3493 0006 019B     		ldr	r3, [sp, #4]
 3494 0008 1846     		mov	r0, r3
 3495 000a FFF7FEFF 		bl	_ZN3r2p7MessageC2Ev
 3496              	.LBE149:
 3497 000e 019B     		ldr	r3, [sp, #4]
 3498 0010 1846     		mov	r0, r3
 3499 0012 03B0     		add	sp, sp, #12
 3500              		@ sp needed
 3501 0014 5DF804FB 		ldr	pc, [sp], #4
 3502              		.cfi_endproc
 3503              	.LFE658:
 3504              		.size	_ZN3r2p9PIDCfgMsgC2Ev, .-_ZN3r2p9PIDCfgMsgC2Ev
 3505              		.weak	_ZN3r2p9PIDCfgMsgC1Ev
ARM GAS  /tmp/ccjqfgnD.s 			page 64


 3506              		.thumb_set _ZN3r2p9PIDCfgMsgC1Ev,_ZN3r2p9PIDCfgMsgC2Ev
 3507 0018 AFF30080 		.section	.text._ZN3r2p10SubscriberINS_9PIDCfgMsgELj5EEC2EPFbRKS1_E,"axG",%progbits,_ZN3r2p10Subscr
 3507      AFF30080 
 3508              		.align	2
 3509              		.p2align 4,,15
 3510              		.weak	_ZN3r2p10SubscriberINS_9PIDCfgMsgELj5EEC2EPFbRKS1_E
 3511              		.thumb
 3512              		.thumb_func
 3513              		.type	_ZN3r2p10SubscriberINS_9PIDCfgMsgELj5EEC2EPFbRKS1_E, %function
 3514              	_ZN3r2p10SubscriberINS_9PIDCfgMsgELj5EEC2EPFbRKS1_E:
 3515              	.LFB660:
 3516              		.loc 21 31 0
 3517              		.cfi_startproc
 3518              		@ args = 0, pretend = 0, frame = 8
 3519              		@ frame_needed = 0, uses_anonymous_args = 0
 3520 0000 30B5     		push	{r4, r5, lr}
 3521              		.cfi_def_cfa_offset 12
 3522              		.cfi_offset 4, -12
 3523              		.cfi_offset 5, -8
 3524              		.cfi_offset 14, -4
 3525 0002 83B0     		sub	sp, sp, #12
 3526              		.cfi_def_cfa_offset 24
 3527 0004 0190     		str	r0, [sp, #4]
 3528 0006 0091     		str	r1, [sp]
 3529              	.LBB150:
 3530              		.loc 21 33 0
 3531 0008 019A     		ldr	r2, [sp, #4]
 3532 000a 019B     		ldr	r3, [sp, #4]
 3533 000c 8033     		adds	r3, r3, #128
 3534 000e 1046     		mov	r0, r2
 3535 0010 1946     		mov	r1, r3
 3536 0012 0522     		movs	r2, #5
 3537 0014 009B     		ldr	r3, [sp]
 3538 0016 FFF7FEFF 		bl	_ZN3r2p16SubscriberExtBufINS_9PIDCfgMsgEEC2EPPS1_jPFbRKS1_E
 3539 001a 019B     		ldr	r3, [sp, #4]
 3540 001c 094A     		ldr	r2, .L205
 3541 001e 1A60     		str	r2, [r3]
 3542 0020 019B     		ldr	r3, [sp, #4]
 3543 0022 3833     		adds	r3, r3, #56
 3544 0024 0424     		movs	r4, #4
 3545 0026 1D46     		mov	r5, r3
 3546 0028 04E0     		b	.L201
 3547              	.L202:
 3548              		.loc 21 33 0 is_stmt 0 discriminator 2
 3549 002a 2846     		mov	r0, r5
 3550 002c FFF7FEFF 		bl	_ZN3r2p9PIDCfgMsgC1Ev
 3551 0030 0E35     		adds	r5, r5, #14
 3552 0032 013C     		subs	r4, r4, #1
 3553              	.L201:
 3554              		.loc 21 33 0 discriminator 1
 3555 0034 B4F1FF3F 		cmp	r4, #-1
 3556 0038 F7D1     		bne	.L202
 3557              	.LBE150:
 3558              		.loc 21 34 0 is_stmt 1 discriminator 3
 3559 003a 019B     		ldr	r3, [sp, #4]
 3560 003c 1846     		mov	r0, r3
 3561 003e 03B0     		add	sp, sp, #12
ARM GAS  /tmp/ccjqfgnD.s 			page 65


 3562              		@ sp needed
 3563 0040 30BD     		pop	{r4, r5, pc}
 3564              	.L206:
 3565 0042 00BF     		.align	2
 3566              	.L205:
 3567 0044 08000000 		.word	_ZTVN3r2p10SubscriberINS_9PIDCfgMsgELj5EEE+8
 3568              		.cfi_endproc
 3569              	.LFE660:
 3570              		.size	_ZN3r2p10SubscriberINS_9PIDCfgMsgELj5EEC2EPFbRKS1_E, .-_ZN3r2p10SubscriberINS_9PIDCfgMsgELj5
 3571              		.weak	_ZN3r2p10SubscriberINS_9PIDCfgMsgELj5EEC1EPFbRKS1_E
 3572              		.thumb_set _ZN3r2p10SubscriberINS_9PIDCfgMsgELj5EEC1EPFbRKS1_E,_ZN3r2p10SubscriberINS_9PIDCfgMsgEL
 3573 0048 AFF30080 		.section	.text._ZN3r2p10SubscriberINS_9PIDCfgMsgELj5EED2Ev,"axG",%progbits,_ZN3r2p10SubscriberINS_
 3573      AFF30080 
 3574              		.align	2
 3575              		.p2align 4,,15
 3576              		.weak	_ZN3r2p10SubscriberINS_9PIDCfgMsgELj5EED2Ev
 3577              		.thumb
 3578              		.thumb_func
 3579              		.type	_ZN3r2p10SubscriberINS_9PIDCfgMsgELj5EED2Ev, %function
 3580              	_ZN3r2p10SubscriberINS_9PIDCfgMsgELj5EED2Ev:
 3581              	.LFB663:
 3582              		.loc 21 38 0
 3583              		.cfi_startproc
 3584              		@ args = 0, pretend = 0, frame = 8
 3585              		@ frame_needed = 0, uses_anonymous_args = 0
 3586 0000 00B5     		push	{lr}
 3587              		.cfi_def_cfa_offset 4
 3588              		.cfi_offset 14, -4
 3589 0002 83B0     		sub	sp, sp, #12
 3590              		.cfi_def_cfa_offset 16
 3591 0004 0190     		str	r0, [sp, #4]
 3592              	.LBB151:
 3593              		.loc 21 38 0
 3594 0006 019B     		ldr	r3, [sp, #4]
 3595 0008 084A     		ldr	r2, .L211
 3596 000a 1A60     		str	r2, [r3]
 3597 000c 019B     		ldr	r3, [sp, #4]
 3598 000e 1846     		mov	r0, r3
 3599 0010 FFF7FEFF 		bl	_ZN3r2p16SubscriberExtBufINS_9PIDCfgMsgEED2Ev
 3600              	.LBE151:
 3601 0014 0023     		movs	r3, #0
 3602 0016 002B     		cmp	r3, #0
 3603 0018 02D0     		beq	.L209
 3604              		.loc 21 38 0 is_stmt 0 discriminator 1
 3605 001a 0198     		ldr	r0, [sp, #4]
 3606 001c FFF7FEFF 		bl	_ZdlPv
 3607              	.L209:
 3608              		.loc 21 38 0 discriminator 2
 3609 0020 019B     		ldr	r3, [sp, #4]
 3610 0022 1846     		mov	r0, r3
 3611 0024 03B0     		add	sp, sp, #12
 3612              		@ sp needed
 3613 0026 5DF804FB 		ldr	pc, [sp], #4
 3614              	.L212:
 3615 002a 00BF     		.align	2
 3616              	.L211:
 3617 002c 08000000 		.word	_ZTVN3r2p10SubscriberINS_9PIDCfgMsgELj5EEE+8
ARM GAS  /tmp/ccjqfgnD.s 			page 66


 3618              		.cfi_endproc
 3619              	.LFE663:
 3620              		.size	_ZN3r2p10SubscriberINS_9PIDCfgMsgELj5EED2Ev, .-_ZN3r2p10SubscriberINS_9PIDCfgMsgELj5EED2Ev
 3621              		.weak	_ZN3r2p10SubscriberINS_9PIDCfgMsgELj5EED1Ev
 3622              		.thumb_set _ZN3r2p10SubscriberINS_9PIDCfgMsgELj5EED1Ev,_ZN3r2p10SubscriberINS_9PIDCfgMsgELj5EED2Ev
 3623              		.section	.text._ZN3r2p10SubscriberINS_9PIDCfgMsgELj5EED0Ev,"axG",%progbits,_ZN3r2p10SubscriberINS_
 3624              		.align	2
 3625              		.p2align 4,,15
 3626              		.weak	_ZN3r2p10SubscriberINS_9PIDCfgMsgELj5EED0Ev
 3627              		.thumb
 3628              		.thumb_func
 3629              		.type	_ZN3r2p10SubscriberINS_9PIDCfgMsgELj5EED0Ev, %function
 3630              	_ZN3r2p10SubscriberINS_9PIDCfgMsgELj5EED0Ev:
 3631              	.LFB665:
 3632              		.loc 21 38 0 is_stmt 1
 3633              		.cfi_startproc
 3634              		@ args = 0, pretend = 0, frame = 8
 3635              		@ frame_needed = 0, uses_anonymous_args = 0
 3636 0000 00B5     		push	{lr}
 3637              		.cfi_def_cfa_offset 4
 3638              		.cfi_offset 14, -4
 3639 0002 83B0     		sub	sp, sp, #12
 3640              		.cfi_def_cfa_offset 16
 3641 0004 0190     		str	r0, [sp, #4]
 3642              		.loc 21 38 0
 3643 0006 0198     		ldr	r0, [sp, #4]
 3644 0008 FFF7FEFF 		bl	_ZN3r2p10SubscriberINS_9PIDCfgMsgELj5EED1Ev
 3645 000c 0198     		ldr	r0, [sp, #4]
 3646 000e FFF7FEFF 		bl	_ZdlPv
 3647 0012 019B     		ldr	r3, [sp, #4]
 3648 0014 1846     		mov	r0, r3
 3649 0016 03B0     		add	sp, sp, #12
 3650              		@ sp needed
 3651 0018 5DF804FB 		ldr	pc, [sp], #4
 3652              		.cfi_endproc
 3653              	.LFE665:
 3654              		.size	_ZN3r2p10SubscriberINS_9PIDCfgMsgELj5EED0Ev, .-_ZN3r2p10SubscriberINS_9PIDCfgMsgELj5EED0Ev
 3655 001c AFF30080 		.section	.text._ZN3r2p4Node9subscribeINS_10EncoderMsgELj10EEEbRNS_10SubscriberIT_XT0_EEEPKc,"axG",
 3656              		.align	2
 3657              		.p2align 4,,15
 3658              		.weak	_ZN3r2p4Node9subscribeINS_10EncoderMsgELj10EEEbRNS_10SubscriberIT_XT0_EEEPKc
 3659              		.thumb
 3660              		.thumb_func
 3661              		.type	_ZN3r2p4Node9subscribeINS_10EncoderMsgELj10EEEbRNS_10SubscriberIT_XT0_EEEPKc, %function
 3662              	_ZN3r2p4Node9subscribeINS_10EncoderMsgELj10EEEbRNS_10SubscriberIT_XT0_EEEPKc:
 3663              	.LFB666:
 3664              		.loc 12 133 0
 3665              		.cfi_startproc
 3666              		@ args = 0, pretend = 0, frame = 16
 3667              		@ frame_needed = 0, uses_anonymous_args = 0
 3668 0000 00B5     		push	{lr}
 3669              		.cfi_def_cfa_offset 4
 3670              		.cfi_offset 14, -4
 3671 0002 87B0     		sub	sp, sp, #28
 3672              		.cfi_def_cfa_offset 32
 3673 0004 0590     		str	r0, [sp, #20]
 3674 0006 0491     		str	r1, [sp, #16]
ARM GAS  /tmp/ccjqfgnD.s 			page 67


 3675 0008 0392     		str	r2, [sp, #12]
 3676              		.loc 12 135 0
 3677 000a 049A     		ldr	r2, [sp, #16]
 3678 000c 049B     		ldr	r3, [sp, #16]
 3679 000e 3833     		adds	r3, r3, #56
 3680 0010 0621     		movs	r1, #6
 3681 0012 0091     		str	r1, [sp]
 3682 0014 0598     		ldr	r0, [sp, #20]
 3683 0016 1146     		mov	r1, r2
 3684 0018 039A     		ldr	r2, [sp, #12]
 3685 001a FFF7FEFF 		bl	_ZN3r2p4Node9subscribeERNS_15LocalSubscriberEPKcPNS_7MessageEj
 3686 001e 0346     		mov	r3, r0
 3687              		.loc 12 136 0
 3688 0020 1846     		mov	r0, r3
 3689 0022 07B0     		add	sp, sp, #28
 3690              		@ sp needed
 3691 0024 5DF804FB 		ldr	pc, [sp], #4
 3692              		.cfi_endproc
 3693              	.LFE666:
 3694              		.size	_ZN3r2p4Node9subscribeINS_10EncoderMsgELj10EEEbRNS_10SubscriberIT_XT0_EEEPKc, .-_ZN3r2p4Node
 3695 0028 AFF30080 		.section	.text._ZN3r2p4Node9subscribeINS_12Velocity3MsgELj5EEEbRNS_10SubscriberIT_XT0_EEEPKc,"axG"
 3695      AFF30080 
 3696              		.align	2
 3697              		.p2align 4,,15
 3698              		.weak	_ZN3r2p4Node9subscribeINS_12Velocity3MsgELj5EEEbRNS_10SubscriberIT_XT0_EEEPKc
 3699              		.thumb
 3700              		.thumb_func
 3701              		.type	_ZN3r2p4Node9subscribeINS_12Velocity3MsgELj5EEEbRNS_10SubscriberIT_XT0_EEEPKc, %function
 3702              	_ZN3r2p4Node9subscribeINS_12Velocity3MsgELj5EEEbRNS_10SubscriberIT_XT0_EEEPKc:
 3703              	.LFB667:
 3704              		.loc 12 133 0
 3705              		.cfi_startproc
 3706              		@ args = 0, pretend = 0, frame = 16
 3707              		@ frame_needed = 0, uses_anonymous_args = 0
 3708 0000 00B5     		push	{lr}
 3709              		.cfi_def_cfa_offset 4
 3710              		.cfi_offset 14, -4
 3711 0002 87B0     		sub	sp, sp, #28
 3712              		.cfi_def_cfa_offset 32
 3713 0004 0590     		str	r0, [sp, #20]
 3714 0006 0491     		str	r1, [sp, #16]
 3715 0008 0392     		str	r2, [sp, #12]
 3716              		.loc 12 135 0
 3717 000a 049A     		ldr	r2, [sp, #16]
 3718 000c 049B     		ldr	r3, [sp, #16]
 3719 000e 3833     		adds	r3, r3, #56
 3720 0010 0E21     		movs	r1, #14
 3721 0012 0091     		str	r1, [sp]
 3722 0014 0598     		ldr	r0, [sp, #20]
 3723 0016 1146     		mov	r1, r2
 3724 0018 039A     		ldr	r2, [sp, #12]
 3725 001a FFF7FEFF 		bl	_ZN3r2p4Node9subscribeERNS_15LocalSubscriberEPKcPNS_7MessageEj
 3726 001e 0346     		mov	r3, r0
 3727              		.loc 12 136 0
 3728 0020 1846     		mov	r0, r3
 3729 0022 07B0     		add	sp, sp, #28
 3730              		@ sp needed
ARM GAS  /tmp/ccjqfgnD.s 			page 68


 3731 0024 5DF804FB 		ldr	pc, [sp], #4
 3732              		.cfi_endproc
 3733              	.LFE667:
 3734              		.size	_ZN3r2p4Node9subscribeINS_12Velocity3MsgELj5EEEbRNS_10SubscriberIT_XT0_EEEPKc, .-_ZN3r2p4Nod
 3735 0028 AFF30080 		.section	.text._ZN3r2p4Node9subscribeINS_9PIDCfgMsgELj5EEEbRNS_10SubscriberIT_XT0_EEEPKc,"axG",%pr
 3735      AFF30080 
 3736              		.align	2
 3737              		.p2align 4,,15
 3738              		.weak	_ZN3r2p4Node9subscribeINS_9PIDCfgMsgELj5EEEbRNS_10SubscriberIT_XT0_EEEPKc
 3739              		.thumb
 3740              		.thumb_func
 3741              		.type	_ZN3r2p4Node9subscribeINS_9PIDCfgMsgELj5EEEbRNS_10SubscriberIT_XT0_EEEPKc, %function
 3742              	_ZN3r2p4Node9subscribeINS_9PIDCfgMsgELj5EEEbRNS_10SubscriberIT_XT0_EEEPKc:
 3743              	.LFB668:
 3744              		.loc 12 133 0
 3745              		.cfi_startproc
 3746              		@ args = 0, pretend = 0, frame = 16
 3747              		@ frame_needed = 0, uses_anonymous_args = 0
 3748 0000 00B5     		push	{lr}
 3749              		.cfi_def_cfa_offset 4
 3750              		.cfi_offset 14, -4
 3751 0002 87B0     		sub	sp, sp, #28
 3752              		.cfi_def_cfa_offset 32
 3753 0004 0590     		str	r0, [sp, #20]
 3754 0006 0491     		str	r1, [sp, #16]
 3755 0008 0392     		str	r2, [sp, #12]
 3756              		.loc 12 135 0
 3757 000a 049A     		ldr	r2, [sp, #16]
 3758 000c 049B     		ldr	r3, [sp, #16]
 3759 000e 3833     		adds	r3, r3, #56
 3760 0010 0E21     		movs	r1, #14
 3761 0012 0091     		str	r1, [sp]
 3762 0014 0598     		ldr	r0, [sp, #20]
 3763 0016 1146     		mov	r1, r2
 3764 0018 039A     		ldr	r2, [sp, #12]
 3765 001a FFF7FEFF 		bl	_ZN3r2p4Node9subscribeERNS_15LocalSubscriberEPKcPNS_7MessageEj
 3766 001e 0346     		mov	r3, r0
 3767              		.loc 12 136 0
 3768 0020 1846     		mov	r0, r3
 3769 0022 07B0     		add	sp, sp, #28
 3770              		@ sp needed
 3771 0024 5DF804FB 		ldr	pc, [sp], #4
 3772              		.cfi_endproc
 3773              	.LFE668:
 3774              		.size	_ZN3r2p4Node9subscribeINS_9PIDCfgMsgELj5EEEbRNS_10SubscriberIT_XT0_EEEPKc, .-_ZN3r2p4Node9su
 3775 0028 AFF30080 		.section	.text._ZN3r2p4Node9advertiseINS_12Velocity3MsgEEEbRNS_9PublisherIT_EEPKcRKNS_4TimeE,"axG"
 3775      AFF30080 
 3776              		.align	2
 3777              		.p2align 4,,15
 3778              		.weak	_ZN3r2p4Node9advertiseINS_12Velocity3MsgEEEbRNS_9PublisherIT_EEPKcRKNS_4TimeE
 3779              		.thumb
 3780              		.thumb_func
 3781              		.type	_ZN3r2p4Node9advertiseINS_12Velocity3MsgEEEbRNS_9PublisherIT_EEPKcRKNS_4TimeE, %function
 3782              	_ZN3r2p4Node9advertiseINS_12Velocity3MsgEEEbRNS_9PublisherIT_EEPKcRKNS_4TimeE:
 3783              	.LFB669:
 3784              		.loc 12 117 0
 3785              		.cfi_startproc
ARM GAS  /tmp/ccjqfgnD.s 			page 69


 3786              		@ args = 0, pretend = 0, frame = 16
 3787              		@ frame_needed = 0, uses_anonymous_args = 0
 3788 0000 00B5     		push	{lr}
 3789              		.cfi_def_cfa_offset 4
 3790              		.cfi_offset 14, -4
 3791 0002 87B0     		sub	sp, sp, #28
 3792              		.cfi_def_cfa_offset 32
 3793 0004 0590     		str	r0, [sp, #20]
 3794 0006 0491     		str	r1, [sp, #16]
 3795 0008 0392     		str	r2, [sp, #12]
 3796 000a 0293     		str	r3, [sp, #8]
 3797              		.loc 12 120 0
 3798 000c 049B     		ldr	r3, [sp, #16]
 3799 000e 0E22     		movs	r2, #14
 3800 0010 0092     		str	r2, [sp]
 3801 0012 0598     		ldr	r0, [sp, #20]
 3802 0014 1946     		mov	r1, r3
 3803 0016 039A     		ldr	r2, [sp, #12]
 3804 0018 029B     		ldr	r3, [sp, #8]
 3805 001a FFF7FEFF 		bl	_ZN3r2p4Node9advertiseERNS_14LocalPublisherEPKcRKNS_4TimeEj
 3806 001e 0346     		mov	r3, r0
 3807              		.loc 12 121 0
 3808 0020 1846     		mov	r0, r3
 3809 0022 07B0     		add	sp, sp, #28
 3810              		@ sp needed
 3811 0024 5DF804FB 		ldr	pc, [sp], #4
 3812              		.cfi_endproc
 3813              	.LFE669:
 3814              		.size	_ZN3r2p4Node9advertiseINS_12Velocity3MsgEEEbRNS_9PublisherIT_EEPKcRKNS_4TimeE, .-_ZN3r2p4Nod
 3815 0028 AFF30080 		.section	.text._ZN3r2p9PublisherINS_12Velocity3MsgEE5allocERPS1_,"axG",%progbits,_ZN3r2p9Publisher
 3815      AFF30080 
 3816              		.align	2
 3817              		.p2align 4,,15
 3818              		.weak	_ZN3r2p9PublisherINS_12Velocity3MsgEE5allocERPS1_
 3819              		.thumb
 3820              		.thumb_func
 3821              		.type	_ZN3r2p9PublisherINS_12Velocity3MsgEE5allocERPS1_, %function
 3822              	_ZN3r2p9PublisherINS_12Velocity3MsgEE5allocERPS1_:
 3823              	.LFB670:
 3824              		.loc 22 25 0
 3825              		.cfi_startproc
 3826              		@ args = 0, pretend = 0, frame = 8
 3827              		@ frame_needed = 0, uses_anonymous_args = 0
 3828 0000 00B5     		push	{lr}
 3829              		.cfi_def_cfa_offset 4
 3830              		.cfi_offset 14, -4
 3831 0002 83B0     		sub	sp, sp, #12
 3832              		.cfi_def_cfa_offset 16
 3833 0004 0190     		str	r0, [sp, #4]
 3834 0006 0091     		str	r1, [sp]
 3835              		.loc 22 28 0
 3836 0008 019B     		ldr	r3, [sp, #4]
 3837 000a 1846     		mov	r0, r3
 3838 000c 0099     		ldr	r1, [sp]
 3839 000e FFF7FEFF 		bl	_ZN3r2p13BasePublisher5allocERPNS_7MessageE
 3840 0012 0346     		mov	r3, r0
 3841              		.loc 22 29 0
ARM GAS  /tmp/ccjqfgnD.s 			page 70


 3842 0014 1846     		mov	r0, r3
 3843 0016 03B0     		add	sp, sp, #12
 3844              		@ sp needed
 3845 0018 5DF804FB 		ldr	pc, [sp], #4
 3846              		.cfi_endproc
 3847              	.LFE670:
 3848              		.size	_ZN3r2p9PublisherINS_12Velocity3MsgEE5allocERPS1_, .-_ZN3r2p9PublisherINS_12Velocity3MsgEE5a
 3849 001c AFF30080 		.section	.text._ZN3r2p9PublisherINS_12Velocity3MsgEE7publishERS1_,"axG",%progbits,_ZN3r2p9Publishe
 3850              		.align	2
 3851              		.p2align 4,,15
 3852              		.weak	_ZN3r2p9PublisherINS_12Velocity3MsgEE7publishERS1_
 3853              		.thumb
 3854              		.thumb_func
 3855              		.type	_ZN3r2p9PublisherINS_12Velocity3MsgEE7publishERS1_, %function
 3856              	_ZN3r2p9PublisherINS_12Velocity3MsgEE7publishERS1_:
 3857              	.LFB671:
 3858              		.loc 22 33 0
 3859              		.cfi_startproc
 3860              		@ args = 0, pretend = 0, frame = 8
 3861              		@ frame_needed = 0, uses_anonymous_args = 0
 3862 0000 00B5     		push	{lr}
 3863              		.cfi_def_cfa_offset 4
 3864              		.cfi_offset 14, -4
 3865 0002 83B0     		sub	sp, sp, #12
 3866              		.cfi_def_cfa_offset 16
 3867 0004 0190     		str	r0, [sp, #4]
 3868 0006 0091     		str	r1, [sp]
 3869              		.loc 22 36 0
 3870 0008 019A     		ldr	r2, [sp, #4]
 3871 000a 009B     		ldr	r3, [sp]
 3872 000c 1046     		mov	r0, r2
 3873 000e 1946     		mov	r1, r3
 3874 0010 FFF7FEFF 		bl	_ZN3r2p13BasePublisher7publishERNS_7MessageE
 3875 0014 0346     		mov	r3, r0
 3876              		.loc 22 37 0
 3877 0016 1846     		mov	r0, r3
 3878 0018 03B0     		add	sp, sp, #12
 3879              		@ sp needed
 3880 001a 5DF804FB 		ldr	pc, [sp], #4
 3881              		.cfi_endproc
 3882              	.LFE671:
 3883              		.size	_ZN3r2p9PublisherINS_12Velocity3MsgEE7publishERS1_, .-_ZN3r2p9PublisherINS_12Velocity3MsgEE7
 3884 001e 00BF     		.section	.text._ZN3r2p16SubscriberExtBufINS_12Velocity3MsgEE5fetchERPS1_,"axG",%progbits,_ZN3r2p16
 3885              		.align	2
 3886              		.p2align 4,,15
 3887              		.weak	_ZN3r2p16SubscriberExtBufINS_12Velocity3MsgEE5fetchERPS1_
 3888              		.thumb
 3889              		.thumb_func
 3890              		.type	_ZN3r2p16SubscriberExtBufINS_12Velocity3MsgEE5fetchERPS1_, %function
 3891              	_ZN3r2p16SubscriberExtBufINS_12Velocity3MsgEE5fetchERPS1_:
 3892              	.LFB672:
 3893              		.file 23 "/home/dave/r2p-sdk/core/Middleware/include/r2p/SubscriberExtBuf.hpp"
 3894              		.loc 23 31 0
 3895              		.cfi_startproc
 3896              		@ args = 0, pretend = 0, frame = 8
 3897              		@ frame_needed = 0, uses_anonymous_args = 0
 3898 0000 00B5     		push	{lr}
ARM GAS  /tmp/ccjqfgnD.s 			page 71


 3899              		.cfi_def_cfa_offset 4
 3900              		.cfi_offset 14, -4
 3901 0002 83B0     		sub	sp, sp, #12
 3902              		.cfi_def_cfa_offset 16
 3903 0004 0190     		str	r0, [sp, #4]
 3904 0006 0091     		str	r1, [sp]
 3905              		.loc 23 34 0
 3906 0008 019B     		ldr	r3, [sp, #4]
 3907 000a 1846     		mov	r0, r3
 3908 000c 0099     		ldr	r1, [sp]
 3909 000e FFF7FEFF 		bl	_ZN3r2p15LocalSubscriber5fetchERPNS_7MessageE
 3910 0012 0346     		mov	r3, r0
 3911              		.loc 23 35 0
 3912 0014 1846     		mov	r0, r3
 3913 0016 03B0     		add	sp, sp, #12
 3914              		@ sp needed
 3915 0018 5DF804FB 		ldr	pc, [sp], #4
 3916              		.cfi_endproc
 3917              	.LFE672:
 3918              		.size	_ZN3r2p16SubscriberExtBufINS_12Velocity3MsgEE5fetchERPS1_, .-_ZN3r2p16SubscriberExtBufINS_12
 3919 001c AFF30080 		.section	.text._ZN3r2p16SubscriberExtBufINS_12Velocity3MsgEE7releaseERS1_,"axG",%progbits,_ZN3r2p1
 3920              		.align	2
 3921              		.p2align 4,,15
 3922              		.weak	_ZN3r2p16SubscriberExtBufINS_12Velocity3MsgEE7releaseERS1_
 3923              		.thumb
 3924              		.thumb_func
 3925              		.type	_ZN3r2p16SubscriberExtBufINS_12Velocity3MsgEE7releaseERS1_, %function
 3926              	_ZN3r2p16SubscriberExtBufINS_12Velocity3MsgEE7releaseERS1_:
 3927              	.LFB673:
 3928              		.loc 23 57 0
 3929              		.cfi_startproc
 3930              		@ args = 0, pretend = 0, frame = 8
 3931              		@ frame_needed = 0, uses_anonymous_args = 0
 3932 0000 00B5     		push	{lr}
 3933              		.cfi_def_cfa_offset 4
 3934              		.cfi_offset 14, -4
 3935 0002 83B0     		sub	sp, sp, #12
 3936              		.cfi_def_cfa_offset 16
 3937 0004 0190     		str	r0, [sp, #4]
 3938 0006 0091     		str	r1, [sp]
 3939              		.loc 23 60 0
 3940 0008 019A     		ldr	r2, [sp, #4]
 3941 000a 009B     		ldr	r3, [sp]
 3942 000c 1046     		mov	r0, r2
 3943 000e 1946     		mov	r1, r3
 3944 0010 FFF7FEFF 		bl	_ZN3r2p14BaseSubscriber7releaseERNS_7MessageE
 3945 0014 0346     		mov	r3, r0
 3946              		.loc 23 61 0
 3947 0016 1846     		mov	r0, r3
 3948 0018 03B0     		add	sp, sp, #12
 3949              		@ sp needed
 3950 001a 5DF804FB 		ldr	pc, [sp], #4
 3951              		.cfi_endproc
 3952              	.LFE673:
 3953              		.size	_ZN3r2p16SubscriberExtBufINS_12Velocity3MsgEE7releaseERS1_, .-_ZN3r2p16SubscriberExtBufINS_1
 3954 001e 00BF     		.section	.text._ZN3r2p16SubscriberExtBufINS_9PIDCfgMsgEE5fetchERPS1_,"axG",%progbits,_ZN3r2p16Subs
 3955              		.align	2
ARM GAS  /tmp/ccjqfgnD.s 			page 72


 3956              		.p2align 4,,15
 3957              		.weak	_ZN3r2p16SubscriberExtBufINS_9PIDCfgMsgEE5fetchERPS1_
 3958              		.thumb
 3959              		.thumb_func
 3960              		.type	_ZN3r2p16SubscriberExtBufINS_9PIDCfgMsgEE5fetchERPS1_, %function
 3961              	_ZN3r2p16SubscriberExtBufINS_9PIDCfgMsgEE5fetchERPS1_:
 3962              	.LFB674:
 3963              		.loc 23 31 0
 3964              		.cfi_startproc
 3965              		@ args = 0, pretend = 0, frame = 8
 3966              		@ frame_needed = 0, uses_anonymous_args = 0
 3967 0000 00B5     		push	{lr}
 3968              		.cfi_def_cfa_offset 4
 3969              		.cfi_offset 14, -4
 3970 0002 83B0     		sub	sp, sp, #12
 3971              		.cfi_def_cfa_offset 16
 3972 0004 0190     		str	r0, [sp, #4]
 3973 0006 0091     		str	r1, [sp]
 3974              		.loc 23 34 0
 3975 0008 019B     		ldr	r3, [sp, #4]
 3976 000a 1846     		mov	r0, r3
 3977 000c 0099     		ldr	r1, [sp]
 3978 000e FFF7FEFF 		bl	_ZN3r2p15LocalSubscriber5fetchERPNS_7MessageE
 3979 0012 0346     		mov	r3, r0
 3980              		.loc 23 35 0
 3981 0014 1846     		mov	r0, r3
 3982 0016 03B0     		add	sp, sp, #12
 3983              		@ sp needed
 3984 0018 5DF804FB 		ldr	pc, [sp], #4
 3985              		.cfi_endproc
 3986              	.LFE674:
 3987              		.size	_ZN3r2p16SubscriberExtBufINS_9PIDCfgMsgEE5fetchERPS1_, .-_ZN3r2p16SubscriberExtBufINS_9PIDCf
 3988 001c AFF30080 		.section	.text._ZN3r2p16SubscriberExtBufINS_9PIDCfgMsgEE7releaseERS1_,"axG",%progbits,_ZN3r2p16Sub
 3989              		.align	2
 3990              		.p2align 4,,15
 3991              		.weak	_ZN3r2p16SubscriberExtBufINS_9PIDCfgMsgEE7releaseERS1_
 3992              		.thumb
 3993              		.thumb_func
 3994              		.type	_ZN3r2p16SubscriberExtBufINS_9PIDCfgMsgEE7releaseERS1_, %function
 3995              	_ZN3r2p16SubscriberExtBufINS_9PIDCfgMsgEE7releaseERS1_:
 3996              	.LFB675:
 3997              		.loc 23 57 0
 3998              		.cfi_startproc
 3999              		@ args = 0, pretend = 0, frame = 8
 4000              		@ frame_needed = 0, uses_anonymous_args = 0
 4001 0000 00B5     		push	{lr}
 4002              		.cfi_def_cfa_offset 4
 4003              		.cfi_offset 14, -4
 4004 0002 83B0     		sub	sp, sp, #12
 4005              		.cfi_def_cfa_offset 16
 4006 0004 0190     		str	r0, [sp, #4]
 4007 0006 0091     		str	r1, [sp]
 4008              		.loc 23 60 0
 4009 0008 019A     		ldr	r2, [sp, #4]
 4010 000a 009B     		ldr	r3, [sp]
 4011 000c 1046     		mov	r0, r2
 4012 000e 1946     		mov	r1, r3
ARM GAS  /tmp/ccjqfgnD.s 			page 73


 4013 0010 FFF7FEFF 		bl	_ZN3r2p14BaseSubscriber7releaseERNS_7MessageE
 4014 0014 0346     		mov	r3, r0
 4015              		.loc 23 61 0
 4016 0016 1846     		mov	r0, r3
 4017 0018 03B0     		add	sp, sp, #12
 4018              		@ sp needed
 4019 001a 5DF804FB 		ldr	pc, [sp], #4
 4020              		.cfi_endproc
 4021              	.LFE675:
 4022              		.size	_ZN3r2p16SubscriberExtBufINS_9PIDCfgMsgEE7releaseERS1_, .-_ZN3r2p16SubscriberExtBufINS_9PIDC
 4023 001e 00BF     		.section	.text._ZN3r2p6IMUMsgC2Ev,"axG",%progbits,_ZN3r2p6IMUMsgC5Ev,comdat
 4024              		.align	2
 4025              		.p2align 4,,15
 4026              		.weak	_ZN3r2p6IMUMsgC2Ev
 4027              		.thumb
 4028              		.thumb_func
 4029              		.type	_ZN3r2p6IMUMsgC2Ev, %function
 4030              	_ZN3r2p6IMUMsgC2Ev:
 4031              	.LFB678:
 4032              		.file 24 "/home/dave/r2p-sdk/core/Middleware/include/r2p/msg/imu.hpp"
 4033              		.loc 24 36 0
 4034              		.cfi_startproc
 4035              		@ args = 0, pretend = 0, frame = 8
 4036              		@ frame_needed = 0, uses_anonymous_args = 0
 4037 0000 00B5     		push	{lr}
 4038              		.cfi_def_cfa_offset 4
 4039              		.cfi_offset 14, -4
 4040 0002 83B0     		sub	sp, sp, #12
 4041              		.cfi_def_cfa_offset 16
 4042 0004 0190     		str	r0, [sp, #4]
 4043              	.LBB152:
 4044              		.loc 24 36 0
 4045 0006 019B     		ldr	r3, [sp, #4]
 4046 0008 1846     		mov	r0, r3
 4047 000a FFF7FEFF 		bl	_ZN3r2p7MessageC2Ev
 4048              	.LBE152:
 4049 000e 019B     		ldr	r3, [sp, #4]
 4050 0010 1846     		mov	r0, r3
 4051 0012 03B0     		add	sp, sp, #12
 4052              		@ sp needed
 4053 0014 5DF804FB 		ldr	pc, [sp], #4
 4054              		.cfi_endproc
 4055              	.LFE678:
 4056              		.size	_ZN3r2p6IMUMsgC2Ev, .-_ZN3r2p6IMUMsgC2Ev
 4057              		.weak	_ZN3r2p6IMUMsgC1Ev
 4058              		.thumb_set _ZN3r2p6IMUMsgC1Ev,_ZN3r2p6IMUMsgC2Ev
 4059 0018 AFF30080 		.section	.text._ZN3r2p10SubscriberINS_6IMUMsgELj5EEC2EPFbRKS1_E,"axG",%progbits,_ZN3r2p10Subscribe
 4059      AFF30080 
 4060              		.align	2
 4061              		.p2align 4,,15
 4062              		.weak	_ZN3r2p10SubscriberINS_6IMUMsgELj5EEC2EPFbRKS1_E
 4063              		.thumb
 4064              		.thumb_func
 4065              		.type	_ZN3r2p10SubscriberINS_6IMUMsgELj5EEC2EPFbRKS1_E, %function
 4066              	_ZN3r2p10SubscriberINS_6IMUMsgELj5EEC2EPFbRKS1_E:
 4067              	.LFB680:
 4068              		.loc 21 31 0
ARM GAS  /tmp/ccjqfgnD.s 			page 74


 4069              		.cfi_startproc
 4070              		@ args = 0, pretend = 0, frame = 8
 4071              		@ frame_needed = 0, uses_anonymous_args = 0
 4072 0000 30B5     		push	{r4, r5, lr}
 4073              		.cfi_def_cfa_offset 12
 4074              		.cfi_offset 4, -12
 4075              		.cfi_offset 5, -8
 4076              		.cfi_offset 14, -4
 4077 0002 83B0     		sub	sp, sp, #12
 4078              		.cfi_def_cfa_offset 24
 4079 0004 0190     		str	r0, [sp, #4]
 4080 0006 0091     		str	r1, [sp]
 4081              	.LBB153:
 4082              		.loc 21 33 0
 4083 0008 019A     		ldr	r2, [sp, #4]
 4084 000a 019B     		ldr	r3, [sp, #4]
 4085 000c 8033     		adds	r3, r3, #128
 4086 000e 1046     		mov	r0, r2
 4087 0010 1946     		mov	r1, r3
 4088 0012 0522     		movs	r2, #5
 4089 0014 009B     		ldr	r3, [sp]
 4090 0016 FFF7FEFF 		bl	_ZN3r2p16SubscriberExtBufINS_6IMUMsgEEC2EPPS1_jPFbRKS1_E
 4091 001a 019B     		ldr	r3, [sp, #4]
 4092 001c 094A     		ldr	r2, .L244
 4093 001e 1A60     		str	r2, [r3]
 4094 0020 019B     		ldr	r3, [sp, #4]
 4095 0022 3833     		adds	r3, r3, #56
 4096 0024 0424     		movs	r4, #4
 4097 0026 1D46     		mov	r5, r3
 4098 0028 04E0     		b	.L240
 4099              	.L241:
 4100              		.loc 21 33 0 is_stmt 0 discriminator 2
 4101 002a 2846     		mov	r0, r5
 4102 002c FFF7FEFF 		bl	_ZN3r2p6IMUMsgC1Ev
 4103 0030 0E35     		adds	r5, r5, #14
 4104 0032 013C     		subs	r4, r4, #1
 4105              	.L240:
 4106              		.loc 21 33 0 discriminator 1
 4107 0034 B4F1FF3F 		cmp	r4, #-1
 4108 0038 F7D1     		bne	.L241
 4109              	.LBE153:
 4110              		.loc 21 34 0 is_stmt 1 discriminator 3
 4111 003a 019B     		ldr	r3, [sp, #4]
 4112 003c 1846     		mov	r0, r3
 4113 003e 03B0     		add	sp, sp, #12
 4114              		@ sp needed
 4115 0040 30BD     		pop	{r4, r5, pc}
 4116              	.L245:
 4117 0042 00BF     		.align	2
 4118              	.L244:
 4119 0044 08000000 		.word	_ZTVN3r2p10SubscriberINS_6IMUMsgELj5EEE+8
 4120              		.cfi_endproc
 4121              	.LFE680:
 4122              		.size	_ZN3r2p10SubscriberINS_6IMUMsgELj5EEC2EPFbRKS1_E, .-_ZN3r2p10SubscriberINS_6IMUMsgELj5EEC2EP
 4123              		.weak	_ZN3r2p10SubscriberINS_6IMUMsgELj5EEC1EPFbRKS1_E
 4124              		.thumb_set _ZN3r2p10SubscriberINS_6IMUMsgELj5EEC1EPFbRKS1_E,_ZN3r2p10SubscriberINS_6IMUMsgELj5EEC2
 4125 0048 AFF30080 		.section	.text._ZN3r2p10SubscriberINS_6IMUMsgELj5EED2Ev,"axG",%progbits,_ZN3r2p10SubscriberINS_6IM
ARM GAS  /tmp/ccjqfgnD.s 			page 75


 4125      AFF30080 
 4126              		.align	2
 4127              		.p2align 4,,15
 4128              		.weak	_ZN3r2p10SubscriberINS_6IMUMsgELj5EED2Ev
 4129              		.thumb
 4130              		.thumb_func
 4131              		.type	_ZN3r2p10SubscriberINS_6IMUMsgELj5EED2Ev, %function
 4132              	_ZN3r2p10SubscriberINS_6IMUMsgELj5EED2Ev:
 4133              	.LFB683:
 4134              		.loc 21 38 0
 4135              		.cfi_startproc
 4136              		@ args = 0, pretend = 0, frame = 8
 4137              		@ frame_needed = 0, uses_anonymous_args = 0
 4138 0000 00B5     		push	{lr}
 4139              		.cfi_def_cfa_offset 4
 4140              		.cfi_offset 14, -4
 4141 0002 83B0     		sub	sp, sp, #12
 4142              		.cfi_def_cfa_offset 16
 4143 0004 0190     		str	r0, [sp, #4]
 4144              	.LBB154:
 4145              		.loc 21 38 0
 4146 0006 019B     		ldr	r3, [sp, #4]
 4147 0008 084A     		ldr	r2, .L250
 4148 000a 1A60     		str	r2, [r3]
 4149 000c 019B     		ldr	r3, [sp, #4]
 4150 000e 1846     		mov	r0, r3
 4151 0010 FFF7FEFF 		bl	_ZN3r2p16SubscriberExtBufINS_6IMUMsgEED2Ev
 4152              	.LBE154:
 4153 0014 0023     		movs	r3, #0
 4154 0016 002B     		cmp	r3, #0
 4155 0018 02D0     		beq	.L248
 4156              		.loc 21 38 0 is_stmt 0 discriminator 1
 4157 001a 0198     		ldr	r0, [sp, #4]
 4158 001c FFF7FEFF 		bl	_ZdlPv
 4159              	.L248:
 4160              		.loc 21 38 0 discriminator 2
 4161 0020 019B     		ldr	r3, [sp, #4]
 4162 0022 1846     		mov	r0, r3
 4163 0024 03B0     		add	sp, sp, #12
 4164              		@ sp needed
 4165 0026 5DF804FB 		ldr	pc, [sp], #4
 4166              	.L251:
 4167 002a 00BF     		.align	2
 4168              	.L250:
 4169 002c 08000000 		.word	_ZTVN3r2p10SubscriberINS_6IMUMsgELj5EEE+8
 4170              		.cfi_endproc
 4171              	.LFE683:
 4172              		.size	_ZN3r2p10SubscriberINS_6IMUMsgELj5EED2Ev, .-_ZN3r2p10SubscriberINS_6IMUMsgELj5EED2Ev
 4173              		.weak	_ZN3r2p10SubscriberINS_6IMUMsgELj5EED1Ev
 4174              		.thumb_set _ZN3r2p10SubscriberINS_6IMUMsgELj5EED1Ev,_ZN3r2p10SubscriberINS_6IMUMsgELj5EED2Ev
 4175              		.section	.text._ZN3r2p10SubscriberINS_6IMUMsgELj5EED0Ev,"axG",%progbits,_ZN3r2p10SubscriberINS_6IM
 4176              		.align	2
 4177              		.p2align 4,,15
 4178              		.weak	_ZN3r2p10SubscriberINS_6IMUMsgELj5EED0Ev
 4179              		.thumb
 4180              		.thumb_func
 4181              		.type	_ZN3r2p10SubscriberINS_6IMUMsgELj5EED0Ev, %function
ARM GAS  /tmp/ccjqfgnD.s 			page 76


 4182              	_ZN3r2p10SubscriberINS_6IMUMsgELj5EED0Ev:
 4183              	.LFB685:
 4184              		.loc 21 38 0 is_stmt 1
 4185              		.cfi_startproc
 4186              		@ args = 0, pretend = 0, frame = 8
 4187              		@ frame_needed = 0, uses_anonymous_args = 0
 4188 0000 00B5     		push	{lr}
 4189              		.cfi_def_cfa_offset 4
 4190              		.cfi_offset 14, -4
 4191 0002 83B0     		sub	sp, sp, #12
 4192              		.cfi_def_cfa_offset 16
 4193 0004 0190     		str	r0, [sp, #4]
 4194              		.loc 21 38 0
 4195 0006 0198     		ldr	r0, [sp, #4]
 4196 0008 FFF7FEFF 		bl	_ZN3r2p10SubscriberINS_6IMUMsgELj5EED1Ev
 4197 000c 0198     		ldr	r0, [sp, #4]
 4198 000e FFF7FEFF 		bl	_ZdlPv
 4199 0012 019B     		ldr	r3, [sp, #4]
 4200 0014 1846     		mov	r0, r3
 4201 0016 03B0     		add	sp, sp, #12
 4202              		@ sp needed
 4203 0018 5DF804FB 		ldr	pc, [sp], #4
 4204              		.cfi_endproc
 4205              	.LFE685:
 4206              		.size	_ZN3r2p10SubscriberINS_6IMUMsgELj5EED0Ev, .-_ZN3r2p10SubscriberINS_6IMUMsgELj5EED0Ev
 4207 001c AFF30080 		.section	.text._ZN3r2p9PublisherINS_7PWM2MsgEEC2Ev,"axG",%progbits,_ZN3r2p9PublisherINS_7PWM2MsgEE
 4208              		.align	2
 4209              		.p2align 4,,15
 4210              		.weak	_ZN3r2p9PublisherINS_7PWM2MsgEEC2Ev
 4211              		.thumb
 4212              		.thumb_func
 4213              		.type	_ZN3r2p9PublisherINS_7PWM2MsgEEC2Ev, %function
 4214              	_ZN3r2p9PublisherINS_7PWM2MsgEEC2Ev:
 4215              	.LFB687:
 4216              		.loc 22 47 0
 4217              		.cfi_startproc
 4218              		@ args = 0, pretend = 0, frame = 8
 4219              		@ frame_needed = 0, uses_anonymous_args = 0
 4220 0000 00B5     		push	{lr}
 4221              		.cfi_def_cfa_offset 4
 4222              		.cfi_offset 14, -4
 4223 0002 83B0     		sub	sp, sp, #12
 4224              		.cfi_def_cfa_offset 16
 4225 0004 0190     		str	r0, [sp, #4]
 4226              	.LBB155:
 4227              		.loc 22 47 0
 4228 0006 019B     		ldr	r3, [sp, #4]
 4229 0008 1846     		mov	r0, r3
 4230 000a FFF7FEFF 		bl	_ZN3r2p14LocalPublisherC2Ev
 4231 000e 019B     		ldr	r3, [sp, #4]
 4232 0010 034A     		ldr	r2, .L258
 4233 0012 1A60     		str	r2, [r3]
 4234              	.LBE155:
 4235              		.loc 22 50 0
 4236 0014 019B     		ldr	r3, [sp, #4]
 4237 0016 1846     		mov	r0, r3
 4238 0018 03B0     		add	sp, sp, #12
ARM GAS  /tmp/ccjqfgnD.s 			page 77


 4239              		@ sp needed
 4240 001a 5DF804FB 		ldr	pc, [sp], #4
 4241              	.L259:
 4242 001e 00BF     		.align	2
 4243              	.L258:
 4244 0020 08000000 		.word	_ZTVN3r2p9PublisherINS_7PWM2MsgEEE+8
 4245              		.cfi_endproc
 4246              	.LFE687:
 4247              		.size	_ZN3r2p9PublisherINS_7PWM2MsgEEC2Ev, .-_ZN3r2p9PublisherINS_7PWM2MsgEEC2Ev
 4248              		.weak	_ZN3r2p9PublisherINS_7PWM2MsgEEC1Ev
 4249              		.thumb_set _ZN3r2p9PublisherINS_7PWM2MsgEEC1Ev,_ZN3r2p9PublisherINS_7PWM2MsgEEC2Ev
 4250 0024 AFF30080 		.section	.text._ZN3r2p9PublisherINS_7PWM2MsgEED2Ev,"axG",%progbits,_ZN3r2p9PublisherINS_7PWM2MsgEE
 4250      AFF30080 
 4250      AFF30080 
 4251              		.align	2
 4252              		.p2align 4,,15
 4253              		.weak	_ZN3r2p9PublisherINS_7PWM2MsgEED2Ev
 4254              		.thumb
 4255              		.thumb_func
 4256              		.type	_ZN3r2p9PublisherINS_7PWM2MsgEED2Ev, %function
 4257              	_ZN3r2p9PublisherINS_7PWM2MsgEED2Ev:
 4258              	.LFB690:
 4259              		.loc 22 54 0
 4260              		.cfi_startproc
 4261              		@ args = 0, pretend = 0, frame = 8
 4262              		@ frame_needed = 0, uses_anonymous_args = 0
 4263 0000 00B5     		push	{lr}
 4264              		.cfi_def_cfa_offset 4
 4265              		.cfi_offset 14, -4
 4266 0002 83B0     		sub	sp, sp, #12
 4267              		.cfi_def_cfa_offset 16
 4268 0004 0190     		str	r0, [sp, #4]
 4269              	.LBB156:
 4270              		.loc 22 57 0
 4271 0006 019B     		ldr	r3, [sp, #4]
 4272 0008 084A     		ldr	r2, .L264
 4273 000a 1A60     		str	r2, [r3]
 4274 000c 019B     		ldr	r3, [sp, #4]
 4275 000e 1846     		mov	r0, r3
 4276 0010 FFF7FEFF 		bl	_ZN3r2p14LocalPublisherD2Ev
 4277              	.LBE156:
 4278 0014 0023     		movs	r3, #0
 4279 0016 002B     		cmp	r3, #0
 4280 0018 02D0     		beq	.L262
 4281              		.loc 22 57 0 is_stmt 0 discriminator 1
 4282 001a 0198     		ldr	r0, [sp, #4]
 4283 001c FFF7FEFF 		bl	_ZdlPv
 4284              	.L262:
 4285              		.loc 22 57 0 discriminator 2
 4286 0020 019B     		ldr	r3, [sp, #4]
 4287 0022 1846     		mov	r0, r3
 4288 0024 03B0     		add	sp, sp, #12
 4289              		@ sp needed
 4290 0026 5DF804FB 		ldr	pc, [sp], #4
 4291              	.L265:
 4292 002a 00BF     		.align	2
 4293              	.L264:
ARM GAS  /tmp/ccjqfgnD.s 			page 78


 4294 002c 08000000 		.word	_ZTVN3r2p9PublisherINS_7PWM2MsgEEE+8
 4295              		.cfi_endproc
 4296              	.LFE690:
 4297              		.size	_ZN3r2p9PublisherINS_7PWM2MsgEED2Ev, .-_ZN3r2p9PublisherINS_7PWM2MsgEED2Ev
 4298              		.weak	_ZN3r2p9PublisherINS_7PWM2MsgEED1Ev
 4299              		.thumb_set _ZN3r2p9PublisherINS_7PWM2MsgEED1Ev,_ZN3r2p9PublisherINS_7PWM2MsgEED2Ev
 4300              		.section	.text._ZN3r2p9PublisherINS_7PWM2MsgEED0Ev,"axG",%progbits,_ZN3r2p9PublisherINS_7PWM2MsgEE
 4301              		.align	2
 4302              		.p2align 4,,15
 4303              		.weak	_ZN3r2p9PublisherINS_7PWM2MsgEED0Ev
 4304              		.thumb
 4305              		.thumb_func
 4306              		.type	_ZN3r2p9PublisherINS_7PWM2MsgEED0Ev, %function
 4307              	_ZN3r2p9PublisherINS_7PWM2MsgEED0Ev:
 4308              	.LFB692:
 4309              		.loc 22 54 0 is_stmt 1
 4310              		.cfi_startproc
 4311              		@ args = 0, pretend = 0, frame = 8
 4312              		@ frame_needed = 0, uses_anonymous_args = 0
 4313 0000 00B5     		push	{lr}
 4314              		.cfi_def_cfa_offset 4
 4315              		.cfi_offset 14, -4
 4316 0002 83B0     		sub	sp, sp, #12
 4317              		.cfi_def_cfa_offset 16
 4318 0004 0190     		str	r0, [sp, #4]
 4319              		.loc 22 57 0
 4320 0006 0198     		ldr	r0, [sp, #4]
 4321 0008 FFF7FEFF 		bl	_ZN3r2p9PublisherINS_7PWM2MsgEED1Ev
 4322 000c 0198     		ldr	r0, [sp, #4]
 4323 000e FFF7FEFF 		bl	_ZdlPv
 4324 0012 019B     		ldr	r3, [sp, #4]
 4325 0014 1846     		mov	r0, r3
 4326 0016 03B0     		add	sp, sp, #12
 4327              		@ sp needed
 4328 0018 5DF804FB 		ldr	pc, [sp], #4
 4329              		.cfi_endproc
 4330              	.LFE692:
 4331              		.size	_ZN3r2p9PublisherINS_7PWM2MsgEED0Ev, .-_ZN3r2p9PublisherINS_7PWM2MsgEED0Ev
 4332 001c AFF30080 		.section	.text._ZN3r2p4Node9advertiseINS_7PWM2MsgEEEbRNS_9PublisherIT_EEPKcRKNS_4TimeE,"axG",%prog
 4333              		.align	2
 4334              		.p2align 4,,15
 4335              		.weak	_ZN3r2p4Node9advertiseINS_7PWM2MsgEEEbRNS_9PublisherIT_EEPKcRKNS_4TimeE
 4336              		.thumb
 4337              		.thumb_func
 4338              		.type	_ZN3r2p4Node9advertiseINS_7PWM2MsgEEEbRNS_9PublisherIT_EEPKcRKNS_4TimeE, %function
 4339              	_ZN3r2p4Node9advertiseINS_7PWM2MsgEEEbRNS_9PublisherIT_EEPKcRKNS_4TimeE:
 4340              	.LFB693:
 4341              		.loc 12 117 0
 4342              		.cfi_startproc
 4343              		@ args = 0, pretend = 0, frame = 16
 4344              		@ frame_needed = 0, uses_anonymous_args = 0
 4345 0000 00B5     		push	{lr}
 4346              		.cfi_def_cfa_offset 4
 4347              		.cfi_offset 14, -4
 4348 0002 87B0     		sub	sp, sp, #28
 4349              		.cfi_def_cfa_offset 32
 4350 0004 0590     		str	r0, [sp, #20]
ARM GAS  /tmp/ccjqfgnD.s 			page 79


 4351 0006 0491     		str	r1, [sp, #16]
 4352 0008 0392     		str	r2, [sp, #12]
 4353 000a 0293     		str	r3, [sp, #8]
 4354              		.loc 12 120 0
 4355 000c 049B     		ldr	r3, [sp, #16]
 4356 000e 0622     		movs	r2, #6
 4357 0010 0092     		str	r2, [sp]
 4358 0012 0598     		ldr	r0, [sp, #20]
 4359 0014 1946     		mov	r1, r3
 4360 0016 039A     		ldr	r2, [sp, #12]
 4361 0018 029B     		ldr	r3, [sp, #8]
 4362 001a FFF7FEFF 		bl	_ZN3r2p4Node9advertiseERNS_14LocalPublisherEPKcRKNS_4TimeEj
 4363 001e 0346     		mov	r3, r0
 4364              		.loc 12 121 0
 4365 0020 1846     		mov	r0, r3
 4366 0022 07B0     		add	sp, sp, #28
 4367              		@ sp needed
 4368 0024 5DF804FB 		ldr	pc, [sp], #4
 4369              		.cfi_endproc
 4370              	.LFE693:
 4371              		.size	_ZN3r2p4Node9advertiseINS_7PWM2MsgEEEbRNS_9PublisherIT_EEPKcRKNS_4TimeE, .-_ZN3r2p4Node9adve
 4372 0028 AFF30080 		.section	.text._ZN3r2p4Node9subscribeINS_6IMUMsgELj5EEEbRNS_10SubscriberIT_XT0_EEEPKc,"axG",%progb
 4372      AFF30080 
 4373              		.align	2
 4374              		.p2align 4,,15
 4375              		.weak	_ZN3r2p4Node9subscribeINS_6IMUMsgELj5EEEbRNS_10SubscriberIT_XT0_EEEPKc
 4376              		.thumb
 4377              		.thumb_func
 4378              		.type	_ZN3r2p4Node9subscribeINS_6IMUMsgELj5EEEbRNS_10SubscriberIT_XT0_EEEPKc, %function
 4379              	_ZN3r2p4Node9subscribeINS_6IMUMsgELj5EEEbRNS_10SubscriberIT_XT0_EEEPKc:
 4380              	.LFB694:
 4381              		.loc 12 133 0
 4382              		.cfi_startproc
 4383              		@ args = 0, pretend = 0, frame = 16
 4384              		@ frame_needed = 0, uses_anonymous_args = 0
 4385 0000 00B5     		push	{lr}
 4386              		.cfi_def_cfa_offset 4
 4387              		.cfi_offset 14, -4
 4388 0002 87B0     		sub	sp, sp, #28
 4389              		.cfi_def_cfa_offset 32
 4390 0004 0590     		str	r0, [sp, #20]
 4391 0006 0491     		str	r1, [sp, #16]
 4392 0008 0392     		str	r2, [sp, #12]
 4393              		.loc 12 135 0
 4394 000a 049A     		ldr	r2, [sp, #16]
 4395 000c 049B     		ldr	r3, [sp, #16]
 4396 000e 3833     		adds	r3, r3, #56
 4397 0010 0E21     		movs	r1, #14
 4398 0012 0091     		str	r1, [sp]
 4399 0014 0598     		ldr	r0, [sp, #20]
 4400 0016 1146     		mov	r1, r2
 4401 0018 039A     		ldr	r2, [sp, #12]
 4402 001a FFF7FEFF 		bl	_ZN3r2p4Node9subscribeERNS_15LocalSubscriberEPKcPNS_7MessageEj
 4403 001e 0346     		mov	r3, r0
 4404              		.loc 12 136 0
 4405 0020 1846     		mov	r0, r3
 4406 0022 07B0     		add	sp, sp, #28
ARM GAS  /tmp/ccjqfgnD.s 			page 80


 4407              		@ sp needed
 4408 0024 5DF804FB 		ldr	pc, [sp], #4
 4409              		.cfi_endproc
 4410              	.LFE694:
 4411              		.size	_ZN3r2p4Node9subscribeINS_6IMUMsgELj5EEEbRNS_10SubscriberIT_XT0_EEEPKc, .-_ZN3r2p4Node9subsc
 4412 0028 AFF30080 		.section	.text._ZN3r2p16SubscriberExtBufINS_6IMUMsgEE5fetchERPS1_,"axG",%progbits,_ZN3r2p16Subscri
 4412      AFF30080 
 4413              		.align	2
 4414              		.p2align 4,,15
 4415              		.weak	_ZN3r2p16SubscriberExtBufINS_6IMUMsgEE5fetchERPS1_
 4416              		.thumb
 4417              		.thumb_func
 4418              		.type	_ZN3r2p16SubscriberExtBufINS_6IMUMsgEE5fetchERPS1_, %function
 4419              	_ZN3r2p16SubscriberExtBufINS_6IMUMsgEE5fetchERPS1_:
 4420              	.LFB695:
 4421              		.loc 23 31 0
 4422              		.cfi_startproc
 4423              		@ args = 0, pretend = 0, frame = 8
 4424              		@ frame_needed = 0, uses_anonymous_args = 0
 4425 0000 00B5     		push	{lr}
 4426              		.cfi_def_cfa_offset 4
 4427              		.cfi_offset 14, -4
 4428 0002 83B0     		sub	sp, sp, #12
 4429              		.cfi_def_cfa_offset 16
 4430 0004 0190     		str	r0, [sp, #4]
 4431 0006 0091     		str	r1, [sp]
 4432              		.loc 23 34 0
 4433 0008 019B     		ldr	r3, [sp, #4]
 4434 000a 1846     		mov	r0, r3
 4435 000c 0099     		ldr	r1, [sp]
 4436 000e FFF7FEFF 		bl	_ZN3r2p15LocalSubscriber5fetchERPNS_7MessageE
 4437 0012 0346     		mov	r3, r0
 4438              		.loc 23 35 0
 4439 0014 1846     		mov	r0, r3
 4440 0016 03B0     		add	sp, sp, #12
 4441              		@ sp needed
 4442 0018 5DF804FB 		ldr	pc, [sp], #4
 4443              		.cfi_endproc
 4444              	.LFE695:
 4445              		.size	_ZN3r2p16SubscriberExtBufINS_6IMUMsgEE5fetchERPS1_, .-_ZN3r2p16SubscriberExtBufINS_6IMUMsgEE
 4446 001c AFF30080 		.section	.text._ZN3r2p16SubscriberExtBufINS_6IMUMsgEE7releaseERS1_,"axG",%progbits,_ZN3r2p16Subscr
 4447              		.align	2
 4448              		.p2align 4,,15
 4449              		.weak	_ZN3r2p16SubscriberExtBufINS_6IMUMsgEE7releaseERS1_
 4450              		.thumb
 4451              		.thumb_func
 4452              		.type	_ZN3r2p16SubscriberExtBufINS_6IMUMsgEE7releaseERS1_, %function
 4453              	_ZN3r2p16SubscriberExtBufINS_6IMUMsgEE7releaseERS1_:
 4454              	.LFB696:
 4455              		.loc 23 57 0
 4456              		.cfi_startproc
 4457              		@ args = 0, pretend = 0, frame = 8
 4458              		@ frame_needed = 0, uses_anonymous_args = 0
 4459 0000 00B5     		push	{lr}
 4460              		.cfi_def_cfa_offset 4
 4461              		.cfi_offset 14, -4
 4462 0002 83B0     		sub	sp, sp, #12
ARM GAS  /tmp/ccjqfgnD.s 			page 81


 4463              		.cfi_def_cfa_offset 16
 4464 0004 0190     		str	r0, [sp, #4]
 4465 0006 0091     		str	r1, [sp]
 4466              		.loc 23 60 0
 4467 0008 019A     		ldr	r2, [sp, #4]
 4468 000a 009B     		ldr	r3, [sp]
 4469 000c 1046     		mov	r0, r2
 4470 000e 1946     		mov	r1, r3
 4471 0010 FFF7FEFF 		bl	_ZN3r2p14BaseSubscriber7releaseERNS_7MessageE
 4472 0014 0346     		mov	r3, r0
 4473              		.loc 23 61 0
 4474 0016 1846     		mov	r0, r3
 4475 0018 03B0     		add	sp, sp, #12
 4476              		@ sp needed
 4477 001a 5DF804FB 		ldr	pc, [sp], #4
 4478              		.cfi_endproc
 4479              	.LFE696:
 4480              		.size	_ZN3r2p16SubscriberExtBufINS_6IMUMsgEE7releaseERS1_, .-_ZN3r2p16SubscriberExtBufINS_6IMUMsgE
 4481 001e 00BF     		.section	.text._ZN3r2p9PublisherINS_7PWM2MsgEE5allocERPS1_,"axG",%progbits,_ZN3r2p9PublisherINS_7P
 4482              		.align	2
 4483              		.p2align 4,,15
 4484              		.weak	_ZN3r2p9PublisherINS_7PWM2MsgEE5allocERPS1_
 4485              		.thumb
 4486              		.thumb_func
 4487              		.type	_ZN3r2p9PublisherINS_7PWM2MsgEE5allocERPS1_, %function
 4488              	_ZN3r2p9PublisherINS_7PWM2MsgEE5allocERPS1_:
 4489              	.LFB697:
 4490              		.loc 22 25 0
 4491              		.cfi_startproc
 4492              		@ args = 0, pretend = 0, frame = 8
 4493              		@ frame_needed = 0, uses_anonymous_args = 0
 4494 0000 00B5     		push	{lr}
 4495              		.cfi_def_cfa_offset 4
 4496              		.cfi_offset 14, -4
 4497 0002 83B0     		sub	sp, sp, #12
 4498              		.cfi_def_cfa_offset 16
 4499 0004 0190     		str	r0, [sp, #4]
 4500 0006 0091     		str	r1, [sp]
 4501              		.loc 22 28 0
 4502 0008 019B     		ldr	r3, [sp, #4]
 4503 000a 1846     		mov	r0, r3
 4504 000c 0099     		ldr	r1, [sp]
 4505 000e FFF7FEFF 		bl	_ZN3r2p13BasePublisher5allocERPNS_7MessageE
 4506 0012 0346     		mov	r3, r0
 4507              		.loc 22 29 0
 4508 0014 1846     		mov	r0, r3
 4509 0016 03B0     		add	sp, sp, #12
 4510              		@ sp needed
 4511 0018 5DF804FB 		ldr	pc, [sp], #4
 4512              		.cfi_endproc
 4513              	.LFE697:
 4514              		.size	_ZN3r2p9PublisherINS_7PWM2MsgEE5allocERPS1_, .-_ZN3r2p9PublisherINS_7PWM2MsgEE5allocERPS1_
 4515 001c AFF30080 		.section	.text._ZN3r2p9PublisherINS_7PWM2MsgEE7publishERS1_,"axG",%progbits,_ZN3r2p9PublisherINS_7
 4516              		.align	2
 4517              		.p2align 4,,15
 4518              		.weak	_ZN3r2p9PublisherINS_7PWM2MsgEE7publishERS1_
 4519              		.thumb
ARM GAS  /tmp/ccjqfgnD.s 			page 82


 4520              		.thumb_func
 4521              		.type	_ZN3r2p9PublisherINS_7PWM2MsgEE7publishERS1_, %function
 4522              	_ZN3r2p9PublisherINS_7PWM2MsgEE7publishERS1_:
 4523              	.LFB698:
 4524              		.loc 22 33 0
 4525              		.cfi_startproc
 4526              		@ args = 0, pretend = 0, frame = 8
 4527              		@ frame_needed = 0, uses_anonymous_args = 0
 4528 0000 00B5     		push	{lr}
 4529              		.cfi_def_cfa_offset 4
 4530              		.cfi_offset 14, -4
 4531 0002 83B0     		sub	sp, sp, #12
 4532              		.cfi_def_cfa_offset 16
 4533 0004 0190     		str	r0, [sp, #4]
 4534 0006 0091     		str	r1, [sp]
 4535              		.loc 22 36 0
 4536 0008 019A     		ldr	r2, [sp, #4]
 4537 000a 009B     		ldr	r3, [sp]
 4538 000c 1046     		mov	r0, r2
 4539 000e 1946     		mov	r1, r3
 4540 0010 FFF7FEFF 		bl	_ZN3r2p13BasePublisher7publishERNS_7MessageE
 4541 0014 0346     		mov	r3, r0
 4542              		.loc 22 37 0
 4543 0016 1846     		mov	r0, r3
 4544 0018 03B0     		add	sp, sp, #12
 4545              		@ sp needed
 4546 001a 5DF804FB 		ldr	pc, [sp], #4
 4547              		.cfi_endproc
 4548              	.LFE698:
 4549              		.size	_ZN3r2p9PublisherINS_7PWM2MsgEE7publishERS1_, .-_ZN3r2p9PublisherINS_7PWM2MsgEE7publishERS1_
 4550 001e 00BF     		.section	.text._ZN3r2p9PublisherINS_6IMUMsgEEC2Ev,"axG",%progbits,_ZN3r2p9PublisherINS_6IMUMsgEEC5
 4551              		.align	2
 4552              		.p2align 4,,15
 4553              		.weak	_ZN3r2p9PublisherINS_6IMUMsgEEC2Ev
 4554              		.thumb
 4555              		.thumb_func
 4556              		.type	_ZN3r2p9PublisherINS_6IMUMsgEEC2Ev, %function
 4557              	_ZN3r2p9PublisherINS_6IMUMsgEEC2Ev:
 4558              	.LFB700:
 4559              		.loc 22 47 0
 4560              		.cfi_startproc
 4561              		@ args = 0, pretend = 0, frame = 8
 4562              		@ frame_needed = 0, uses_anonymous_args = 0
 4563 0000 00B5     		push	{lr}
 4564              		.cfi_def_cfa_offset 4
 4565              		.cfi_offset 14, -4
 4566 0002 83B0     		sub	sp, sp, #12
 4567              		.cfi_def_cfa_offset 16
 4568 0004 0190     		str	r0, [sp, #4]
 4569              	.LBB157:
 4570              		.loc 22 47 0
 4571 0006 019B     		ldr	r3, [sp, #4]
 4572 0008 1846     		mov	r0, r3
 4573 000a FFF7FEFF 		bl	_ZN3r2p14LocalPublisherC2Ev
 4574 000e 019B     		ldr	r3, [sp, #4]
 4575 0010 034A     		ldr	r2, .L284
 4576 0012 1A60     		str	r2, [r3]
ARM GAS  /tmp/ccjqfgnD.s 			page 83


 4577              	.LBE157:
 4578              		.loc 22 50 0
 4579 0014 019B     		ldr	r3, [sp, #4]
 4580 0016 1846     		mov	r0, r3
 4581 0018 03B0     		add	sp, sp, #12
 4582              		@ sp needed
 4583 001a 5DF804FB 		ldr	pc, [sp], #4
 4584              	.L285:
 4585 001e 00BF     		.align	2
 4586              	.L284:
 4587 0020 08000000 		.word	_ZTVN3r2p9PublisherINS_6IMUMsgEEE+8
 4588              		.cfi_endproc
 4589              	.LFE700:
 4590              		.size	_ZN3r2p9PublisherINS_6IMUMsgEEC2Ev, .-_ZN3r2p9PublisherINS_6IMUMsgEEC2Ev
 4591              		.weak	_ZN3r2p9PublisherINS_6IMUMsgEEC1Ev
 4592              		.thumb_set _ZN3r2p9PublisherINS_6IMUMsgEEC1Ev,_ZN3r2p9PublisherINS_6IMUMsgEEC2Ev
 4593 0024 AFF30080 		.section	.text._ZN3r2p9PublisherINS_6IMUMsgEED2Ev,"axG",%progbits,_ZN3r2p9PublisherINS_6IMUMsgEED5
 4593      AFF30080 
 4593      AFF30080 
 4594              		.align	2
 4595              		.p2align 4,,15
 4596              		.weak	_ZN3r2p9PublisherINS_6IMUMsgEED2Ev
 4597              		.thumb
 4598              		.thumb_func
 4599              		.type	_ZN3r2p9PublisherINS_6IMUMsgEED2Ev, %function
 4600              	_ZN3r2p9PublisherINS_6IMUMsgEED2Ev:
 4601              	.LFB703:
 4602              		.loc 22 54 0
 4603              		.cfi_startproc
 4604              		@ args = 0, pretend = 0, frame = 8
 4605              		@ frame_needed = 0, uses_anonymous_args = 0
 4606 0000 00B5     		push	{lr}
 4607              		.cfi_def_cfa_offset 4
 4608              		.cfi_offset 14, -4
 4609 0002 83B0     		sub	sp, sp, #12
 4610              		.cfi_def_cfa_offset 16
 4611 0004 0190     		str	r0, [sp, #4]
 4612              	.LBB158:
 4613              		.loc 22 57 0
 4614 0006 019B     		ldr	r3, [sp, #4]
 4615 0008 084A     		ldr	r2, .L290
 4616 000a 1A60     		str	r2, [r3]
 4617 000c 019B     		ldr	r3, [sp, #4]
 4618 000e 1846     		mov	r0, r3
 4619 0010 FFF7FEFF 		bl	_ZN3r2p14LocalPublisherD2Ev
 4620              	.LBE158:
 4621 0014 0023     		movs	r3, #0
 4622 0016 002B     		cmp	r3, #0
 4623 0018 02D0     		beq	.L288
 4624              		.loc 22 57 0 is_stmt 0 discriminator 1
 4625 001a 0198     		ldr	r0, [sp, #4]
 4626 001c FFF7FEFF 		bl	_ZdlPv
 4627              	.L288:
 4628              		.loc 22 57 0 discriminator 2
 4629 0020 019B     		ldr	r3, [sp, #4]
 4630 0022 1846     		mov	r0, r3
 4631 0024 03B0     		add	sp, sp, #12
ARM GAS  /tmp/ccjqfgnD.s 			page 84


 4632              		@ sp needed
 4633 0026 5DF804FB 		ldr	pc, [sp], #4
 4634              	.L291:
 4635 002a 00BF     		.align	2
 4636              	.L290:
 4637 002c 08000000 		.word	_ZTVN3r2p9PublisherINS_6IMUMsgEEE+8
 4638              		.cfi_endproc
 4639              	.LFE703:
 4640              		.size	_ZN3r2p9PublisherINS_6IMUMsgEED2Ev, .-_ZN3r2p9PublisherINS_6IMUMsgEED2Ev
 4641              		.weak	_ZN3r2p9PublisherINS_6IMUMsgEED1Ev
 4642              		.thumb_set _ZN3r2p9PublisherINS_6IMUMsgEED1Ev,_ZN3r2p9PublisherINS_6IMUMsgEED2Ev
 4643              		.section	.text._ZN3r2p9PublisherINS_6IMUMsgEED0Ev,"axG",%progbits,_ZN3r2p9PublisherINS_6IMUMsgEED0
 4644              		.align	2
 4645              		.p2align 4,,15
 4646              		.weak	_ZN3r2p9PublisherINS_6IMUMsgEED0Ev
 4647              		.thumb
 4648              		.thumb_func
 4649              		.type	_ZN3r2p9PublisherINS_6IMUMsgEED0Ev, %function
 4650              	_ZN3r2p9PublisherINS_6IMUMsgEED0Ev:
 4651              	.LFB705:
 4652              		.loc 22 54 0 is_stmt 1
 4653              		.cfi_startproc
 4654              		@ args = 0, pretend = 0, frame = 8
 4655              		@ frame_needed = 0, uses_anonymous_args = 0
 4656 0000 00B5     		push	{lr}
 4657              		.cfi_def_cfa_offset 4
 4658              		.cfi_offset 14, -4
 4659 0002 83B0     		sub	sp, sp, #12
 4660              		.cfi_def_cfa_offset 16
 4661 0004 0190     		str	r0, [sp, #4]
 4662              		.loc 22 57 0
 4663 0006 0198     		ldr	r0, [sp, #4]
 4664 0008 FFF7FEFF 		bl	_ZN3r2p9PublisherINS_6IMUMsgEED1Ev
 4665 000c 0198     		ldr	r0, [sp, #4]
 4666 000e FFF7FEFF 		bl	_ZdlPv
 4667 0012 019B     		ldr	r3, [sp, #4]
 4668 0014 1846     		mov	r0, r3
 4669 0016 03B0     		add	sp, sp, #12
 4670              		@ sp needed
 4671 0018 5DF804FB 		ldr	pc, [sp], #4
 4672              		.cfi_endproc
 4673              	.LFE705:
 4674              		.size	_ZN3r2p9PublisherINS_6IMUMsgEED0Ev, .-_ZN3r2p9PublisherINS_6IMUMsgEED0Ev
 4675 001c AFF30080 		.section	.text._ZN3r2p9PublisherINS_7IMURaw9EEC2Ev,"axG",%progbits,_ZN3r2p9PublisherINS_7IMURaw9EE
 4676              		.align	2
 4677              		.p2align 4,,15
 4678              		.weak	_ZN3r2p9PublisherINS_7IMURaw9EEC2Ev
 4679              		.thumb
 4680              		.thumb_func
 4681              		.type	_ZN3r2p9PublisherINS_7IMURaw9EEC2Ev, %function
 4682              	_ZN3r2p9PublisherINS_7IMURaw9EEC2Ev:
 4683              	.LFB707:
 4684              		.loc 22 47 0
 4685              		.cfi_startproc
 4686              		@ args = 0, pretend = 0, frame = 8
 4687              		@ frame_needed = 0, uses_anonymous_args = 0
 4688 0000 00B5     		push	{lr}
ARM GAS  /tmp/ccjqfgnD.s 			page 85


 4689              		.cfi_def_cfa_offset 4
 4690              		.cfi_offset 14, -4
 4691 0002 83B0     		sub	sp, sp, #12
 4692              		.cfi_def_cfa_offset 16
 4693 0004 0190     		str	r0, [sp, #4]
 4694              	.LBB159:
 4695              		.loc 22 47 0
 4696 0006 019B     		ldr	r3, [sp, #4]
 4697 0008 1846     		mov	r0, r3
 4698 000a FFF7FEFF 		bl	_ZN3r2p14LocalPublisherC2Ev
 4699 000e 019B     		ldr	r3, [sp, #4]
 4700 0010 034A     		ldr	r2, .L298
 4701 0012 1A60     		str	r2, [r3]
 4702              	.LBE159:
 4703              		.loc 22 50 0
 4704 0014 019B     		ldr	r3, [sp, #4]
 4705 0016 1846     		mov	r0, r3
 4706 0018 03B0     		add	sp, sp, #12
 4707              		@ sp needed
 4708 001a 5DF804FB 		ldr	pc, [sp], #4
 4709              	.L299:
 4710 001e 00BF     		.align	2
 4711              	.L298:
 4712 0020 08000000 		.word	_ZTVN3r2p9PublisherINS_7IMURaw9EEE+8
 4713              		.cfi_endproc
 4714              	.LFE707:
 4715              		.size	_ZN3r2p9PublisherINS_7IMURaw9EEC2Ev, .-_ZN3r2p9PublisherINS_7IMURaw9EEC2Ev
 4716              		.weak	_ZN3r2p9PublisherINS_7IMURaw9EEC1Ev
 4717              		.thumb_set _ZN3r2p9PublisherINS_7IMURaw9EEC1Ev,_ZN3r2p9PublisherINS_7IMURaw9EEC2Ev
 4718 0024 AFF30080 		.section	.text._ZN3r2p9PublisherINS_7IMURaw9EED2Ev,"axG",%progbits,_ZN3r2p9PublisherINS_7IMURaw9EE
 4718      AFF30080 
 4718      AFF30080 
 4719              		.align	2
 4720              		.p2align 4,,15
 4721              		.weak	_ZN3r2p9PublisherINS_7IMURaw9EED2Ev
 4722              		.thumb
 4723              		.thumb_func
 4724              		.type	_ZN3r2p9PublisherINS_7IMURaw9EED2Ev, %function
 4725              	_ZN3r2p9PublisherINS_7IMURaw9EED2Ev:
 4726              	.LFB710:
 4727              		.loc 22 54 0
 4728              		.cfi_startproc
 4729              		@ args = 0, pretend = 0, frame = 8
 4730              		@ frame_needed = 0, uses_anonymous_args = 0
 4731 0000 00B5     		push	{lr}
 4732              		.cfi_def_cfa_offset 4
 4733              		.cfi_offset 14, -4
 4734 0002 83B0     		sub	sp, sp, #12
 4735              		.cfi_def_cfa_offset 16
 4736 0004 0190     		str	r0, [sp, #4]
 4737              	.LBB160:
 4738              		.loc 22 57 0
 4739 0006 019B     		ldr	r3, [sp, #4]
 4740 0008 084A     		ldr	r2, .L304
 4741 000a 1A60     		str	r2, [r3]
 4742 000c 019B     		ldr	r3, [sp, #4]
 4743 000e 1846     		mov	r0, r3
ARM GAS  /tmp/ccjqfgnD.s 			page 86


 4744 0010 FFF7FEFF 		bl	_ZN3r2p14LocalPublisherD2Ev
 4745              	.LBE160:
 4746 0014 0023     		movs	r3, #0
 4747 0016 002B     		cmp	r3, #0
 4748 0018 02D0     		beq	.L302
 4749              		.loc 22 57 0 is_stmt 0 discriminator 1
 4750 001a 0198     		ldr	r0, [sp, #4]
 4751 001c FFF7FEFF 		bl	_ZdlPv
 4752              	.L302:
 4753              		.loc 22 57 0 discriminator 2
 4754 0020 019B     		ldr	r3, [sp, #4]
 4755 0022 1846     		mov	r0, r3
 4756 0024 03B0     		add	sp, sp, #12
 4757              		@ sp needed
 4758 0026 5DF804FB 		ldr	pc, [sp], #4
 4759              	.L305:
 4760 002a 00BF     		.align	2
 4761              	.L304:
 4762 002c 08000000 		.word	_ZTVN3r2p9PublisherINS_7IMURaw9EEE+8
 4763              		.cfi_endproc
 4764              	.LFE710:
 4765              		.size	_ZN3r2p9PublisherINS_7IMURaw9EED2Ev, .-_ZN3r2p9PublisherINS_7IMURaw9EED2Ev
 4766              		.weak	_ZN3r2p9PublisherINS_7IMURaw9EED1Ev
 4767              		.thumb_set _ZN3r2p9PublisherINS_7IMURaw9EED1Ev,_ZN3r2p9PublisherINS_7IMURaw9EED2Ev
 4768              		.section	.text._ZN3r2p9PublisherINS_7IMURaw9EED0Ev,"axG",%progbits,_ZN3r2p9PublisherINS_7IMURaw9EE
 4769              		.align	2
 4770              		.p2align 4,,15
 4771              		.weak	_ZN3r2p9PublisherINS_7IMURaw9EED0Ev
 4772              		.thumb
 4773              		.thumb_func
 4774              		.type	_ZN3r2p9PublisherINS_7IMURaw9EED0Ev, %function
 4775              	_ZN3r2p9PublisherINS_7IMURaw9EED0Ev:
 4776              	.LFB712:
 4777              		.loc 22 54 0 is_stmt 1
 4778              		.cfi_startproc
 4779              		@ args = 0, pretend = 0, frame = 8
 4780              		@ frame_needed = 0, uses_anonymous_args = 0
 4781 0000 00B5     		push	{lr}
 4782              		.cfi_def_cfa_offset 4
 4783              		.cfi_offset 14, -4
 4784 0002 83B0     		sub	sp, sp, #12
 4785              		.cfi_def_cfa_offset 16
 4786 0004 0190     		str	r0, [sp, #4]
 4787              		.loc 22 57 0
 4788 0006 0198     		ldr	r0, [sp, #4]
 4789 0008 FFF7FEFF 		bl	_ZN3r2p9PublisherINS_7IMURaw9EED1Ev
 4790 000c 0198     		ldr	r0, [sp, #4]
 4791 000e FFF7FEFF 		bl	_ZdlPv
 4792 0012 019B     		ldr	r3, [sp, #4]
 4793 0014 1846     		mov	r0, r3
 4794 0016 03B0     		add	sp, sp, #12
 4795              		@ sp needed
 4796 0018 5DF804FB 		ldr	pc, [sp], #4
 4797              		.cfi_endproc
 4798              	.LFE712:
 4799              		.size	_ZN3r2p9PublisherINS_7IMURaw9EED0Ev, .-_ZN3r2p9PublisherINS_7IMURaw9EED0Ev
 4800 001c AFF30080 		.section	.text._ZN3r2p4Node9advertiseINS_6IMUMsgEEEbRNS_9PublisherIT_EEPKcRKNS_4TimeE,"axG",%progb
ARM GAS  /tmp/ccjqfgnD.s 			page 87


 4801              		.align	2
 4802              		.p2align 4,,15
 4803              		.weak	_ZN3r2p4Node9advertiseINS_6IMUMsgEEEbRNS_9PublisherIT_EEPKcRKNS_4TimeE
 4804              		.thumb
 4805              		.thumb_func
 4806              		.type	_ZN3r2p4Node9advertiseINS_6IMUMsgEEEbRNS_9PublisherIT_EEPKcRKNS_4TimeE, %function
 4807              	_ZN3r2p4Node9advertiseINS_6IMUMsgEEEbRNS_9PublisherIT_EEPKcRKNS_4TimeE:
 4808              	.LFB713:
 4809              		.loc 12 117 0
 4810              		.cfi_startproc
 4811              		@ args = 0, pretend = 0, frame = 16
 4812              		@ frame_needed = 0, uses_anonymous_args = 0
 4813 0000 00B5     		push	{lr}
 4814              		.cfi_def_cfa_offset 4
 4815              		.cfi_offset 14, -4
 4816 0002 87B0     		sub	sp, sp, #28
 4817              		.cfi_def_cfa_offset 32
 4818 0004 0590     		str	r0, [sp, #20]
 4819 0006 0491     		str	r1, [sp, #16]
 4820 0008 0392     		str	r2, [sp, #12]
 4821 000a 0293     		str	r3, [sp, #8]
 4822              		.loc 12 120 0
 4823 000c 049B     		ldr	r3, [sp, #16]
 4824 000e 0E22     		movs	r2, #14
 4825 0010 0092     		str	r2, [sp]
 4826 0012 0598     		ldr	r0, [sp, #20]
 4827 0014 1946     		mov	r1, r3
 4828 0016 039A     		ldr	r2, [sp, #12]
 4829 0018 029B     		ldr	r3, [sp, #8]
 4830 001a FFF7FEFF 		bl	_ZN3r2p4Node9advertiseERNS_14LocalPublisherEPKcRKNS_4TimeEj
 4831 001e 0346     		mov	r3, r0
 4832              		.loc 12 121 0
 4833 0020 1846     		mov	r0, r3
 4834 0022 07B0     		add	sp, sp, #28
 4835              		@ sp needed
 4836 0024 5DF804FB 		ldr	pc, [sp], #4
 4837              		.cfi_endproc
 4838              	.LFE713:
 4839              		.size	_ZN3r2p4Node9advertiseINS_6IMUMsgEEEbRNS_9PublisherIT_EEPKcRKNS_4TimeE, .-_ZN3r2p4Node9adver
 4840 0028 AFF30080 		.section	.text._ZN3r2p4Node9advertiseINS_7IMURaw9EEEbRNS_9PublisherIT_EEPKcRKNS_4TimeE,"axG",%prog
 4840      AFF30080 
 4841              		.align	2
 4842              		.p2align 4,,15
 4843              		.weak	_ZN3r2p4Node9advertiseINS_7IMURaw9EEEbRNS_9PublisherIT_EEPKcRKNS_4TimeE
 4844              		.thumb
 4845              		.thumb_func
 4846              		.type	_ZN3r2p4Node9advertiseINS_7IMURaw9EEEbRNS_9PublisherIT_EEPKcRKNS_4TimeE, %function
 4847              	_ZN3r2p4Node9advertiseINS_7IMURaw9EEEbRNS_9PublisherIT_EEPKcRKNS_4TimeE:
 4848              	.LFB714:
 4849              		.loc 12 117 0
 4850              		.cfi_startproc
 4851              		@ args = 0, pretend = 0, frame = 16
 4852              		@ frame_needed = 0, uses_anonymous_args = 0
 4853 0000 00B5     		push	{lr}
 4854              		.cfi_def_cfa_offset 4
 4855              		.cfi_offset 14, -4
 4856 0002 87B0     		sub	sp, sp, #28
ARM GAS  /tmp/ccjqfgnD.s 			page 88


 4857              		.cfi_def_cfa_offset 32
 4858 0004 0590     		str	r0, [sp, #20]
 4859 0006 0491     		str	r1, [sp, #16]
 4860 0008 0392     		str	r2, [sp, #12]
 4861 000a 0293     		str	r3, [sp, #8]
 4862              		.loc 12 120 0
 4863 000c 049B     		ldr	r3, [sp, #16]
 4864 000e 1422     		movs	r2, #20
 4865 0010 0092     		str	r2, [sp]
 4866 0012 0598     		ldr	r0, [sp, #20]
 4867 0014 1946     		mov	r1, r3
 4868 0016 039A     		ldr	r2, [sp, #12]
 4869 0018 029B     		ldr	r3, [sp, #8]
 4870 001a FFF7FEFF 		bl	_ZN3r2p4Node9advertiseERNS_14LocalPublisherEPKcRKNS_4TimeEj
 4871 001e 0346     		mov	r3, r0
 4872              		.loc 12 121 0
 4873 0020 1846     		mov	r0, r3
 4874 0022 07B0     		add	sp, sp, #28
 4875              		@ sp needed
 4876 0024 5DF804FB 		ldr	pc, [sp], #4
 4877              		.cfi_endproc
 4878              	.LFE714:
 4879              		.size	_ZN3r2p4Node9advertiseINS_7IMURaw9EEEbRNS_9PublisherIT_EEPKcRKNS_4TimeE, .-_ZN3r2p4Node9adve
 4880 0028 AFF30080 		.section	.text._ZN3r2p9PublisherINS_6IMUMsgEE5allocERPS1_,"axG",%progbits,_ZN3r2p9PublisherINS_6IM
 4880      AFF30080 
 4881              		.align	2
 4882              		.p2align 4,,15
 4883              		.weak	_ZN3r2p9PublisherINS_6IMUMsgEE5allocERPS1_
 4884              		.thumb
 4885              		.thumb_func
 4886              		.type	_ZN3r2p9PublisherINS_6IMUMsgEE5allocERPS1_, %function
 4887              	_ZN3r2p9PublisherINS_6IMUMsgEE5allocERPS1_:
 4888              	.LFB715:
 4889              		.loc 22 25 0
 4890              		.cfi_startproc
 4891              		@ args = 0, pretend = 0, frame = 8
 4892              		@ frame_needed = 0, uses_anonymous_args = 0
 4893 0000 00B5     		push	{lr}
 4894              		.cfi_def_cfa_offset 4
 4895              		.cfi_offset 14, -4
 4896 0002 83B0     		sub	sp, sp, #12
 4897              		.cfi_def_cfa_offset 16
 4898 0004 0190     		str	r0, [sp, #4]
 4899 0006 0091     		str	r1, [sp]
 4900              		.loc 22 28 0
 4901 0008 019B     		ldr	r3, [sp, #4]
 4902 000a 1846     		mov	r0, r3
 4903 000c 0099     		ldr	r1, [sp]
 4904 000e FFF7FEFF 		bl	_ZN3r2p13BasePublisher5allocERPNS_7MessageE
 4905 0012 0346     		mov	r3, r0
 4906              		.loc 22 29 0
 4907 0014 1846     		mov	r0, r3
 4908 0016 03B0     		add	sp, sp, #12
 4909              		@ sp needed
 4910 0018 5DF804FB 		ldr	pc, [sp], #4
 4911              		.cfi_endproc
 4912              	.LFE715:
ARM GAS  /tmp/ccjqfgnD.s 			page 89


 4913              		.size	_ZN3r2p9PublisherINS_6IMUMsgEE5allocERPS1_, .-_ZN3r2p9PublisherINS_6IMUMsgEE5allocERPS1_
 4914 001c AFF30080 		.section	.text._ZN3r2p9PublisherINS_6IMUMsgEE7publishERS1_,"axG",%progbits,_ZN3r2p9PublisherINS_6I
 4915              		.align	2
 4916              		.p2align 4,,15
 4917              		.weak	_ZN3r2p9PublisherINS_6IMUMsgEE7publishERS1_
 4918              		.thumb
 4919              		.thumb_func
 4920              		.type	_ZN3r2p9PublisherINS_6IMUMsgEE7publishERS1_, %function
 4921              	_ZN3r2p9PublisherINS_6IMUMsgEE7publishERS1_:
 4922              	.LFB716:
 4923              		.loc 22 33 0
 4924              		.cfi_startproc
 4925              		@ args = 0, pretend = 0, frame = 8
 4926              		@ frame_needed = 0, uses_anonymous_args = 0
 4927 0000 00B5     		push	{lr}
 4928              		.cfi_def_cfa_offset 4
 4929              		.cfi_offset 14, -4
 4930 0002 83B0     		sub	sp, sp, #12
 4931              		.cfi_def_cfa_offset 16
 4932 0004 0190     		str	r0, [sp, #4]
 4933 0006 0091     		str	r1, [sp]
 4934              		.loc 22 36 0
 4935 0008 019A     		ldr	r2, [sp, #4]
 4936 000a 009B     		ldr	r3, [sp]
 4937 000c 1046     		mov	r0, r2
 4938 000e 1946     		mov	r1, r3
 4939 0010 FFF7FEFF 		bl	_ZN3r2p13BasePublisher7publishERNS_7MessageE
 4940 0014 0346     		mov	r3, r0
 4941              		.loc 22 37 0
 4942 0016 1846     		mov	r0, r3
 4943 0018 03B0     		add	sp, sp, #12
 4944              		@ sp needed
 4945 001a 5DF804FB 		ldr	pc, [sp], #4
 4946              		.cfi_endproc
 4947              	.LFE716:
 4948              		.size	_ZN3r2p9PublisherINS_6IMUMsgEE7publishERS1_, .-_ZN3r2p9PublisherINS_6IMUMsgEE7publishERS1_
 4949 001e 00BF     		.section	.text._ZN3r2p9PublisherINS_7IMURaw9EE5allocERPS1_,"axG",%progbits,_ZN3r2p9PublisherINS_7I
 4950              		.align	2
 4951              		.p2align 4,,15
 4952              		.weak	_ZN3r2p9PublisherINS_7IMURaw9EE5allocERPS1_
 4953              		.thumb
 4954              		.thumb_func
 4955              		.type	_ZN3r2p9PublisherINS_7IMURaw9EE5allocERPS1_, %function
 4956              	_ZN3r2p9PublisherINS_7IMURaw9EE5allocERPS1_:
 4957              	.LFB717:
 4958              		.loc 22 25 0
 4959              		.cfi_startproc
 4960              		@ args = 0, pretend = 0, frame = 8
 4961              		@ frame_needed = 0, uses_anonymous_args = 0
 4962 0000 00B5     		push	{lr}
 4963              		.cfi_def_cfa_offset 4
 4964              		.cfi_offset 14, -4
 4965 0002 83B0     		sub	sp, sp, #12
 4966              		.cfi_def_cfa_offset 16
 4967 0004 0190     		str	r0, [sp, #4]
 4968 0006 0091     		str	r1, [sp]
 4969              		.loc 22 28 0
ARM GAS  /tmp/ccjqfgnD.s 			page 90


 4970 0008 019B     		ldr	r3, [sp, #4]
 4971 000a 1846     		mov	r0, r3
 4972 000c 0099     		ldr	r1, [sp]
 4973 000e FFF7FEFF 		bl	_ZN3r2p13BasePublisher5allocERPNS_7MessageE
 4974 0012 0346     		mov	r3, r0
 4975              		.loc 22 29 0
 4976 0014 1846     		mov	r0, r3
 4977 0016 03B0     		add	sp, sp, #12
 4978              		@ sp needed
 4979 0018 5DF804FB 		ldr	pc, [sp], #4
 4980              		.cfi_endproc
 4981              	.LFE717:
 4982              		.size	_ZN3r2p9PublisherINS_7IMURaw9EE5allocERPS1_, .-_ZN3r2p9PublisherINS_7IMURaw9EE5allocERPS1_
 4983 001c AFF30080 		.section	.text._ZN3r2p9PublisherINS_7IMURaw9EE7publishERS1_,"axG",%progbits,_ZN3r2p9PublisherINS_7
 4984              		.align	2
 4985              		.p2align 4,,15
 4986              		.weak	_ZN3r2p9PublisherINS_7IMURaw9EE7publishERS1_
 4987              		.thumb
 4988              		.thumb_func
 4989              		.type	_ZN3r2p9PublisherINS_7IMURaw9EE7publishERS1_, %function
 4990              	_ZN3r2p9PublisherINS_7IMURaw9EE7publishERS1_:
 4991              	.LFB718:
 4992              		.loc 22 33 0
 4993              		.cfi_startproc
 4994              		@ args = 0, pretend = 0, frame = 8
 4995              		@ frame_needed = 0, uses_anonymous_args = 0
 4996 0000 00B5     		push	{lr}
 4997              		.cfi_def_cfa_offset 4
 4998              		.cfi_offset 14, -4
 4999 0002 83B0     		sub	sp, sp, #12
 5000              		.cfi_def_cfa_offset 16
 5001 0004 0190     		str	r0, [sp, #4]
 5002 0006 0091     		str	r1, [sp]
 5003              		.loc 22 36 0
 5004 0008 019A     		ldr	r2, [sp, #4]
 5005 000a 009B     		ldr	r3, [sp]
 5006 000c 1046     		mov	r0, r2
 5007 000e 1946     		mov	r1, r3
 5008 0010 FFF7FEFF 		bl	_ZN3r2p13BasePublisher7publishERNS_7MessageE
 5009 0014 0346     		mov	r3, r0
 5010              		.loc 22 37 0
 5011 0016 1846     		mov	r0, r3
 5012 0018 03B0     		add	sp, sp, #12
 5013              		@ sp needed
 5014 001a 5DF804FB 		ldr	pc, [sp], #4
 5015              		.cfi_endproc
 5016              	.LFE718:
 5017              		.size	_ZN3r2p9PublisherINS_7IMURaw9EE7publishERS1_, .-_ZN3r2p9PublisherINS_7IMURaw9EE7publishERS1_
 5018 001e 00BF     		.section	.text._ZN3r2p16SubscriberExtBufINS_12Velocity3MsgEEC2EPPS1_jPFbRKS1_E,"axG",%progbits,_ZN
 5019              		.align	2
 5020              		.p2align 4,,15
 5021              		.weak	_ZN3r2p16SubscriberExtBufINS_12Velocity3MsgEEC2EPPS1_jPFbRKS1_E
 5022              		.thumb
 5023              		.thumb_func
 5024              		.type	_ZN3r2p16SubscriberExtBufINS_12Velocity3MsgEEC2EPPS1_jPFbRKS1_E, %function
 5025              	_ZN3r2p16SubscriberExtBufINS_12Velocity3MsgEEC2EPPS1_jPFbRKS1_E:
 5026              	.LFB720:
ARM GAS  /tmp/ccjqfgnD.s 			page 91


 5027              		.loc 23 65 0
 5028              		.cfi_startproc
 5029              		@ args = 0, pretend = 0, frame = 16
 5030              		@ frame_needed = 0, uses_anonymous_args = 0
 5031 0000 00B5     		push	{lr}
 5032              		.cfi_def_cfa_offset 4
 5033              		.cfi_offset 14, -4
 5034 0002 85B0     		sub	sp, sp, #20
 5035              		.cfi_def_cfa_offset 24
 5036 0004 0390     		str	r0, [sp, #12]
 5037 0006 0291     		str	r1, [sp, #8]
 5038 0008 0192     		str	r2, [sp, #4]
 5039 000a 0093     		str	r3, [sp]
 5040              	.LBB161:
 5041              		.loc 23 69 0
 5042 000c 039B     		ldr	r3, [sp, #12]
 5043 000e 1846     		mov	r0, r3
 5044 0010 0299     		ldr	r1, [sp, #8]
 5045 0012 019A     		ldr	r2, [sp, #4]
 5046 0014 009B     		ldr	r3, [sp]
 5047 0016 FFF7FEFF 		bl	_ZN3r2p15LocalSubscriberC2EPPNS_7MessageEjPFbRKS1_E
 5048 001a 039B     		ldr	r3, [sp, #12]
 5049 001c 034A     		ldr	r2, .L324
 5050 001e 1A60     		str	r2, [r3]
 5051              	.LBE161:
 5052              		.loc 23 72 0
 5053 0020 039B     		ldr	r3, [sp, #12]
 5054 0022 1846     		mov	r0, r3
 5055 0024 05B0     		add	sp, sp, #20
 5056              		@ sp needed
 5057 0026 5DF804FB 		ldr	pc, [sp], #4
 5058              	.L325:
 5059 002a 00BF     		.align	2
 5060              	.L324:
 5061 002c 08000000 		.word	_ZTVN3r2p16SubscriberExtBufINS_12Velocity3MsgEEE+8
 5062              		.cfi_endproc
 5063              	.LFE720:
 5064              		.size	_ZN3r2p16SubscriberExtBufINS_12Velocity3MsgEEC2EPPS1_jPFbRKS1_E, .-_ZN3r2p16SubscriberExtBuf
 5065              		.weak	_ZN3r2p16SubscriberExtBufINS_12Velocity3MsgEEC1EPPS1_jPFbRKS1_E
 5066              		.thumb_set _ZN3r2p16SubscriberExtBufINS_12Velocity3MsgEEC1EPPS1_jPFbRKS1_E,_ZN3r2p16SubscriberExtB
 5067              		.section	.text._ZN3r2p16SubscriberExtBufINS_12Velocity3MsgEED2Ev,"axG",%progbits,_ZN3r2p16Subscrib
 5068              		.align	2
 5069              		.p2align 4,,15
 5070              		.weak	_ZN3r2p16SubscriberExtBufINS_12Velocity3MsgEED2Ev
 5071              		.thumb
 5072              		.thumb_func
 5073              		.type	_ZN3r2p16SubscriberExtBufINS_12Velocity3MsgEED2Ev, %function
 5074              	_ZN3r2p16SubscriberExtBufINS_12Velocity3MsgEED2Ev:
 5075              	.LFB723:
 5076              		.loc 23 76 0
 5077              		.cfi_startproc
 5078              		@ args = 0, pretend = 0, frame = 8
 5079              		@ frame_needed = 0, uses_anonymous_args = 0
 5080 0000 00B5     		push	{lr}
 5081              		.cfi_def_cfa_offset 4
 5082              		.cfi_offset 14, -4
 5083 0002 83B0     		sub	sp, sp, #12
ARM GAS  /tmp/ccjqfgnD.s 			page 92


 5084              		.cfi_def_cfa_offset 16
 5085 0004 0190     		str	r0, [sp, #4]
 5086              	.LBB162:
 5087              		.loc 23 79 0
 5088 0006 019B     		ldr	r3, [sp, #4]
 5089 0008 084A     		ldr	r2, .L330
 5090 000a 1A60     		str	r2, [r3]
 5091 000c 019B     		ldr	r3, [sp, #4]
 5092 000e 1846     		mov	r0, r3
 5093 0010 FFF7FEFF 		bl	_ZN3r2p15LocalSubscriberD2Ev
 5094              	.LBE162:
 5095 0014 0023     		movs	r3, #0
 5096 0016 002B     		cmp	r3, #0
 5097 0018 02D0     		beq	.L328
 5098              		.loc 23 79 0 is_stmt 0 discriminator 1
 5099 001a 0198     		ldr	r0, [sp, #4]
 5100 001c FFF7FEFF 		bl	_ZdlPv
 5101              	.L328:
 5102              		.loc 23 79 0 discriminator 2
 5103 0020 019B     		ldr	r3, [sp, #4]
 5104 0022 1846     		mov	r0, r3
 5105 0024 03B0     		add	sp, sp, #12
 5106              		@ sp needed
 5107 0026 5DF804FB 		ldr	pc, [sp], #4
 5108              	.L331:
 5109 002a 00BF     		.align	2
 5110              	.L330:
 5111 002c 08000000 		.word	_ZTVN3r2p16SubscriberExtBufINS_12Velocity3MsgEEE+8
 5112              		.cfi_endproc
 5113              	.LFE723:
 5114              		.size	_ZN3r2p16SubscriberExtBufINS_12Velocity3MsgEED2Ev, .-_ZN3r2p16SubscriberExtBufINS_12Velocity
 5115              		.weak	_ZN3r2p16SubscriberExtBufINS_12Velocity3MsgEED1Ev
 5116              		.thumb_set _ZN3r2p16SubscriberExtBufINS_12Velocity3MsgEED1Ev,_ZN3r2p16SubscriberExtBufINS_12Veloci
 5117              		.section	.text._ZN3r2p16SubscriberExtBufINS_12Velocity3MsgEED0Ev,"axG",%progbits,_ZN3r2p16Subscrib
 5118              		.align	2
 5119              		.p2align 4,,15
 5120              		.weak	_ZN3r2p16SubscriberExtBufINS_12Velocity3MsgEED0Ev
 5121              		.thumb
 5122              		.thumb_func
 5123              		.type	_ZN3r2p16SubscriberExtBufINS_12Velocity3MsgEED0Ev, %function
 5124              	_ZN3r2p16SubscriberExtBufINS_12Velocity3MsgEED0Ev:
 5125              	.LFB725:
 5126              		.loc 23 76 0 is_stmt 1
 5127              		.cfi_startproc
 5128              		@ args = 0, pretend = 0, frame = 8
 5129              		@ frame_needed = 0, uses_anonymous_args = 0
 5130 0000 00B5     		push	{lr}
 5131              		.cfi_def_cfa_offset 4
 5132              		.cfi_offset 14, -4
 5133 0002 83B0     		sub	sp, sp, #12
 5134              		.cfi_def_cfa_offset 16
 5135 0004 0190     		str	r0, [sp, #4]
 5136              		.loc 23 79 0
 5137 0006 0198     		ldr	r0, [sp, #4]
 5138 0008 FFF7FEFF 		bl	_ZN3r2p16SubscriberExtBufINS_12Velocity3MsgEED1Ev
 5139 000c 0198     		ldr	r0, [sp, #4]
 5140 000e FFF7FEFF 		bl	_ZdlPv
ARM GAS  /tmp/ccjqfgnD.s 			page 93


 5141 0012 019B     		ldr	r3, [sp, #4]
 5142 0014 1846     		mov	r0, r3
 5143 0016 03B0     		add	sp, sp, #12
 5144              		@ sp needed
 5145 0018 5DF804FB 		ldr	pc, [sp], #4
 5146              		.cfi_endproc
 5147              	.LFE725:
 5148              		.size	_ZN3r2p16SubscriberExtBufINS_12Velocity3MsgEED0Ev, .-_ZN3r2p16SubscriberExtBufINS_12Velocity
 5149 001c AFF30080 		.section	.text._ZN3r2p16SubscriberExtBufINS_10EncoderMsgEEC2EPPS1_jPFbRKS1_E,"axG",%progbits,_ZN3r
 5150              		.align	2
 5151              		.p2align 4,,15
 5152              		.weak	_ZN3r2p16SubscriberExtBufINS_10EncoderMsgEEC2EPPS1_jPFbRKS1_E
 5153              		.thumb
 5154              		.thumb_func
 5155              		.type	_ZN3r2p16SubscriberExtBufINS_10EncoderMsgEEC2EPPS1_jPFbRKS1_E, %function
 5156              	_ZN3r2p16SubscriberExtBufINS_10EncoderMsgEEC2EPPS1_jPFbRKS1_E:
 5157              	.LFB727:
 5158              		.loc 23 65 0
 5159              		.cfi_startproc
 5160              		@ args = 0, pretend = 0, frame = 16
 5161              		@ frame_needed = 0, uses_anonymous_args = 0
 5162 0000 00B5     		push	{lr}
 5163              		.cfi_def_cfa_offset 4
 5164              		.cfi_offset 14, -4
 5165 0002 85B0     		sub	sp, sp, #20
 5166              		.cfi_def_cfa_offset 24
 5167 0004 0390     		str	r0, [sp, #12]
 5168 0006 0291     		str	r1, [sp, #8]
 5169 0008 0192     		str	r2, [sp, #4]
 5170 000a 0093     		str	r3, [sp]
 5171              	.LBB163:
 5172              		.loc 23 69 0
 5173 000c 039B     		ldr	r3, [sp, #12]
 5174 000e 1846     		mov	r0, r3
 5175 0010 0299     		ldr	r1, [sp, #8]
 5176 0012 019A     		ldr	r2, [sp, #4]
 5177 0014 009B     		ldr	r3, [sp]
 5178 0016 FFF7FEFF 		bl	_ZN3r2p15LocalSubscriberC2EPPNS_7MessageEjPFbRKS1_E
 5179 001a 039B     		ldr	r3, [sp, #12]
 5180 001c 034A     		ldr	r2, .L338
 5181 001e 1A60     		str	r2, [r3]
 5182              	.LBE163:
 5183              		.loc 23 72 0
 5184 0020 039B     		ldr	r3, [sp, #12]
 5185 0022 1846     		mov	r0, r3
 5186 0024 05B0     		add	sp, sp, #20
 5187              		@ sp needed
 5188 0026 5DF804FB 		ldr	pc, [sp], #4
 5189              	.L339:
 5190 002a 00BF     		.align	2
 5191              	.L338:
 5192 002c 08000000 		.word	_ZTVN3r2p16SubscriberExtBufINS_10EncoderMsgEEE+8
 5193              		.cfi_endproc
 5194              	.LFE727:
 5195              		.size	_ZN3r2p16SubscriberExtBufINS_10EncoderMsgEEC2EPPS1_jPFbRKS1_E, .-_ZN3r2p16SubscriberExtBufIN
 5196              		.weak	_ZN3r2p16SubscriberExtBufINS_10EncoderMsgEEC1EPPS1_jPFbRKS1_E
 5197              		.thumb_set _ZN3r2p16SubscriberExtBufINS_10EncoderMsgEEC1EPPS1_jPFbRKS1_E,_ZN3r2p16SubscriberExtBuf
ARM GAS  /tmp/ccjqfgnD.s 			page 94


 5198              		.section	.text._ZN3r2p16SubscriberExtBufINS_10EncoderMsgEED2Ev,"axG",%progbits,_ZN3r2p16Subscriber
 5199              		.align	2
 5200              		.p2align 4,,15
 5201              		.weak	_ZN3r2p16SubscriberExtBufINS_10EncoderMsgEED2Ev
 5202              		.thumb
 5203              		.thumb_func
 5204              		.type	_ZN3r2p16SubscriberExtBufINS_10EncoderMsgEED2Ev, %function
 5205              	_ZN3r2p16SubscriberExtBufINS_10EncoderMsgEED2Ev:
 5206              	.LFB730:
 5207              		.loc 23 76 0
 5208              		.cfi_startproc
 5209              		@ args = 0, pretend = 0, frame = 8
 5210              		@ frame_needed = 0, uses_anonymous_args = 0
 5211 0000 00B5     		push	{lr}
 5212              		.cfi_def_cfa_offset 4
 5213              		.cfi_offset 14, -4
 5214 0002 83B0     		sub	sp, sp, #12
 5215              		.cfi_def_cfa_offset 16
 5216 0004 0190     		str	r0, [sp, #4]
 5217              	.LBB164:
 5218              		.loc 23 79 0
 5219 0006 019B     		ldr	r3, [sp, #4]
 5220 0008 084A     		ldr	r2, .L344
 5221 000a 1A60     		str	r2, [r3]
 5222 000c 019B     		ldr	r3, [sp, #4]
 5223 000e 1846     		mov	r0, r3
 5224 0010 FFF7FEFF 		bl	_ZN3r2p15LocalSubscriberD2Ev
 5225              	.LBE164:
 5226 0014 0023     		movs	r3, #0
 5227 0016 002B     		cmp	r3, #0
 5228 0018 02D0     		beq	.L342
 5229              		.loc 23 79 0 is_stmt 0 discriminator 1
 5230 001a 0198     		ldr	r0, [sp, #4]
 5231 001c FFF7FEFF 		bl	_ZdlPv
 5232              	.L342:
 5233              		.loc 23 79 0 discriminator 2
 5234 0020 019B     		ldr	r3, [sp, #4]
 5235 0022 1846     		mov	r0, r3
 5236 0024 03B0     		add	sp, sp, #12
 5237              		@ sp needed
 5238 0026 5DF804FB 		ldr	pc, [sp], #4
 5239              	.L345:
 5240 002a 00BF     		.align	2
 5241              	.L344:
 5242 002c 08000000 		.word	_ZTVN3r2p16SubscriberExtBufINS_10EncoderMsgEEE+8
 5243              		.cfi_endproc
 5244              	.LFE730:
 5245              		.size	_ZN3r2p16SubscriberExtBufINS_10EncoderMsgEED2Ev, .-_ZN3r2p16SubscriberExtBufINS_10EncoderMsg
 5246              		.weak	_ZN3r2p16SubscriberExtBufINS_10EncoderMsgEED1Ev
 5247              		.thumb_set _ZN3r2p16SubscriberExtBufINS_10EncoderMsgEED1Ev,_ZN3r2p16SubscriberExtBufINS_10EncoderM
 5248              		.section	.text._ZN3r2p16SubscriberExtBufINS_10EncoderMsgEED0Ev,"axG",%progbits,_ZN3r2p16Subscriber
 5249              		.align	2
 5250              		.p2align 4,,15
 5251              		.weak	_ZN3r2p16SubscriberExtBufINS_10EncoderMsgEED0Ev
 5252              		.thumb
 5253              		.thumb_func
 5254              		.type	_ZN3r2p16SubscriberExtBufINS_10EncoderMsgEED0Ev, %function
ARM GAS  /tmp/ccjqfgnD.s 			page 95


 5255              	_ZN3r2p16SubscriberExtBufINS_10EncoderMsgEED0Ev:
 5256              	.LFB732:
 5257              		.loc 23 76 0 is_stmt 1
 5258              		.cfi_startproc
 5259              		@ args = 0, pretend = 0, frame = 8
 5260              		@ frame_needed = 0, uses_anonymous_args = 0
 5261 0000 00B5     		push	{lr}
 5262              		.cfi_def_cfa_offset 4
 5263              		.cfi_offset 14, -4
 5264 0002 83B0     		sub	sp, sp, #12
 5265              		.cfi_def_cfa_offset 16
 5266 0004 0190     		str	r0, [sp, #4]
 5267              		.loc 23 79 0
 5268 0006 0198     		ldr	r0, [sp, #4]
 5269 0008 FFF7FEFF 		bl	_ZN3r2p16SubscriberExtBufINS_10EncoderMsgEED1Ev
 5270 000c 0198     		ldr	r0, [sp, #4]
 5271 000e FFF7FEFF 		bl	_ZdlPv
 5272 0012 019B     		ldr	r3, [sp, #4]
 5273 0014 1846     		mov	r0, r3
 5274 0016 03B0     		add	sp, sp, #12
 5275              		@ sp needed
 5276 0018 5DF804FB 		ldr	pc, [sp], #4
 5277              		.cfi_endproc
 5278              	.LFE732:
 5279              		.size	_ZN3r2p16SubscriberExtBufINS_10EncoderMsgEED0Ev, .-_ZN3r2p16SubscriberExtBufINS_10EncoderMsg
 5280 001c AFF30080 		.section	.text._ZN3r2p16SubscriberExtBufINS_9PIDCfgMsgEEC2EPPS1_jPFbRKS1_E,"axG",%progbits,_ZN3r2p
 5281              		.align	2
 5282              		.p2align 4,,15
 5283              		.weak	_ZN3r2p16SubscriberExtBufINS_9PIDCfgMsgEEC2EPPS1_jPFbRKS1_E
 5284              		.thumb
 5285              		.thumb_func
 5286              		.type	_ZN3r2p16SubscriberExtBufINS_9PIDCfgMsgEEC2EPPS1_jPFbRKS1_E, %function
 5287              	_ZN3r2p16SubscriberExtBufINS_9PIDCfgMsgEEC2EPPS1_jPFbRKS1_E:
 5288              	.LFB735:
 5289              		.loc 23 65 0
 5290              		.cfi_startproc
 5291              		@ args = 0, pretend = 0, frame = 16
 5292              		@ frame_needed = 0, uses_anonymous_args = 0
 5293 0000 00B5     		push	{lr}
 5294              		.cfi_def_cfa_offset 4
 5295              		.cfi_offset 14, -4
 5296 0002 85B0     		sub	sp, sp, #20
 5297              		.cfi_def_cfa_offset 24
 5298 0004 0390     		str	r0, [sp, #12]
 5299 0006 0291     		str	r1, [sp, #8]
 5300 0008 0192     		str	r2, [sp, #4]
 5301 000a 0093     		str	r3, [sp]
 5302              	.LBB165:
 5303              		.loc 23 69 0
 5304 000c 039B     		ldr	r3, [sp, #12]
 5305 000e 1846     		mov	r0, r3
 5306 0010 0299     		ldr	r1, [sp, #8]
 5307 0012 019A     		ldr	r2, [sp, #4]
 5308 0014 009B     		ldr	r3, [sp]
 5309 0016 FFF7FEFF 		bl	_ZN3r2p15LocalSubscriberC2EPPNS_7MessageEjPFbRKS1_E
 5310 001a 039B     		ldr	r3, [sp, #12]
 5311 001c 034A     		ldr	r2, .L352
ARM GAS  /tmp/ccjqfgnD.s 			page 96


 5312 001e 1A60     		str	r2, [r3]
 5313              	.LBE165:
 5314              		.loc 23 72 0
 5315 0020 039B     		ldr	r3, [sp, #12]
 5316 0022 1846     		mov	r0, r3
 5317 0024 05B0     		add	sp, sp, #20
 5318              		@ sp needed
 5319 0026 5DF804FB 		ldr	pc, [sp], #4
 5320              	.L353:
 5321 002a 00BF     		.align	2
 5322              	.L352:
 5323 002c 08000000 		.word	_ZTVN3r2p16SubscriberExtBufINS_9PIDCfgMsgEEE+8
 5324              		.cfi_endproc
 5325              	.LFE735:
 5326              		.size	_ZN3r2p16SubscriberExtBufINS_9PIDCfgMsgEEC2EPPS1_jPFbRKS1_E, .-_ZN3r2p16SubscriberExtBufINS_
 5327              		.weak	_ZN3r2p16SubscriberExtBufINS_9PIDCfgMsgEEC1EPPS1_jPFbRKS1_E
 5328              		.thumb_set _ZN3r2p16SubscriberExtBufINS_9PIDCfgMsgEEC1EPPS1_jPFbRKS1_E,_ZN3r2p16SubscriberExtBufIN
 5329              		.section	.text._ZN3r2p16SubscriberExtBufINS_9PIDCfgMsgEED2Ev,"axG",%progbits,_ZN3r2p16SubscriberEx
 5330              		.align	2
 5331              		.p2align 4,,15
 5332              		.weak	_ZN3r2p16SubscriberExtBufINS_9PIDCfgMsgEED2Ev
 5333              		.thumb
 5334              		.thumb_func
 5335              		.type	_ZN3r2p16SubscriberExtBufINS_9PIDCfgMsgEED2Ev, %function
 5336              	_ZN3r2p16SubscriberExtBufINS_9PIDCfgMsgEED2Ev:
 5337              	.LFB738:
 5338              		.loc 23 76 0
 5339              		.cfi_startproc
 5340              		@ args = 0, pretend = 0, frame = 8
 5341              		@ frame_needed = 0, uses_anonymous_args = 0
 5342 0000 00B5     		push	{lr}
 5343              		.cfi_def_cfa_offset 4
 5344              		.cfi_offset 14, -4
 5345 0002 83B0     		sub	sp, sp, #12
 5346              		.cfi_def_cfa_offset 16
 5347 0004 0190     		str	r0, [sp, #4]
 5348              	.LBB166:
 5349              		.loc 23 79 0
 5350 0006 019B     		ldr	r3, [sp, #4]
 5351 0008 084A     		ldr	r2, .L358
 5352 000a 1A60     		str	r2, [r3]
 5353 000c 019B     		ldr	r3, [sp, #4]
 5354 000e 1846     		mov	r0, r3
 5355 0010 FFF7FEFF 		bl	_ZN3r2p15LocalSubscriberD2Ev
 5356              	.LBE166:
 5357 0014 0023     		movs	r3, #0
 5358 0016 002B     		cmp	r3, #0
 5359 0018 02D0     		beq	.L356
 5360              		.loc 23 79 0 is_stmt 0 discriminator 1
 5361 001a 0198     		ldr	r0, [sp, #4]
 5362 001c FFF7FEFF 		bl	_ZdlPv
 5363              	.L356:
 5364              		.loc 23 79 0 discriminator 2
 5365 0020 019B     		ldr	r3, [sp, #4]
 5366 0022 1846     		mov	r0, r3
 5367 0024 03B0     		add	sp, sp, #12
 5368              		@ sp needed
ARM GAS  /tmp/ccjqfgnD.s 			page 97


 5369 0026 5DF804FB 		ldr	pc, [sp], #4
 5370              	.L359:
 5371 002a 00BF     		.align	2
 5372              	.L358:
 5373 002c 08000000 		.word	_ZTVN3r2p16SubscriberExtBufINS_9PIDCfgMsgEEE+8
 5374              		.cfi_endproc
 5375              	.LFE738:
 5376              		.size	_ZN3r2p16SubscriberExtBufINS_9PIDCfgMsgEED2Ev, .-_ZN3r2p16SubscriberExtBufINS_9PIDCfgMsgEED2
 5377              		.weak	_ZN3r2p16SubscriberExtBufINS_9PIDCfgMsgEED1Ev
 5378              		.thumb_set _ZN3r2p16SubscriberExtBufINS_9PIDCfgMsgEED1Ev,_ZN3r2p16SubscriberExtBufINS_9PIDCfgMsgEE
 5379              		.section	.text._ZN3r2p16SubscriberExtBufINS_9PIDCfgMsgEED0Ev,"axG",%progbits,_ZN3r2p16SubscriberEx
 5380              		.align	2
 5381              		.p2align 4,,15
 5382              		.weak	_ZN3r2p16SubscriberExtBufINS_9PIDCfgMsgEED0Ev
 5383              		.thumb
 5384              		.thumb_func
 5385              		.type	_ZN3r2p16SubscriberExtBufINS_9PIDCfgMsgEED0Ev, %function
 5386              	_ZN3r2p16SubscriberExtBufINS_9PIDCfgMsgEED0Ev:
 5387              	.LFB740:
 5388              		.loc 23 76 0 is_stmt 1
 5389              		.cfi_startproc
 5390              		@ args = 0, pretend = 0, frame = 8
 5391              		@ frame_needed = 0, uses_anonymous_args = 0
 5392 0000 00B5     		push	{lr}
 5393              		.cfi_def_cfa_offset 4
 5394              		.cfi_offset 14, -4
 5395 0002 83B0     		sub	sp, sp, #12
 5396              		.cfi_def_cfa_offset 16
 5397 0004 0190     		str	r0, [sp, #4]
 5398              		.loc 23 79 0
 5399 0006 0198     		ldr	r0, [sp, #4]
 5400 0008 FFF7FEFF 		bl	_ZN3r2p16SubscriberExtBufINS_9PIDCfgMsgEED1Ev
 5401 000c 0198     		ldr	r0, [sp, #4]
 5402 000e FFF7FEFF 		bl	_ZdlPv
 5403 0012 019B     		ldr	r3, [sp, #4]
 5404 0014 1846     		mov	r0, r3
 5405 0016 03B0     		add	sp, sp, #12
 5406              		@ sp needed
 5407 0018 5DF804FB 		ldr	pc, [sp], #4
 5408              		.cfi_endproc
 5409              	.LFE740:
 5410              		.size	_ZN3r2p16SubscriberExtBufINS_9PIDCfgMsgEED0Ev, .-_ZN3r2p16SubscriberExtBufINS_9PIDCfgMsgEED0
 5411 001c AFF30080 		.section	.text._ZN3r2p16SubscriberExtBufINS_6IMUMsgEEC2EPPS1_jPFbRKS1_E,"axG",%progbits,_ZN3r2p16S
 5412              		.align	2
 5413              		.p2align 4,,15
 5414              		.weak	_ZN3r2p16SubscriberExtBufINS_6IMUMsgEEC2EPPS1_jPFbRKS1_E
 5415              		.thumb
 5416              		.thumb_func
 5417              		.type	_ZN3r2p16SubscriberExtBufINS_6IMUMsgEEC2EPPS1_jPFbRKS1_E, %function
 5418              	_ZN3r2p16SubscriberExtBufINS_6IMUMsgEEC2EPPS1_jPFbRKS1_E:
 5419              	.LFB743:
 5420              		.loc 23 65 0
 5421              		.cfi_startproc
 5422              		@ args = 0, pretend = 0, frame = 16
 5423              		@ frame_needed = 0, uses_anonymous_args = 0
 5424 0000 00B5     		push	{lr}
 5425              		.cfi_def_cfa_offset 4
ARM GAS  /tmp/ccjqfgnD.s 			page 98


 5426              		.cfi_offset 14, -4
 5427 0002 85B0     		sub	sp, sp, #20
 5428              		.cfi_def_cfa_offset 24
 5429 0004 0390     		str	r0, [sp, #12]
 5430 0006 0291     		str	r1, [sp, #8]
 5431 0008 0192     		str	r2, [sp, #4]
 5432 000a 0093     		str	r3, [sp]
 5433              	.LBB167:
 5434              		.loc 23 69 0
 5435 000c 039B     		ldr	r3, [sp, #12]
 5436 000e 1846     		mov	r0, r3
 5437 0010 0299     		ldr	r1, [sp, #8]
 5438 0012 019A     		ldr	r2, [sp, #4]
 5439 0014 009B     		ldr	r3, [sp]
 5440 0016 FFF7FEFF 		bl	_ZN3r2p15LocalSubscriberC2EPPNS_7MessageEjPFbRKS1_E
 5441 001a 039B     		ldr	r3, [sp, #12]
 5442 001c 034A     		ldr	r2, .L366
 5443 001e 1A60     		str	r2, [r3]
 5444              	.LBE167:
 5445              		.loc 23 72 0
 5446 0020 039B     		ldr	r3, [sp, #12]
 5447 0022 1846     		mov	r0, r3
 5448 0024 05B0     		add	sp, sp, #20
 5449              		@ sp needed
 5450 0026 5DF804FB 		ldr	pc, [sp], #4
 5451              	.L367:
 5452 002a 00BF     		.align	2
 5453              	.L366:
 5454 002c 08000000 		.word	_ZTVN3r2p16SubscriberExtBufINS_6IMUMsgEEE+8
 5455              		.cfi_endproc
 5456              	.LFE743:
 5457              		.size	_ZN3r2p16SubscriberExtBufINS_6IMUMsgEEC2EPPS1_jPFbRKS1_E, .-_ZN3r2p16SubscriberExtBufINS_6IM
 5458              		.weak	_ZN3r2p16SubscriberExtBufINS_6IMUMsgEEC1EPPS1_jPFbRKS1_E
 5459              		.thumb_set _ZN3r2p16SubscriberExtBufINS_6IMUMsgEEC1EPPS1_jPFbRKS1_E,_ZN3r2p16SubscriberExtBufINS_6
 5460              		.section	.text._ZN3r2p16SubscriberExtBufINS_6IMUMsgEED2Ev,"axG",%progbits,_ZN3r2p16SubscriberExtBu
 5461              		.align	2
 5462              		.p2align 4,,15
 5463              		.weak	_ZN3r2p16SubscriberExtBufINS_6IMUMsgEED2Ev
 5464              		.thumb
 5465              		.thumb_func
 5466              		.type	_ZN3r2p16SubscriberExtBufINS_6IMUMsgEED2Ev, %function
 5467              	_ZN3r2p16SubscriberExtBufINS_6IMUMsgEED2Ev:
 5468              	.LFB746:
 5469              		.loc 23 76 0
 5470              		.cfi_startproc
 5471              		@ args = 0, pretend = 0, frame = 8
 5472              		@ frame_needed = 0, uses_anonymous_args = 0
 5473 0000 00B5     		push	{lr}
 5474              		.cfi_def_cfa_offset 4
 5475              		.cfi_offset 14, -4
 5476 0002 83B0     		sub	sp, sp, #12
 5477              		.cfi_def_cfa_offset 16
 5478 0004 0190     		str	r0, [sp, #4]
 5479              	.LBB168:
 5480              		.loc 23 79 0
 5481 0006 019B     		ldr	r3, [sp, #4]
 5482 0008 084A     		ldr	r2, .L372
ARM GAS  /tmp/ccjqfgnD.s 			page 99


 5483 000a 1A60     		str	r2, [r3]
 5484 000c 019B     		ldr	r3, [sp, #4]
 5485 000e 1846     		mov	r0, r3
 5486 0010 FFF7FEFF 		bl	_ZN3r2p15LocalSubscriberD2Ev
 5487              	.LBE168:
 5488 0014 0023     		movs	r3, #0
 5489 0016 002B     		cmp	r3, #0
 5490 0018 02D0     		beq	.L370
 5491              		.loc 23 79 0 is_stmt 0 discriminator 1
 5492 001a 0198     		ldr	r0, [sp, #4]
 5493 001c FFF7FEFF 		bl	_ZdlPv
 5494              	.L370:
 5495              		.loc 23 79 0 discriminator 2
 5496 0020 019B     		ldr	r3, [sp, #4]
 5497 0022 1846     		mov	r0, r3
 5498 0024 03B0     		add	sp, sp, #12
 5499              		@ sp needed
 5500 0026 5DF804FB 		ldr	pc, [sp], #4
 5501              	.L373:
 5502 002a 00BF     		.align	2
 5503              	.L372:
 5504 002c 08000000 		.word	_ZTVN3r2p16SubscriberExtBufINS_6IMUMsgEEE+8
 5505              		.cfi_endproc
 5506              	.LFE746:
 5507              		.size	_ZN3r2p16SubscriberExtBufINS_6IMUMsgEED2Ev, .-_ZN3r2p16SubscriberExtBufINS_6IMUMsgEED2Ev
 5508              		.weak	_ZN3r2p16SubscriberExtBufINS_6IMUMsgEED1Ev
 5509              		.thumb_set _ZN3r2p16SubscriberExtBufINS_6IMUMsgEED1Ev,_ZN3r2p16SubscriberExtBufINS_6IMUMsgEED2Ev
 5510              		.section	.text._ZN3r2p16SubscriberExtBufINS_6IMUMsgEED0Ev,"axG",%progbits,_ZN3r2p16SubscriberExtBu
 5511              		.align	2
 5512              		.p2align 4,,15
 5513              		.weak	_ZN3r2p16SubscriberExtBufINS_6IMUMsgEED0Ev
 5514              		.thumb
 5515              		.thumb_func
 5516              		.type	_ZN3r2p16SubscriberExtBufINS_6IMUMsgEED0Ev, %function
 5517              	_ZN3r2p16SubscriberExtBufINS_6IMUMsgEED0Ev:
 5518              	.LFB748:
 5519              		.loc 23 76 0 is_stmt 1
 5520              		.cfi_startproc
 5521              		@ args = 0, pretend = 0, frame = 8
 5522              		@ frame_needed = 0, uses_anonymous_args = 0
 5523 0000 00B5     		push	{lr}
 5524              		.cfi_def_cfa_offset 4
 5525              		.cfi_offset 14, -4
 5526 0002 83B0     		sub	sp, sp, #12
 5527              		.cfi_def_cfa_offset 16
 5528 0004 0190     		str	r0, [sp, #4]
 5529              		.loc 23 79 0
 5530 0006 0198     		ldr	r0, [sp, #4]
 5531 0008 FFF7FEFF 		bl	_ZN3r2p16SubscriberExtBufINS_6IMUMsgEED1Ev
 5532 000c 0198     		ldr	r0, [sp, #4]
 5533 000e FFF7FEFF 		bl	_ZdlPv
 5534 0012 019B     		ldr	r3, [sp, #4]
 5535 0014 1846     		mov	r0, r3
 5536 0016 03B0     		add	sp, sp, #12
 5537              		@ sp needed
 5538 0018 5DF804FB 		ldr	pc, [sp], #4
 5539              		.cfi_endproc
ARM GAS  /tmp/ccjqfgnD.s 			page 100


 5540              	.LFE748:
 5541              		.size	_ZN3r2p16SubscriberExtBufINS_6IMUMsgEED0Ev, .-_ZN3r2p16SubscriberExtBufINS_6IMUMsgEED0Ev
 5542              		.weak	_ZTVN3r2p9PublisherINS_7IMURaw9EEE
 5543 001c AFF30080 		.section	.rodata._ZTVN3r2p9PublisherINS_7IMURaw9EEE,"aG",%progbits,_ZTVN3r2p9PublisherINS_7IMURaw9
 5544              		.align	3
 5545              		.type	_ZTVN3r2p9PublisherINS_7IMURaw9EEE, %object
 5546              		.size	_ZTVN3r2p9PublisherINS_7IMURaw9EEE, 16
 5547              	_ZTVN3r2p9PublisherINS_7IMURaw9EEE:
 5548 0000 00000000 		.word	0
 5549 0004 00000000 		.word	0
 5550 0008 00000000 		.word	_ZN3r2p9PublisherINS_7IMURaw9EED1Ev
 5551 000c 00000000 		.word	_ZN3r2p9PublisherINS_7IMURaw9EED0Ev
 5552              		.weak	_ZTVN3r2p9PublisherINS_6IMUMsgEEE
 5553              		.section	.rodata._ZTVN3r2p9PublisherINS_6IMUMsgEEE,"aG",%progbits,_ZTVN3r2p9PublisherINS_6IMUMsgEE
 5554              		.align	3
 5555              		.type	_ZTVN3r2p9PublisherINS_6IMUMsgEEE, %object
 5556              		.size	_ZTVN3r2p9PublisherINS_6IMUMsgEEE, 16
 5557              	_ZTVN3r2p9PublisherINS_6IMUMsgEEE:
 5558 0000 00000000 		.word	0
 5559 0004 00000000 		.word	0
 5560 0008 00000000 		.word	_ZN3r2p9PublisherINS_6IMUMsgEED1Ev
 5561 000c 00000000 		.word	_ZN3r2p9PublisherINS_6IMUMsgEED0Ev
 5562              		.weak	_ZTVN3r2p9PublisherINS_7PWM2MsgEEE
 5563              		.section	.rodata._ZTVN3r2p9PublisherINS_7PWM2MsgEEE,"aG",%progbits,_ZTVN3r2p9PublisherINS_7PWM2Msg
 5564              		.align	3
 5565              		.type	_ZTVN3r2p9PublisherINS_7PWM2MsgEEE, %object
 5566              		.size	_ZTVN3r2p9PublisherINS_7PWM2MsgEEE, 16
 5567              	_ZTVN3r2p9PublisherINS_7PWM2MsgEEE:
 5568 0000 00000000 		.word	0
 5569 0004 00000000 		.word	0
 5570 0008 00000000 		.word	_ZN3r2p9PublisherINS_7PWM2MsgEED1Ev
 5571 000c 00000000 		.word	_ZN3r2p9PublisherINS_7PWM2MsgEED0Ev
 5572              		.weak	_ZTVN3r2p10SubscriberINS_6IMUMsgELj5EEE
 5573              		.section	.rodata._ZTVN3r2p10SubscriberINS_6IMUMsgELj5EEE,"aG",%progbits,_ZTVN3r2p10SubscriberINS_6
 5574              		.align	3
 5575              		.type	_ZTVN3r2p10SubscriberINS_6IMUMsgELj5EEE, %object
 5576              		.size	_ZTVN3r2p10SubscriberINS_6IMUMsgELj5EEE, 36
 5577              	_ZTVN3r2p10SubscriberINS_6IMUMsgELj5EEE:
 5578 0000 00000000 		.word	0
 5579 0004 00000000 		.word	0
 5580 0008 00000000 		.word	_ZNK3r2p15LocalSubscriber16get_queue_lengthEv
 5581 000c 00000000 		.word	_ZN3r2p15LocalSubscriber13notify_unsafeERNS_7MessageERKNS_4TimeE
 5582 0010 00000000 		.word	_ZN3r2p15LocalSubscriber12fetch_unsafeERPNS_7MessageERNS_4TimeE
 5583 0014 00000000 		.word	_ZN3r2p15LocalSubscriber6notifyERNS_7MessageERKNS_4TimeE
 5584 0018 00000000 		.word	_ZN3r2p15LocalSubscriber5fetchERPNS_7MessageERNS_4TimeE
 5585 001c 00000000 		.word	_ZN3r2p10SubscriberINS_6IMUMsgELj5EED1Ev
 5586 0020 00000000 		.word	_ZN3r2p10SubscriberINS_6IMUMsgELj5EED0Ev
 5587              		.weak	_ZTVN3r2p16SubscriberExtBufINS_6IMUMsgEEE
 5588 0024 00000000 		.section	.rodata._ZTVN3r2p16SubscriberExtBufINS_6IMUMsgEEE,"aG",%progbits,_ZTVN3r2p16SubscriberExt
 5589              		.align	3
 5590              		.type	_ZTVN3r2p16SubscriberExtBufINS_6IMUMsgEEE, %object
 5591              		.size	_ZTVN3r2p16SubscriberExtBufINS_6IMUMsgEEE, 36
 5592              	_ZTVN3r2p16SubscriberExtBufINS_6IMUMsgEEE:
 5593 0000 00000000 		.word	0
 5594 0004 00000000 		.word	0
 5595 0008 00000000 		.word	_ZNK3r2p15LocalSubscriber16get_queue_lengthEv
 5596 000c 00000000 		.word	_ZN3r2p15LocalSubscriber13notify_unsafeERNS_7MessageERKNS_4TimeE
ARM GAS  /tmp/ccjqfgnD.s 			page 101


 5597 0010 00000000 		.word	_ZN3r2p15LocalSubscriber12fetch_unsafeERPNS_7MessageERNS_4TimeE
 5598 0014 00000000 		.word	_ZN3r2p15LocalSubscriber6notifyERNS_7MessageERKNS_4TimeE
 5599 0018 00000000 		.word	_ZN3r2p15LocalSubscriber5fetchERPNS_7MessageERNS_4TimeE
 5600 001c 00000000 		.word	_ZN3r2p16SubscriberExtBufINS_6IMUMsgEED1Ev
 5601 0020 00000000 		.word	_ZN3r2p16SubscriberExtBufINS_6IMUMsgEED0Ev
 5602              		.weak	_ZTVN3r2p10SubscriberINS_9PIDCfgMsgELj5EEE
 5603 0024 00000000 		.section	.rodata._ZTVN3r2p10SubscriberINS_9PIDCfgMsgELj5EEE,"aG",%progbits,_ZTVN3r2p10SubscriberIN
 5604              		.align	3
 5605              		.type	_ZTVN3r2p10SubscriberINS_9PIDCfgMsgELj5EEE, %object
 5606              		.size	_ZTVN3r2p10SubscriberINS_9PIDCfgMsgELj5EEE, 36
 5607              	_ZTVN3r2p10SubscriberINS_9PIDCfgMsgELj5EEE:
 5608 0000 00000000 		.word	0
 5609 0004 00000000 		.word	0
