ARM GAS  /tmp/cciRX5od.s 			page 1


   1              		.syntax unified
   2              		.cpu cortex-m4
   3              		.eabi_attribute 27, 3
   4              		.eabi_attribute 28, 1
   5              		.fpu fpv4-sp-d16
   6              		.eabi_attribute 20, 1
   7              		.eabi_attribute 21, 1
   8              		.eabi_attribute 23, 3
   9              		.eabi_attribute 24, 1
  10              		.eabi_attribute 25, 1
  11              		.eabi_attribute 26, 1
  12              		.eabi_attribute 30, 6
  13              		.eabi_attribute 34, 1
  14              		.eabi_attribute 18, 4
  15              		.thumb
  16              		.file	"pal_lld.c"
  17              		.text
  18              	.Ltext0:
  19              		.cfi_sections	.debug_frame
  20              		.section	.text.initgpio,"ax",%progbits
  21              		.align	2
  22              		.p2align 4,,15
  23              		.thumb
  24              		.thumb_func
  25              		.type	initgpio, %function
  26              	initgpio:
  27              	.LFB118:
  28              		.file 1 "/home/dave/r2p-sdk/core/ChibiOS/os/hal/platforms/STM32/GPIOv2/pal_lld.c"
  29              		.loc 1 86 0
  30              		.cfi_startproc
  31              		@ args = 0, pretend = 0, frame = 8
  32              		@ frame_needed = 0, uses_anonymous_args = 0
  33              		@ link register save eliminated.
  34 0000 82B0     		sub	sp, sp, #8
  35              		.cfi_def_cfa_offset 8
  36 0002 0190     		str	r0, [sp, #4]
  37 0004 0091     		str	r1, [sp]
  38              		.loc 1 88 0
  39 0006 009B     		ldr	r3, [sp]
  40 0008 5A68     		ldr	r2, [r3, #4]
  41 000a 019B     		ldr	r3, [sp, #4]
  42 000c 5A60     		str	r2, [r3, #4]
  43              		.loc 1 89 0
  44 000e 009B     		ldr	r3, [sp]
  45 0010 9A68     		ldr	r2, [r3, #8]
  46 0012 019B     		ldr	r3, [sp, #4]
  47 0014 9A60     		str	r2, [r3, #8]
  48              		.loc 1 90 0
  49 0016 009B     		ldr	r3, [sp]
  50 0018 DA68     		ldr	r2, [r3, #12]
  51 001a 019B     		ldr	r3, [sp, #4]
  52 001c DA60     		str	r2, [r3, #12]
  53              		.loc 1 91 0
  54 001e 009B     		ldr	r3, [sp]
  55 0020 1A69     		ldr	r2, [r3, #16]
  56 0022 019B     		ldr	r3, [sp, #4]
  57 0024 5A61     		str	r2, [r3, #20]
ARM GAS  /tmp/cciRX5od.s 			page 2


  58              		.loc 1 92 0
  59 0026 009B     		ldr	r3, [sp]
  60 0028 5A69     		ldr	r2, [r3, #20]
  61 002a 019B     		ldr	r3, [sp, #4]
  62 002c 1A62     		str	r2, [r3, #32]
  63              		.loc 1 93 0
  64 002e 009B     		ldr	r3, [sp]
  65 0030 9A69     		ldr	r2, [r3, #24]
  66 0032 019B     		ldr	r3, [sp, #4]
  67 0034 5A62     		str	r2, [r3, #36]
  68              		.loc 1 94 0
  69 0036 009B     		ldr	r3, [sp]
  70 0038 1A68     		ldr	r2, [r3]
  71 003a 019B     		ldr	r3, [sp, #4]
  72 003c 1A60     		str	r2, [r3]
  73              		.loc 1 95 0
  74 003e 02B0     		add	sp, sp, #8
  75              		@ sp needed
  76 0040 7047     		bx	lr
  77              		.cfi_endproc
  78              	.LFE118:
  79              		.size	initgpio, .-initgpio
  80 0042 00BFAFF3 		.section	.text._pal_lld_init,"ax",%progbits
  80      0080AFF3 
  80      0080AFF3 
  80      0080
  81              		.align	2
  82              		.p2align 4,,15
  83              		.global	_pal_lld_init
  84              		.thumb
  85              		.thumb_func
  86              		.type	_pal_lld_init, %function
  87              	_pal_lld_init:
  88              	.LFB119:
  89              		.loc 1 113 0
  90              		.cfi_startproc
  91              		@ args = 0, pretend = 0, frame = 8
  92              		@ frame_needed = 0, uses_anonymous_args = 0
  93 0000 00B5     		push	{lr}
  94              		.cfi_def_cfa_offset 4
  95              		.cfi_offset 14, -4
  96 0002 83B0     		sub	sp, sp, #12
  97              		.cfi_def_cfa_offset 16
  98 0004 0190     		str	r0, [sp, #4]
  99              		.loc 1 124 0
 100 0006 164B     		ldr	r3, .L3
 101 0008 154A     		ldr	r2, .L3
 102 000a 5269     		ldr	r2, [r2, #20]
 103 000c 42F4FC02 		orr	r2, r2, #8257536
 104 0010 5A61     		str	r2, [r3, #20]
 105              		.loc 1 134 0
 106 0012 019B     		ldr	r3, [sp, #4]
 107 0014 4FF09040 		mov	r0, #1207959552
 108 0018 1946     		mov	r1, r3
 109 001a FFF7FEFF 		bl	initgpio
 110              		.loc 1 137 0
 111 001e 019B     		ldr	r3, [sp, #4]
ARM GAS  /tmp/cciRX5od.s 			page 3


 112 0020 1C33     		adds	r3, r3, #28
 113 0022 1048     		ldr	r0, .L3+4
 114 0024 1946     		mov	r1, r3
 115 0026 FFF7FEFF 		bl	initgpio
 116              		.loc 1 140 0
 117 002a 019B     		ldr	r3, [sp, #4]
 118 002c 3833     		adds	r3, r3, #56
 119 002e 0E48     		ldr	r0, .L3+8
 120 0030 1946     		mov	r1, r3
 121 0032 FFF7FEFF 		bl	initgpio
 122              		.loc 1 143 0
 123 0036 019B     		ldr	r3, [sp, #4]
 124 0038 5433     		adds	r3, r3, #84
 125 003a 0C48     		ldr	r0, .L3+12
 126 003c 1946     		mov	r1, r3
 127 003e FFF7FEFF 		bl	initgpio
 128              		.loc 1 146 0
 129 0042 019B     		ldr	r3, [sp, #4]
 130 0044 7033     		adds	r3, r3, #112
 131 0046 0A48     		ldr	r0, .L3+16
 132 0048 1946     		mov	r1, r3
 133 004a FFF7FEFF 		bl	initgpio
 134              		.loc 1 149 0
 135 004e 019B     		ldr	r3, [sp, #4]
 136 0050 8C33     		adds	r3, r3, #140
 137 0052 0848     		ldr	r0, .L3+20
 138 0054 1946     		mov	r1, r3
 139 0056 FFF7FEFF 		bl	initgpio
 140              		.loc 1 160 0
 141 005a 03B0     		add	sp, sp, #12
 142              		@ sp needed
 143 005c 5DF804FB 		ldr	pc, [sp], #4
 144              	.L4:
 145              		.align	2
 146              	.L3:
 147 0060 00100240 		.word	1073876992
 148 0064 00040048 		.word	1207960576
 149 0068 00080048 		.word	1207961600
 150 006c 000C0048 		.word	1207962624
 151 0070 00100048 		.word	1207963648
 152 0074 00140048 		.word	1207964672
 153              		.cfi_endproc
 154              	.LFE119:
 155              		.size	_pal_lld_init, .-_pal_lld_init
 156 0078 AFF30080 		.section	.text._pal_lld_setgroupmode,"ax",%progbits
 156      AFF30080 
 157              		.align	2
 158              		.p2align 4,,15
 159              		.global	_pal_lld_setgroupmode
 160              		.thumb
 161              		.thumb_func
 162              		.type	_pal_lld_setgroupmode, %function
 163              	_pal_lld_setgroupmode:
 164              	.LFB120:
 165              		.loc 1 178 0
 166              		.cfi_startproc
 167              		@ args = 0, pretend = 0, frame = 56
ARM GAS  /tmp/cciRX5od.s 			page 4


 168              		@ frame_needed = 0, uses_anonymous_args = 0
 169              		@ link register save eliminated.
 170 0000 8EB0     		sub	sp, sp, #56
 171              		.cfi_def_cfa_offset 56
 172 0002 0390     		str	r0, [sp, #12]
 173 0004 0291     		str	r1, [sp, #8]
 174 0006 0192     		str	r2, [sp, #4]
 175              		.loc 1 180 0
 176 0008 019B     		ldr	r3, [sp, #4]
 177 000a 03F00303 		and	r3, r3, #3
 178 000e 0D93     		str	r3, [sp, #52]
 179              		.loc 1 181 0
 180 0010 019B     		ldr	r3, [sp, #4]
 181 0012 03F00403 		and	r3, r3, #4
 182 0016 9B08     		lsrs	r3, r3, #2
 183 0018 0C93     		str	r3, [sp, #48]
 184              		.loc 1 182 0
 185 001a 019B     		ldr	r3, [sp, #4]
 186 001c 03F01803 		and	r3, r3, #24
 187 0020 DB08     		lsrs	r3, r3, #3
 188 0022 0B93     		str	r3, [sp, #44]
 189              		.loc 1 183 0
 190 0024 019B     		ldr	r3, [sp, #4]
 191 0026 03F06003 		and	r3, r3, #96
 192 002a 5B09     		lsrs	r3, r3, #5
 193 002c 0A93     		str	r3, [sp, #40]
 194              		.loc 1 184 0
 195 002e 019B     		ldr	r3, [sp, #4]
 196 0030 03F4F063 		and	r3, r3, #1920
 197 0034 DB09     		lsrs	r3, r3, #7
 198 0036 0893     		str	r3, [sp, #32]
 199              		.loc 1 185 0
 200 0038 0023     		movs	r3, #0
 201 003a 0993     		str	r3, [sp, #36]
 202              	.L11:
 203              		.loc 1 187 0
 204 003c 029B     		ldr	r3, [sp, #8]
 205 003e 03F00103 		and	r3, r3, #1
 206 0042 002B     		cmp	r3, #0
 207 0044 54D0     		beq	.L6
 208              	.LBB2:
 209              		.loc 1 190 0
 210 0046 099B     		ldr	r3, [sp, #36]
 211 0048 03F00703 		and	r3, r3, #7
 212 004c 9B00     		lsls	r3, r3, #2
 213 004e 089A     		ldr	r2, [sp, #32]
 214 0050 02FA03F3 		lsl	r3, r2, r3
 215 0054 0793     		str	r3, [sp, #28]
 216              		.loc 1 191 0
 217 0056 099B     		ldr	r3, [sp, #36]
 218 0058 03F00703 		and	r3, r3, #7
 219 005c 9B00     		lsls	r3, r3, #2
 220 005e 0F22     		movs	r2, #15
 221 0060 02FA03F3 		lsl	r3, r2, r3
 222 0064 0693     		str	r3, [sp, #24]
 223              		.loc 1 192 0
 224 0066 099B     		ldr	r3, [sp, #36]
ARM GAS  /tmp/cciRX5od.s 			page 5


 225 0068 072B     		cmp	r3, #7
 226 006a 09D8     		bhi	.L7
 227              		.loc 1 193 0
 228 006c 039B     		ldr	r3, [sp, #12]
 229 006e 1A6A     		ldr	r2, [r3, #32]
 230 0070 069B     		ldr	r3, [sp, #24]
 231 0072 DB43     		mvns	r3, r3
 232 0074 1A40     		ands	r2, r2, r3
 233 0076 079B     		ldr	r3, [sp, #28]
 234 0078 1A43     		orrs	r2, r2, r3
 235 007a 039B     		ldr	r3, [sp, #12]
 236 007c 1A62     		str	r2, [r3, #32]
 237 007e 08E0     		b	.L8
 238              	.L7:
 239              		.loc 1 195 0
 240 0080 039B     		ldr	r3, [sp, #12]
 241 0082 5A6A     		ldr	r2, [r3, #36]
 242 0084 069B     		ldr	r3, [sp, #24]
 243 0086 DB43     		mvns	r3, r3
 244 0088 1A40     		ands	r2, r2, r3
 245 008a 079B     		ldr	r3, [sp, #28]
 246 008c 1A43     		orrs	r2, r2, r3
 247 008e 039B     		ldr	r3, [sp, #12]
 248 0090 5A62     		str	r2, [r3, #36]
 249              	.L8:
 250              		.loc 1 196 0
 251 0092 099B     		ldr	r3, [sp, #36]
 252 0094 0122     		movs	r2, #1
 253 0096 02FA03F3 		lsl	r3, r2, r3
 254 009a 0593     		str	r3, [sp, #20]
 255              		.loc 1 197 0
 256 009c 039B     		ldr	r3, [sp, #12]
 257 009e 5A68     		ldr	r2, [r3, #4]
 258 00a0 059B     		ldr	r3, [sp, #20]
 259 00a2 DB43     		mvns	r3, r3
 260 00a4 1A40     		ands	r2, r2, r3
 261 00a6 0C9B     		ldr	r3, [sp, #48]
 262 00a8 1A43     		orrs	r2, r2, r3
 263 00aa 039B     		ldr	r3, [sp, #12]
 264 00ac 5A60     		str	r2, [r3, #4]
 265              		.loc 1 198 0
 266 00ae 099B     		ldr	r3, [sp, #36]
 267 00b0 5B00     		lsls	r3, r3, #1
 268 00b2 0322     		movs	r2, #3
 269 00b4 02FA03F3 		lsl	r3, r2, r3
 270 00b8 0493     		str	r3, [sp, #16]
 271              		.loc 1 199 0
 272 00ba 039B     		ldr	r3, [sp, #12]
 273 00bc 9A68     		ldr	r2, [r3, #8]
 274 00be 049B     		ldr	r3, [sp, #16]
 275 00c0 DB43     		mvns	r3, r3
 276 00c2 1A40     		ands	r2, r2, r3
 277 00c4 0B9B     		ldr	r3, [sp, #44]
 278 00c6 1A43     		orrs	r2, r2, r3
 279 00c8 039B     		ldr	r3, [sp, #12]
 280 00ca 9A60     		str	r2, [r3, #8]
 281              		.loc 1 200 0
ARM GAS  /tmp/cciRX5od.s 			page 6


 282 00cc 039B     		ldr	r3, [sp, #12]
 283 00ce DA68     		ldr	r2, [r3, #12]
 284 00d0 049B     		ldr	r3, [sp, #16]
 285 00d2 DB43     		mvns	r3, r3
 286 00d4 1A40     		ands	r2, r2, r3
 287 00d6 0A9B     		ldr	r3, [sp, #40]
 288 00d8 1A43     		orrs	r2, r2, r3
 289 00da 039B     		ldr	r3, [sp, #12]
 290 00dc DA60     		str	r2, [r3, #12]
 291              		.loc 1 201 0
 292 00de 039B     		ldr	r3, [sp, #12]
 293 00e0 1A68     		ldr	r2, [r3]
 294 00e2 049B     		ldr	r3, [sp, #16]
 295 00e4 DB43     		mvns	r3, r3
 296 00e6 1A40     		ands	r2, r2, r3
 297 00e8 0D9B     		ldr	r3, [sp, #52]
 298 00ea 1A43     		orrs	r2, r2, r3
 299 00ec 039B     		ldr	r3, [sp, #12]
 300 00ee 1A60     		str	r2, [r3]
 301              	.L6:
 302              	.LBE2:
 303              		.loc 1 203 0
 304 00f0 029B     		ldr	r3, [sp, #8]
 305 00f2 5B08     		lsrs	r3, r3, #1
 306 00f4 0293     		str	r3, [sp, #8]
 307              		.loc 1 204 0
 308 00f6 029B     		ldr	r3, [sp, #8]
 309 00f8 002B     		cmp	r3, #0
 310 00fa 00D1     		bne	.L9
 311              		.loc 1 205 0
 312 00fc 0FE0     		b	.L12
 313              	.L9:
 314              		.loc 1 206 0
 315 00fe 0C9B     		ldr	r3, [sp, #48]
 316 0100 5B00     		lsls	r3, r3, #1
 317 0102 0C93     		str	r3, [sp, #48]
 318              		.loc 1 207 0
 319 0104 0B9B     		ldr	r3, [sp, #44]
 320 0106 9B00     		lsls	r3, r3, #2
 321 0108 0B93     		str	r3, [sp, #44]
 322              		.loc 1 208 0
 323 010a 0A9B     		ldr	r3, [sp, #40]
 324 010c 9B00     		lsls	r3, r3, #2
 325 010e 0A93     		str	r3, [sp, #40]
 326              		.loc 1 209 0
 327 0110 0D9B     		ldr	r3, [sp, #52]
 328 0112 9B00     		lsls	r3, r3, #2
 329 0114 0D93     		str	r3, [sp, #52]
 330              		.loc 1 210 0
 331 0116 099B     		ldr	r3, [sp, #36]
 332 0118 0133     		adds	r3, r3, #1
 333 011a 0993     		str	r3, [sp, #36]
 334              		.loc 1 211 0
 335 011c 8EE7     		b	.L11
 336              	.L12:
 337              		.loc 1 212 0
 338 011e 0EB0     		add	sp, sp, #56
ARM GAS  /tmp/cciRX5od.s 			page 7


 339              		@ sp needed
 340 0120 7047     		bx	lr
 341              		.cfi_endproc
 342              	.LFE120:
 343              		.size	_pal_lld_setgroupmode, .-_pal_lld_setgroupmode
 344 0122 00BFAFF3 		.text
 344      0080AFF3 
 344      0080AFF3 
 344      0080
 345              	.Letext0:
 346              		.file 2 "/usr/include/newlib/machine/_default_types.h"
 347              		.file 3 "/usr/include/newlib/stdint.h"
 348              		.file 4 "/home/dave/r2p-sdk/core/ChibiOS/os/hal/platforms/STM32F30x/stm32f30x.h"
 349              		.file 5 "/home/dave/r2p-sdk/core/ChibiOS/os/hal/platforms/STM32/GPIOv2/pal_lld.h"
 350              		.file 6 "/home/dave/r2p-sdk/core/ChibiOS/os/ports/common/ARMCMx/CMSIS/include/core_cm4.h"