ARM GAS  /tmp/cchiKlBg.s 			page 1


   1              		.syntax unified
   2              		.cpu cortex-m4
   3              		.eabi_attribute 27, 3
   4              		.eabi_attribute 28, 1
   5              		.fpu fpv4-sp-d16
   6              		.eabi_attribute 20, 1
   7              		.eabi_attribute 21, 1
   8              		.eabi_attribute 23, 3
   9              		.eabi_attribute 24, 1
  10              		.eabi_attribute 25, 1
  11              		.eabi_attribute 26, 1
  12              		.eabi_attribute 30, 6
  13              		.eabi_attribute 34, 1
  14              		.eabi_attribute 18, 4
  15              		.thumb
  16              		.file	"SimplePool_.cpp"
  17              		.text
  18              	.Ltext0:
  19              		.cfi_sections	.debug_frame
  20              		.section	.text._ZN3r2p10UncopyableC2Ev,"axG",%progbits,_ZN3r2p10UncopyableC5Ev,comdat
  21              		.align	2
  22              		.p2align 4,,15
  23              		.weak	_ZN3r2p10UncopyableC2Ev
  24              		.thumb
  25              		.thumb_func
  26              		.type	_ZN3r2p10UncopyableC2Ev, %function
  27              	_ZN3r2p10UncopyableC2Ev:
  28              	.LFB6:
  29              		.file 1 "/home/dave/r2p-sdk/core/Middleware/include/r2p/Uncopyable.hpp"
  30              		.loc 1 20 0
  31              		.cfi_startproc
  32              		@ args = 0, pretend = 0, frame = 8
  33              		@ frame_needed = 0, uses_anonymous_args = 0
  34              		@ link register save eliminated.
  35 0000 82B0     		sub	sp, sp, #8
  36              		.cfi_def_cfa_offset 8
  37 0002 0190     		str	r0, [sp, #4]
  38              		.loc 1 20 0
  39 0004 019B     		ldr	r3, [sp, #4]
  40 0006 1846     		mov	r0, r3
  41 0008 02B0     		add	sp, sp, #8
  42              		@ sp needed
  43 000a 7047     		bx	lr
  44              		.cfi_endproc
  45              	.LFE6:
  46              		.size	_ZN3r2p10UncopyableC2Ev, .-_ZN3r2p10UncopyableC2Ev
  47              		.weak	_ZN3r2p10UncopyableC1Ev
  48              		.thumb_set _ZN3r2p10UncopyableC1Ev,_ZN3r2p10UncopyableC2Ev
  49 000c AFF30080 		.section	.text._ZN3r2p8SysLock_7acquireEv,"axG",%progbits,_ZN3r2p8SysLock_7acquireEv,comdat
  50              		.align	2
  51              		.p2align 4,,15
  52              		.weak	_ZN3r2p8SysLock_7acquireEv
  53              		.thumb
  54              		.thumb_func
  55              		.type	_ZN3r2p8SysLock_7acquireEv, %function
  56              	_ZN3r2p8SysLock_7acquireEv:
  57              	.LFB18:
ARM GAS  /tmp/cchiKlBg.s 			page 2


  58              		.file 2 "/home/dave/r2p-sdk/core/Middleware/port/chibios/include/r2p/impl/SysLock_.hpp"
  59              		.loc 2 20 0
  60              		.cfi_startproc
  61              		@ args = 0, pretend = 0, frame = 0
  62              		@ frame_needed = 0, uses_anonymous_args = 0
  63 0000 08B5     		push	{r3, lr}
  64              		.cfi_def_cfa_offset 8
  65              		.cfi_offset 3, -8
  66              		.cfi_offset 14, -4
  67              	.LBB2:
  68              	.LBB3:
  69              	.LBB4:
  70              		.loc 2 22 0
  71 0002 2023     		movs	r3, #32
  72              	@ 22 "/home/dave/r2p-sdk/core/Middleware/port/chibios/include/r2p/impl/SysLock_.hpp" 1
  73 0004 83F31188 		msr     BASEPRI, r3
  74              	@ 0 "" 2
  75              		.thumb
  76              	.LBE4:
  77 0008 FFF7FEFF 		bl	dbg_check_lock
  78              	.LBE3:
  79              	.LBE2:
  80              		.loc 2 23 0
  81 000c 08BD     		pop	{r3, pc}
  82              		.cfi_endproc
  83              	.LFE18:
  84              		.size	_ZN3r2p8SysLock_7acquireEv, .-_ZN3r2p8SysLock_7acquireEv
  85 000e 00BF     		.section	.text._ZN3r2p8SysLock_7releaseEv,"axG",%progbits,_ZN3r2p8SysLock_7releaseEv,comdat
  86              		.align	2
  87              		.p2align 4,,15
  88              		.weak	_ZN3r2p8SysLock_7releaseEv
  89              		.thumb
  90              		.thumb_func
  91              		.type	_ZN3r2p8SysLock_7releaseEv, %function
  92              	_ZN3r2p8SysLock_7releaseEv:
  93              	.LFB19:
  94              		.loc 2 27 0
  95              		.cfi_startproc
  96              		@ args = 0, pretend = 0, frame = 0
  97              		@ frame_needed = 0, uses_anonymous_args = 0
  98 0000 08B5     		push	{r3, lr}
  99              		.cfi_def_cfa_offset 8
 100              		.cfi_offset 3, -8
 101              		.cfi_offset 14, -4
 102              	.LBB5:
 103              	.LBB6:
 104              		.loc 2 29 0
 105 0002 FFF7FEFF 		bl	dbg_check_unlock
 106              	.LBB7:
 107 0006 0023     		movs	r3, #0
 108              	@ 29 "/home/dave/r2p-sdk/core/Middleware/port/chibios/include/r2p/impl/SysLock_.hpp" 1
 109 0008 83F31188 		msr     BASEPRI, r3
 110              	@ 0 "" 2
 111              		.thumb
 112              	.LBE7:
 113              	.LBE6:
 114              	.LBE5:
ARM GAS  /tmp/cchiKlBg.s 			page 3


 115              		.loc 2 30 0
 116 000c 08BD     		pop	{r3, pc}
 117              		.cfi_endproc
 118              	.LFE19:
 119              		.size	_ZN3r2p8SysLock_7releaseEv, .-_ZN3r2p8SysLock_7releaseEv
 120 000e 00BF     		.section	.text._ZN3r2p7SysLock7acquireEv,"axG",%progbits,_ZN3r2p7SysLock7acquireEv,comdat
 121              		.align	2
 122              		.p2align 4,,15
 123              		.weak	_ZN3r2p7SysLock7acquireEv
 124              		.thumb
 125              		.thumb_func
 126              		.type	_ZN3r2p7SysLock7acquireEv, %function
 127              	_ZN3r2p7SysLock7acquireEv:
 128              	.LFB26:
 129              		.file 3 "/home/dave/r2p-sdk/core/Middleware/include/r2p/SysLock.hpp"
 130              		.loc 3 27 0
 131              		.cfi_startproc
 132              		@ args = 0, pretend = 0, frame = 0
 133              		@ frame_needed = 0, uses_anonymous_args = 0
 134 0000 08B5     		push	{r3, lr}
 135              		.cfi_def_cfa_offset 8
 136              		.cfi_offset 3, -8
 137              		.cfi_offset 14, -4
 138              		.loc 3 29 0
 139 0002 FFF7FEFF 		bl	_ZN3r2p8SysLock_7acquireEv
 140              		.loc 3 30 0
 141 0006 08BD     		pop	{r3, pc}
 142              		.cfi_endproc
 143              	.LFE26:
 144              		.size	_ZN3r2p7SysLock7acquireEv, .-_ZN3r2p7SysLock7acquireEv
 145 0008 AFF30080 		.section	.text._ZN3r2p7SysLock7releaseEv,"axG",%progbits,_ZN3r2p7SysLock7releaseEv,comdat
 145      AFF30080 
 146              		.align	2
 147              		.p2align 4,,15
 148              		.weak	_ZN3r2p7SysLock7releaseEv
 149              		.thumb
 150              		.thumb_func
 151              		.type	_ZN3r2p7SysLock7releaseEv, %function
 152              	_ZN3r2p7SysLock7releaseEv:
 153              	.LFB27:
 154              		.loc 3 34 0
 155              		.cfi_startproc
 156              		@ args = 0, pretend = 0, frame = 0
 157              		@ frame_needed = 0, uses_anonymous_args = 0
 158 0000 08B5     		push	{r3, lr}
 159              		.cfi_def_cfa_offset 8
 160              		.cfi_offset 3, -8
 161              		.cfi_offset 14, -4
 162              		.loc 3 36 0
 163 0002 FFF7FEFF 		bl	_ZN3r2p8SysLock_7releaseEv
 164              		.loc 3 37 0
 165 0006 08BD     		pop	{r3, pc}
 166              		.cfi_endproc
 167              	.LFE27:
 168              		.size	_ZN3r2p7SysLock7releaseEv, .-_ZN3r2p7SysLock7releaseEv
 169 0008 AFF30080 		.section	.text._ZN3r2p11SimplePool_12alloc_unsafeEv,"ax",%progbits
 169      AFF30080 
ARM GAS  /tmp/cchiKlBg.s 			page 4


 170              		.align	2
 171              		.p2align 4,,15
 172              		.global	_ZN3r2p11SimplePool_12alloc_unsafeEv
 173              		.thumb
 174              		.thumb_func
 175              		.type	_ZN3r2p11SimplePool_12alloc_unsafeEv, %function
 176              	_ZN3r2p11SimplePool_12alloc_unsafeEv:
 177              	.LFB36:
 178              		.file 4 "/home/dave/r2p-sdk/core/Middleware/src/impl/SimplePool_.cpp"
 179              		.loc 4 7 0
 180              		.cfi_startproc
 181              		@ args = 0, pretend = 0, frame = 16
 182              		@ frame_needed = 0, uses_anonymous_args = 0
 183              		@ link register save eliminated.
 184 0000 84B0     		sub	sp, sp, #16
 185              		.cfi_def_cfa_offset 16
 186 0002 0190     		str	r0, [sp, #4]
 187              	.LBB8:
 188              	.LBB9:
 189              		.loc 4 9 0
 190 0004 019B     		ldr	r3, [sp, #4]
 191 0006 1B68     		ldr	r3, [r3]
 192 0008 002B     		cmp	r3, #0
 193 000a 09D0     		beq	.L9
 194              	.LBB10:
 195              		.loc 4 10 0
 196 000c 019B     		ldr	r3, [sp, #4]
 197 000e 1B68     		ldr	r3, [r3]
 198 0010 0393     		str	r3, [sp, #12]
 199              		.loc 4 11 0
 200 0012 019B     		ldr	r3, [sp, #4]
 201 0014 1B68     		ldr	r3, [r3]
 202 0016 1A68     		ldr	r2, [r3]
 203 0018 019B     		ldr	r3, [sp, #4]
 204 001a 1A60     		str	r2, [r3]
 205              		.loc 4 12 0
 206 001c 039B     		ldr	r3, [sp, #12]
 207 001e 00E0     		b	.L10
 208              	.L9:
 209              	.LBE10:
 210              	.LBE9:
 211              		.loc 4 14 0
 212 0020 0023     		movs	r3, #0
 213              	.L10:
 214              	.LBE8:
 215              		.loc 4 15 0
 216 0022 1846     		mov	r0, r3
 217 0024 04B0     		add	sp, sp, #16
 218              		@ sp needed
 219 0026 7047     		bx	lr
 220              		.cfi_endproc
 221              	.LFE36:
 222              		.size	_ZN3r2p11SimplePool_12alloc_unsafeEv, .-_ZN3r2p11SimplePool_12alloc_unsafeEv
 223 0028 AFF30080 		.section	.text._ZN3r2p11SimplePool_11free_unsafeEPv,"ax",%progbits
 223      AFF30080 
 224              		.align	2
 225              		.p2align 4,,15
ARM GAS  /tmp/cchiKlBg.s 			page 5


 226              		.global	_ZN3r2p11SimplePool_11free_unsafeEPv
 227              		.thumb
 228              		.thumb_func
 229              		.type	_ZN3r2p11SimplePool_11free_unsafeEPv, %function
 230              	_ZN3r2p11SimplePool_11free_unsafeEPv:
 231              	.LFB37:
 232              		.loc 4 18 0
 233              		.cfi_startproc
 234              		@ args = 0, pretend = 0, frame = 8
 235              		@ frame_needed = 0, uses_anonymous_args = 0
 236              		@ link register save eliminated.
 237 0000 82B0     		sub	sp, sp, #8
 238              		.cfi_def_cfa_offset 8
 239 0002 0190     		str	r0, [sp, #4]
 240 0004 0091     		str	r1, [sp]
 241              		.loc 4 20 0
 242 0006 009B     		ldr	r3, [sp]
 243 0008 002B     		cmp	r3, #0
 244 000a 06D0     		beq	.L11
 245              		.loc 4 21 0
 246 000c 019B     		ldr	r3, [sp, #4]
 247 000e 1A68     		ldr	r2, [r3]
 248 0010 009B     		ldr	r3, [sp]
 249 0012 1A60     		str	r2, [r3]
 250              		.loc 4 22 0
 251 0014 019B     		ldr	r3, [sp, #4]
 252 0016 009A     		ldr	r2, [sp]
 253 0018 1A60     		str	r2, [r3]
 254              	.L11:
 255              		.loc 4 24 0
 256 001a 02B0     		add	sp, sp, #8
 257              		@ sp needed
 258 001c 7047     		bx	lr
 259              		.cfi_endproc
 260              	.LFE37:
 261              		.size	_ZN3r2p11SimplePool_11free_unsafeEPv, .-_ZN3r2p11SimplePool_11free_unsafeEPv
 262 001e 00BF     		.section	.text._ZN3r2p11SimplePool_5allocEv,"ax",%progbits
 263              		.align	2
 264              		.p2align 4,,15
 265              		.global	_ZN3r2p11SimplePool_5allocEv
 266              		.thumb
 267              		.thumb_func
 268              		.type	_ZN3r2p11SimplePool_5allocEv, %function
 269              	_ZN3r2p11SimplePool_5allocEv:
 270              	.LFB38:
 271              		.loc 4 27 0
 272              		.cfi_startproc
 273              		@ args = 0, pretend = 0, frame = 16
 274              		@ frame_needed = 0, uses_anonymous_args = 0
 275 0000 00B5     		push	{lr}
 276              		.cfi_def_cfa_offset 4
 277              		.cfi_offset 14, -4
 278 0002 85B0     		sub	sp, sp, #20
 279              		.cfi_def_cfa_offset 24
 280 0004 0190     		str	r0, [sp, #4]
 281              	.LBB11:
 282              		.loc 4 29 0
ARM GAS  /tmp/cchiKlBg.s 			page 6


 283 0006 FFF7FEFF 		bl	_ZN3r2p7SysLock7acquireEv
 284              	.LBB12:
 285              		.loc 4 30 0
 286 000a 019B     		ldr	r3, [sp, #4]
 287 000c 1B68     		ldr	r3, [r3]
 288 000e 002B     		cmp	r3, #0
 289 0010 0BD0     		beq	.L14
 290              	.LBB13:
 291              		.loc 4 31 0
 292 0012 019B     		ldr	r3, [sp, #4]
 293 0014 1B68     		ldr	r3, [r3]
 294 0016 0393     		str	r3, [sp, #12]
 295              		.loc 4 32 0
 296 0018 019B     		ldr	r3, [sp, #4]
 297 001a 1B68     		ldr	r3, [r3]
 298 001c 1A68     		ldr	r2, [r3]
 299 001e 019B     		ldr	r3, [sp, #4]
 300 0020 1A60     		str	r2, [r3]
 301              		.loc 4 33 0
 302 0022 FFF7FEFF 		bl	_ZN3r2p7SysLock7releaseEv
 303              		.loc 4 34 0
 304 0026 039B     		ldr	r3, [sp, #12]
 305 0028 02E0     		b	.L15
 306              	.L14:
 307              	.LBE13:
 308              		.loc 4 36 0
 309 002a FFF7FEFF 		bl	_ZN3r2p7SysLock7releaseEv
 310              		.loc 4 37 0
 311 002e 0023     		movs	r3, #0
 312              	.L15:
 313              	.LBE12:
 314              	.LBE11:
 315              		.loc 4 39 0
 316 0030 1846     		mov	r0, r3
 317 0032 05B0     		add	sp, sp, #20
 318              		@ sp needed
 319 0034 5DF804FB 		ldr	pc, [sp], #4
 320              		.cfi_endproc
 321              	.LFE38:
 322              		.size	_ZN3r2p11SimplePool_5allocEv, .-_ZN3r2p11SimplePool_5allocEv
 323 0038 AFF30080 		.section	.text._ZN3r2p11SimplePool_4freeEPv,"ax",%progbits
 323      AFF30080 
 324              		.align	2
 325              		.p2align 4,,15
 326              		.global	_ZN3r2p11SimplePool_4freeEPv
 327              		.thumb
 328              		.thumb_func
 329              		.type	_ZN3r2p11SimplePool_4freeEPv, %function
 330              	_ZN3r2p11SimplePool_4freeEPv:
 331              	.LFB39:
 332              		.loc 4 42 0
 333              		.cfi_startproc
 334              		@ args = 0, pretend = 0, frame = 8
 335              		@ frame_needed = 0, uses_anonymous_args = 0
 336 0000 00B5     		push	{lr}
 337              		.cfi_def_cfa_offset 4
 338              		.cfi_offset 14, -4
ARM GAS  /tmp/cchiKlBg.s 			page 7


 339 0002 83B0     		sub	sp, sp, #12
 340              		.cfi_def_cfa_offset 16
 341 0004 0190     		str	r0, [sp, #4]
 342 0006 0091     		str	r1, [sp]
 343              		.loc 4 44 0
 344 0008 009B     		ldr	r3, [sp]
 345 000a 002B     		cmp	r3, #0
 346 000c 0AD0     		beq	.L16
 347              		.loc 4 45 0
 348 000e FFF7FEFF 		bl	_ZN3r2p7SysLock7acquireEv
 349              		.loc 4 46 0
 350 0012 019B     		ldr	r3, [sp, #4]
 351 0014 1A68     		ldr	r2, [r3]
 352 0016 009B     		ldr	r3, [sp]
 353 0018 1A60     		str	r2, [r3]
 354              		.loc 4 47 0
 355 001a 019B     		ldr	r3, [sp, #4]
 356 001c 009A     		ldr	r2, [sp]
 357 001e 1A60     		str	r2, [r3]
 358              		.loc 4 48 0
 359 0020 FFF7FEFF 		bl	_ZN3r2p7SysLock7releaseEv
 360              	.L16:
 361              		.loc 4 50 0
 362 0024 03B0     		add	sp, sp, #12
 363              		@ sp needed
 364 0026 5DF804FB 		ldr	pc, [sp], #4
 365              		.cfi_endproc
 366              	.LFE39:
 367              		.size	_ZN3r2p11SimplePool_4freeEPv, .-_ZN3r2p11SimplePool_4freeEPv
 368 002a 00BFAFF3 		.section	.rodata
 368      0080
 369              		.align	2
 370              	.LC0:
 371 0000 5232505F 		.ascii	"R2P_ASSERT()\000"
 371      41535345 
 371      52542829 
 371      00
 372 000d 000000   		.section	.text._ZN3r2p11SimplePool_4growEPvjj,"ax",%progbits
 373              		.align	2
 374              		.p2align 4,,15
 375              		.global	_ZN3r2p11SimplePool_4growEPvjj
 376              		.thumb
 377              		.thumb_func
 378              		.type	_ZN3r2p11SimplePool_4growEPvjj, %function
 379              	_ZN3r2p11SimplePool_4growEPvjj:
 380              	.LFB40:
 381              		.loc 4 53 0
 382              		.cfi_startproc
 383              		@ args = 0, pretend = 0, frame = 24
 384              		@ frame_needed = 0, uses_anonymous_args = 0
 385 0000 00B5     		push	{lr}
 386              		.cfi_def_cfa_offset 4
 387              		.cfi_offset 14, -4
 388 0002 87B0     		sub	sp, sp, #28
 389              		.cfi_def_cfa_offset 32
 390 0004 0390     		str	r0, [sp, #12]
 391 0006 0291     		str	r1, [sp, #8]
ARM GAS  /tmp/cchiKlBg.s 			page 8


 392 0008 0192     		str	r2, [sp, #4]
 393 000a 0093     		str	r3, [sp]
 394              	.LBB14:
 395              		.loc 4 55 0
 396 000c 029B     		ldr	r3, [sp, #8]
 397 000e 002B     		cmp	r3, #0
 398 0010 02D1     		bne	.L19
 399              		.loc 4 55 0 is_stmt 0 discriminator 1
 400 0012 1348     		ldr	r0, .L24
 401 0014 FFF7FEFF 		bl	chDbgPanic
 402              	.L19:
 403              		.loc 4 56 0 is_stmt 1
 404 0018 019B     		ldr	r3, [sp, #4]
 405 001a 002B     		cmp	r3, #0
 406 001c 02D1     		bne	.L20
 407              		.loc 4 56 0 is_stmt 0 discriminator 1
 408 001e 1048     		ldr	r0, .L24
 409 0020 FFF7FEFF 		bl	chDbgPanic
 410              	.L20:
 411              		.loc 4 57 0 is_stmt 1
 412 0024 009B     		ldr	r3, [sp]
 413 0026 042B     		cmp	r3, #4
 414 0028 02D2     		bcs	.L21
 415              		.loc 4 57 0 is_stmt 0 discriminator 1
 416 002a 0D48     		ldr	r0, .L24
 417 002c FFF7FEFF 		bl	chDbgPanic
 418              	.L21:
 419              	.LBB15:
 420              		.loc 4 59 0 is_stmt 1
 421 0030 029B     		ldr	r3, [sp, #8]
 422 0032 0593     		str	r3, [sp, #20]
 423 0034 07E0     		b	.L22
 424              	.L23:
 425              		.loc 4 61 0 discriminator 2
 426 0036 0398     		ldr	r0, [sp, #12]
 427 0038 0599     		ldr	r1, [sp, #20]
 428 003a FFF7FEFF 		bl	_ZN3r2p11SimplePool_4freeEPv
 429              		.loc 4 59 0 discriminator 2
 430 003e 059A     		ldr	r2, [sp, #20]
 431 0040 009B     		ldr	r3, [sp]
 432 0042 1344     		add	r3, r3, r2
 433 0044 0593     		str	r3, [sp, #20]
 434              	.L22:
 435              		.loc 4 60 0 discriminator 1
 436 0046 019B     		ldr	r3, [sp, #4]
 437 0048 5A1E     		subs	r2, r3, #1
 438 004a 0192     		str	r2, [sp, #4]
 439              		.loc 4 59 0 discriminator 1
 440 004c 002B     		cmp	r3, #0
 441 004e 0CBF     		ite	eq
 442 0050 0023     		moveq	r3, #0
 443 0052 0123     		movne	r3, #1
 444 0054 DBB2     		uxtb	r3, r3
 445 0056 002B     		cmp	r3, #0
 446 0058 EDD1     		bne	.L23
 447              	.LBE15:
 448              	.LBE14:
ARM GAS  /tmp/cchiKlBg.s 			page 9


 449              		.loc 4 63 0
 450 005a 07B0     		add	sp, sp, #28
 451              		@ sp needed
 452 005c 5DF804FB 		ldr	pc, [sp], #4
 453              	.L25:
 454              		.align	2
 455              	.L24:
 456 0060 00000000 		.word	.LC0
 457              		.cfi_endproc
 458              	.LFE40:
 459              		.size	_ZN3r2p11SimplePool_4growEPvjj, .-_ZN3r2p11SimplePool_4growEPvjj
 460 0064 AFF30080 		.section	.text._ZN3r2p11SimplePool_C2Ev,"ax",%progbits
 460      AFF30080 
 460      AFF30080 
 461              		.align	2
 462              		.p2align 4,,15
 463              		.global	_ZN3r2p11SimplePool_C2Ev
 464              		.thumb
 465              		.thumb_func
 466              		.type	_ZN3r2p11SimplePool_C2Ev, %function
 467              	_ZN3r2p11SimplePool_C2Ev:
 468              	.LFB42:
 469              		.loc 4 66 0
 470              		.cfi_startproc
 471              		@ args = 0, pretend = 0, frame = 8
 472              		@ frame_needed = 0, uses_anonymous_args = 0
 473 0000 00B5     		push	{lr}
 474              		.cfi_def_cfa_offset 4
 475              		.cfi_offset 14, -4
 476 0002 83B0     		sub	sp, sp, #12
 477              		.cfi_def_cfa_offset 16
 478 0004 0190     		str	r0, [sp, #4]
 479              	.LBB16:
 480              		.loc 4 68 0
 481 0006 0198     		ldr	r0, [sp, #4]
 482 0008 FFF7FEFF 		bl	_ZN3r2p10UncopyableC2Ev
 483 000c 019B     		ldr	r3, [sp, #4]
 484 000e 0022     		movs	r2, #0
 485 0010 1A60     		str	r2, [r3]
 486              	.LBE16:
 487              		.loc 4 69 0
 488 0012 019B     		ldr	r3, [sp, #4]
 489 0014 1846     		mov	r0, r3
 490 0016 03B0     		add	sp, sp, #12
 491              		@ sp needed
 492 0018 5DF804FB 		ldr	pc, [sp], #4
 493              		.cfi_endproc
 494              	.LFE42:
 495              		.size	_ZN3r2p11SimplePool_C2Ev, .-_ZN3r2p11SimplePool_C2Ev
 496              		.global	_ZN3r2p11SimplePool_C1Ev
 497              		.thumb_set _ZN3r2p11SimplePool_C1Ev,_ZN3r2p11SimplePool_C2Ev
 498 001c AFF30080 		.section	.text._ZN3r2p11SimplePool_C2EPvjj,"ax",%progbits
 499              		.align	2
 500              		.p2align 4,,15
 501              		.global	_ZN3r2p11SimplePool_C2EPvjj
 502              		.thumb
 503              		.thumb_func
ARM GAS  /tmp/cchiKlBg.s 			page 10


 504              		.type	_ZN3r2p11SimplePool_C2EPvjj, %function
 505              	_ZN3r2p11SimplePool_C2EPvjj:
 506              	.LFB45:
 507              		.loc 4 72 0
 508              		.cfi_startproc
 509              		@ args = 0, pretend = 0, frame = 16
 510              		@ frame_needed = 0, uses_anonymous_args = 0
 511 0000 00B5     		push	{lr}
 512              		.cfi_def_cfa_offset 4
 513              		.cfi_offset 14, -4
 514 0002 85B0     		sub	sp, sp, #20
 515              		.cfi_def_cfa_offset 24
 516 0004 0390     		str	r0, [sp, #12]
 517 0006 0291     		str	r1, [sp, #8]
 518 0008 0192     		str	r2, [sp, #4]
 519 000a 0093     		str	r3, [sp]
 520              	.LBB17:
 521              		.loc 4 74 0
 522 000c 0398     		ldr	r0, [sp, #12]
 523 000e FFF7FEFF 		bl	_ZN3r2p10UncopyableC2Ev
 524 0012 039B     		ldr	r3, [sp, #12]
 525 0014 0022     		movs	r2, #0
 526 0016 1A60     		str	r2, [r3]
 527              		.loc 4 76 0
 528 0018 0398     		ldr	r0, [sp, #12]
 529 001a 0299     		ldr	r1, [sp, #8]
 530 001c 019A     		ldr	r2, [sp, #4]
 531 001e 009B     		ldr	r3, [sp]
 532 0020 FFF7FEFF 		bl	_ZN3r2p11SimplePool_4growEPvjj
 533              	.LBE17:
 534              		.loc 4 77 0
 535 0024 039B     		ldr	r3, [sp, #12]
 536 0026 1846     		mov	r0, r3
 537 0028 05B0     		add	sp, sp, #20
 538              		@ sp needed
 539 002a 5DF804FB 		ldr	pc, [sp], #4
 540              		.cfi_endproc
 541              	.LFE45:
 542              		.size	_ZN3r2p11SimplePool_C2EPvjj, .-_ZN3r2p11SimplePool_C2EPvjj
 543              		.global	_ZN3r2p11SimplePool_C1EPvjj
 544              		.thumb_set _ZN3r2p11SimplePool_C1EPvjj,_ZN3r2p11SimplePool_C2EPvjj
 545 002e 00BF     		.text
 546              	.Letext0:
 547              		.file 5 "/usr/lib/gcc/arm-none-eabi/4.8/include/stddef.h"
 548              		.file 6 "/usr/include/newlib/machine/_default_types.h"
 549              		.file 7 "/usr/include/newlib/c++/4.8/cstring"
 550              		.file 8 "/usr/include/newlib/string.h"
 551              		.file 9 "<built-in>"
 552              		.file 10 "/home/dave/r2p-sdk/core/Middleware/include/r2p/impl/SimplePool_.hpp"
 553              		.file 11 "/usr/include/newlib/stdint.h"