ARM GAS  /tmp/ccXQ6d7R.s 			page 1


   1              		.syntax unified
   2              		.cpu cortex-m4
   3              		.eabi_attribute 27, 3
   4              		.eabi_attribute 28, 1
   5              		.fpu fpv4-sp-d16
   6              		.eabi_attribute 20, 1
   7              		.eabi_attribute 21, 1
   8              		.eabi_attribute 23, 3
   9              		.eabi_attribute 24, 1
  10              		.eabi_attribute 25, 1
  11              		.eabi_attribute 26, 1
  12              		.eabi_attribute 30, 6
  13              		.eabi_attribute 34, 1
  14              		.eabi_attribute 18, 4
  15              		.thumb
  16              		.file	"spi.c"
  17              		.text
  18              	.Ltext0:
  19              		.cfi_sections	.debug_frame
  20              		.section	.text.spiInit,"ax",%progbits
  21              		.align	2
  22              		.p2align 4,,15
  23              		.global	spiInit
  24              		.thumb
  25              		.thumb_func
  26              		.type	spiInit, %function
  27              	spiInit:
  28              	.LFB118:
  29              		.file 1 "/home/dave/r2p-sdk/core/ChibiOS/os/hal/src/spi.c"
  30              		.loc 1 68 0
  31              		.cfi_startproc
  32              		@ args = 0, pretend = 0, frame = 0
  33              		@ frame_needed = 0, uses_anonymous_args = 0
  34 0000 08B5     		push	{r3, lr}
  35              		.cfi_def_cfa_offset 8
  36              		.cfi_offset 3, -8
  37              		.cfi_offset 14, -4
  38              		.loc 1 70 0
  39 0002 FFF7FEFF 		bl	spi_lld_init
  40              		.loc 1 71 0
  41 0006 08BD     		pop	{r3, pc}
  42              		.cfi_endproc
  43              	.LFE118:
  44              		.size	spiInit, .-spiInit
  45 0008 AFF30080 		.section	.text.spiObjectInit,"ax",%progbits
  45      AFF30080 
  46              		.align	2
  47              		.p2align 4,,15
  48              		.global	spiObjectInit
  49              		.thumb
  50              		.thumb_func
  51              		.type	spiObjectInit, %function
  52              	spiObjectInit:
  53              	.LFB119:
  54              		.loc 1 80 0
  55              		.cfi_startproc
  56              		@ args = 0, pretend = 0, frame = 8
ARM GAS  /tmp/ccXQ6d7R.s 			page 2


  57              		@ frame_needed = 0, uses_anonymous_args = 0
  58 0000 00B5     		push	{lr}
  59              		.cfi_def_cfa_offset 4
  60              		.cfi_offset 14, -4
  61 0002 83B0     		sub	sp, sp, #12
  62              		.cfi_def_cfa_offset 16
  63 0004 0190     		str	r0, [sp, #4]
  64              		.loc 1 82 0
  65 0006 019B     		ldr	r3, [sp, #4]
  66 0008 0122     		movs	r2, #1
  67 000a 1A70     		strb	r2, [r3]
  68              		.loc 1 83 0
  69 000c 019B     		ldr	r3, [sp, #4]
  70 000e 0022     		movs	r2, #0
  71 0010 5A60     		str	r2, [r3, #4]
  72              		.loc 1 85 0
  73 0012 019B     		ldr	r3, [sp, #4]
  74 0014 0022     		movs	r2, #0
  75 0016 9A60     		str	r2, [r3, #8]
  76              		.loc 1 89 0
  77 0018 019B     		ldr	r3, [sp, #4]
  78 001a 0C33     		adds	r3, r3, #12
  79 001c 1846     		mov	r0, r3
  80 001e FFF7FEFF 		bl	chMtxInit
  81              		.loc 1 97 0
  82 0022 03B0     		add	sp, sp, #12
  83              		@ sp needed
  84 0024 5DF804FB 		ldr	pc, [sp], #4
  85              		.cfi_endproc
  86              	.LFE119:
  87              		.size	spiObjectInit, .-spiObjectInit
  88 0028 AFF30080 		.section	.rodata
  88      AFF30080 
  89              		.align	2
  90              	.LC0:
  91 0000 22737069 		.ascii	"\"spiStart\"()\000"
  91      53746172 
  91      74222829 
  91      00
  92 000d 000000   		.align	2
  93              	.LC1:
  94 0010 73706953 		.ascii	"spiStart(), #1\000"
  94      74617274 
  94      28292C20 
  94      233100
  95              		.section	.text.spiStart,"ax",%progbits
  96              		.align	2
  97              		.p2align 4,,15
  98              		.global	spiStart
  99              		.thumb
 100              		.thumb_func
 101              		.type	spiStart, %function
 102              	spiStart:
 103              	.LFB120:
 104              		.loc 1 107 0
 105              		.cfi_startproc
 106              		@ args = 0, pretend = 0, frame = 8
ARM GAS  /tmp/ccXQ6d7R.s 			page 3


 107              		@ frame_needed = 0, uses_anonymous_args = 0
 108 0000 00B5     		push	{lr}
 109              		.cfi_def_cfa_offset 4
 110              		.cfi_offset 14, -4
 111 0002 83B0     		sub	sp, sp, #12
 112              		.cfi_def_cfa_offset 16
 113 0004 0190     		str	r0, [sp, #4]
 114 0006 0091     		str	r1, [sp]
 115              		.loc 1 109 0
 116 0008 019B     		ldr	r3, [sp, #4]
 117 000a 002B     		cmp	r3, #0
 118 000c 02D0     		beq	.L4
 119              		.loc 1 109 0 is_stmt 0 discriminator 2
 120 000e 009B     		ldr	r3, [sp]
 121 0010 002B     		cmp	r3, #0
 122 0012 02D1     		bne	.L5
 123              	.L4:
 124              		.loc 1 109 0 discriminator 1
 125 0014 1148     		ldr	r0, .L7
 126 0016 FFF7FEFF 		bl	chDbgPanic
 127              	.L5:
 128              	.LBB2:
 129              		.loc 1 111 0 is_stmt 1
 130 001a 2023     		movs	r3, #32
 131              	@ 111 "/home/dave/r2p-sdk/core/ChibiOS/os/hal/src/spi.c" 1
 132 001c 83F31188 		msr     BASEPRI, r3
 133              	@ 0 "" 2
 134              		.thumb
 135              	.LBE2:
 136 0020 FFF7FEFF 		bl	dbg_check_lock
 137              		.loc 1 112 0
 138 0024 019B     		ldr	r3, [sp, #4]
 139 0026 1B78     		ldrb	r3, [r3]	@ zero_extendqisi2
 140 0028 012B     		cmp	r3, #1
 141 002a 06D0     		beq	.L6
 142              		.loc 1 112 0 is_stmt 0 discriminator 1
 143 002c 019B     		ldr	r3, [sp, #4]
 144 002e 1B78     		ldrb	r3, [r3]	@ zero_extendqisi2
 145 0030 022B     		cmp	r3, #2
 146 0032 02D0     		beq	.L6
 147 0034 0A48     		ldr	r0, .L7+4
 148 0036 FFF7FEFF 		bl	chDbgPanic
 149              	.L6:
 150              		.loc 1 114 0 is_stmt 1
 151 003a 019B     		ldr	r3, [sp, #4]
 152 003c 009A     		ldr	r2, [sp]
 153 003e 5A60     		str	r2, [r3, #4]
 154              		.loc 1 115 0
 155 0040 0198     		ldr	r0, [sp, #4]
 156 0042 FFF7FEFF 		bl	spi_lld_start
 157              		.loc 1 116 0
 158 0046 019B     		ldr	r3, [sp, #4]
 159 0048 0222     		movs	r2, #2
 160 004a 1A70     		strb	r2, [r3]
 161              		.loc 1 117 0
 162 004c FFF7FEFF 		bl	dbg_check_unlock
 163              	.LBB3:
ARM GAS  /tmp/ccXQ6d7R.s 			page 4


 164 0050 0023     		movs	r3, #0
 165              	@ 117 "/home/dave/r2p-sdk/core/ChibiOS/os/hal/src/spi.c" 1
 166 0052 83F31188 		msr     BASEPRI, r3
 167              	@ 0 "" 2
 168              		.thumb
 169              	.LBE3:
 170              		.loc 1 118 0
 171 0056 03B0     		add	sp, sp, #12
 172              		@ sp needed
 173 0058 5DF804FB 		ldr	pc, [sp], #4
 174              	.L8:
 175              		.align	2
 176              	.L7:
 177 005c 00000000 		.word	.LC0
 178 0060 10000000 		.word	.LC1
 179              		.cfi_endproc
 180              	.LFE120:
 181              		.size	spiStart, .-spiStart
 182 0064 AFF30080 		.section	.rodata
 182      AFF30080 
 182      AFF30080 
 183 001f 00       		.align	2
 184              	.LC2:
 185 0020 22737069 		.ascii	"\"spiStop\"()\000"
 185      53746F70 
 185      22282900 
 186              		.align	2
 187              	.LC3:
 188 002c 73706953 		.ascii	"spiStop(), #1\000"
 188      746F7028 
 188      292C2023 
 188      3100
 189              		.section	.text.spiStop,"ax",%progbits
 190              		.align	2
 191              		.p2align 4,,15
 192              		.global	spiStop
 193              		.thumb
 194              		.thumb_func
 195              		.type	spiStop, %function
 196              	spiStop:
 197              	.LFB121:
 198              		.loc 1 129 0
 199              		.cfi_startproc
 200              		@ args = 0, pretend = 0, frame = 8
 201              		@ frame_needed = 0, uses_anonymous_args = 0
 202 0000 00B5     		push	{lr}
 203              		.cfi_def_cfa_offset 4
 204              		.cfi_offset 14, -4
 205 0002 83B0     		sub	sp, sp, #12
 206              		.cfi_def_cfa_offset 16
 207 0004 0190     		str	r0, [sp, #4]
 208              		.loc 1 131 0
 209 0006 019B     		ldr	r3, [sp, #4]
 210 0008 002B     		cmp	r3, #0
 211 000a 02D1     		bne	.L10
 212              		.loc 1 131 0 is_stmt 0 discriminator 1
 213 000c 1148     		ldr	r0, .L12
ARM GAS  /tmp/ccXQ6d7R.s 			page 5


 214 000e FFF7FEFF 		bl	chDbgPanic
 215              	.L10:
 216              	.LBB4:
 217              		.loc 1 133 0 is_stmt 1
 218 0012 2023     		movs	r3, #32
 219              	@ 133 "/home/dave/r2p-sdk/core/ChibiOS/os/hal/src/spi.c" 1
 220 0014 83F31188 		msr     BASEPRI, r3
 221              	@ 0 "" 2
 222              		.thumb
 223              	.LBE4:
 224 0018 FFF7FEFF 		bl	dbg_check_lock
 225              		.loc 1 134 0
 226 001c 019B     		ldr	r3, [sp, #4]
 227 001e 1B78     		ldrb	r3, [r3]	@ zero_extendqisi2
 228 0020 012B     		cmp	r3, #1
 229 0022 06D0     		beq	.L11
 230              		.loc 1 134 0 is_stmt 0 discriminator 1
 231 0024 019B     		ldr	r3, [sp, #4]
 232 0026 1B78     		ldrb	r3, [r3]	@ zero_extendqisi2
 233 0028 022B     		cmp	r3, #2
 234 002a 02D0     		beq	.L11
 235 002c 0A48     		ldr	r0, .L12+4
 236 002e FFF7FEFF 		bl	chDbgPanic
 237              	.L11:
 238              		.loc 1 136 0 is_stmt 1
 239 0032 0198     		ldr	r0, [sp, #4]
 240 0034 FFF7FEFF 		bl	spi_lld_unselect
 241              		.loc 1 137 0
 242 0038 0198     		ldr	r0, [sp, #4]
 243 003a FFF7FEFF 		bl	spi_lld_stop
 244              		.loc 1 138 0
 245 003e 019B     		ldr	r3, [sp, #4]
 246 0040 0122     		movs	r2, #1
 247 0042 1A70     		strb	r2, [r3]
 248              		.loc 1 139 0
 249 0044 FFF7FEFF 		bl	dbg_check_unlock
 250              	.LBB5:
 251 0048 0023     		movs	r3, #0
 252              	@ 139 "/home/dave/r2p-sdk/core/ChibiOS/os/hal/src/spi.c" 1
 253 004a 83F31188 		msr     BASEPRI, r3
 254              	@ 0 "" 2
 255              		.thumb
 256              	.LBE5:
 257              		.loc 1 140 0
 258 004e 03B0     		add	sp, sp, #12
 259              		@ sp needed
 260 0050 5DF804FB 		ldr	pc, [sp], #4
 261              	.L13:
 262              		.align	2
 263              	.L12:
 264 0054 20000000 		.word	.LC2
 265 0058 2C000000 		.word	.LC3
 266              		.cfi_endproc
 267              	.LFE121:
 268              		.size	spiStop, .-spiStop
 269 005c AFF30080 		.section	.rodata
 270 003a 0000     		.align	2
ARM GAS  /tmp/ccXQ6d7R.s 			page 6


 271              	.LC4:
 272 003c 22737069 		.ascii	"\"spiSelect\"()\000"
 272      53656C65 
 272      63742228 
 272      2900
 273 004a 0000     		.align	2
 274              	.LC5:
 275 004c 73706953 		.ascii	"spiSelect(), #1\000"
 275      656C6563 
 275      7428292C 
 275      20233100 
 276              		.section	.text.spiSelect,"ax",%progbits
 277              		.align	2
 278              		.p2align 4,,15
 279              		.global	spiSelect
 280              		.thumb
 281              		.thumb_func
 282              		.type	spiSelect, %function
 283              	spiSelect:
 284              	.LFB122:
 285              		.loc 1 149 0
 286              		.cfi_startproc
 287              		@ args = 0, pretend = 0, frame = 8
 288              		@ frame_needed = 0, uses_anonymous_args = 0
 289 0000 00B5     		push	{lr}
 290              		.cfi_def_cfa_offset 4
 291              		.cfi_offset 14, -4
 292 0002 83B0     		sub	sp, sp, #12
 293              		.cfi_def_cfa_offset 16
 294 0004 0190     		str	r0, [sp, #4]
 295              		.loc 1 151 0
 296 0006 019B     		ldr	r3, [sp, #4]
 297 0008 002B     		cmp	r3, #0
 298 000a 02D1     		bne	.L15
 299              		.loc 1 151 0 is_stmt 0 discriminator 1
 300 000c 0C48     		ldr	r0, .L17
 301 000e FFF7FEFF 		bl	chDbgPanic
 302              	.L15:
 303              	.LBB6:
 304              		.loc 1 153 0 is_stmt 1
 305 0012 2023     		movs	r3, #32
 306              	@ 153 "/home/dave/r2p-sdk/core/ChibiOS/os/hal/src/spi.c" 1
 307 0014 83F31188 		msr     BASEPRI, r3
 308              	@ 0 "" 2
 309              		.thumb
 310              	.LBE6:
 311 0018 FFF7FEFF 		bl	dbg_check_lock
 312              		.loc 1 154 0
 313 001c 019B     		ldr	r3, [sp, #4]
 314 001e 1B78     		ldrb	r3, [r3]	@ zero_extendqisi2
 315 0020 022B     		cmp	r3, #2
 316 0022 02D0     		beq	.L16
 317              		.loc 1 154 0 is_stmt 0 discriminator 1
 318 0024 0748     		ldr	r0, .L17+4
 319 0026 FFF7FEFF 		bl	chDbgPanic
 320              	.L16:
 321              		.loc 1 155 0 is_stmt 1
ARM GAS  /tmp/ccXQ6d7R.s 			page 7


 322 002a 0198     		ldr	r0, [sp, #4]
 323 002c FFF7FEFF 		bl	spi_lld_select
 324              		.loc 1 156 0
 325 0030 FFF7FEFF 		bl	dbg_check_unlock
 326              	.LBB7:
 327 0034 0023     		movs	r3, #0
 328              	@ 156 "/home/dave/r2p-sdk/core/ChibiOS/os/hal/src/spi.c" 1
 329 0036 83F31188 		msr     BASEPRI, r3
 330              	@ 0 "" 2
 331              		.thumb
 332              	.LBE7:
 333              		.loc 1 157 0
 334 003a 03B0     		add	sp, sp, #12
 335              		@ sp needed
 336 003c 5DF804FB 		ldr	pc, [sp], #4
 337              	.L18:
 338              		.align	2
 339              	.L17:
 340 0040 3C000000 		.word	.LC4
 341 0044 4C000000 		.word	.LC5
 342              		.cfi_endproc
 343              	.LFE122:
 344              		.size	spiSelect, .-spiSelect
 345 0048 AFF30080 		.section	.rodata
 345      AFF30080 
 346              		.align	2
 347              	.LC6:
 348 005c 22737069 		.ascii	"\"spiUnselect\"()\000"
 348      556E7365 
 348      6C656374 
 348      22282900 
 349              		.align	2
 350              	.LC7:
 351 006c 73706955 		.ascii	"spiUnselect(), #1\000"
 351      6E73656C 
 351      65637428 
 351      292C2023 
 351      3100
 352              		.section	.text.spiUnselect,"ax",%progbits
 353              		.align	2
 354              		.p2align 4,,15
 355              		.global	spiUnselect
 356              		.thumb
 357              		.thumb_func
 358              		.type	spiUnselect, %function
 359              	spiUnselect:
 360              	.LFB123:
 361              		.loc 1 167 0
 362              		.cfi_startproc
 363              		@ args = 0, pretend = 0, frame = 8
 364              		@ frame_needed = 0, uses_anonymous_args = 0
 365 0000 00B5     		push	{lr}
 366              		.cfi_def_cfa_offset 4
 367              		.cfi_offset 14, -4
 368 0002 83B0     		sub	sp, sp, #12
 369              		.cfi_def_cfa_offset 16
 370 0004 0190     		str	r0, [sp, #4]
ARM GAS  /tmp/ccXQ6d7R.s 			page 8


 371              		.loc 1 169 0
 372 0006 019B     		ldr	r3, [sp, #4]
 373 0008 002B     		cmp	r3, #0
 374 000a 02D1     		bne	.L20
 375              		.loc 1 169 0 is_stmt 0 discriminator 1
 376 000c 0C48     		ldr	r0, .L22
 377 000e FFF7FEFF 		bl	chDbgPanic
 378              	.L20:
 379              	.LBB8:
 380              		.loc 1 171 0 is_stmt 1
 381 0012 2023     		movs	r3, #32
 382              	@ 171 "/home/dave/r2p-sdk/core/ChibiOS/os/hal/src/spi.c" 1
 383 0014 83F31188 		msr     BASEPRI, r3
 384              	@ 0 "" 2
 385              		.thumb
 386              	.LBE8:
 387 0018 FFF7FEFF 		bl	dbg_check_lock
 388              		.loc 1 172 0
 389 001c 019B     		ldr	r3, [sp, #4]
 390 001e 1B78     		ldrb	r3, [r3]	@ zero_extendqisi2
 391 0020 022B     		cmp	r3, #2
 392 0022 02D0     		beq	.L21
 393              		.loc 1 172 0 is_stmt 0 discriminator 1
 394 0024 0748     		ldr	r0, .L22+4
 395 0026 FFF7FEFF 		bl	chDbgPanic
 396              	.L21:
 397              		.loc 1 173 0 is_stmt 1
 398 002a 0198     		ldr	r0, [sp, #4]
 399 002c FFF7FEFF 		bl	spi_lld_unselect
 400              		.loc 1 174 0
 401 0030 FFF7FEFF 		bl	dbg_check_unlock
 402              	.LBB9:
 403 0034 0023     		movs	r3, #0
 404              	@ 174 "/home/dave/r2p-sdk/core/ChibiOS/os/hal/src/spi.c" 1
 405 0036 83F31188 		msr     BASEPRI, r3
 406              	@ 0 "" 2
 407              		.thumb
 408              	.LBE9:
 409              		.loc 1 175 0
 410 003a 03B0     		add	sp, sp, #12
 411              		@ sp needed
 412 003c 5DF804FB 		ldr	pc, [sp], #4
 413              	.L23:
 414              		.align	2
 415              	.L22:
 416 0040 5C000000 		.word	.LC6
 417 0044 6C000000 		.word	.LC7
 418              		.cfi_endproc
 419              	.LFE123:
 420              		.size	spiUnselect, .-spiUnselect
 421 0048 AFF30080 		.section	.rodata
 421      AFF30080 
 422 007e 0000     		.align	2
 423              	.LC8:
 424 0080 22737069 		.ascii	"\"spiStartIgnore\"()\000"
 424      53746172 
 424      7449676E 
ARM GAS  /tmp/ccXQ6d7R.s 			page 9


 424      6F726522 
 424      282900
 425 0093 00       		.align	2
 426              	.LC9:
 427 0094 73706953 		.ascii	"spiStartIgnore(), #1\000"
 427      74617274 
 427      49676E6F 
 427      72652829 
 427      2C202331 
 428              		.section	.text.spiStartIgnore,"ax",%progbits
 429              		.align	2
 430              		.p2align 4,,15
 431              		.global	spiStartIgnore
 432              		.thumb
 433              		.thumb_func
 434              		.type	spiStartIgnore, %function
 435              	spiStartIgnore:
 436              	.LFB124:
 437              		.loc 1 190 0
 438              		.cfi_startproc
 439              		@ args = 0, pretend = 0, frame = 8
 440              		@ frame_needed = 0, uses_anonymous_args = 0
 441 0000 00B5     		push	{lr}
 442              		.cfi_def_cfa_offset 4
 443              		.cfi_offset 14, -4
 444 0002 83B0     		sub	sp, sp, #12
 445              		.cfi_def_cfa_offset 16
 446 0004 0190     		str	r0, [sp, #4]
 447 0006 0091     		str	r1, [sp]
 448              		.loc 1 192 0
 449 0008 019B     		ldr	r3, [sp, #4]
 450 000a 002B     		cmp	r3, #0
 451 000c 02D0     		beq	.L25
 452              		.loc 1 192 0 is_stmt 0 discriminator 2
 453 000e 009B     		ldr	r3, [sp]
 454 0010 002B     		cmp	r3, #0
 455 0012 02D1     		bne	.L26
 456              	.L25:
 457              		.loc 1 192 0 discriminator 1
 458 0014 0E48     		ldr	r0, .L28
 459 0016 FFF7FEFF 		bl	chDbgPanic
 460              	.L26:
 461              	.LBB10:
 462              		.loc 1 194 0 is_stmt 1
 463 001a 2023     		movs	r3, #32
 464              	@ 194 "/home/dave/r2p-sdk/core/ChibiOS/os/hal/src/spi.c" 1
 465 001c 83F31188 		msr     BASEPRI, r3
 466              	@ 0 "" 2
 467              		.thumb
 468              	.LBE10:
 469 0020 FFF7FEFF 		bl	dbg_check_lock
 470              		.loc 1 195 0
 471 0024 019B     		ldr	r3, [sp, #4]
 472 0026 1B78     		ldrb	r3, [r3]	@ zero_extendqisi2
 473 0028 022B     		cmp	r3, #2
 474 002a 02D0     		beq	.L27
 475              		.loc 1 195 0 is_stmt 0 discriminator 1
ARM GAS  /tmp/ccXQ6d7R.s 			page 10


 476 002c 0948     		ldr	r0, .L28+4
 477 002e FFF7FEFF 		bl	chDbgPanic
 478              	.L27:
 479              		.loc 1 196 0 is_stmt 1
 480 0032 019B     		ldr	r3, [sp, #4]
 481 0034 0322     		movs	r2, #3
 482 0036 1A70     		strb	r2, [r3]
 483 0038 0198     		ldr	r0, [sp, #4]
 484 003a 0099     		ldr	r1, [sp]
 485 003c FFF7FEFF 		bl	spi_lld_ignore
 486              		.loc 1 197 0
 487 0040 FFF7FEFF 		bl	dbg_check_unlock
 488              	.LBB11:
 489 0044 0023     		movs	r3, #0
 490              	@ 197 "/home/dave/r2p-sdk/core/ChibiOS/os/hal/src/spi.c" 1
 491 0046 83F31188 		msr     BASEPRI, r3
 492              	@ 0 "" 2
 493              		.thumb
 494              	.LBE11:
 495              		.loc 1 198 0
 496 004a 03B0     		add	sp, sp, #12
 497              		@ sp needed
 498 004c 5DF804FB 		ldr	pc, [sp], #4
 499              	.L29:
 500              		.align	2
 501              	.L28:
 502 0050 80000000 		.word	.LC8
 503 0054 94000000 		.word	.LC9
 504              		.cfi_endproc
 505              	.LFE124:
 506              		.size	spiStartIgnore, .-spiStartIgnore
 507 0058 AFF30080 		.section	.rodata
 507      AFF30080 
 508 00a9 000000   		.align	2
 509              	.LC10:
 510 00ac 22737069 		.ascii	"\"spiStartExchange\"()\000"
 510      53746172 
 510      74457863 
 510      68616E67 
 510      65222829 
 511 00c1 000000   		.align	2
 512              	.LC11:
 513 00c4 73706953 		.ascii	"spiStartExchange(), #1\000"
 513      74617274 
 513      45786368 
 513      616E6765 
 513      28292C20 
 514              		.section	.text.spiStartExchange,"ax",%progbits
 515              		.align	2
 516              		.p2align 4,,15
 517              		.global	spiStartExchange
 518              		.thumb
 519              		.thumb_func
 520              		.type	spiStartExchange, %function
 521              	spiStartExchange:
 522              	.LFB125:
 523              		.loc 1 218 0
ARM GAS  /tmp/ccXQ6d7R.s 			page 11


 524              		.cfi_startproc
 525              		@ args = 0, pretend = 0, frame = 16
 526              		@ frame_needed = 0, uses_anonymous_args = 0
 527 0000 00B5     		push	{lr}
 528              		.cfi_def_cfa_offset 4
 529              		.cfi_offset 14, -4
 530 0002 85B0     		sub	sp, sp, #20
 531              		.cfi_def_cfa_offset 24
 532 0004 0390     		str	r0, [sp, #12]
 533 0006 0291     		str	r1, [sp, #8]
 534 0008 0192     		str	r2, [sp, #4]
 535 000a 0093     		str	r3, [sp]
 536              		.loc 1 220 0
 537 000c 039B     		ldr	r3, [sp, #12]
 538 000e 002B     		cmp	r3, #0
 539 0010 08D0     		beq	.L31
 540              		.loc 1 220 0 is_stmt 0 discriminator 2
 541 0012 029B     		ldr	r3, [sp, #8]
 542 0014 002B     		cmp	r3, #0
 543 0016 05D0     		beq	.L31
 544              		.loc 1 220 0 discriminator 1
 545 0018 009B     		ldr	r3, [sp]
 546 001a 002B     		cmp	r3, #0
 547 001c 02D0     		beq	.L31
 548 001e 019B     		ldr	r3, [sp, #4]
 549 0020 002B     		cmp	r3, #0
 550 0022 02D1     		bne	.L32
 551              	.L31:
 552 0024 0F48     		ldr	r0, .L34
 553 0026 FFF7FEFF 		bl	chDbgPanic
 554              	.L32:
 555              	.LBB12:
 556              		.loc 1 223 0 is_stmt 1
 557 002a 2023     		movs	r3, #32
 558              	@ 223 "/home/dave/r2p-sdk/core/ChibiOS/os/hal/src/spi.c" 1
 559 002c 83F31188 		msr     BASEPRI, r3
 560              	@ 0 "" 2
 561              		.thumb
 562              	.LBE12:
 563 0030 FFF7FEFF 		bl	dbg_check_lock
 564              		.loc 1 224 0
 565 0034 039B     		ldr	r3, [sp, #12]
 566 0036 1B78     		ldrb	r3, [r3]	@ zero_extendqisi2
 567 0038 022B     		cmp	r3, #2
 568 003a 02D0     		beq	.L33
 569              		.loc 1 224 0 is_stmt 0 discriminator 1
 570 003c 0A48     		ldr	r0, .L34+4
 571 003e FFF7FEFF 		bl	chDbgPanic
 572              	.L33:
 573              		.loc 1 225 0 is_stmt 1
 574 0042 039B     		ldr	r3, [sp, #12]
 575 0044 0322     		movs	r2, #3
 576 0046 1A70     		strb	r2, [r3]
 577 0048 0398     		ldr	r0, [sp, #12]
 578 004a 0299     		ldr	r1, [sp, #8]
 579 004c 019A     		ldr	r2, [sp, #4]
 580 004e 009B     		ldr	r3, [sp]
ARM GAS  /tmp/ccXQ6d7R.s 			page 12


 581 0050 FFF7FEFF 		bl	spi_lld_exchange
 582              		.loc 1 226 0
 583 0054 FFF7FEFF 		bl	dbg_check_unlock
 584              	.LBB13:
 585 0058 0023     		movs	r3, #0
 586              	@ 226 "/home/dave/r2p-sdk/core/ChibiOS/os/hal/src/spi.c" 1
 587 005a 83F31188 		msr     BASEPRI, r3
 588              	@ 0 "" 2
 589              		.thumb
 590              	.LBE13:
 591              		.loc 1 227 0
 592 005e 05B0     		add	sp, sp, #20
 593              		@ sp needed
 594 0060 5DF804FB 		ldr	pc, [sp], #4
 595              	.L35:
 596              		.align	2
 597              	.L34:
 598 0064 AC000000 		.word	.LC10
 599 0068 C4000000 		.word	.LC11
 600              		.cfi_endproc
 601              	.LFE125:
 602              		.size	spiStartExchange, .-spiStartExchange
 603 006c AFF30080 		.section	.rodata
 604 00db 00       		.align	2
 605              	.LC12:
 606 00dc 22737069 		.ascii	"\"spiStartSend\"()\000"
 606      53746172 
 606      7453656E 
 606      64222829 
 606      00
 607 00ed 000000   		.align	2
 608              	.LC13:
 609 00f0 73706953 		.ascii	"spiStartSend(), #1\000"
 609      74617274 
 609      53656E64 
 609      28292C20 
 609      233100
 610              		.section	.text.spiStartSend,"ax",%progbits
 611              		.align	2
 612              		.p2align 4,,15
 613              		.global	spiStartSend
 614              		.thumb
 615              		.thumb_func
 616              		.type	spiStartSend, %function
 617              	spiStartSend:
 618              	.LFB126:
 619              		.loc 1 244 0
 620              		.cfi_startproc
 621              		@ args = 0, pretend = 0, frame = 16
 622              		@ frame_needed = 0, uses_anonymous_args = 0
 623 0000 00B5     		push	{lr}
 624              		.cfi_def_cfa_offset 4
 625              		.cfi_offset 14, -4
 626 0002 85B0     		sub	sp, sp, #20
 627              		.cfi_def_cfa_offset 24
 628 0004 0390     		str	r0, [sp, #12]
 629 0006 0291     		str	r1, [sp, #8]
ARM GAS  /tmp/ccXQ6d7R.s 			page 13


 630 0008 0192     		str	r2, [sp, #4]
 631              		.loc 1 246 0
 632 000a 039B     		ldr	r3, [sp, #12]
 633 000c 002B     		cmp	r3, #0
 634 000e 05D0     		beq	.L37
 635              		.loc 1 246 0 is_stmt 0 discriminator 2
 636 0010 029B     		ldr	r3, [sp, #8]
 637 0012 002B     		cmp	r3, #0
 638 0014 02D0     		beq	.L37
 639              		.loc 1 246 0 discriminator 1
 640 0016 019B     		ldr	r3, [sp, #4]
 641 0018 002B     		cmp	r3, #0
 642 001a 02D1     		bne	.L38
 643              	.L37:
 644 001c 0F48     		ldr	r0, .L40
 645 001e FFF7FEFF 		bl	chDbgPanic
 646              	.L38:
 647              	.LBB14:
 648              		.loc 1 249 0 is_stmt 1
 649 0022 2023     		movs	r3, #32
 650              	@ 249 "/home/dave/r2p-sdk/core/ChibiOS/os/hal/src/spi.c" 1
 651 0024 83F31188 		msr     BASEPRI, r3
 652              	@ 0 "" 2
 653              		.thumb
 654              	.LBE14:
 655 0028 FFF7FEFF 		bl	dbg_check_lock
 656              		.loc 1 250 0
 657 002c 039B     		ldr	r3, [sp, #12]
 658 002e 1B78     		ldrb	r3, [r3]	@ zero_extendqisi2
 659 0030 022B     		cmp	r3, #2
 660 0032 02D0     		beq	.L39
 661              		.loc 1 250 0 is_stmt 0 discriminator 1
 662 0034 0A48     		ldr	r0, .L40+4
 663 0036 FFF7FEFF 		bl	chDbgPanic
 664              	.L39:
 665              		.loc 1 251 0 is_stmt 1
 666 003a 039B     		ldr	r3, [sp, #12]
 667 003c 0322     		movs	r2, #3
 668 003e 1A70     		strb	r2, [r3]
 669 0040 0398     		ldr	r0, [sp, #12]
 670 0042 0299     		ldr	r1, [sp, #8]
 671 0044 019A     		ldr	r2, [sp, #4]
 672 0046 FFF7FEFF 		bl	spi_lld_send
 673              		.loc 1 252 0
 674 004a FFF7FEFF 		bl	dbg_check_unlock
 675              	.LBB15:
 676 004e 0023     		movs	r3, #0
 677              	@ 252 "/home/dave/r2p-sdk/core/ChibiOS/os/hal/src/spi.c" 1
 678 0050 83F31188 		msr     BASEPRI, r3
 679              	@ 0 "" 2
 680              		.thumb
 681              	.LBE15:
 682              		.loc 1 253 0
 683 0054 05B0     		add	sp, sp, #20
 684              		@ sp needed
 685 0056 5DF804FB 		ldr	pc, [sp], #4
 686              	.L41:
ARM GAS  /tmp/ccXQ6d7R.s 			page 14


 687 005a 00BF     		.align	2
 688              	.L40:
 689 005c DC000000 		.word	.LC12
 690 0060 F0000000 		.word	.LC13
 691              		.cfi_endproc
 692              	.LFE126:
 693              		.size	spiStartSend, .-spiStartSend
 694 0064 AFF30080 		.section	.rodata
 694      AFF30080 
 694      AFF30080 
 695 0103 00       		.align	2
 696              	.LC14:
 697 0104 22737069 		.ascii	"\"spiStartReceive\"()\000"
 697      53746172 
 697      74526563 
 697      65697665 
 697      22282900 
 698              		.align	2
 699              	.LC15:
 700 0118 73706953 		.ascii	"spiStartReceive(), #1\000"
 700      74617274 
 700      52656365 
 700      69766528 
 700      292C2023 
 701              		.section	.text.spiStartReceive,"ax",%progbits
 702              		.align	2
 703              		.p2align 4,,15
 704              		.global	spiStartReceive
 705              		.thumb
 706              		.thumb_func
 707              		.type	spiStartReceive, %function
 708              	spiStartReceive:
 709              	.LFB127:
 710              		.loc 1 270 0
 711              		.cfi_startproc
 712              		@ args = 0, pretend = 0, frame = 16
 713              		@ frame_needed = 0, uses_anonymous_args = 0
 714 0000 00B5     		push	{lr}
 715              		.cfi_def_cfa_offset 4
 716              		.cfi_offset 14, -4
 717 0002 85B0     		sub	sp, sp, #20
 718              		.cfi_def_cfa_offset 24
 719 0004 0390     		str	r0, [sp, #12]
 720 0006 0291     		str	r1, [sp, #8]
 721 0008 0192     		str	r2, [sp, #4]
 722              		.loc 1 272 0
 723 000a 039B     		ldr	r3, [sp, #12]
 724 000c 002B     		cmp	r3, #0
 725 000e 05D0     		beq	.L43
 726              		.loc 1 272 0 is_stmt 0 discriminator 2
 727 0010 029B     		ldr	r3, [sp, #8]
 728 0012 002B     		cmp	r3, #0
 729 0014 02D0     		beq	.L43
 730              		.loc 1 272 0 discriminator 1
 731 0016 019B     		ldr	r3, [sp, #4]
 732 0018 002B     		cmp	r3, #0
 733 001a 02D1     		bne	.L44
ARM GAS  /tmp/ccXQ6d7R.s 			page 15


 734              	.L43:
 735 001c 0F48     		ldr	r0, .L46
 736 001e FFF7FEFF 		bl	chDbgPanic
 737              	.L44:
 738              	.LBB16:
 739              		.loc 1 275 0 is_stmt 1
 740 0022 2023     		movs	r3, #32
 741              	@ 275 "/home/dave/r2p-sdk/core/ChibiOS/os/hal/src/spi.c" 1
 742 0024 83F31188 		msr     BASEPRI, r3
 743              	@ 0 "" 2
 744              		.thumb
 745              	.LBE16:
 746 0028 FFF7FEFF 		bl	dbg_check_lock
 747              		.loc 1 276 0
 748 002c 039B     		ldr	r3, [sp, #12]
 749 002e 1B78     		ldrb	r3, [r3]	@ zero_extendqisi2
 750 0030 022B     		cmp	r3, #2
 751 0032 02D0     		beq	.L45
 752              		.loc 1 276 0 is_stmt 0 discriminator 1
 753 0034 0A48     		ldr	r0, .L46+4
 754 0036 FFF7FEFF 		bl	chDbgPanic
 755              	.L45:
 756              		.loc 1 277 0 is_stmt 1
 757 003a 039B     		ldr	r3, [sp, #12]
 758 003c 0322     		movs	r2, #3
 759 003e 1A70     		strb	r2, [r3]
 760 0040 0398     		ldr	r0, [sp, #12]
 761 0042 0299     		ldr	r1, [sp, #8]
 762 0044 019A     		ldr	r2, [sp, #4]
 763 0046 FFF7FEFF 		bl	spi_lld_receive
 764              		.loc 1 278 0
 765 004a FFF7FEFF 		bl	dbg_check_unlock
 766              	.LBB17:
 767 004e 0023     		movs	r3, #0
 768              	@ 278 "/home/dave/r2p-sdk/core/ChibiOS/os/hal/src/spi.c" 1
 769 0050 83F31188 		msr     BASEPRI, r3
 770              	@ 0 "" 2
 771              		.thumb
 772              	.LBE17:
 773              		.loc 1 279 0
 774 0054 05B0     		add	sp, sp, #20
 775              		@ sp needed
 776 0056 5DF804FB 		ldr	pc, [sp], #4
 777              	.L47:
 778 005a 00BF     		.align	2
 779              	.L46:
 780 005c 04010000 		.word	.LC14
 781 0060 18010000 		.word	.LC15
 782              		.cfi_endproc
 783              	.LFE127:
 784              		.size	spiStartReceive, .-spiStartReceive
 785 0064 AFF30080 		.section	.rodata
 785      AFF30080 
 785      AFF30080 
 786 012e 0000     		.align	2
 787              	.LC16:
 788 0130 22737069 		.ascii	"\"spiIgnoreWait\"()\000"
ARM GAS  /tmp/ccXQ6d7R.s 			page 16


 788      49676E6F 
 788      72655761 
 788      69742228 
 788      2900
 789 0142 0000     		.align	2
 790              	.LC17:
 791 0144 73706949 		.ascii	"spiIgnore(), #1\000"
 791      676E6F72 
 791      6528292C 
 791      20233100 
 792              		.align	2
 793              	.LC18:
 794 0154 73706949 		.ascii	"spiIgnore(), #2\000"
 794      676E6F72 
 794      6528292C 
 794      20233200 
 795              		.align	2
 796              	.LC19:
 797 0164 5F737069 		.ascii	"_spi_wait(), #1\000"
 797      5F776169 
 797      7428292C 
 797      20233100 
 798              		.section	.text.spiIgnore,"ax",%progbits
 799              		.align	2
 800              		.p2align 4,,15
 801              		.global	spiIgnore
 802              		.thumb
 803              		.thumb_func
 804              		.type	spiIgnore, %function
 805              	spiIgnore:
 806              	.LFB128:
 807              		.loc 1 296 0
 808              		.cfi_startproc
 809              		@ args = 0, pretend = 0, frame = 8
 810              		@ frame_needed = 0, uses_anonymous_args = 0
 811 0000 00B5     		push	{lr}
 812              		.cfi_def_cfa_offset 4
 813              		.cfi_offset 14, -4
 814 0002 83B0     		sub	sp, sp, #12
 815              		.cfi_def_cfa_offset 16
 816 0004 0190     		str	r0, [sp, #4]
 817 0006 0091     		str	r1, [sp]
 818              		.loc 1 298 0
 819 0008 019B     		ldr	r3, [sp, #4]
 820 000a 002B     		cmp	r3, #0
 821 000c 02D0     		beq	.L49
 822              		.loc 1 298 0 is_stmt 0 discriminator 2
 823 000e 009B     		ldr	r3, [sp]
 824 0010 002B     		cmp	r3, #0
 825 0012 02D1     		bne	.L50
 826              	.L49:
 827              		.loc 1 298 0 discriminator 1
 828 0014 1948     		ldr	r0, .L54
 829 0016 FFF7FEFF 		bl	chDbgPanic
 830              	.L50:
 831              	.LBB18:
 832              		.loc 1 300 0 is_stmt 1
ARM GAS  /tmp/ccXQ6d7R.s 			page 17


 833 001a 2023     		movs	r3, #32
 834              	@ 300 "/home/dave/r2p-sdk/core/ChibiOS/os/hal/src/spi.c" 1
 835 001c 83F31188 		msr     BASEPRI, r3
 836              	@ 0 "" 2
 837              		.thumb
 838              	.LBE18:
 839 0020 FFF7FEFF 		bl	dbg_check_lock
 840              		.loc 1 301 0
 841 0024 019B     		ldr	r3, [sp, #4]
 842 0026 1B78     		ldrb	r3, [r3]	@ zero_extendqisi2
 843 0028 022B     		cmp	r3, #2
 844 002a 02D0     		beq	.L51
 845              		.loc 1 301 0 is_stmt 0 discriminator 1
 846 002c 1448     		ldr	r0, .L54+4
 847 002e FFF7FEFF 		bl	chDbgPanic
 848              	.L51:
 849              		.loc 1 302 0 is_stmt 1
 850 0032 019B     		ldr	r3, [sp, #4]
 851 0034 5B68     		ldr	r3, [r3, #4]
 852 0036 1B68     		ldr	r3, [r3]
 853 0038 002B     		cmp	r3, #0
 854 003a 02D0     		beq	.L52
 855              		.loc 1 302 0 is_stmt 0 discriminator 1
 856 003c 1148     		ldr	r0, .L54+8
 857 003e FFF7FEFF 		bl	chDbgPanic
 858              	.L52:
 859              		.loc 1 303 0 is_stmt 1
 860 0042 019B     		ldr	r3, [sp, #4]
 861 0044 0322     		movs	r2, #3
 862 0046 1A70     		strb	r2, [r3]
 863 0048 0198     		ldr	r0, [sp, #4]
 864 004a 0099     		ldr	r1, [sp]
 865 004c FFF7FEFF 		bl	spi_lld_ignore
 866              		.loc 1 304 0
 867 0050 019B     		ldr	r3, [sp, #4]
 868 0052 9B68     		ldr	r3, [r3, #8]
 869 0054 002B     		cmp	r3, #0
 870 0056 02D0     		beq	.L53
 871              		.loc 1 304 0 is_stmt 0 discriminator 1
 872 0058 0B48     		ldr	r0, .L54+12
 873 005a FFF7FEFF 		bl	chDbgPanic
 874              	.L53:
 875              		.loc 1 304 0 discriminator 2
 876 005e 0B4B     		ldr	r3, .L54+16
 877 0060 9A69     		ldr	r2, [r3, #24]
 878 0062 019B     		ldr	r3, [sp, #4]
 879 0064 9A60     		str	r2, [r3, #8]
 880 0066 0220     		movs	r0, #2
 881 0068 FFF7FEFF 		bl	chSchGoSleepS
 882              		.loc 1 305 0 is_stmt 1 discriminator 2
 883 006c FFF7FEFF 		bl	dbg_check_unlock
 884              	.LBB19:
 885 0070 0023     		movs	r3, #0
 886              	@ 305 "/home/dave/r2p-sdk/core/ChibiOS/os/hal/src/spi.c" 1
 887 0072 83F31188 		msr     BASEPRI, r3
 888              	@ 0 "" 2
 889              		.thumb
ARM GAS  /tmp/ccXQ6d7R.s 			page 18


 890              	.LBE19:
 891              		.loc 1 306 0 discriminator 2
 892 0076 03B0     		add	sp, sp, #12
 893              		@ sp needed
 894 0078 5DF804FB 		ldr	pc, [sp], #4
 895              	.L55:
 896              		.align	2
 897              	.L54:
 898 007c 30010000 		.word	.LC16
 899 0080 44010000 		.word	.LC17
 900 0084 54010000 		.word	.LC18
 901 0088 64010000 		.word	.LC19
 902 008c 00000000 		.word	rlist
 903              		.cfi_endproc
 904              	.LFE128:
 905              		.size	spiIgnore, .-spiIgnore
 906              		.section	.rodata
 907              		.align	2
 908              	.LC20:
 909 0174 22737069 		.ascii	"\"spiExchange\"()\000"
 909      45786368 
 909      616E6765 
 909      22282900 
 910              		.align	2
 911              	.LC21:
 912 0184 73706945 		.ascii	"spiExchange(), #1\000"
 912      78636861 
 912      6E676528 
 912      292C2023 
 912      3100
 913 0196 0000     		.align	2
 914              	.LC22:
 915 0198 73706945 		.ascii	"spiExchange(), #2\000"
 915      78636861 
 915      6E676528 
 915      292C2023 
 915      3200
 916              		.section	.text.spiExchange,"ax",%progbits
 917              		.align	2
 918              		.p2align 4,,15
 919              		.global	spiExchange
 920              		.thumb
 921              		.thumb_func
 922              		.type	spiExchange, %function
 923              	spiExchange:
 924              	.LFB129:
 925              		.loc 1 327 0
 926              		.cfi_startproc
 927              		@ args = 0, pretend = 0, frame = 16
 928              		@ frame_needed = 0, uses_anonymous_args = 0
 929 0000 00B5     		push	{lr}
 930              		.cfi_def_cfa_offset 4
 931              		.cfi_offset 14, -4
 932 0002 85B0     		sub	sp, sp, #20
 933              		.cfi_def_cfa_offset 24
 934 0004 0390     		str	r0, [sp, #12]
 935 0006 0291     		str	r1, [sp, #8]
ARM GAS  /tmp/ccXQ6d7R.s 			page 19


 936 0008 0192     		str	r2, [sp, #4]
 937 000a 0093     		str	r3, [sp]
 938              		.loc 1 329 0
 939 000c 039B     		ldr	r3, [sp, #12]
 940 000e 002B     		cmp	r3, #0
 941 0010 08D0     		beq	.L57
 942              		.loc 1 329 0 is_stmt 0 discriminator 2
 943 0012 029B     		ldr	r3, [sp, #8]
 944 0014 002B     		cmp	r3, #0
 945 0016 05D0     		beq	.L57
 946              		.loc 1 329 0 discriminator 1
 947 0018 009B     		ldr	r3, [sp]
 948 001a 002B     		cmp	r3, #0
 949 001c 02D0     		beq	.L57
 950 001e 019B     		ldr	r3, [sp, #4]
 951 0020 002B     		cmp	r3, #0
 952 0022 02D1     		bne	.L58
 953              	.L57:
 954 0024 1A48     		ldr	r0, .L62
 955 0026 FFF7FEFF 		bl	chDbgPanic
 956              	.L58:
 957              	.LBB20:
 958              		.loc 1 332 0 is_stmt 1
 959 002a 2023     		movs	r3, #32
 960              	@ 332 "/home/dave/r2p-sdk/core/ChibiOS/os/hal/src/spi.c" 1
 961 002c 83F31188 		msr     BASEPRI, r3
 962              	@ 0 "" 2
 963              		.thumb
 964              	.LBE20:
 965 0030 FFF7FEFF 		bl	dbg_check_lock
 966              		.loc 1 333 0
 967 0034 039B     		ldr	r3, [sp, #12]
 968 0036 1B78     		ldrb	r3, [r3]	@ zero_extendqisi2
 969 0038 022B     		cmp	r3, #2
 970 003a 02D0     		beq	.L59
 971              		.loc 1 333 0 is_stmt 0 discriminator 1
 972 003c 1548     		ldr	r0, .L62+4
 973 003e FFF7FEFF 		bl	chDbgPanic
 974              	.L59:
 975              		.loc 1 334 0 is_stmt 1
 976 0042 039B     		ldr	r3, [sp, #12]
 977 0044 5B68     		ldr	r3, [r3, #4]
 978 0046 1B68     		ldr	r3, [r3]
 979 0048 002B     		cmp	r3, #0
 980 004a 02D0     		beq	.L60
 981              		.loc 1 334 0 is_stmt 0 discriminator 1
 982 004c 1248     		ldr	r0, .L62+8
 983 004e FFF7FEFF 		bl	chDbgPanic
 984              	.L60:
 985              		.loc 1 336 0 is_stmt 1
 986 0052 039B     		ldr	r3, [sp, #12]
 987 0054 0322     		movs	r2, #3
 988 0056 1A70     		strb	r2, [r3]
 989 0058 0398     		ldr	r0, [sp, #12]
 990 005a 0299     		ldr	r1, [sp, #8]
 991 005c 019A     		ldr	r2, [sp, #4]
 992 005e 009B     		ldr	r3, [sp]
ARM GAS  /tmp/ccXQ6d7R.s 			page 20


 993 0060 FFF7FEFF 		bl	spi_lld_exchange
 994              		.loc 1 337 0
 995 0064 039B     		ldr	r3, [sp, #12]
 996 0066 9B68     		ldr	r3, [r3, #8]
 997 0068 002B     		cmp	r3, #0
 998 006a 02D0     		beq	.L61
 999              		.loc 1 337 0 is_stmt 0 discriminator 1
 1000 006c 0B48     		ldr	r0, .L62+12
 1001 006e FFF7FEFF 		bl	chDbgPanic
 1002              	.L61:
 1003              		.loc 1 337 0 discriminator 2
 1004 0072 0B4B     		ldr	r3, .L62+16
 1005 0074 9A69     		ldr	r2, [r3, #24]
 1006 0076 039B     		ldr	r3, [sp, #12]
 1007 0078 9A60     		str	r2, [r3, #8]
 1008 007a 0220     		movs	r0, #2
 1009 007c FFF7FEFF 		bl	chSchGoSleepS
 1010              		.loc 1 338 0 is_stmt 1 discriminator 2
 1011 0080 FFF7FEFF 		bl	dbg_check_unlock
 1012              	.LBB21:
 1013 0084 0023     		movs	r3, #0
 1014              	@ 338 "/home/dave/r2p-sdk/core/ChibiOS/os/hal/src/spi.c" 1
 1015 0086 83F31188 		msr     BASEPRI, r3
 1016              	@ 0 "" 2
 1017              		.thumb
 1018              	.LBE21:
 1019              		.loc 1 339 0 discriminator 2
 1020 008a 05B0     		add	sp, sp, #20
 1021              		@ sp needed
 1022 008c 5DF804FB 		ldr	pc, [sp], #4
 1023              	.L63:
 1024              		.align	2
 1025              	.L62:
 1026 0090 74010000 		.word	.LC20
 1027 0094 84010000 		.word	.LC21
 1028 0098 98010000 		.word	.LC22
 1029 009c 64010000 		.word	.LC19
 1030 00a0 00000000 		.word	rlist
 1031              		.cfi_endproc
 1032              	.LFE129:
 1033              		.size	spiExchange, .-spiExchange
 1034 00a4 AFF30080 		.section	.rodata
 1034      AFF30080 
 1034      AFF30080 
 1035 01aa 0000     		.align	2
 1036              	.LC23:
 1037 01ac 22737069 		.ascii	"\"spiSend\"()\000"
 1037      53656E64 
 1037      22282900 
 1038              		.align	2
 1039              	.LC24:
 1040 01b8 73706953 		.ascii	"spiSend(), #1\000"
 1040      656E6428 
 1040      292C2023 
 1040      3100
 1041 01c6 0000     		.align	2
 1042              	.LC25:
ARM GAS  /tmp/ccXQ6d7R.s 			page 21


 1043 01c8 73706953 		.ascii	"spiSend(), #2\000"
 1043      656E6428 
 1043      292C2023 
 1043      3200
 1044              		.section	.text.spiSend,"ax",%progbits
 1045              		.align	2
 1046              		.p2align 4,,15
 1047              		.global	spiSend
 1048              		.thumb
 1049              		.thumb_func
 1050              		.type	spiSend, %function
 1051              	spiSend:
 1052              	.LFB130:
 1053              		.loc 1 357 0
 1054              		.cfi_startproc
 1055              		@ args = 0, pretend = 0, frame = 16
 1056              		@ frame_needed = 0, uses_anonymous_args = 0
 1057 0000 00B5     		push	{lr}
 1058              		.cfi_def_cfa_offset 4
 1059              		.cfi_offset 14, -4
 1060 0002 85B0     		sub	sp, sp, #20
 1061              		.cfi_def_cfa_offset 24
 1062 0004 0390     		str	r0, [sp, #12]
 1063 0006 0291     		str	r1, [sp, #8]
 1064 0008 0192     		str	r2, [sp, #4]
 1065              		.loc 1 359 0
 1066 000a 039B     		ldr	r3, [sp, #12]
 1067 000c 002B     		cmp	r3, #0
 1068 000e 05D0     		beq	.L65
 1069              		.loc 1 359 0 is_stmt 0 discriminator 2
 1070 0010 029B     		ldr	r3, [sp, #8]
 1071 0012 002B     		cmp	r3, #0
 1072 0014 02D0     		beq	.L65
 1073              		.loc 1 359 0 discriminator 1
 1074 0016 019B     		ldr	r3, [sp, #4]
 1075 0018 002B     		cmp	r3, #0
 1076 001a 02D1     		bne	.L66
 1077              	.L65:
 1078 001c 1A48     		ldr	r0, .L70
 1079 001e FFF7FEFF 		bl	chDbgPanic
 1080              	.L66:
 1081              	.LBB22:
 1082              		.loc 1 361 0 is_stmt 1
 1083 0022 2023     		movs	r3, #32
 1084              	@ 361 "/home/dave/r2p-sdk/core/ChibiOS/os/hal/src/spi.c" 1
 1085 0024 83F31188 		msr     BASEPRI, r3
 1086              	@ 0 "" 2
 1087              		.thumb
 1088              	.LBE22:
 1089 0028 FFF7FEFF 		bl	dbg_check_lock
 1090              		.loc 1 362 0
 1091 002c 039B     		ldr	r3, [sp, #12]
 1092 002e 1B78     		ldrb	r3, [r3]	@ zero_extendqisi2
 1093 0030 022B     		cmp	r3, #2
 1094 0032 02D0     		beq	.L67
 1095              		.loc 1 362 0 is_stmt 0 discriminator 1
 1096 0034 1548     		ldr	r0, .L70+4
ARM GAS  /tmp/ccXQ6d7R.s 			page 22


 1097 0036 FFF7FEFF 		bl	chDbgPanic
 1098              	.L67:
 1099              		.loc 1 363 0 is_stmt 1
 1100 003a 039B     		ldr	r3, [sp, #12]
 1101 003c 5B68     		ldr	r3, [r3, #4]
 1102 003e 1B68     		ldr	r3, [r3]
 1103 0040 002B     		cmp	r3, #0
 1104 0042 02D0     		beq	.L68
 1105              		.loc 1 363 0 is_stmt 0 discriminator 1
 1106 0044 1248     		ldr	r0, .L70+8
 1107 0046 FFF7FEFF 		bl	chDbgPanic
 1108              	.L68:
 1109              		.loc 1 364 0 is_stmt 1
 1110 004a 039B     		ldr	r3, [sp, #12]
 1111 004c 0322     		movs	r2, #3
 1112 004e 1A70     		strb	r2, [r3]
 1113 0050 0398     		ldr	r0, [sp, #12]
 1114 0052 0299     		ldr	r1, [sp, #8]
 1115 0054 019A     		ldr	r2, [sp, #4]
 1116 0056 FFF7FEFF 		bl	spi_lld_send
 1117              		.loc 1 365 0
 1118 005a 039B     		ldr	r3, [sp, #12]
 1119 005c 9B68     		ldr	r3, [r3, #8]
 1120 005e 002B     		cmp	r3, #0
 1121 0060 02D0     		beq	.L69
 1122              		.loc 1 365 0 is_stmt 0 discriminator 1
 1123 0062 0C48     		ldr	r0, .L70+12
 1124 0064 FFF7FEFF 		bl	chDbgPanic
 1125              	.L69:
 1126              		.loc 1 365 0 discriminator 2
 1127 0068 0B4B     		ldr	r3, .L70+16
 1128 006a 9A69     		ldr	r2, [r3, #24]
 1129 006c 039B     		ldr	r3, [sp, #12]
 1130 006e 9A60     		str	r2, [r3, #8]
 1131 0070 0220     		movs	r0, #2
 1132 0072 FFF7FEFF 		bl	chSchGoSleepS
 1133              		.loc 1 366 0 is_stmt 1 discriminator 2
 1134 0076 FFF7FEFF 		bl	dbg_check_unlock
 1135              	.LBB23:
 1136 007a 0023     		movs	r3, #0
 1137              	@ 366 "/home/dave/r2p-sdk/core/ChibiOS/os/hal/src/spi.c" 1
 1138 007c 83F31188 		msr     BASEPRI, r3
 1139              	@ 0 "" 2
 1140              		.thumb
 1141              	.LBE23:
 1142              		.loc 1 367 0 discriminator 2
 1143 0080 05B0     		add	sp, sp, #20
 1144              		@ sp needed
 1145 0082 5DF804FB 		ldr	pc, [sp], #4
 1146              	.L71:
 1147 0086 00BF     		.align	2
 1148              	.L70:
 1149 0088 AC010000 		.word	.LC23
 1150 008c B8010000 		.word	.LC24
 1151 0090 C8010000 		.word	.LC25
 1152 0094 64010000 		.word	.LC19
 1153 0098 00000000 		.word	rlist
ARM GAS  /tmp/ccXQ6d7R.s 			page 23


 1154              		.cfi_endproc
 1155              	.LFE130:
 1156              		.size	spiSend, .-spiSend
 1157 009c AFF30080 		.section	.rodata
 1158 01d6 0000     		.align	2
 1159              	.LC26:
 1160 01d8 22737069 		.ascii	"\"spiReceive\"()\000"
 1160      52656365 
 1160      69766522 
 1160      282900
 1161 01e7 00       		.align	2
 1162              	.LC27:
 1163 01e8 73706952 		.ascii	"spiReceive(), #1\000"
 1163      65636569 
 1163      76652829 
 1163      2C202331 
 1163      00
 1164 01f9 000000   		.align	2
 1165              	.LC28:
 1166 01fc 73706952 		.ascii	"spiReceive(), #2\000"
 1166      65636569 
 1166      76652829 
 1166      2C202332 
 1166      00
 1167              		.section	.text.spiReceive,"ax",%progbits
 1168              		.align	2
 1169              		.p2align 4,,15
 1170              		.global	spiReceive
 1171              		.thumb
 1172              		.thumb_func
 1173              		.type	spiReceive, %function
 1174              	spiReceive:
 1175              	.LFB131:
 1176              		.loc 1 385 0
 1177              		.cfi_startproc
 1178              		@ args = 0, pretend = 0, frame = 16
 1179              		@ frame_needed = 0, uses_anonymous_args = 0
 1180 0000 00B5     		push	{lr}
 1181              		.cfi_def_cfa_offset 4
 1182              		.cfi_offset 14, -4
 1183 0002 85B0     		sub	sp, sp, #20
 1184              		.cfi_def_cfa_offset 24
 1185 0004 0390     		str	r0, [sp, #12]
 1186 0006 0291     		str	r1, [sp, #8]
 1187 0008 0192     		str	r2, [sp, #4]
 1188              		.loc 1 387 0
 1189 000a 039B     		ldr	r3, [sp, #12]
 1190 000c 002B     		cmp	r3, #0
 1191 000e 05D0     		beq	.L73
 1192              		.loc 1 387 0 is_stmt 0 discriminator 2
 1193 0010 029B     		ldr	r3, [sp, #8]
 1194 0012 002B     		cmp	r3, #0
 1195 0014 02D0     		beq	.L73
 1196              		.loc 1 387 0 discriminator 1
 1197 0016 019B     		ldr	r3, [sp, #4]
 1198 0018 002B     		cmp	r3, #0
 1199 001a 02D1     		bne	.L74
ARM GAS  /tmp/ccXQ6d7R.s 			page 24


 1200              	.L73:
 1201 001c 1A48     		ldr	r0, .L78
 1202 001e FFF7FEFF 		bl	chDbgPanic
 1203              	.L74:
 1204              	.LBB24:
 1205              		.loc 1 390 0 is_stmt 1
 1206 0022 2023     		movs	r3, #32
 1207              	@ 390 "/home/dave/r2p-sdk/core/ChibiOS/os/hal/src/spi.c" 1
 1208 0024 83F31188 		msr     BASEPRI, r3
 1209              	@ 0 "" 2
 1210              		.thumb
 1211              	.LBE24:
 1212 0028 FFF7FEFF 		bl	dbg_check_lock
 1213              		.loc 1 391 0
 1214 002c 039B     		ldr	r3, [sp, #12]
 1215 002e 1B78     		ldrb	r3, [r3]	@ zero_extendqisi2
 1216 0030 022B     		cmp	r3, #2
 1217 0032 02D0     		beq	.L75
 1218              		.loc 1 391 0 is_stmt 0 discriminator 1
 1219 0034 1548     		ldr	r0, .L78+4
 1220 0036 FFF7FEFF 		bl	chDbgPanic
 1221              	.L75:
 1222              		.loc 1 392 0 is_stmt 1
 1223 003a 039B     		ldr	r3, [sp, #12]
 1224 003c 5B68     		ldr	r3, [r3, #4]
 1225 003e 1B68     		ldr	r3, [r3]
 1226 0040 002B     		cmp	r3, #0
 1227 0042 02D0     		beq	.L76
 1228              		.loc 1 392 0 is_stmt 0 discriminator 1
 1229 0044 1248     		ldr	r0, .L78+8
 1230 0046 FFF7FEFF 		bl	chDbgPanic
 1231              	.L76:
 1232              		.loc 1 394 0 is_stmt 1
 1233 004a 039B     		ldr	r3, [sp, #12]
 1234 004c 0322     		movs	r2, #3
 1235 004e 1A70     		strb	r2, [r3]
 1236 0050 0398     		ldr	r0, [sp, #12]
 1237 0052 0299     		ldr	r1, [sp, #8]
 1238 0054 019A     		ldr	r2, [sp, #4]
 1239 0056 FFF7FEFF 		bl	spi_lld_receive
 1240              		.loc 1 395 0
 1241 005a 039B     		ldr	r3, [sp, #12]
 1242 005c 9B68     		ldr	r3, [r3, #8]
 1243 005e 002B     		cmp	r3, #0
 1244 0060 02D0     		beq	.L77
 1245              		.loc 1 395 0 is_stmt 0 discriminator 1
 1246 0062 0C48     		ldr	r0, .L78+12
 1247 0064 FFF7FEFF 		bl	chDbgPanic
 1248              	.L77:
 1249              		.loc 1 395 0 discriminator 2
 1250 0068 0B4B     		ldr	r3, .L78+16
 1251 006a 9A69     		ldr	r2, [r3, #24]
 1252 006c 039B     		ldr	r3, [sp, #12]
 1253 006e 9A60     		str	r2, [r3, #8]
 1254 0070 0220     		movs	r0, #2
 1255 0072 FFF7FEFF 		bl	chSchGoSleepS
 1256              		.loc 1 396 0 is_stmt 1 discriminator 2
ARM GAS  /tmp/ccXQ6d7R.s 			page 25


 1257 0076 FFF7FEFF 		bl	dbg_check_unlock
 1258              	.LBB25:
 1259 007a 0023     		movs	r3, #0
 1260              	@ 396 "/home/dave/r2p-sdk/core/ChibiOS/os/hal/src/spi.c" 1
 1261 007c 83F31188 		msr     BASEPRI, r3
 1262              	@ 0 "" 2
 1263              		.thumb
 1264              	.LBE25:
 1265              		.loc 1 397 0 discriminator 2
 1266 0080 05B0     		add	sp, sp, #20
 1267              		@ sp needed
 1268 0082 5DF804FB 		ldr	pc, [sp], #4
 1269              	.L79:
 1270 0086 00BF     		.align	2
 1271              	.L78:
 1272 0088 D8010000 		.word	.LC26
 1273 008c E8010000 		.word	.LC27
 1274 0090 FC010000 		.word	.LC28
 1275 0094 64010000 		.word	.LC19
 1276 0098 00000000 		.word	rlist
 1277              		.cfi_endproc
 1278              	.LFE131:
 1279              		.size	spiReceive, .-spiReceive
 1280 009c AFF30080 		.section	.rodata
 1281 020d 000000   		.align	2
 1282              	.LC29:
 1283 0210 22737069 		.ascii	"\"spiAcquireBus\"()\000"
 1283      41637175 
 1283      69726542 
 1283      75732228 
 1283      2900
 1284              		.section	.text.spiAcquireBus,"ax",%progbits
 1285              		.align	2
 1286              		.p2align 4,,15
 1287              		.global	spiAcquireBus
 1288              		.thumb
 1289              		.thumb_func
 1290              		.type	spiAcquireBus, %function
 1291              	spiAcquireBus:
 1292              	.LFB132:
 1293              		.loc 1 412 0
 1294              		.cfi_startproc
 1295              		@ args = 0, pretend = 0, frame = 8
 1296              		@ frame_needed = 0, uses_anonymous_args = 0
 1297 0000 00B5     		push	{lr}
 1298              		.cfi_def_cfa_offset 4
 1299              		.cfi_offset 14, -4
 1300 0002 83B0     		sub	sp, sp, #12
 1301              		.cfi_def_cfa_offset 16
 1302 0004 0190     		str	r0, [sp, #4]
 1303              		.loc 1 414 0
 1304 0006 019B     		ldr	r3, [sp, #4]
 1305 0008 002B     		cmp	r3, #0
 1306 000a 02D1     		bne	.L81
 1307              		.loc 1 414 0 is_stmt 0 discriminator 1
 1308 000c 0548     		ldr	r0, .L82
 1309 000e FFF7FEFF 		bl	chDbgPanic
ARM GAS  /tmp/ccXQ6d7R.s 			page 26


 1310              	.L81:
 1311              		.loc 1 417 0 is_stmt 1
 1312 0012 019B     		ldr	r3, [sp, #4]
 1313 0014 0C33     		adds	r3, r3, #12
 1314 0016 1846     		mov	r0, r3
 1315 0018 FFF7FEFF 		bl	chMtxLock
 1316              		.loc 1 421 0
 1317 001c 03B0     		add	sp, sp, #12
 1318              		@ sp needed
 1319 001e 5DF804FB 		ldr	pc, [sp], #4
 1320              	.L83:
 1321 0022 00BF     		.align	2
 1322              	.L82:
 1323 0024 10020000 		.word	.LC29
 1324              		.cfi_endproc
 1325              	.LFE132:
 1326              		.size	spiAcquireBus, .-spiAcquireBus
 1327 0028 AFF30080 		.section	.rodata
 1327      AFF30080 
 1328 0222 0000     		.align	2
 1329              	.LC30:
 1330 0224 22737069 		.ascii	"\"spiReleaseBus\"()\000"
 1330      52656C65 
 1330      61736542 
 1330      75732228 
 1330      2900
 1331 0236 0000     		.section	.text.spiReleaseBus,"ax",%progbits
 1332              		.align	2
 1333              		.p2align 4,,15
 1334              		.global	spiReleaseBus
 1335              		.thumb
 1336              		.thumb_func
 1337              		.type	spiReleaseBus, %function
 1338              	spiReleaseBus:
 1339              	.LFB133:
 1340              		.loc 1 432 0
 1341              		.cfi_startproc
 1342              		@ args = 0, pretend = 0, frame = 8
 1343              		@ frame_needed = 0, uses_anonymous_args = 0
 1344 0000 00B5     		push	{lr}
 1345              		.cfi_def_cfa_offset 4
 1346              		.cfi_offset 14, -4
 1347 0002 83B0     		sub	sp, sp, #12
 1348              		.cfi_def_cfa_offset 16
 1349 0004 0190     		str	r0, [sp, #4]
 1350              		.loc 1 434 0
 1351 0006 019B     		ldr	r3, [sp, #4]
 1352 0008 002B     		cmp	r3, #0
 1353 000a 02D1     		bne	.L85
 1354              		.loc 1 434 0 is_stmt 0 discriminator 1
 1355 000c 0348     		ldr	r0, .L86
 1356 000e FFF7FEFF 		bl	chDbgPanic
 1357              	.L85:
 1358              		.loc 1 438 0 is_stmt 1
 1359 0012 FFF7FEFF 		bl	chMtxUnlock
 1360              		.loc 1 442 0
 1361 0016 03B0     		add	sp, sp, #12
ARM GAS  /tmp/ccXQ6d7R.s 			page 27


 1362              		@ sp needed
 1363 0018 5DF804FB 		ldr	pc, [sp], #4
 1364              	.L87:
 1365              		.align	2
 1366              	.L86:
 1367 001c 24020000 		.word	.LC30
 1368              		.cfi_endproc
 1369              	.LFE133:
 1370              		.size	spiReleaseBus, .-spiReleaseBus
 1371              		.text
 1372              	.Letext0:
 1373              		.file 2 "/usr/lib/gcc/arm-none-eabi/4.8/include/stddef.h"
 1374              		.file 3 "/usr/include/newlib/machine/_default_types.h"
 1375              		.file 4 "/usr/include/newlib/stdint.h"
 1376              		.file 5 "/home/dave/r2p-sdk/core/ChibiOS/os/ports/GCC/ARMCMx/chtypes.h"
 1377              		.file 6 "/home/dave/r2p-sdk/core/ChibiOS/os/kernel/include/chlists.h"
 1378              		.file 7 "/home/dave/r2p-sdk/core/ChibiOS/os/kernel/include/chthreads.h"
 1379              		.file 8 "/home/dave/r2p-sdk/core/ChibiOS/os/ports/GCC/ARMCMx/chcore_v7m.h"
 1380              		.file 9 "/home/dave/r2p-sdk/core/ChibiOS/os/kernel/include/chschd.h"
 1381              		.file 10 "/home/dave/r2p-sdk/core/ChibiOS/os/kernel/include/chmtx.h"
 1382              		.file 11 "/home/dave/r2p-sdk/core/ChibiOS/os/hal/platforms/STM32F30x/stm32f30x.h"
 1383              		.file 12 "/home/dave/r2p-sdk/core/ChibiOS/os/hal/platforms/STM32F30x/stm32_dma.h"
 1384              		.file 13 "/home/dave/r2p-sdk/core/ChibiOS/os/hal/platforms/STM32/GPIOv2/pal_lld.h"
 1385              		.file 14 "/home/dave/r2p-sdk/core/ChibiOS/os/hal/include/spi.h"
 1386              		.file 15 "/home/dave/r2p-sdk/core/ChibiOS/os/hal/platforms/STM32/SPIv2/spi_lld.h"
 1387              		.file 16 "/home/dave/r2p-sdk/core/ChibiOS/os/ports/common/ARMCMx/CMSIS/include/core_cm4.h"