ARM GAS  /tmp/ccx4702l.s 			page 1


   1              		.syntax unified
   2              		.cpu cortex-m4
   3              		.eabi_attribute 27, 3
   4              		.eabi_attribute 28, 1
   5              		.fpu fpv4-sp-d16
   6              		.eabi_attribute 20, 1
   7              		.eabi_attribute 21, 1
   8              		.eabi_attribute 23, 3
   9              		.eabi_attribute 24, 1
  10              		.eabi_attribute 25, 1
  11              		.eabi_attribute 26, 1
  12              		.eabi_attribute 30, 6
  13              		.eabi_attribute 34, 1
  14              		.eabi_attribute 18, 4
  15              		.thumb
  16              		.file	"StaticList_.cpp"
  17              		.text
  18              	.Ltext0:
  19              		.cfi_sections	.debug_frame
  20              		.section	.text._ZN3r2p10UncopyableC2Ev,"axG",%progbits,_ZN3r2p10UncopyableC5Ev,comdat
  21              		.align	2
  22              		.p2align 4,,15
  23              		.weak	_ZN3r2p10UncopyableC2Ev
  24              		.thumb
  25              		.thumb_func
  26              		.type	_ZN3r2p10UncopyableC2Ev, %function
  27              	_ZN3r2p10UncopyableC2Ev:
  28              	.LFB6:
  29              		.file 1 "/home/dave/r2p-sdk/core/Middleware/include/r2p/Uncopyable.hpp"
  30              		.loc 1 20 0
  31              		.cfi_startproc
  32              		@ args = 0, pretend = 0, frame = 8
  33              		@ frame_needed = 0, uses_anonymous_args = 0
  34              		@ link register save eliminated.
  35 0000 82B0     		sub	sp, sp, #8
  36              		.cfi_def_cfa_offset 8
  37 0002 0190     		str	r0, [sp, #4]
  38              		.loc 1 20 0
  39 0004 019B     		ldr	r3, [sp, #4]
  40 0006 1846     		mov	r0, r3
  41 0008 02B0     		add	sp, sp, #8
  42              		@ sp needed
  43 000a 7047     		bx	lr
  44              		.cfi_endproc
  45              	.LFE6:
  46              		.size	_ZN3r2p10UncopyableC2Ev, .-_ZN3r2p10UncopyableC2Ev
  47              		.weak	_ZN3r2p10UncopyableC1Ev
  48              		.thumb_set _ZN3r2p10UncopyableC1Ev,_ZN3r2p10UncopyableC2Ev
  49 000c AFF30080 		.section	.text._ZN3r2p8SysLock_7acquireEv,"axG",%progbits,_ZN3r2p8SysLock_7acquireEv,comdat
  50              		.align	2
  51              		.p2align 4,,15
  52              		.weak	_ZN3r2p8SysLock_7acquireEv
  53              		.thumb
  54              		.thumb_func
  55              		.type	_ZN3r2p8SysLock_7acquireEv, %function
  56              	_ZN3r2p8SysLock_7acquireEv:
  57              	.LFB18:
ARM GAS  /tmp/ccx4702l.s 			page 2


  58              		.file 2 "/home/dave/r2p-sdk/core/Middleware/port/chibios/include/r2p/impl/SysLock_.hpp"
  59              		.loc 2 20 0
  60              		.cfi_startproc
  61              		@ args = 0, pretend = 0, frame = 0
  62              		@ frame_needed = 0, uses_anonymous_args = 0
  63 0000 08B5     		push	{r3, lr}
  64              		.cfi_def_cfa_offset 8
  65              		.cfi_offset 3, -8
  66              		.cfi_offset 14, -4
  67              	.LBB2:
  68              	.LBB3:
  69              	.LBB4:
  70              		.loc 2 22 0
  71 0002 2023     		movs	r3, #32
  72              	@ 22 "/home/dave/r2p-sdk/core/Middleware/port/chibios/include/r2p/impl/SysLock_.hpp" 1
  73 0004 83F31188 		msr     BASEPRI, r3
  74              	@ 0 "" 2
  75              		.thumb
  76              	.LBE4:
  77 0008 FFF7FEFF 		bl	dbg_check_lock
  78              	.LBE3:
  79              	.LBE2:
  80              		.loc 2 23 0
  81 000c 08BD     		pop	{r3, pc}
  82              		.cfi_endproc
  83              	.LFE18:
  84              		.size	_ZN3r2p8SysLock_7acquireEv, .-_ZN3r2p8SysLock_7acquireEv
  85 000e 00BF     		.section	.text._ZN3r2p8SysLock_7releaseEv,"axG",%progbits,_ZN3r2p8SysLock_7releaseEv,comdat
  86              		.align	2
  87              		.p2align 4,,15
  88              		.weak	_ZN3r2p8SysLock_7releaseEv
  89              		.thumb
  90              		.thumb_func
  91              		.type	_ZN3r2p8SysLock_7releaseEv, %function
  92              	_ZN3r2p8SysLock_7releaseEv:
  93              	.LFB19:
  94              		.loc 2 27 0
  95              		.cfi_startproc
  96              		@ args = 0, pretend = 0, frame = 0
  97              		@ frame_needed = 0, uses_anonymous_args = 0
  98 0000 08B5     		push	{r3, lr}
  99              		.cfi_def_cfa_offset 8
 100              		.cfi_offset 3, -8
 101              		.cfi_offset 14, -4
 102              	.LBB5:
 103              	.LBB6:
 104              		.loc 2 29 0
 105 0002 FFF7FEFF 		bl	dbg_check_unlock
 106              	.LBB7:
 107 0006 0023     		movs	r3, #0
 108              	@ 29 "/home/dave/r2p-sdk/core/Middleware/port/chibios/include/r2p/impl/SysLock_.hpp" 1
 109 0008 83F31188 		msr     BASEPRI, r3
 110              	@ 0 "" 2
 111              		.thumb
 112              	.LBE7:
 113              	.LBE6:
 114              	.LBE5:
ARM GAS  /tmp/ccx4702l.s 			page 3


 115              		.loc 2 30 0
 116 000c 08BD     		pop	{r3, pc}
 117              		.cfi_endproc
 118              	.LFE19:
 119              		.size	_ZN3r2p8SysLock_7releaseEv, .-_ZN3r2p8SysLock_7releaseEv
 120 000e 00BF     		.section	.text._ZN3r2p7SysLock7acquireEv,"axG",%progbits,_ZN3r2p7SysLock7acquireEv,comdat
 121              		.align	2
 122              		.p2align 4,,15
 123              		.weak	_ZN3r2p7SysLock7acquireEv
 124              		.thumb
 125              		.thumb_func
 126              		.type	_ZN3r2p7SysLock7acquireEv, %function
 127              	_ZN3r2p7SysLock7acquireEv:
 128              	.LFB26:
 129              		.file 3 "/home/dave/r2p-sdk/core/Middleware/include/r2p/SysLock.hpp"
 130              		.loc 3 27 0
 131              		.cfi_startproc
 132              		@ args = 0, pretend = 0, frame = 0
 133              		@ frame_needed = 0, uses_anonymous_args = 0
 134 0000 08B5     		push	{r3, lr}
 135              		.cfi_def_cfa_offset 8
 136              		.cfi_offset 3, -8
 137              		.cfi_offset 14, -4
 138              		.loc 3 29 0
 139 0002 FFF7FEFF 		bl	_ZN3r2p8SysLock_7acquireEv
 140              		.loc 3 30 0
 141 0006 08BD     		pop	{r3, pc}
 142              		.cfi_endproc
 143              	.LFE26:
 144              		.size	_ZN3r2p7SysLock7acquireEv, .-_ZN3r2p7SysLock7acquireEv
 145 0008 AFF30080 		.section	.text._ZN3r2p7SysLock7releaseEv,"axG",%progbits,_ZN3r2p7SysLock7releaseEv,comdat
 145      AFF30080 
 146              		.align	2
 147              		.p2align 4,,15
 148              		.weak	_ZN3r2p7SysLock7releaseEv
 149              		.thumb
 150              		.thumb_func
 151              		.type	_ZN3r2p7SysLock7releaseEv, %function
 152              	_ZN3r2p7SysLock7releaseEv:
 153              	.LFB27:
 154              		.loc 3 34 0
 155              		.cfi_startproc
 156              		@ args = 0, pretend = 0, frame = 0
 157              		@ frame_needed = 0, uses_anonymous_args = 0
 158 0000 08B5     		push	{r3, lr}
 159              		.cfi_def_cfa_offset 8
 160              		.cfi_offset 3, -8
 161              		.cfi_offset 14, -4
 162              		.loc 3 36 0
 163 0002 FFF7FEFF 		bl	_ZN3r2p8SysLock_7releaseEv
 164              		.loc 3 37 0
 165 0006 08BD     		pop	{r3, pc}
 166              		.cfi_endproc
 167              	.LFE27:
 168              		.size	_ZN3r2p7SysLock7releaseEv, .-_ZN3r2p7SysLock7releaseEv
 169 0008 AFF30080 		.section	.text._ZNK3r2p11StaticList_15get_head_unsafeEv,"axG",%progbits,_ZNK3r2p11StaticList_15get
 169      AFF30080 
ARM GAS  /tmp/ccx4702l.s 			page 4


 170              		.align	2
 171              		.p2align 4,,15
 172              		.weak	_ZNK3r2p11StaticList_15get_head_unsafeEv
 173              		.thumb
 174              		.thumb_func
 175              		.type	_ZNK3r2p11StaticList_15get_head_unsafeEv, %function
 176              	_ZNK3r2p11StaticList_15get_head_unsafeEv:
 177              	.LFB39:
 178              		.file 4 "/home/dave/r2p-sdk/core/Middleware/include/r2p/impl/StaticList_.hpp"
 179              		.loc 4 53 0
 180              		.cfi_startproc
 181              		@ args = 0, pretend = 0, frame = 8
 182              		@ frame_needed = 0, uses_anonymous_args = 0
 183              		@ link register save eliminated.
 184 0000 82B0     		sub	sp, sp, #8
 185              		.cfi_def_cfa_offset 8
 186 0002 0190     		str	r0, [sp, #4]
 187              		.loc 4 55 0
 188 0004 019B     		ldr	r3, [sp, #4]
 189 0006 1B68     		ldr	r3, [r3]
 190              		.loc 4 56 0
 191 0008 1846     		mov	r0, r3
 192 000a 02B0     		add	sp, sp, #8
 193              		@ sp needed
 194 000c 7047     		bx	lr
 195              		.cfi_endproc
 196              	.LFE39:
 197              		.size	_ZNK3r2p11StaticList_15get_head_unsafeEv, .-_ZNK3r2p11StaticList_15get_head_unsafeEv
 198 000e 00BF     		.section	.text._ZNK3r2p11StaticList_15is_empty_unsafeEv,"axG",%progbits,_ZNK3r2p11StaticList_15is_
 199              		.align	2
 200              		.p2align 4,,15
 201              		.weak	_ZNK3r2p11StaticList_15is_empty_unsafeEv
 202              		.thumb
 203              		.thumb_func
 204              		.type	_ZNK3r2p11StaticList_15is_empty_unsafeEv, %function
 205              	_ZNK3r2p11StaticList_15is_empty_unsafeEv:
 206              	.LFB40:
 207              		.loc 4 60 0
 208              		.cfi_startproc
 209              		@ args = 0, pretend = 0, frame = 8
 210              		@ frame_needed = 0, uses_anonymous_args = 0
 211              		@ link register save eliminated.
 212 0000 82B0     		sub	sp, sp, #8
 213              		.cfi_def_cfa_offset 8
 214 0002 0190     		str	r0, [sp, #4]
 215              		.loc 4 62 0
 216 0004 019B     		ldr	r3, [sp, #4]
 217 0006 1B68     		ldr	r3, [r3]
 218 0008 002B     		cmp	r3, #0
 219 000a 14BF     		ite	ne
 220 000c 0023     		movne	r3, #0
 221 000e 0123     		moveq	r3, #1
 222 0010 DBB2     		uxtb	r3, r3
 223              		.loc 4 63 0
 224 0012 1846     		mov	r0, r3
 225 0014 02B0     		add	sp, sp, #8
 226              		@ sp needed
ARM GAS  /tmp/ccx4702l.s 			page 5


 227 0016 7047     		bx	lr
 228              		.cfi_endproc
 229              	.LFE40:
 230              		.size	_ZNK3r2p11StaticList_15is_empty_unsafeEv, .-_ZNK3r2p11StaticList_15is_empty_unsafeEv
 231 0018 AFF30080 		.section	.rodata
 231      AFF30080 
 232              		.align	2
 233              	.LC0:
 234 0000 5232505F 		.ascii	"R2P_ASSERT()\000"
 234      41535345 
 234      52542829 
 234      00
 235 000d 000000   		.section	.text._ZN3r2p11StaticList_11link_unsafeERNS0_4LinkE,"axG",%progbits,_ZN3r2p11StaticList_1
 236              		.align	2
 237              		.p2align 4,,15
 238              		.weak	_ZN3r2p11StaticList_11link_unsafeERNS0_4LinkE
 239              		.thumb
 240              		.thumb_func
 241              		.type	_ZN3r2p11StaticList_11link_unsafeERNS0_4LinkE, %function
 242              	_ZN3r2p11StaticList_11link_unsafeERNS0_4LinkE:
 243              	.LFB41:
 244              		.loc 4 67 0
 245              		.cfi_startproc
 246              		@ args = 0, pretend = 0, frame = 8
 247              		@ frame_needed = 0, uses_anonymous_args = 0
 248 0000 00B5     		push	{lr}
 249              		.cfi_def_cfa_offset 4
 250              		.cfi_offset 14, -4
 251 0002 83B0     		sub	sp, sp, #12
 252              		.cfi_def_cfa_offset 16
 253 0004 0190     		str	r0, [sp, #4]
 254 0006 0091     		str	r1, [sp]
 255              		.loc 4 69 0
 256 0008 009B     		ldr	r3, [sp]
 257 000a 1B68     		ldr	r3, [r3]
 258 000c 002B     		cmp	r3, #0
 259 000e 02D0     		beq	.L13
 260              		.loc 4 69 0 is_stmt 0 discriminator 1
 261 0010 0C48     		ldr	r0, .L15
 262 0012 FFF7FEFF 		bl	chDbgPanic
 263              	.L13:
 264              		.loc 4 70 0 is_stmt 1
 265 0016 009B     		ldr	r3, [sp]
 266 0018 5B68     		ldr	r3, [r3, #4]
 267 001a 0198     		ldr	r0, [sp, #4]
 268 001c 1946     		mov	r1, r3
 269 001e FFF7FEFF 		bl	_ZNK3r2p11StaticList_15contains_unsafeEPKv
 270 0022 0346     		mov	r3, r0
 271 0024 002B     		cmp	r3, #0
 272 0026 02D0     		beq	.L14
 273              		.loc 4 70 0 is_stmt 0 discriminator 1
 274 0028 0648     		ldr	r0, .L15
 275 002a FFF7FEFF 		bl	chDbgPanic
 276              	.L14:
 277              		.loc 4 72 0 is_stmt 1
 278 002e 019B     		ldr	r3, [sp, #4]
 279 0030 1A68     		ldr	r2, [r3]
ARM GAS  /tmp/ccx4702l.s 			page 6


 280 0032 009B     		ldr	r3, [sp]
 281 0034 1A60     		str	r2, [r3]
 282              		.loc 4 73 0
 283 0036 019B     		ldr	r3, [sp, #4]
 284 0038 009A     		ldr	r2, [sp]
 285 003a 1A60     		str	r2, [r3]
 286              		.loc 4 74 0
 287 003c 03B0     		add	sp, sp, #12
 288              		@ sp needed
 289 003e 5DF804FB 		ldr	pc, [sp], #4
 290              	.L16:
 291 0042 00BF     		.align	2
 292              	.L15:
 293 0044 00000000 		.word	.LC0
 294              		.cfi_endproc
 295              	.LFE41:
 296              		.size	_ZN3r2p11StaticList_11link_unsafeERNS0_4LinkE, .-_ZN3r2p11StaticList_11link_unsafeERNS0_4Lin
 297 0048 AFF30080 		.section	.text._ZNK3r2p11StaticList_12count_unsafeEv,"ax",%progbits
 297      AFF30080 
 298              		.align	2
 299              		.p2align 4,,15
 300              		.global	_ZNK3r2p11StaticList_12count_unsafeEv
 301              		.thumb
 302              		.thumb_func
 303              		.type	_ZNK3r2p11StaticList_12count_unsafeEv, %function
 304              	_ZNK3r2p11StaticList_12count_unsafeEv:
 305              	.LFB42:
 306              		.file 5 "/home/dave/r2p-sdk/core/Middleware/src/impl/StaticList_.cpp"
 307              		.loc 5 7 0
 308              		.cfi_startproc
 309              		@ args = 0, pretend = 0, frame = 16
 310              		@ frame_needed = 0, uses_anonymous_args = 0
 311              		@ link register save eliminated.
 312 0000 84B0     		sub	sp, sp, #16
 313              		.cfi_def_cfa_offset 16
 314 0002 0190     		str	r0, [sp, #4]
 315              	.LBB8:
 316              		.loc 5 9 0
 317 0004 0023     		movs	r3, #0
 318 0006 0393     		str	r3, [sp, #12]
 319              	.LBB9:
 320              		.loc 5 10 0
 321 0008 019B     		ldr	r3, [sp, #4]
 322 000a 1B68     		ldr	r3, [r3]
 323 000c 0293     		str	r3, [sp, #8]
 324 000e 05E0     		b	.L18
 325              	.L19:
 326              		.loc 5 11 0 discriminator 2
 327 0010 039B     		ldr	r3, [sp, #12]
 328 0012 0133     		adds	r3, r3, #1
 329 0014 0393     		str	r3, [sp, #12]
 330              		.loc 5 10 0 discriminator 2
 331 0016 029B     		ldr	r3, [sp, #8]
 332 0018 1B68     		ldr	r3, [r3]
 333 001a 0293     		str	r3, [sp, #8]
 334              	.L18:
 335              		.loc 5 10 0 is_stmt 0 discriminator 1
ARM GAS  /tmp/ccx4702l.s 			page 7


 336 001c 029B     		ldr	r3, [sp, #8]
 337 001e 002B     		cmp	r3, #0
 338 0020 F6D1     		bne	.L19
 339              	.LBE9:
 340              		.loc 5 13 0 is_stmt 1
 341 0022 039B     		ldr	r3, [sp, #12]
 342              	.LBE8:
 343              		.loc 5 14 0
 344 0024 1846     		mov	r0, r3
 345 0026 04B0     		add	sp, sp, #16
 346              		@ sp needed
 347 0028 7047     		bx	lr
 348              		.cfi_endproc
 349              	.LFE42:
 350              		.size	_ZNK3r2p11StaticList_12count_unsafeEv, .-_ZNK3r2p11StaticList_12count_unsafeEv
 351 002a 00BFAFF3 		.section	.text._ZN3r2p11StaticList_13unlink_unsafeERNS0_4LinkE,"ax",%progbits
 351      0080
 352              		.align	2
 353              		.p2align 4,,15
 354              		.global	_ZN3r2p11StaticList_13unlink_unsafeERNS0_4LinkE
 355              		.thumb
 356              		.thumb_func
 357              		.type	_ZN3r2p11StaticList_13unlink_unsafeERNS0_4LinkE, %function
 358              	_ZN3r2p11StaticList_13unlink_unsafeERNS0_4LinkE:
 359              	.LFB43:
 360              		.loc 5 17 0
 361              		.cfi_startproc
 362              		@ args = 0, pretend = 0, frame = 16
 363              		@ frame_needed = 0, uses_anonymous_args = 0
 364              		@ link register save eliminated.
 365 0000 84B0     		sub	sp, sp, #16
 366              		.cfi_def_cfa_offset 16
 367 0002 0190     		str	r0, [sp, #4]
 368 0004 0091     		str	r1, [sp]
 369              	.LBB10:
 370              	.LBB11:
 371              		.loc 5 19 0
 372 0006 019B     		ldr	r3, [sp, #4]
 373 0008 1B68     		ldr	r3, [r3]
 374 000a 0393     		str	r3, [sp, #12]
 375 000c 0023     		movs	r3, #0
 376 000e 0293     		str	r3, [sp, #8]
 377 0010 19E0     		b	.L22
 378              	.L27:
 379              		.loc 5 22 0
 380 0012 039A     		ldr	r2, [sp, #12]
 381 0014 009B     		ldr	r3, [sp]
 382 0016 9A42     		cmp	r2, r3
 383 0018 10D1     		bne	.L23
 384              		.loc 5 23 0
 385 001a 029B     		ldr	r3, [sp, #8]
 386 001c 002B     		cmp	r3, #0
 387 001e 04D0     		beq	.L24
 388              		.loc 5 23 0 is_stmt 0 discriminator 1
 389 0020 039B     		ldr	r3, [sp, #12]
 390 0022 1A68     		ldr	r2, [r3]
 391 0024 029B     		ldr	r3, [sp, #8]
ARM GAS  /tmp/ccx4702l.s 			page 8


 392 0026 1A60     		str	r2, [r3]
 393 0028 03E0     		b	.L25
 394              	.L24:
 395              		.loc 5 24 0 is_stmt 1
 396 002a 039B     		ldr	r3, [sp, #12]
 397 002c 1A68     		ldr	r2, [r3]
 398 002e 019B     		ldr	r3, [sp, #4]
 399 0030 1A60     		str	r2, [r3]
 400              	.L25:
 401              		.loc 5 25 0
 402 0032 039B     		ldr	r3, [sp, #12]
 403 0034 0022     		movs	r2, #0
 404 0036 1A60     		str	r2, [r3]
 405              		.loc 5 26 0
 406 0038 0123     		movs	r3, #1
 407 003a 08E0     		b	.L26
 408              	.L23:
 409              		.loc 5 19 0
 410 003c 039B     		ldr	r3, [sp, #12]
 411 003e 0293     		str	r3, [sp, #8]
 412 0040 039B     		ldr	r3, [sp, #12]
 413 0042 1B68     		ldr	r3, [r3]
 414 0044 0393     		str	r3, [sp, #12]
 415              	.L22:
 416              		.loc 5 19 0 is_stmt 0 discriminator 1
 417 0046 039B     		ldr	r3, [sp, #12]
 418 0048 002B     		cmp	r3, #0
 419 004a E2D1     		bne	.L27
 420              	.LBE11:
 421              		.loc 5 29 0 is_stmt 1
 422 004c 0023     		movs	r3, #0
 423              	.L26:
 424              	.LBE10:
 425              		.loc 5 30 0
 426 004e 1846     		mov	r0, r3
 427 0050 04B0     		add	sp, sp, #16
 428              		@ sp needed
 429 0052 7047     		bx	lr
 430              		.cfi_endproc
 431              	.LFE43:
 432              		.size	_ZN3r2p11StaticList_13unlink_unsafeERNS0_4LinkE, .-_ZN3r2p11StaticList_13unlink_unsafeERNS0_
 433 0054 AFF30080 		.section	.text._ZNK3r2p11StaticList_15index_of_unsafeEPKv,"ax",%progbits
 433      AFF30080 
 433      AFF30080 
 434              		.align	2
 435              		.p2align 4,,15
 436              		.global	_ZNK3r2p11StaticList_15index_of_unsafeEPKv
 437              		.thumb
 438              		.thumb_func
 439              		.type	_ZNK3r2p11StaticList_15index_of_unsafeEPKv, %function
 440              	_ZNK3r2p11StaticList_15index_of_unsafeEPKv:
 441              	.LFB44:
 442              		.loc 5 33 0
 443              		.cfi_startproc
 444              		@ args = 0, pretend = 0, frame = 16
 445              		@ frame_needed = 0, uses_anonymous_args = 0
 446              		@ link register save eliminated.
ARM GAS  /tmp/ccx4702l.s 			page 9


 447 0000 84B0     		sub	sp, sp, #16
 448              		.cfi_def_cfa_offset 16
 449 0002 0190     		str	r0, [sp, #4]
 450 0004 0091     		str	r1, [sp]
 451              	.LBB12:
 452              		.loc 5 35 0
 453 0006 009B     		ldr	r3, [sp]
 454 0008 002B     		cmp	r3, #0
 455 000a 02D1     		bne	.L29
 456              		.loc 5 35 0 is_stmt 0 discriminator 1
 457 000c 4FF0FF33 		mov	r3, #-1
 458 0010 17E0     		b	.L30
 459              	.L29:
 460              		.loc 5 37 0 is_stmt 1
 461 0012 0023     		movs	r3, #0
 462 0014 0393     		str	r3, [sp, #12]
 463              	.LBB13:
 464              		.loc 5 38 0
 465 0016 019B     		ldr	r3, [sp, #4]
 466 0018 1B68     		ldr	r3, [r3]
 467 001a 0293     		str	r3, [sp, #8]
 468 001c 0CE0     		b	.L31
 469              	.L33:
 470              		.loc 5 39 0
 471 001e 029B     		ldr	r3, [sp, #8]
 472 0020 5A68     		ldr	r2, [r3, #4]
 473 0022 009B     		ldr	r3, [sp]
 474 0024 9A42     		cmp	r2, r3
 475 0026 01D1     		bne	.L32
 476              		.loc 5 40 0
 477 0028 039B     		ldr	r3, [sp, #12]
 478 002a 0AE0     		b	.L30
 479              	.L32:
 480              		.loc 5 38 0
 481 002c 039B     		ldr	r3, [sp, #12]
 482 002e 0133     		adds	r3, r3, #1
 483 0030 0393     		str	r3, [sp, #12]
 484 0032 029B     		ldr	r3, [sp, #8]
 485 0034 1B68     		ldr	r3, [r3]
 486 0036 0293     		str	r3, [sp, #8]
 487              	.L31:
 488              		.loc 5 38 0 is_stmt 0 discriminator 1
 489 0038 029B     		ldr	r3, [sp, #8]
 490 003a 002B     		cmp	r3, #0
 491 003c EFD1     		bne	.L33
 492              	.LBE13:
 493              		.loc 5 43 0 is_stmt 1
 494 003e 4FF0FF33 		mov	r3, #-1
 495              	.L30:
 496              	.LBE12:
 497              		.loc 5 44 0
 498 0042 1846     		mov	r0, r3
 499 0044 04B0     		add	sp, sp, #16
 500              		@ sp needed
 501 0046 7047     		bx	lr
 502              		.cfi_endproc
 503              	.LFE44:
ARM GAS  /tmp/ccx4702l.s 			page 10


 504              		.size	_ZNK3r2p11StaticList_15index_of_unsafeEPKv, .-_ZNK3r2p11StaticList_15index_of_unsafeEPKv
 505 0048 AFF30080 		.section	.text._ZNK3r2p11StaticList_15contains_unsafeEPKv,"ax",%progbits
 505      AFF30080 
 506              		.align	2
 507              		.p2align 4,,15
 508              		.global	_ZNK3r2p11StaticList_15contains_unsafeEPKv
 509              		.thumb
 510              		.thumb_func
 511              		.type	_ZNK3r2p11StaticList_15contains_unsafeEPKv, %function
 512              	_ZNK3r2p11StaticList_15contains_unsafeEPKv:
 513              	.LFB45:
 514              		.loc 5 47 0
 515              		.cfi_startproc
 516              		@ args = 0, pretend = 0, frame = 16
 517              		@ frame_needed = 0, uses_anonymous_args = 0
 518              		@ link register save eliminated.
 519 0000 84B0     		sub	sp, sp, #16
 520              		.cfi_def_cfa_offset 16
 521 0002 0190     		str	r0, [sp, #4]
 522 0004 0091     		str	r1, [sp]
 523              	.LBB14:
 524              	.LBB15:
 525              		.loc 5 49 0
 526 0006 019B     		ldr	r3, [sp, #4]
 527 0008 1B68     		ldr	r3, [r3]
 528 000a 0393     		str	r3, [sp, #12]
 529 000c 09E0     		b	.L35
 530              	.L38:
 531              		.loc 5 50 0
 532 000e 039B     		ldr	r3, [sp, #12]
 533 0010 5A68     		ldr	r2, [r3, #4]
 534 0012 009B     		ldr	r3, [sp]
 535 0014 9A42     		cmp	r2, r3
 536 0016 01D1     		bne	.L36
 537              		.loc 5 51 0
 538 0018 0123     		movs	r3, #1
 539 001a 06E0     		b	.L37
 540              	.L36:
 541              		.loc 5 49 0
 542 001c 039B     		ldr	r3, [sp, #12]
 543 001e 1B68     		ldr	r3, [r3]
 544 0020 0393     		str	r3, [sp, #12]
 545              	.L35:
 546              		.loc 5 49 0 is_stmt 0 discriminator 1
 547 0022 039B     		ldr	r3, [sp, #12]
 548 0024 002B     		cmp	r3, #0
 549 0026 F2D1     		bne	.L38
 550              	.LBE15:
 551              		.loc 5 54 0 is_stmt 1
 552 0028 0023     		movs	r3, #0
 553              	.L37:
 554              	.LBE14:
 555              		.loc 5 55 0
 556 002a 1846     		mov	r0, r3
 557 002c 04B0     		add	sp, sp, #16
 558              		@ sp needed
 559 002e 7047     		bx	lr
ARM GAS  /tmp/ccx4702l.s 			page 11


 560              		.cfi_endproc
 561              	.LFE45:
 562              		.size	_ZNK3r2p11StaticList_15contains_unsafeEPKv, .-_ZNK3r2p11StaticList_15contains_unsafeEPKv
 563              		.section	.text._ZNK3r2p11StaticList_17find_first_unsafeEPFbPKvE,"ax",%progbits
 564              		.align	2
 565              		.p2align 4,,15
 566              		.global	_ZNK3r2p11StaticList_17find_first_unsafeEPFbPKvE
 567              		.thumb
 568              		.thumb_func
 569              		.type	_ZNK3r2p11StaticList_17find_first_unsafeEPFbPKvE, %function
 570              	_ZNK3r2p11StaticList_17find_first_unsafeEPFbPKvE:
 571              	.LFB46:
 572              		.loc 5 58 0
 573              		.cfi_startproc
 574              		@ args = 0, pretend = 0, frame = 16
 575              		@ frame_needed = 0, uses_anonymous_args = 0
 576 0000 00B5     		push	{lr}
 577              		.cfi_def_cfa_offset 4
 578              		.cfi_offset 14, -4
 579 0002 85B0     		sub	sp, sp, #20
 580              		.cfi_def_cfa_offset 24
 581 0004 0190     		str	r0, [sp, #4]
 582 0006 0091     		str	r1, [sp]
 583              	.LBB16:
 584              	.LBB17:
 585              		.loc 5 60 0
 586 0008 019B     		ldr	r3, [sp, #4]
 587 000a 1B68     		ldr	r3, [r3]
 588 000c 0393     		str	r3, [sp, #12]
 589 000e 0DE0     		b	.L40
 590              	.L43:
 591              		.loc 5 61 0
 592 0010 039B     		ldr	r3, [sp, #12]
 593 0012 5A68     		ldr	r2, [r3, #4]
 594 0014 009B     		ldr	r3, [sp]
 595 0016 1046     		mov	r0, r2
 596 0018 9847     		blx	r3
 597 001a 0346     		mov	r3, r0
 598 001c 002B     		cmp	r3, #0
 599 001e 02D0     		beq	.L41
 600              		.loc 5 62 0
 601 0020 039B     		ldr	r3, [sp, #12]
 602 0022 5B68     		ldr	r3, [r3, #4]
 603 0024 06E0     		b	.L42
 604              	.L41:
 605              		.loc 5 60 0
 606 0026 039B     		ldr	r3, [sp, #12]
 607 0028 1B68     		ldr	r3, [r3]
 608 002a 0393     		str	r3, [sp, #12]
 609              	.L40:
 610              		.loc 5 60 0 is_stmt 0 discriminator 1
 611 002c 039B     		ldr	r3, [sp, #12]
 612 002e 002B     		cmp	r3, #0
 613 0030 EED1     		bne	.L43
 614              	.LBE17:
 615              		.loc 5 65 0 is_stmt 1
 616 0032 0023     		movs	r3, #0
ARM GAS  /tmp/ccx4702l.s 			page 12


 617              	.L42:
 618              	.LBE16:
 619              		.loc 5 66 0
 620 0034 1846     		mov	r0, r3
 621 0036 05B0     		add	sp, sp, #20
 622              		@ sp needed
 623 0038 5DF804FB 		ldr	pc, [sp], #4
 624              		.cfi_endproc
 625              	.LFE46:
 626              		.size	_ZNK3r2p11StaticList_17find_first_unsafeEPFbPKvE, .-_ZNK3r2p11StaticList_17find_first_unsafe
 627 003c AFF30080 		.section	.text._ZNK3r2p11StaticList_17find_first_unsafeEPFbPKvS2_ES2_,"ax",%progbits
 628              		.align	2
 629              		.p2align 4,,15
 630              		.global	_ZNK3r2p11StaticList_17find_first_unsafeEPFbPKvS2_ES2_
 631              		.thumb
 632              		.thumb_func
 633              		.type	_ZNK3r2p11StaticList_17find_first_unsafeEPFbPKvS2_ES2_, %function
 634              	_ZNK3r2p11StaticList_17find_first_unsafeEPFbPKvS2_ES2_:
 635              	.LFB47:
 636              		.loc 5 70 0
 637              		.cfi_startproc
 638              		@ args = 0, pretend = 0, frame = 24
 639              		@ frame_needed = 0, uses_anonymous_args = 0
 640 0000 00B5     		push	{lr}
 641              		.cfi_def_cfa_offset 4
 642              		.cfi_offset 14, -4
 643 0002 87B0     		sub	sp, sp, #28
 644              		.cfi_def_cfa_offset 32
 645 0004 0390     		str	r0, [sp, #12]
 646 0006 0291     		str	r1, [sp, #8]
 647 0008 0192     		str	r2, [sp, #4]
 648              	.LBB18:
 649              		.loc 5 72 0
 650 000a 019B     		ldr	r3, [sp, #4]
 651 000c 002B     		cmp	r3, #0
 652 000e 02D1     		bne	.L45
 653              		.loc 5 72 0 is_stmt 0 discriminator 1
 654 0010 0E48     		ldr	r0, .L50
 655 0012 FFF7FEFF 		bl	chDbgPanic
 656              	.L45:
 657              	.LBB19:
 658              		.loc 5 74 0 is_stmt 1
 659 0016 039B     		ldr	r3, [sp, #12]
 660 0018 1B68     		ldr	r3, [r3]
 661 001a 0593     		str	r3, [sp, #20]
 662 001c 0EE0     		b	.L46
 663              	.L49:
 664              		.loc 5 75 0
 665 001e 059B     		ldr	r3, [sp, #20]
 666 0020 5A68     		ldr	r2, [r3, #4]
 667 0022 029B     		ldr	r3, [sp, #8]
 668 0024 1046     		mov	r0, r2
 669 0026 0199     		ldr	r1, [sp, #4]
 670 0028 9847     		blx	r3
 671 002a 0346     		mov	r3, r0
 672 002c 002B     		cmp	r3, #0
 673 002e 02D0     		beq	.L47
ARM GAS  /tmp/ccx4702l.s 			page 13


 674              		.loc 5 76 0
 675 0030 059B     		ldr	r3, [sp, #20]
 676 0032 5B68     		ldr	r3, [r3, #4]
 677 0034 06E0     		b	.L48
 678              	.L47:
 679              		.loc 5 74 0
 680 0036 059B     		ldr	r3, [sp, #20]
 681 0038 1B68     		ldr	r3, [r3]
 682 003a 0593     		str	r3, [sp, #20]
 683              	.L46:
 684              		.loc 5 74 0 is_stmt 0 discriminator 1
 685 003c 059B     		ldr	r3, [sp, #20]
 686 003e 002B     		cmp	r3, #0
 687 0040 EDD1     		bne	.L49
 688              	.LBE19:
 689              		.loc 5 79 0 is_stmt 1
 690 0042 0023     		movs	r3, #0
 691              	.L48:
 692              	.LBE18:
 693              		.loc 5 80 0
 694 0044 1846     		mov	r0, r3
 695 0046 07B0     		add	sp, sp, #28
 696              		@ sp needed
 697 0048 5DF804FB 		ldr	pc, [sp], #4
 698              	.L51:
 699              		.align	2
 700              	.L50:
 701 004c 00000000 		.word	.LC0
 702              		.cfi_endproc
 703              	.LFE47:
 704              		.size	_ZNK3r2p11StaticList_17find_first_unsafeEPFbPKvS2_ES2_, .-_ZNK3r2p11StaticList_17find_first_
 705              		.section	.text._ZNK3r2p11StaticList_8get_headEv,"ax",%progbits
 706              		.align	2
 707              		.p2align 4,,15
 708              		.global	_ZNK3r2p11StaticList_8get_headEv
 709              		.thumb
 710              		.thumb_func
 711              		.type	_ZNK3r2p11StaticList_8get_headEv, %function
 712              	_ZNK3r2p11StaticList_8get_headEv:
 713              	.LFB48:
 714              		.loc 5 83 0
 715              		.cfi_startproc
 716              		@ args = 0, pretend = 0, frame = 16
 717              		@ frame_needed = 0, uses_anonymous_args = 0
 718 0000 00B5     		push	{lr}
 719              		.cfi_def_cfa_offset 4
 720              		.cfi_offset 14, -4
 721 0002 85B0     		sub	sp, sp, #20
 722              		.cfi_def_cfa_offset 24
 723 0004 0190     		str	r0, [sp, #4]
 724              	.LBB20:
 725              		.loc 5 85 0
 726 0006 FFF7FEFF 		bl	_ZN3r2p7SysLock7acquireEv
 727              		.loc 5 86 0
 728 000a 0198     		ldr	r0, [sp, #4]
 729 000c FFF7FEFF 		bl	_ZNK3r2p11StaticList_15get_head_unsafeEv
 730 0010 0390     		str	r0, [sp, #12]
ARM GAS  /tmp/ccx4702l.s 			page 14


 731              		.loc 5 87 0
 732 0012 FFF7FEFF 		bl	_ZN3r2p7SysLock7releaseEv
 733              		.loc 5 88 0
 734 0016 039B     		ldr	r3, [sp, #12]
 735              	.LBE20:
 736              		.loc 5 89 0
 737 0018 1846     		mov	r0, r3
 738 001a 05B0     		add	sp, sp, #20
 739              		@ sp needed
 740 001c 5DF804FB 		ldr	pc, [sp], #4
 741              		.cfi_endproc
 742              	.LFE48:
 743              		.size	_ZNK3r2p11StaticList_8get_headEv, .-_ZNK3r2p11StaticList_8get_headEv
 744              		.section	.text._ZNK3r2p11StaticList_8is_emptyEv,"ax",%progbits
 745              		.align	2
 746              		.p2align 4,,15
 747              		.global	_ZNK3r2p11StaticList_8is_emptyEv
 748              		.thumb
 749              		.thumb_func
 750              		.type	_ZNK3r2p11StaticList_8is_emptyEv, %function
 751              	_ZNK3r2p11StaticList_8is_emptyEv:
 752              	.LFB49:
 753              		.loc 5 92 0
 754              		.cfi_startproc
 755              		@ args = 0, pretend = 0, frame = 16
 756              		@ frame_needed = 0, uses_anonymous_args = 0
 757 0000 00B5     		push	{lr}
 758              		.cfi_def_cfa_offset 4
 759              		.cfi_offset 14, -4
 760 0002 85B0     		sub	sp, sp, #20
 761              		.cfi_def_cfa_offset 24
 762 0004 0190     		str	r0, [sp, #4]
 763              	.LBB21:
 764              		.loc 5 94 0
 765 0006 FFF7FEFF 		bl	_ZN3r2p7SysLock7acquireEv
 766              		.loc 5 95 0
 767 000a 0198     		ldr	r0, [sp, #4]
 768 000c FFF7FEFF 		bl	_ZNK3r2p11StaticList_15is_empty_unsafeEv
 769 0010 0346     		mov	r3, r0
 770 0012 8DF80F30 		strb	r3, [sp, #15]
 771              		.loc 5 96 0
 772 0016 FFF7FEFF 		bl	_ZN3r2p7SysLock7releaseEv
 773              		.loc 5 97 0
 774 001a 9DF80F30 		ldrb	r3, [sp, #15]	@ zero_extendqisi2
 775              	.LBE21:
 776              		.loc 5 98 0
 777 001e 1846     		mov	r0, r3
 778 0020 05B0     		add	sp, sp, #20
 779              		@ sp needed
 780 0022 5DF804FB 		ldr	pc, [sp], #4
 781              		.cfi_endproc
 782              	.LFE49:
 783              		.size	_ZNK3r2p11StaticList_8is_emptyEv, .-_ZNK3r2p11StaticList_8is_emptyEv
 784 0026 00BFAFF3 		.section	.text._ZNK3r2p11StaticList_5countEv,"ax",%progbits
 784      0080AFF3 
 784      0080
 785              		.align	2
ARM GAS  /tmp/ccx4702l.s 			page 15


 786              		.p2align 4,,15
 787              		.global	_ZNK3r2p11StaticList_5countEv
 788              		.thumb
 789              		.thumb_func
 790              		.type	_ZNK3r2p11StaticList_5countEv, %function
 791              	_ZNK3r2p11StaticList_5countEv:
 792              	.LFB50:
 793              		.loc 5 101 0
 794              		.cfi_startproc
 795              		@ args = 0, pretend = 0, frame = 16
 796              		@ frame_needed = 0, uses_anonymous_args = 0
 797 0000 00B5     		push	{lr}
 798              		.cfi_def_cfa_offset 4
 799              		.cfi_offset 14, -4
 800 0002 85B0     		sub	sp, sp, #20
 801              		.cfi_def_cfa_offset 24
 802 0004 0190     		str	r0, [sp, #4]
 803              	.LBB22:
 804              		.loc 5 103 0
 805 0006 0023     		movs	r3, #0
 806 0008 0393     		str	r3, [sp, #12]
 807              		.loc 5 104 0
 808 000a FFF7FEFF 		bl	_ZN3r2p7SysLock7acquireEv
 809              	.LBB23:
 810              		.loc 5 105 0
 811 000e 019B     		ldr	r3, [sp, #4]
 812 0010 1B68     		ldr	r3, [r3]
 813 0012 0293     		str	r3, [sp, #8]
 814 0014 09E0     		b	.L57
 815              	.L58:
 816              		.loc 5 106 0 discriminator 2
 817 0016 FFF7FEFF 		bl	_ZN3r2p7SysLock7releaseEv
 818              		.loc 5 107 0 discriminator 2
 819 001a 039B     		ldr	r3, [sp, #12]
 820 001c 0133     		adds	r3, r3, #1
 821 001e 0393     		str	r3, [sp, #12]
 822              		.loc 5 108 0 discriminator 2
 823 0020 FFF7FEFF 		bl	_ZN3r2p7SysLock7acquireEv
 824              		.loc 5 105 0 discriminator 2
 825 0024 029B     		ldr	r3, [sp, #8]
 826 0026 1B68     		ldr	r3, [r3]
 827 0028 0293     		str	r3, [sp, #8]
 828              	.L57:
 829              		.loc 5 105 0 is_stmt 0 discriminator 1
 830 002a 029B     		ldr	r3, [sp, #8]
 831 002c 002B     		cmp	r3, #0
 832 002e F2D1     		bne	.L58
 833              	.LBE23:
 834              		.loc 5 110 0 is_stmt 1
 835 0030 FFF7FEFF 		bl	_ZN3r2p7SysLock7releaseEv
 836              		.loc 5 111 0
 837 0034 039B     		ldr	r3, [sp, #12]
 838              	.LBE22:
 839              		.loc 5 112 0
 840 0036 1846     		mov	r0, r3
 841 0038 05B0     		add	sp, sp, #20
 842              		@ sp needed
ARM GAS  /tmp/ccx4702l.s 			page 16


 843 003a 5DF804FB 		ldr	pc, [sp], #4
 844              		.cfi_endproc
 845              	.LFE50:
 846              		.size	_ZNK3r2p11StaticList_5countEv, .-_ZNK3r2p11StaticList_5countEv
 847 003e 00BF     		.section	.text._ZN3r2p11StaticList_4linkERNS0_4LinkE,"ax",%progbits
 848              		.align	2
 849              		.p2align 4,,15
 850              		.global	_ZN3r2p11StaticList_4linkERNS0_4LinkE
 851              		.thumb
 852              		.thumb_func
 853              		.type	_ZN3r2p11StaticList_4linkERNS0_4LinkE, %function
 854              	_ZN3r2p11StaticList_4linkERNS0_4LinkE:
 855              	.LFB51:
 856              		.loc 5 115 0
 857              		.cfi_startproc
 858              		@ args = 0, pretend = 0, frame = 8
 859              		@ frame_needed = 0, uses_anonymous_args = 0
 860 0000 00B5     		push	{lr}
 861              		.cfi_def_cfa_offset 4
 862              		.cfi_offset 14, -4
 863 0002 83B0     		sub	sp, sp, #12
 864              		.cfi_def_cfa_offset 16
 865 0004 0190     		str	r0, [sp, #4]
 866 0006 0091     		str	r1, [sp]
 867              		.loc 5 117 0
 868 0008 FFF7FEFF 		bl	_ZN3r2p7SysLock7acquireEv
 869              		.loc 5 118 0
 870 000c 0198     		ldr	r0, [sp, #4]
 871 000e 0099     		ldr	r1, [sp]
 872 0010 FFF7FEFF 		bl	_ZN3r2p11StaticList_11link_unsafeERNS0_4LinkE
 873              		.loc 5 119 0
 874 0014 FFF7FEFF 		bl	_ZN3r2p7SysLock7releaseEv
 875              		.loc 5 120 0
 876 0018 03B0     		add	sp, sp, #12
 877              		@ sp needed
 878 001a 5DF804FB 		ldr	pc, [sp], #4
 879              		.cfi_endproc
 880              	.LFE51:
 881              		.size	_ZN3r2p11StaticList_4linkERNS0_4LinkE, .-_ZN3r2p11StaticList_4linkERNS0_4LinkE
 882 001e 00BF     		.section	.text._ZN3r2p11StaticList_6unlinkERNS0_4LinkE,"ax",%progbits
 883              		.align	2
 884              		.p2align 4,,15
 885              		.global	_ZN3r2p11StaticList_6unlinkERNS0_4LinkE
 886              		.thumb
 887              		.thumb_func
 888              		.type	_ZN3r2p11StaticList_6unlinkERNS0_4LinkE, %function
 889              	_ZN3r2p11StaticList_6unlinkERNS0_4LinkE:
 890              	.LFB52:
 891              		.loc 5 123 0
 892              		.cfi_startproc
 893              		@ args = 0, pretend = 0, frame = 16
 894              		@ frame_needed = 0, uses_anonymous_args = 0
 895 0000 00B5     		push	{lr}
 896              		.cfi_def_cfa_offset 4
 897              		.cfi_offset 14, -4
 898 0002 85B0     		sub	sp, sp, #20
 899              		.cfi_def_cfa_offset 24
ARM GAS  /tmp/ccx4702l.s 			page 17


 900 0004 0190     		str	r0, [sp, #4]
 901 0006 0091     		str	r1, [sp]
 902              	.LBB24:
 903              		.loc 5 125 0
 904 0008 FFF7FEFF 		bl	_ZN3r2p7SysLock7acquireEv
 905              		.loc 5 126 0
 906 000c 0198     		ldr	r0, [sp, #4]
 907 000e 0099     		ldr	r1, [sp]
 908 0010 FFF7FEFF 		bl	_ZN3r2p11StaticList_13unlink_unsafeERNS0_4LinkE
 909 0014 0346     		mov	r3, r0
 910 0016 8DF80F30 		strb	r3, [sp, #15]
 911              		.loc 5 127 0
 912 001a FFF7FEFF 		bl	_ZN3r2p7SysLock7releaseEv
 913              		.loc 5 128 0
 914 001e 9DF80F30 		ldrb	r3, [sp, #15]	@ zero_extendqisi2
 915              	.LBE24:
 916              		.loc 5 129 0
 917 0022 1846     		mov	r0, r3
 918 0024 05B0     		add	sp, sp, #20
 919              		@ sp needed
 920 0026 5DF804FB 		ldr	pc, [sp], #4
 921              		.cfi_endproc
 922              	.LFE52:
 923              		.size	_ZN3r2p11StaticList_6unlinkERNS0_4LinkE, .-_ZN3r2p11StaticList_6unlinkERNS0_4LinkE
 924 002a 00BFAFF3 		.section	.text._ZNK3r2p11StaticList_8index_ofEPKv,"ax",%progbits
 924      0080
 925              		.align	2
 926              		.p2align 4,,15
 927              		.global	_ZNK3r2p11StaticList_8index_ofEPKv
 928              		.thumb
 929              		.thumb_func
 930              		.type	_ZNK3r2p11StaticList_8index_ofEPKv, %function
 931              	_ZNK3r2p11StaticList_8index_ofEPKv:
 932              	.LFB53:
 933              		.loc 5 132 0
 934              		.cfi_startproc
 935              		@ args = 0, pretend = 0, frame = 16
 936              		@ frame_needed = 0, uses_anonymous_args = 0
 937 0000 00B5     		push	{lr}
 938              		.cfi_def_cfa_offset 4
 939              		.cfi_offset 14, -4
 940 0002 85B0     		sub	sp, sp, #20
 941              		.cfi_def_cfa_offset 24
 942 0004 0190     		str	r0, [sp, #4]
 943 0006 0091     		str	r1, [sp]
 944              	.LBB25:
 945              		.loc 5 134 0
 946 0008 009B     		ldr	r3, [sp]
 947 000a 002B     		cmp	r3, #0
 948 000c 02D1     		bne	.L64
 949              		.loc 5 134 0 is_stmt 0 discriminator 1
 950 000e 4FF0FF33 		mov	r3, #-1
 951 0012 1FE0     		b	.L65
 952              	.L64:
 953              		.loc 5 136 0 is_stmt 1
 954 0014 0023     		movs	r3, #0
 955 0016 0393     		str	r3, [sp, #12]
ARM GAS  /tmp/ccx4702l.s 			page 18


 956              		.loc 5 137 0
 957 0018 FFF7FEFF 		bl	_ZN3r2p7SysLock7acquireEv
 958              	.LBB26:
 959              		.loc 5 138 0
 960 001c 019B     		ldr	r3, [sp, #4]
 961 001e 1B68     		ldr	r3, [r3]
 962 0020 0293     		str	r3, [sp, #8]
 963 0022 10E0     		b	.L66
 964              	.L68:
 965              		.loc 5 139 0
 966 0024 FFF7FEFF 		bl	_ZN3r2p7SysLock7releaseEv
 967              		.loc 5 140 0
 968 0028 029B     		ldr	r3, [sp, #8]
 969 002a 5A68     		ldr	r2, [r3, #4]
 970 002c 009B     		ldr	r3, [sp]
 971 002e 9A42     		cmp	r2, r3
 972 0030 01D1     		bne	.L67
 973              		.loc 5 141 0
 974 0032 039B     		ldr	r3, [sp, #12]
 975 0034 0EE0     		b	.L65
 976              	.L67:
 977              		.loc 5 143 0
 978 0036 FFF7FEFF 		bl	_ZN3r2p7SysLock7acquireEv
 979              		.loc 5 138 0
 980 003a 039B     		ldr	r3, [sp, #12]
 981 003c 0133     		adds	r3, r3, #1
 982 003e 0393     		str	r3, [sp, #12]
 983 0040 029B     		ldr	r3, [sp, #8]
 984 0042 1B68     		ldr	r3, [r3]
 985 0044 0293     		str	r3, [sp, #8]
 986              	.L66:
 987              		.loc 5 138 0 is_stmt 0 discriminator 1
 988 0046 029B     		ldr	r3, [sp, #8]
 989 0048 002B     		cmp	r3, #0
 990 004a EBD1     		bne	.L68
 991              	.LBE26:
 992              		.loc 5 145 0 is_stmt 1
 993 004c FFF7FEFF 		bl	_ZN3r2p7SysLock7releaseEv
 994              		.loc 5 146 0
 995 0050 4FF0FF33 		mov	r3, #-1
 996              	.L65:
 997              	.LBE25:
 998              		.loc 5 147 0
 999 0054 1846     		mov	r0, r3
 1000 0056 05B0     		add	sp, sp, #20
 1001              		@ sp needed
 1002 0058 5DF804FB 		ldr	pc, [sp], #4
 1003              		.cfi_endproc
 1004              	.LFE53:
 1005              		.size	_ZNK3r2p11StaticList_8index_ofEPKv, .-_ZNK3r2p11StaticList_8index_ofEPKv
 1006 005c AFF30080 		.section	.text._ZNK3r2p11StaticList_8containsEPKv,"ax",%progbits
 1007              		.align	2
 1008              		.p2align 4,,15
 1009              		.global	_ZNK3r2p11StaticList_8containsEPKv
 1010              		.thumb
 1011              		.thumb_func
 1012              		.type	_ZNK3r2p11StaticList_8containsEPKv, %function
ARM GAS  /tmp/ccx4702l.s 			page 19


 1013              	_ZNK3r2p11StaticList_8containsEPKv:
 1014              	.LFB54:
 1015              		.loc 5 150 0
 1016              		.cfi_startproc
 1017              		@ args = 0, pretend = 0, frame = 16
 1018              		@ frame_needed = 0, uses_anonymous_args = 0
 1019 0000 00B5     		push	{lr}
 1020              		.cfi_def_cfa_offset 4
 1021              		.cfi_offset 14, -4
 1022 0002 85B0     		sub	sp, sp, #20
 1023              		.cfi_def_cfa_offset 24
 1024 0004 0190     		str	r0, [sp, #4]
 1025 0006 0091     		str	r1, [sp]
 1026              	.LBB27:
 1027              		.loc 5 152 0
 1028 0008 FFF7FEFF 		bl	_ZN3r2p7SysLock7acquireEv
 1029              	.LBB28:
 1030              		.loc 5 153 0
 1031 000c 019B     		ldr	r3, [sp, #4]
 1032 000e 1B68     		ldr	r3, [r3]
 1033 0010 0393     		str	r3, [sp, #12]
 1034 0012 0FE0     		b	.L70
 1035              	.L73:
 1036              		.loc 5 154 0
 1037 0014 039B     		ldr	r3, [sp, #12]
 1038 0016 5A68     		ldr	r2, [r3, #4]
 1039 0018 009B     		ldr	r3, [sp]
 1040 001a 9A42     		cmp	r2, r3
 1041 001c 03D1     		bne	.L71
 1042              		.loc 5 155 0
 1043 001e FFF7FEFF 		bl	_ZN3r2p7SysLock7releaseEv
 1044              		.loc 5 156 0
 1045 0022 0123     		movs	r3, #1
 1046 0024 0CE0     		b	.L72
 1047              	.L71:
 1048              		.loc 5 158 0
 1049 0026 FFF7FEFF 		bl	_ZN3r2p7SysLock7releaseEv
 1050              		.loc 5 159 0
 1051 002a FFF7FEFF 		bl	_ZN3r2p7SysLock7acquireEv
 1052              		.loc 5 153 0
 1053 002e 039B     		ldr	r3, [sp, #12]
 1054 0030 1B68     		ldr	r3, [r3]
 1055 0032 0393     		str	r3, [sp, #12]
 1056              	.L70:
 1057              		.loc 5 153 0 is_stmt 0 discriminator 1
 1058 0034 039B     		ldr	r3, [sp, #12]
 1059 0036 002B     		cmp	r3, #0
 1060 0038 ECD1     		bne	.L73
 1061              	.LBE28:
 1062              		.loc 5 161 0 is_stmt 1
 1063 003a FFF7FEFF 		bl	_ZN3r2p7SysLock7releaseEv
 1064              		.loc 5 162 0
 1065 003e 0023     		movs	r3, #0
 1066              	.L72:
 1067              	.LBE27:
 1068              		.loc 5 163 0
 1069 0040 1846     		mov	r0, r3
ARM GAS  /tmp/ccx4702l.s 			page 20


 1070 0042 05B0     		add	sp, sp, #20
 1071              		@ sp needed
 1072 0044 5DF804FB 		ldr	pc, [sp], #4
 1073              		.cfi_endproc
 1074              	.LFE54:
 1075              		.size	_ZNK3r2p11StaticList_8containsEPKv, .-_ZNK3r2p11StaticList_8containsEPKv
 1076 0048 AFF30080 		.section	.text._ZNK3r2p11StaticList_10find_firstEPFbPKvE,"ax",%progbits
 1076      AFF30080 
 1077              		.align	2
 1078              		.p2align 4,,15
 1079              		.global	_ZNK3r2p11StaticList_10find_firstEPFbPKvE
 1080              		.thumb
 1081              		.thumb_func
 1082              		.type	_ZNK3r2p11StaticList_10find_firstEPFbPKvE, %function
 1083              	_ZNK3r2p11StaticList_10find_firstEPFbPKvE:
 1084              	.LFB55:
 1085              		.loc 5 166 0
 1086              		.cfi_startproc
 1087              		@ args = 0, pretend = 0, frame = 16
 1088              		@ frame_needed = 0, uses_anonymous_args = 0
 1089 0000 00B5     		push	{lr}
 1090              		.cfi_def_cfa_offset 4
 1091              		.cfi_offset 14, -4
 1092 0002 85B0     		sub	sp, sp, #20
 1093              		.cfi_def_cfa_offset 24
 1094 0004 0190     		str	r0, [sp, #4]
 1095 0006 0091     		str	r1, [sp]
 1096              	.LBB29:
 1097              		.loc 5 168 0
 1098 0008 FFF7FEFF 		bl	_ZN3r2p7SysLock7acquireEv
 1099              	.LBB30:
 1100              		.loc 5 169 0
 1101 000c 019B     		ldr	r3, [sp, #4]
 1102 000e 1B68     		ldr	r3, [r3]
 1103 0010 0393     		str	r3, [sp, #12]
 1104 0012 11E0     		b	.L75
 1105              	.L78:
 1106              		.loc 5 170 0
 1107 0014 FFF7FEFF 		bl	_ZN3r2p7SysLock7releaseEv
 1108              		.loc 5 171 0
 1109 0018 039B     		ldr	r3, [sp, #12]
 1110 001a 5A68     		ldr	r2, [r3, #4]
 1111 001c 009B     		ldr	r3, [sp]
 1112 001e 1046     		mov	r0, r2
 1113 0020 9847     		blx	r3
 1114 0022 0346     		mov	r3, r0
 1115 0024 002B     		cmp	r3, #0
 1116 0026 02D0     		beq	.L76
 1117              		.loc 5 172 0
 1118 0028 039B     		ldr	r3, [sp, #12]
 1119 002a 5B68     		ldr	r3, [r3, #4]
 1120 002c 0AE0     		b	.L77
 1121              	.L76:
 1122              		.loc 5 174 0
 1123 002e FFF7FEFF 		bl	_ZN3r2p7SysLock7acquireEv
 1124              		.loc 5 169 0
 1125 0032 039B     		ldr	r3, [sp, #12]
ARM GAS  /tmp/ccx4702l.s 			page 21


 1126 0034 1B68     		ldr	r3, [r3]
 1127 0036 0393     		str	r3, [sp, #12]
 1128              	.L75:
 1129              		.loc 5 169 0 is_stmt 0 discriminator 1
 1130 0038 039B     		ldr	r3, [sp, #12]
 1131 003a 002B     		cmp	r3, #0
 1132 003c EAD1     		bne	.L78
 1133              	.LBE30:
 1134              		.loc 5 176 0 is_stmt 1
 1135 003e FFF7FEFF 		bl	_ZN3r2p7SysLock7releaseEv
 1136              		.loc 5 177 0
 1137 0042 0023     		movs	r3, #0
 1138              	.L77:
 1139              	.LBE29:
 1140              		.loc 5 178 0
 1141 0044 1846     		mov	r0, r3
 1142 0046 05B0     		add	sp, sp, #20
 1143              		@ sp needed
 1144 0048 5DF804FB 		ldr	pc, [sp], #4
 1145              		.cfi_endproc
 1146              	.LFE55:
 1147              		.size	_ZNK3r2p11StaticList_10find_firstEPFbPKvE, .-_ZNK3r2p11StaticList_10find_firstEPFbPKvE
 1148 004c AFF30080 		.section	.text._ZNK3r2p11StaticList_10find_firstEPFbPKvS2_ES2_,"ax",%progbits
 1149              		.align	2
 1150              		.p2align 4,,15
 1151              		.global	_ZNK3r2p11StaticList_10find_firstEPFbPKvS2_ES2_
 1152              		.thumb
 1153              		.thumb_func
 1154              		.type	_ZNK3r2p11StaticList_10find_firstEPFbPKvS2_ES2_, %function
 1155              	_ZNK3r2p11StaticList_10find_firstEPFbPKvS2_ES2_:
 1156              	.LFB56:
 1157              		.loc 5 182 0
 1158              		.cfi_startproc
 1159              		@ args = 0, pretend = 0, frame = 24
 1160              		@ frame_needed = 0, uses_anonymous_args = 0
 1161 0000 00B5     		push	{lr}
 1162              		.cfi_def_cfa_offset 4
 1163              		.cfi_offset 14, -4
 1164 0002 87B0     		sub	sp, sp, #28
 1165              		.cfi_def_cfa_offset 32
 1166 0004 0390     		str	r0, [sp, #12]
 1167 0006 0291     		str	r1, [sp, #8]
 1168 0008 0192     		str	r2, [sp, #4]
 1169              	.LBB31:
 1170              		.loc 5 184 0
 1171 000a 019B     		ldr	r3, [sp, #4]
 1172 000c 002B     		cmp	r3, #0
 1173 000e 02D1     		bne	.L80
 1174              		.loc 5 184 0 is_stmt 0 discriminator 1
 1175 0010 1248     		ldr	r0, .L85
 1176 0012 FFF7FEFF 		bl	chDbgPanic
 1177              	.L80:
 1178              		.loc 5 186 0 is_stmt 1
 1179 0016 FFF7FEFF 		bl	_ZN3r2p7SysLock7acquireEv
 1180              	.LBB32:
 1181              		.loc 5 187 0
 1182 001a 039B     		ldr	r3, [sp, #12]
ARM GAS  /tmp/ccx4702l.s 			page 22


 1183 001c 1B68     		ldr	r3, [r3]
 1184 001e 0593     		str	r3, [sp, #20]
 1185 0020 12E0     		b	.L81
 1186              	.L84:
 1187              		.loc 5 188 0
 1188 0022 FFF7FEFF 		bl	_ZN3r2p7SysLock7releaseEv
 1189              		.loc 5 189 0
 1190 0026 059B     		ldr	r3, [sp, #20]
 1191 0028 5A68     		ldr	r2, [r3, #4]
 1192 002a 029B     		ldr	r3, [sp, #8]
 1193 002c 1046     		mov	r0, r2
 1194 002e 0199     		ldr	r1, [sp, #4]
 1195 0030 9847     		blx	r3
 1196 0032 0346     		mov	r3, r0
 1197 0034 002B     		cmp	r3, #0
 1198 0036 02D0     		beq	.L82
 1199              		.loc 5 190 0
 1200 0038 059B     		ldr	r3, [sp, #20]
 1201 003a 5B68     		ldr	r3, [r3, #4]
 1202 003c 0AE0     		b	.L83
 1203              	.L82:
 1204              		.loc 5 192 0
 1205 003e FFF7FEFF 		bl	_ZN3r2p7SysLock7acquireEv
 1206              		.loc 5 187 0
 1207 0042 059B     		ldr	r3, [sp, #20]
 1208 0044 1B68     		ldr	r3, [r3]
 1209 0046 0593     		str	r3, [sp, #20]
 1210              	.L81:
 1211              		.loc 5 187 0 is_stmt 0 discriminator 1
 1212 0048 059B     		ldr	r3, [sp, #20]
 1213 004a 002B     		cmp	r3, #0
 1214 004c E9D1     		bne	.L84
 1215              	.LBE32:
 1216              		.loc 5 194 0 is_stmt 1
 1217 004e FFF7FEFF 		bl	_ZN3r2p7SysLock7releaseEv
 1218              		.loc 5 195 0
 1219 0052 0023     		movs	r3, #0
 1220              	.L83:
 1221              	.LBE31:
 1222              		.loc 5 196 0
 1223 0054 1846     		mov	r0, r3
 1224 0056 07B0     		add	sp, sp, #28
 1225              		@ sp needed
 1226 0058 5DF804FB 		ldr	pc, [sp], #4
 1227              	.L86:
 1228              		.align	2
 1229              	.L85:
 1230 005c 00000000 		.word	.LC0
 1231              		.cfi_endproc
 1232              	.LFE56:
 1233              		.size	_ZNK3r2p11StaticList_10find_firstEPFbPKvS2_ES2_, .-_ZNK3r2p11StaticList_10find_firstEPFbPKvS
 1234              		.section	.text._ZN3r2p11StaticList_C2Ev,"ax",%progbits
 1235              		.align	2
 1236              		.p2align 4,,15
 1237              		.global	_ZN3r2p11StaticList_C2Ev
 1238              		.thumb
 1239              		.thumb_func
ARM GAS  /tmp/ccx4702l.s 			page 23


 1240              		.type	_ZN3r2p11StaticList_C2Ev, %function
 1241              	_ZN3r2p11StaticList_C2Ev:
 1242              	.LFB58:
 1243              		.loc 5 199 0
 1244              		.cfi_startproc
 1245              		@ args = 0, pretend = 0, frame = 8
 1246              		@ frame_needed = 0, uses_anonymous_args = 0
 1247 0000 00B5     		push	{lr}
 1248              		.cfi_def_cfa_offset 4
 1249              		.cfi_offset 14, -4
 1250 0002 83B0     		sub	sp, sp, #12
 1251              		.cfi_def_cfa_offset 16
 1252 0004 0190     		str	r0, [sp, #4]
 1253              	.LBB33:
 1254              		.loc 5 201 0
 1255 0006 0198     		ldr	r0, [sp, #4]
 1256 0008 FFF7FEFF 		bl	_ZN3r2p10UncopyableC2Ev
 1257 000c 019B     		ldr	r3, [sp, #4]
 1258 000e 0022     		movs	r2, #0
 1259 0010 1A60     		str	r2, [r3]
 1260              	.LBE33:
 1261              		.loc 5 202 0
 1262 0012 019B     		ldr	r3, [sp, #4]
 1263 0014 1846     		mov	r0, r3
 1264 0016 03B0     		add	sp, sp, #12
 1265              		@ sp needed
 1266 0018 5DF804FB 		ldr	pc, [sp], #4
 1267              		.cfi_endproc
 1268              	.LFE58:
 1269              		.size	_ZN3r2p11StaticList_C2Ev, .-_ZN3r2p11StaticList_C2Ev
 1270              		.global	_ZN3r2p11StaticList_C1Ev
 1271              		.thumb_set _ZN3r2p11StaticList_C1Ev,_ZN3r2p11StaticList_C2Ev
 1272 001c AFF30080 		.text
 1273              	.Letext0:
 1274              		.file 6 "/usr/lib/gcc/arm-none-eabi/4.8/include/stddef.h"
 1275              		.file 7 "/usr/include/newlib/machine/_default_types.h"
 1276              		.file 8 "/usr/include/newlib/c++/4.8/cstring"
 1277              		.file 9 "/usr/include/newlib/string.h"
 1278              		.file 10 "<built-in>"
 1279              		.file 11 "/usr/include/newlib/stdint.h"