ARM GAS  /tmp/ccAGGJrn.s 			page 1


   1              		.syntax unified
   2              		.cpu cortex-m4
   3              		.eabi_attribute 27, 3
   4              		.eabi_attribute 28, 1
   5              		.fpu fpv4-sp-d16
   6              		.eabi_attribute 20, 1
   7              		.eabi_attribute 21, 1
   8              		.eabi_attribute 23, 3
   9              		.eabi_attribute 24, 1
  10              		.eabi_attribute 25, 1
  11              		.eabi_attribute 26, 1
  12              		.eabi_attribute 30, 6
  13              		.eabi_attribute 34, 1
  14              		.eabi_attribute 18, 4
  15              		.thumb
  16              		.file	"StaticQueue_.cpp"
  17              		.text
  18              	.Ltext0:
  19              		.cfi_sections	.debug_frame
  20              		.section	.text._ZN3r2p10UncopyableC2Ev,"axG",%progbits,_ZN3r2p10UncopyableC5Ev,comdat
  21              		.align	2
  22              		.p2align 4,,15
  23              		.weak	_ZN3r2p10UncopyableC2Ev
  24              		.thumb
  25              		.thumb_func
  26              		.type	_ZN3r2p10UncopyableC2Ev, %function
  27              	_ZN3r2p10UncopyableC2Ev:
  28              	.LFB6:
  29              		.file 1 "/home/dave/r2p-sdk/core/Middleware/include/r2p/Uncopyable.hpp"
  30              		.loc 1 20 0
  31              		.cfi_startproc
  32              		@ args = 0, pretend = 0, frame = 8
  33              		@ frame_needed = 0, uses_anonymous_args = 0
  34              		@ link register save eliminated.
  35 0000 82B0     		sub	sp, sp, #8
  36              		.cfi_def_cfa_offset 8
  37 0002 0190     		str	r0, [sp, #4]
  38              		.loc 1 20 0
  39 0004 019B     		ldr	r3, [sp, #4]
  40 0006 1846     		mov	r0, r3
  41 0008 02B0     		add	sp, sp, #8
  42              		@ sp needed
  43 000a 7047     		bx	lr
  44              		.cfi_endproc
  45              	.LFE6:
  46              		.size	_ZN3r2p10UncopyableC2Ev, .-_ZN3r2p10UncopyableC2Ev
  47              		.weak	_ZN3r2p10UncopyableC1Ev
  48              		.thumb_set _ZN3r2p10UncopyableC1Ev,_ZN3r2p10UncopyableC2Ev
  49 000c AFF30080 		.section	.text._ZN3r2p8SysLock_7acquireEv,"axG",%progbits,_ZN3r2p8SysLock_7acquireEv,comdat
  50              		.align	2
  51              		.p2align 4,,15
  52              		.weak	_ZN3r2p8SysLock_7acquireEv
  53              		.thumb
  54              		.thumb_func
  55              		.type	_ZN3r2p8SysLock_7acquireEv, %function
  56              	_ZN3r2p8SysLock_7acquireEv:
  57              	.LFB18:
ARM GAS  /tmp/ccAGGJrn.s 			page 2


  58              		.file 2 "/home/dave/r2p-sdk/core/Middleware/port/chibios/include/r2p/impl/SysLock_.hpp"
  59              		.loc 2 20 0
  60              		.cfi_startproc
  61              		@ args = 0, pretend = 0, frame = 0
  62              		@ frame_needed = 0, uses_anonymous_args = 0
  63 0000 08B5     		push	{r3, lr}
  64              		.cfi_def_cfa_offset 8
  65              		.cfi_offset 3, -8
  66              		.cfi_offset 14, -4
  67              	.LBB2:
  68              	.LBB3:
  69              	.LBB4:
  70              		.loc 2 22 0
  71 0002 2023     		movs	r3, #32
  72              	@ 22 "/home/dave/r2p-sdk/core/Middleware/port/chibios/include/r2p/impl/SysLock_.hpp" 1
  73 0004 83F31188 		msr     BASEPRI, r3
  74              	@ 0 "" 2
  75              		.thumb
  76              	.LBE4:
  77 0008 FFF7FEFF 		bl	dbg_check_lock
  78              	.LBE3:
  79              	.LBE2:
  80              		.loc 2 23 0
  81 000c 08BD     		pop	{r3, pc}
  82              		.cfi_endproc
  83              	.LFE18:
  84              		.size	_ZN3r2p8SysLock_7acquireEv, .-_ZN3r2p8SysLock_7acquireEv
  85 000e 00BF     		.section	.text._ZN3r2p8SysLock_7releaseEv,"axG",%progbits,_ZN3r2p8SysLock_7releaseEv,comdat
  86              		.align	2
  87              		.p2align 4,,15
  88              		.weak	_ZN3r2p8SysLock_7releaseEv
  89              		.thumb
  90              		.thumb_func
  91              		.type	_ZN3r2p8SysLock_7releaseEv, %function
  92              	_ZN3r2p8SysLock_7releaseEv:
  93              	.LFB19:
  94              		.loc 2 27 0
  95              		.cfi_startproc
  96              		@ args = 0, pretend = 0, frame = 0
  97              		@ frame_needed = 0, uses_anonymous_args = 0
  98 0000 08B5     		push	{r3, lr}
  99              		.cfi_def_cfa_offset 8
 100              		.cfi_offset 3, -8
 101              		.cfi_offset 14, -4
 102              	.LBB5:
 103              	.LBB6:
 104              		.loc 2 29 0
 105 0002 FFF7FEFF 		bl	dbg_check_unlock
 106              	.LBB7:
 107 0006 0023     		movs	r3, #0
 108              	@ 29 "/home/dave/r2p-sdk/core/Middleware/port/chibios/include/r2p/impl/SysLock_.hpp" 1
 109 0008 83F31188 		msr     BASEPRI, r3
 110              	@ 0 "" 2
 111              		.thumb
 112              	.LBE7:
 113              	.LBE6:
 114              	.LBE5:
ARM GAS  /tmp/ccAGGJrn.s 			page 3


 115              		.loc 2 30 0
 116 000c 08BD     		pop	{r3, pc}
 117              		.cfi_endproc
 118              	.LFE19:
 119              		.size	_ZN3r2p8SysLock_7releaseEv, .-_ZN3r2p8SysLock_7releaseEv
 120 000e 00BF     		.section	.text._ZN3r2p7SysLock7acquireEv,"axG",%progbits,_ZN3r2p7SysLock7acquireEv,comdat
 121              		.align	2
 122              		.p2align 4,,15
 123              		.weak	_ZN3r2p7SysLock7acquireEv
 124              		.thumb
 125              		.thumb_func
 126              		.type	_ZN3r2p7SysLock7acquireEv, %function
 127              	_ZN3r2p7SysLock7acquireEv:
 128              	.LFB26:
 129              		.file 3 "/home/dave/r2p-sdk/core/Middleware/include/r2p/SysLock.hpp"
 130              		.loc 3 27 0
 131              		.cfi_startproc
 132              		@ args = 0, pretend = 0, frame = 0
 133              		@ frame_needed = 0, uses_anonymous_args = 0
 134 0000 08B5     		push	{r3, lr}
 135              		.cfi_def_cfa_offset 8
 136              		.cfi_offset 3, -8
 137              		.cfi_offset 14, -4
 138              		.loc 3 29 0
 139 0002 FFF7FEFF 		bl	_ZN3r2p8SysLock_7acquireEv
 140              		.loc 3 30 0
 141 0006 08BD     		pop	{r3, pc}
 142              		.cfi_endproc
 143              	.LFE26:
 144              		.size	_ZN3r2p7SysLock7acquireEv, .-_ZN3r2p7SysLock7acquireEv
 145 0008 AFF30080 		.section	.text._ZN3r2p7SysLock7releaseEv,"axG",%progbits,_ZN3r2p7SysLock7releaseEv,comdat
 145      AFF30080 
 146              		.align	2
 147              		.p2align 4,,15
 148              		.weak	_ZN3r2p7SysLock7releaseEv
 149              		.thumb
 150              		.thumb_func
 151              		.type	_ZN3r2p7SysLock7releaseEv, %function
 152              	_ZN3r2p7SysLock7releaseEv:
 153              	.LFB27:
 154              		.loc 3 34 0
 155              		.cfi_startproc
 156              		@ args = 0, pretend = 0, frame = 0
 157              		@ frame_needed = 0, uses_anonymous_args = 0
 158 0000 08B5     		push	{r3, lr}
 159              		.cfi_def_cfa_offset 8
 160              		.cfi_offset 3, -8
 161              		.cfi_offset 14, -4
 162              		.loc 3 36 0
 163 0002 FFF7FEFF 		bl	_ZN3r2p8SysLock_7releaseEv
 164              		.loc 3 37 0
 165 0006 08BD     		pop	{r3, pc}
 166              		.cfi_endproc
 167              	.LFE27:
 168              		.size	_ZN3r2p7SysLock7releaseEv, .-_ZN3r2p7SysLock7releaseEv
 169 0008 AFF30080 		.section	.text._ZNK3r2p12StaticQueue_15is_empty_unsafeEv,"axG",%progbits,_ZNK3r2p12StaticQueue_15i
 169      AFF30080 
ARM GAS  /tmp/ccAGGJrn.s 			page 4


 170              		.align	2
 171              		.p2align 4,,15
 172              		.weak	_ZNK3r2p12StaticQueue_15is_empty_unsafeEv
 173              		.thumb
 174              		.thumb_func
 175              		.type	_ZNK3r2p12StaticQueue_15is_empty_unsafeEv, %function
 176              	_ZNK3r2p12StaticQueue_15is_empty_unsafeEv:
 177              	.LFB39:
 178              		.file 4 "/home/dave/r2p-sdk/core/Middleware/include/r2p/impl/StaticQueue_.hpp"
 179              		.loc 4 49 0
 180              		.cfi_startproc
 181              		@ args = 0, pretend = 0, frame = 8
 182              		@ frame_needed = 0, uses_anonymous_args = 0
 183              		@ link register save eliminated.
 184 0000 82B0     		sub	sp, sp, #8
 185              		.cfi_def_cfa_offset 8
 186 0002 0190     		str	r0, [sp, #4]
 187              		.loc 4 51 0
 188 0004 019B     		ldr	r3, [sp, #4]
 189 0006 1B68     		ldr	r3, [r3]
 190 0008 002B     		cmp	r3, #0
 191 000a 14BF     		ite	ne
 192 000c 0023     		movne	r3, #0
 193 000e 0123     		moveq	r3, #1
 194 0010 DBB2     		uxtb	r3, r3
 195              		.loc 4 52 0
 196 0012 1846     		mov	r0, r3
 197 0014 02B0     		add	sp, sp, #8
 198              		@ sp needed
 199 0016 7047     		bx	lr
 200              		.cfi_endproc
 201              	.LFE39:
 202              		.size	_ZNK3r2p12StaticQueue_15is_empty_unsafeEv, .-_ZNK3r2p12StaticQueue_15is_empty_unsafeEv
 203 0018 AFF30080 		.section	.text._ZNK3r2p12StaticQueue_15get_head_unsafeEv,"ax",%progbits
 203      AFF30080 
 204              		.align	2
 205              		.p2align 4,,15
 206              		.global	_ZNK3r2p12StaticQueue_15get_head_unsafeEv
 207              		.thumb
 208              		.thumb_func
 209              		.type	_ZNK3r2p12StaticQueue_15get_head_unsafeEv, %function
 210              	_ZNK3r2p12StaticQueue_15get_head_unsafeEv:
 211              	.LFB40:
 212              		.file 5 "/home/dave/r2p-sdk/core/Middleware/src/impl/StaticQueue_.cpp"
 213              		.loc 5 7 0
 214              		.cfi_startproc
 215              		@ args = 0, pretend = 0, frame = 8
 216              		@ frame_needed = 0, uses_anonymous_args = 0
 217              		@ link register save eliminated.
 218 0000 82B0     		sub	sp, sp, #8
 219              		.cfi_def_cfa_offset 8
 220 0002 0190     		str	r0, [sp, #4]
 221              		.loc 5 9 0
 222 0004 019B     		ldr	r3, [sp, #4]
 223 0006 1B68     		ldr	r3, [r3]
 224              		.loc 5 10 0
 225 0008 1846     		mov	r0, r3
ARM GAS  /tmp/ccAGGJrn.s 			page 5


 226 000a 02B0     		add	sp, sp, #8
 227              		@ sp needed
 228 000c 7047     		bx	lr
 229              		.cfi_endproc
 230              	.LFE40:
 231              		.size	_ZNK3r2p12StaticQueue_15get_head_unsafeEv, .-_ZNK3r2p12StaticQueue_15get_head_unsafeEv
 232 000e 00BF     		.section	.text._ZNK3r2p12StaticQueue_15get_tail_unsafeEv,"ax",%progbits
 233              		.align	2
 234              		.p2align 4,,15
 235              		.global	_ZNK3r2p12StaticQueue_15get_tail_unsafeEv
 236              		.thumb
 237              		.thumb_func
 238              		.type	_ZNK3r2p12StaticQueue_15get_tail_unsafeEv, %function
 239              	_ZNK3r2p12StaticQueue_15get_tail_unsafeEv:
 240              	.LFB41:
 241              		.loc 5 13 0
 242              		.cfi_startproc
 243              		@ args = 0, pretend = 0, frame = 8
 244              		@ frame_needed = 0, uses_anonymous_args = 0
 245              		@ link register save eliminated.
 246 0000 82B0     		sub	sp, sp, #8
 247              		.cfi_def_cfa_offset 8
 248 0002 0190     		str	r0, [sp, #4]
 249              		.loc 5 15 0
 250 0004 019B     		ldr	r3, [sp, #4]
 251 0006 5B68     		ldr	r3, [r3, #4]
 252              		.loc 5 16 0
 253 0008 1846     		mov	r0, r3
 254 000a 02B0     		add	sp, sp, #8
 255              		@ sp needed
 256 000c 7047     		bx	lr
 257              		.cfi_endproc
 258              	.LFE41:
 259              		.size	_ZNK3r2p12StaticQueue_15get_tail_unsafeEv, .-_ZNK3r2p12StaticQueue_15get_tail_unsafeEv
 260 000e 00BF     		.section	.rodata
 261              		.align	2
 262              	.LC0:
 263 0000 5232505F 		.ascii	"R2P_ASSERT()\000"
 263      41535345 
 263      52542829 
 263      00
 264 000d 000000   		.section	.text._ZN3r2p12StaticQueue_11post_unsafeERNS0_4LinkE,"ax",%progbits
 265              		.align	2
 266              		.p2align 4,,15
 267              		.global	_ZN3r2p12StaticQueue_11post_unsafeERNS0_4LinkE
 268              		.thumb
 269              		.thumb_func
 270              		.type	_ZN3r2p12StaticQueue_11post_unsafeERNS0_4LinkE, %function
 271              	_ZN3r2p12StaticQueue_11post_unsafeERNS0_4LinkE:
 272              	.LFB42:
 273              		.loc 5 19 0
 274              		.cfi_startproc
 275              		@ args = 0, pretend = 0, frame = 8
 276              		@ frame_needed = 0, uses_anonymous_args = 0
 277 0000 00B5     		push	{lr}
 278              		.cfi_def_cfa_offset 4
 279              		.cfi_offset 14, -4
ARM GAS  /tmp/ccAGGJrn.s 			page 6


 280 0002 83B0     		sub	sp, sp, #12
 281              		.cfi_def_cfa_offset 16
 282 0004 0190     		str	r0, [sp, #4]
 283 0006 0091     		str	r1, [sp]
 284              		.loc 5 21 0
 285 0008 019B     		ldr	r3, [sp, #4]
 286 000a 1B68     		ldr	r3, [r3]
 287 000c 002B     		cmp	r3, #0
 288 000e 0CBF     		ite	eq
 289 0010 0023     		moveq	r3, #0
 290 0012 0123     		movne	r3, #1
 291 0014 DAB2     		uxtb	r2, r3
 292 0016 019B     		ldr	r3, [sp, #4]
 293 0018 5B68     		ldr	r3, [r3, #4]
 294 001a 002B     		cmp	r3, #0
 295 001c 0CBF     		ite	eq
 296 001e 0023     		moveq	r3, #0
 297 0020 0123     		movne	r3, #1
 298 0022 DBB2     		uxtb	r3, r3
 299 0024 5340     		eors	r3, r3, r2
 300 0026 DBB2     		uxtb	r3, r3
 301 0028 002B     		cmp	r3, #0
 302 002a 02D0     		beq	.L15
 303              		.loc 5 21 0 is_stmt 0 discriminator 1
 304 002c 1348     		ldr	r0, .L20
 305 002e FFF7FEFF 		bl	chDbgPanic
 306              	.L15:
 307              		.loc 5 22 0 is_stmt 1
 308 0032 009B     		ldr	r3, [sp]
 309 0034 1B68     		ldr	r3, [r3]
 310 0036 002B     		cmp	r3, #0
 311 0038 02D0     		beq	.L16
 312              		.loc 5 22 0 is_stmt 0 discriminator 1
 313 003a 1048     		ldr	r0, .L20
 314 003c FFF7FEFF 		bl	chDbgPanic
 315              	.L16:
 316              		.loc 5 24 0 is_stmt 1
 317 0040 019B     		ldr	r3, [sp, #4]
 318 0042 5B68     		ldr	r3, [r3, #4]
 319 0044 002B     		cmp	r3, #0
 320 0046 0FD0     		beq	.L17
 321              		.loc 5 25 0
 322 0048 019B     		ldr	r3, [sp, #4]
 323 004a 5B68     		ldr	r3, [r3, #4]
 324 004c 1B68     		ldr	r3, [r3]
 325 004e 002B     		cmp	r3, #0
 326 0050 02D0     		beq	.L18
 327              		.loc 5 25 0 is_stmt 0 discriminator 1
 328 0052 0A48     		ldr	r0, .L20
 329 0054 FFF7FEFF 		bl	chDbgPanic
 330              	.L18:
 331              		.loc 5 26 0 is_stmt 1 discriminator 1
 332 0058 019B     		ldr	r3, [sp, #4]
 333 005a 5B68     		ldr	r3, [r3, #4]
 334 005c 009A     		ldr	r2, [sp]
 335 005e 1A60     		str	r2, [r3]
 336              		.loc 5 27 0 discriminator 1
ARM GAS  /tmp/ccAGGJrn.s 			page 7


 337 0060 019B     		ldr	r3, [sp, #4]
 338 0062 009A     		ldr	r2, [sp]
 339 0064 5A60     		str	r2, [r3, #4]
 340 0066 06E0     		b	.L14
 341              	.L17:
 342              		.loc 5 29 0
 343 0068 019B     		ldr	r3, [sp, #4]
 344 006a 009A     		ldr	r2, [sp]
 345 006c 5A60     		str	r2, [r3, #4]
 346 006e 019B     		ldr	r3, [sp, #4]
 347 0070 5A68     		ldr	r2, [r3, #4]
 348 0072 019B     		ldr	r3, [sp, #4]
 349 0074 1A60     		str	r2, [r3]
 350              	.L14:
 351              		.loc 5 31 0
 352 0076 03B0     		add	sp, sp, #12
 353              		@ sp needed
 354 0078 5DF804FB 		ldr	pc, [sp], #4
 355              	.L21:
 356              		.align	2
 357              	.L20:
 358 007c 00000000 		.word	.LC0
 359              		.cfi_endproc
 360              	.LFE42:
 361              		.size	_ZN3r2p12StaticQueue_11post_unsafeERNS0_4LinkE, .-_ZN3r2p12StaticQueue_11post_unsafeERNS0_4L
 362              		.section	.text._ZNK3r2p12StaticQueue_11peek_unsafeERPKNS0_4LinkE,"ax",%progbits
 363              		.align	2
 364              		.p2align 4,,15
 365              		.global	_ZNK3r2p12StaticQueue_11peek_unsafeERPKNS0_4LinkE
 366              		.thumb
 367              		.thumb_func
 368              		.type	_ZNK3r2p12StaticQueue_11peek_unsafeERPKNS0_4LinkE, %function
 369              	_ZNK3r2p12StaticQueue_11peek_unsafeERPKNS0_4LinkE:
 370              	.LFB43:
 371              		.loc 5 34 0
 372              		.cfi_startproc
 373              		@ args = 0, pretend = 0, frame = 8
 374              		@ frame_needed = 0, uses_anonymous_args = 0
 375 0000 00B5     		push	{lr}
 376              		.cfi_def_cfa_offset 4
 377              		.cfi_offset 14, -4
 378 0002 83B0     		sub	sp, sp, #12
 379              		.cfi_def_cfa_offset 16
 380 0004 0190     		str	r0, [sp, #4]
 381 0006 0091     		str	r1, [sp]
 382              		.loc 5 36 0
 383 0008 019B     		ldr	r3, [sp, #4]
 384 000a 1B68     		ldr	r3, [r3]
 385 000c 002B     		cmp	r3, #0
 386 000e 0CBF     		ite	eq
 387 0010 0023     		moveq	r3, #0
 388 0012 0123     		movne	r3, #1
 389 0014 DAB2     		uxtb	r2, r3
 390 0016 019B     		ldr	r3, [sp, #4]
 391 0018 5B68     		ldr	r3, [r3, #4]
 392 001a 002B     		cmp	r3, #0
 393 001c 0CBF     		ite	eq
ARM GAS  /tmp/ccAGGJrn.s 			page 8


 394 001e 0023     		moveq	r3, #0
 395 0020 0123     		movne	r3, #1
 396 0022 DBB2     		uxtb	r3, r3
 397 0024 5340     		eors	r3, r3, r2
 398 0026 DBB2     		uxtb	r3, r3
 399 0028 002B     		cmp	r3, #0
 400 002a 02D0     		beq	.L23
 401              		.loc 5 36 0 is_stmt 0 discriminator 1
 402 002c 0848     		ldr	r0, .L26
 403 002e FFF7FEFF 		bl	chDbgPanic
 404              	.L23:
 405              		.loc 5 38 0 is_stmt 1
 406 0032 019B     		ldr	r3, [sp, #4]
 407 0034 1B68     		ldr	r3, [r3]
 408 0036 002B     		cmp	r3, #0
 409 0038 05D0     		beq	.L24
 410              		.loc 5 39 0
 411 003a 019B     		ldr	r3, [sp, #4]
 412 003c 1A68     		ldr	r2, [r3]
 413 003e 009B     		ldr	r3, [sp]
 414 0040 1A60     		str	r2, [r3]
 415              		.loc 5 40 0
 416 0042 0123     		movs	r3, #1
 417 0044 00E0     		b	.L25
 418              	.L24:
 419              		.loc 5 42 0
 420 0046 0023     		movs	r3, #0
 421              	.L25:
 422              		.loc 5 43 0
 423 0048 1846     		mov	r0, r3
 424 004a 03B0     		add	sp, sp, #12
 425              		@ sp needed
 426 004c 5DF804FB 		ldr	pc, [sp], #4
 427              	.L27:
 428              		.align	2
 429              	.L26:
 430 0050 00000000 		.word	.LC0
 431              		.cfi_endproc
 432              	.LFE43:
 433              		.size	_ZNK3r2p12StaticQueue_11peek_unsafeERPKNS0_4LinkE, .-_ZNK3r2p12StaticQueue_11peek_unsafeERPK
 434 0054 AFF30080 		.section	.text._ZN3r2p12StaticQueue_12fetch_unsafeERNS0_4LinkE,"ax",%progbits
 434      AFF30080 
 434      AFF30080 
 435              		.align	2
 436              		.p2align 4,,15
 437              		.global	_ZN3r2p12StaticQueue_12fetch_unsafeERNS0_4LinkE
 438              		.thumb
 439              		.thumb_func
 440              		.type	_ZN3r2p12StaticQueue_12fetch_unsafeERNS0_4LinkE, %function
 441              	_ZN3r2p12StaticQueue_12fetch_unsafeERNS0_4LinkE:
 442              	.LFB44:
 443              		.loc 5 46 0
 444              		.cfi_startproc
 445              		@ args = 0, pretend = 0, frame = 8
 446              		@ frame_needed = 0, uses_anonymous_args = 0
 447 0000 10B5     		push	{r4, lr}
 448              		.cfi_def_cfa_offset 8
ARM GAS  /tmp/ccAGGJrn.s 			page 9


 449              		.cfi_offset 4, -8
 450              		.cfi_offset 14, -4
 451 0002 82B0     		sub	sp, sp, #8
 452              		.cfi_def_cfa_offset 16
 453 0004 0190     		str	r0, [sp, #4]
 454 0006 0091     		str	r1, [sp]
 455              	.LBB8:
 456              		.loc 5 48 0
 457 0008 019B     		ldr	r3, [sp, #4]
 458 000a 1B68     		ldr	r3, [r3]
 459 000c 002B     		cmp	r3, #0
 460 000e 0CBF     		ite	eq
 461 0010 0023     		moveq	r3, #0
 462 0012 0123     		movne	r3, #1
 463 0014 DAB2     		uxtb	r2, r3
 464 0016 019B     		ldr	r3, [sp, #4]
 465 0018 5B68     		ldr	r3, [r3, #4]
 466 001a 002B     		cmp	r3, #0
 467 001c 0CBF     		ite	eq
 468 001e 0023     		moveq	r3, #0
 469 0020 0123     		movne	r3, #1
 470 0022 DBB2     		uxtb	r3, r3
 471 0024 5340     		eors	r3, r3, r2
 472 0026 DBB2     		uxtb	r3, r3
 473 0028 002B     		cmp	r3, #0
 474 002a 02D0     		beq	.L29
 475              		.loc 5 48 0 is_stmt 0 discriminator 1
 476 002c 1148     		ldr	r0, .L33
 477 002e FFF7FEFF 		bl	chDbgPanic
 478              	.L29:
 479              	.LBB9:
 480              		.loc 5 50 0 is_stmt 1
 481 0032 019B     		ldr	r3, [sp, #4]
 482 0034 1B68     		ldr	r3, [r3]
 483 0036 002B     		cmp	r3, #0
 484 0038 18D0     		beq	.L30
 485              	.LBB10:
 486              		.loc 5 51 0
 487 003a 019B     		ldr	r3, [sp, #4]
 488 003c 1B68     		ldr	r3, [r3]
 489 003e 1C68     		ldr	r4, [r3]
 490              		.loc 5 52 0
 491 0040 019B     		ldr	r3, [sp, #4]
 492 0042 1B68     		ldr	r3, [r3]
 493 0044 0022     		movs	r2, #0
 494 0046 1A60     		str	r2, [r3]
 495              		.loc 5 53 0
 496 0048 019B     		ldr	r3, [sp, #4]
 497 004a 1A68     		ldr	r2, [r3]
 498 004c 009B     		ldr	r3, [sp]
 499 004e 92E80300 		ldmia	r2, {r0, r1}
 500 0052 83E80300 		stmia	r3, {r0, r1}
 501              		.loc 5 54 0
 502 0056 019B     		ldr	r3, [sp, #4]
 503 0058 1C60     		str	r4, [r3]
 504              		.loc 5 55 0
 505 005a 019B     		ldr	r3, [sp, #4]
ARM GAS  /tmp/ccAGGJrn.s 			page 10


 506 005c 1B68     		ldr	r3, [r3]
 507 005e 002B     		cmp	r3, #0
 508 0060 02D1     		bne	.L31
 509              		.loc 5 56 0
 510 0062 019B     		ldr	r3, [sp, #4]
 511 0064 0022     		movs	r2, #0
 512 0066 5A60     		str	r2, [r3, #4]
 513              	.L31:
 514              		.loc 5 58 0
 515 0068 0123     		movs	r3, #1
 516 006a 00E0     		b	.L32
 517              	.L30:
 518              	.LBE10:
 519              	.LBE9:
 520              		.loc 5 60 0
 521 006c 0023     		movs	r3, #0
 522              	.L32:
 523              	.LBE8:
 524              		.loc 5 61 0
 525 006e 1846     		mov	r0, r3
 526 0070 02B0     		add	sp, sp, #8
 527              		@ sp needed
 528 0072 10BD     		pop	{r4, pc}
 529              	.L34:
 530              		.align	2
 531              	.L33:
 532 0074 00000000 		.word	.LC0
 533              		.cfi_endproc
 534              	.LFE44:
 535              		.size	_ZN3r2p12StaticQueue_12fetch_unsafeERNS0_4LinkE, .-_ZN3r2p12StaticQueue_12fetch_unsafeERNS0_
 536 0078 AFF30080 		.section	.text._ZN3r2p12StaticQueue_11skip_unsafeEv,"ax",%progbits
 536      AFF30080 
 537              		.align	2
 538              		.p2align 4,,15
 539              		.global	_ZN3r2p12StaticQueue_11skip_unsafeEv
 540              		.thumb
 541              		.thumb_func
 542              		.type	_ZN3r2p12StaticQueue_11skip_unsafeEv, %function
 543              	_ZN3r2p12StaticQueue_11skip_unsafeEv:
 544              	.LFB45:
 545              		.loc 5 64 0
 546              		.cfi_startproc
 547              		@ args = 0, pretend = 0, frame = 8
 548              		@ frame_needed = 0, uses_anonymous_args = 0
 549 0000 10B5     		push	{r4, lr}
 550              		.cfi_def_cfa_offset 8
 551              		.cfi_offset 4, -8
 552              		.cfi_offset 14, -4
 553 0002 82B0     		sub	sp, sp, #8
 554              		.cfi_def_cfa_offset 16
 555 0004 0190     		str	r0, [sp, #4]
 556              	.LBB11:
 557              		.loc 5 66 0
 558 0006 019B     		ldr	r3, [sp, #4]
 559 0008 1B68     		ldr	r3, [r3]
 560 000a 002B     		cmp	r3, #0
 561 000c 0CBF     		ite	eq
ARM GAS  /tmp/ccAGGJrn.s 			page 11


 562 000e 0023     		moveq	r3, #0
 563 0010 0123     		movne	r3, #1
 564 0012 DAB2     		uxtb	r2, r3
 565 0014 019B     		ldr	r3, [sp, #4]
 566 0016 5B68     		ldr	r3, [r3, #4]
 567 0018 002B     		cmp	r3, #0
 568 001a 0CBF     		ite	eq
 569 001c 0023     		moveq	r3, #0
 570 001e 0123     		movne	r3, #1
 571 0020 DBB2     		uxtb	r3, r3
 572 0022 5340     		eors	r3, r3, r2
 573 0024 DBB2     		uxtb	r3, r3
 574 0026 002B     		cmp	r3, #0
 575 0028 02D0     		beq	.L36
 576              		.loc 5 66 0 is_stmt 0 discriminator 1
 577 002a 0E48     		ldr	r0, .L40
 578 002c FFF7FEFF 		bl	chDbgPanic
 579              	.L36:
 580              	.LBB12:
 581              		.loc 5 68 0 is_stmt 1
 582 0030 019B     		ldr	r3, [sp, #4]
 583 0032 1B68     		ldr	r3, [r3]
 584 0034 002B     		cmp	r3, #0
 585 0036 11D0     		beq	.L37
 586              	.LBB13:
 587              		.loc 5 69 0
 588 0038 019B     		ldr	r3, [sp, #4]
 589 003a 1B68     		ldr	r3, [r3]
 590 003c 1C68     		ldr	r4, [r3]
 591              		.loc 5 70 0
 592 003e 019B     		ldr	r3, [sp, #4]
 593 0040 1B68     		ldr	r3, [r3]
 594 0042 0022     		movs	r2, #0
 595 0044 1A60     		str	r2, [r3]
 596              		.loc 5 71 0
 597 0046 019B     		ldr	r3, [sp, #4]
 598 0048 1C60     		str	r4, [r3]
 599              		.loc 5 72 0
 600 004a 019B     		ldr	r3, [sp, #4]
 601 004c 1B68     		ldr	r3, [r3]
 602 004e 002B     		cmp	r3, #0
 603 0050 02D1     		bne	.L38
 604              		.loc 5 73 0
 605 0052 019B     		ldr	r3, [sp, #4]
 606 0054 0022     		movs	r2, #0
 607 0056 5A60     		str	r2, [r3, #4]
 608              	.L38:
 609              		.loc 5 75 0
 610 0058 0123     		movs	r3, #1
 611 005a 00E0     		b	.L39
 612              	.L37:
 613              	.LBE13:
 614              	.LBE12:
 615              		.loc 5 77 0
 616 005c 0023     		movs	r3, #0
 617              	.L39:
 618              	.LBE11:
ARM GAS  /tmp/ccAGGJrn.s 			page 12


 619              		.loc 5 78 0
 620 005e 1846     		mov	r0, r3
 621 0060 02B0     		add	sp, sp, #8
 622              		@ sp needed
 623 0062 10BD     		pop	{r4, pc}
 624              	.L41:
 625              		.align	2
 626              	.L40:
 627 0064 00000000 		.word	.LC0
 628              		.cfi_endproc
 629              	.LFE45:
 630              		.size	_ZN3r2p12StaticQueue_11skip_unsafeEv, .-_ZN3r2p12StaticQueue_11skip_unsafeEv
 631 0068 AFF30080 		.section	.text._ZNK3r2p12StaticQueue_8get_headEv,"ax",%progbits
 631      AFF30080 
 632              		.align	2
 633              		.p2align 4,,15
 634              		.global	_ZNK3r2p12StaticQueue_8get_headEv
 635              		.thumb
 636              		.thumb_func
 637              		.type	_ZNK3r2p12StaticQueue_8get_headEv, %function
 638              	_ZNK3r2p12StaticQueue_8get_headEv:
 639              	.LFB46:
 640              		.loc 5 81 0
 641              		.cfi_startproc
 642              		@ args = 0, pretend = 0, frame = 16
 643              		@ frame_needed = 0, uses_anonymous_args = 0
 644 0000 00B5     		push	{lr}
 645              		.cfi_def_cfa_offset 4
 646              		.cfi_offset 14, -4
 647 0002 85B0     		sub	sp, sp, #20
 648              		.cfi_def_cfa_offset 24
 649 0004 0190     		str	r0, [sp, #4]
 650              	.LBB14:
 651              		.loc 5 83 0
 652 0006 FFF7FEFF 		bl	_ZN3r2p7SysLock7acquireEv
 653              		.loc 5 84 0
 654 000a 0198     		ldr	r0, [sp, #4]
 655 000c FFF7FEFF 		bl	_ZNK3r2p12StaticQueue_15get_head_unsafeEv
 656 0010 0390     		str	r0, [sp, #12]
 657              		.loc 5 85 0
 658 0012 FFF7FEFF 		bl	_ZN3r2p7SysLock7releaseEv
 659              		.loc 5 86 0
 660 0016 039B     		ldr	r3, [sp, #12]
 661              	.LBE14:
 662              		.loc 5 87 0
 663 0018 1846     		mov	r0, r3
 664 001a 05B0     		add	sp, sp, #20
 665              		@ sp needed
 666 001c 5DF804FB 		ldr	pc, [sp], #4
 667              		.cfi_endproc
 668              	.LFE46:
 669              		.size	_ZNK3r2p12StaticQueue_8get_headEv, .-_ZNK3r2p12StaticQueue_8get_headEv
 670              		.section	.text._ZNK3r2p12StaticQueue_8get_tailEv,"ax",%progbits
 671              		.align	2
 672              		.p2align 4,,15
 673              		.global	_ZNK3r2p12StaticQueue_8get_tailEv
 674              		.thumb
ARM GAS  /tmp/ccAGGJrn.s 			page 13


 675              		.thumb_func
 676              		.type	_ZNK3r2p12StaticQueue_8get_tailEv, %function
 677              	_ZNK3r2p12StaticQueue_8get_tailEv:
 678              	.LFB47:
 679              		.loc 5 90 0
 680              		.cfi_startproc
 681              		@ args = 0, pretend = 0, frame = 16
 682              		@ frame_needed = 0, uses_anonymous_args = 0
 683 0000 00B5     		push	{lr}
 684              		.cfi_def_cfa_offset 4
 685              		.cfi_offset 14, -4
 686 0002 85B0     		sub	sp, sp, #20
 687              		.cfi_def_cfa_offset 24
 688 0004 0190     		str	r0, [sp, #4]
 689              	.LBB15:
 690              		.loc 5 92 0
 691 0006 FFF7FEFF 		bl	_ZN3r2p7SysLock7acquireEv
 692              		.loc 5 93 0
 693 000a 0198     		ldr	r0, [sp, #4]
 694 000c FFF7FEFF 		bl	_ZNK3r2p12StaticQueue_15get_tail_unsafeEv
 695 0010 0390     		str	r0, [sp, #12]
 696              		.loc 5 94 0
 697 0012 FFF7FEFF 		bl	_ZN3r2p7SysLock7releaseEv
 698              		.loc 5 95 0
 699 0016 039B     		ldr	r3, [sp, #12]
 700              	.LBE15:
 701              		.loc 5 96 0
 702 0018 1846     		mov	r0, r3
 703 001a 05B0     		add	sp, sp, #20
 704              		@ sp needed
 705 001c 5DF804FB 		ldr	pc, [sp], #4
 706              		.cfi_endproc
 707              	.LFE47:
 708              		.size	_ZNK3r2p12StaticQueue_8get_tailEv, .-_ZNK3r2p12StaticQueue_8get_tailEv
 709              		.section	.text._ZNK3r2p12StaticQueue_8is_emptyEv,"ax",%progbits
 710              		.align	2
 711              		.p2align 4,,15
 712              		.global	_ZNK3r2p12StaticQueue_8is_emptyEv
 713              		.thumb
 714              		.thumb_func
 715              		.type	_ZNK3r2p12StaticQueue_8is_emptyEv, %function
 716              	_ZNK3r2p12StaticQueue_8is_emptyEv:
 717              	.LFB48:
 718              		.loc 5 99 0
 719              		.cfi_startproc
 720              		@ args = 0, pretend = 0, frame = 16
 721              		@ frame_needed = 0, uses_anonymous_args = 0
 722 0000 00B5     		push	{lr}
 723              		.cfi_def_cfa_offset 4
 724              		.cfi_offset 14, -4
 725 0002 85B0     		sub	sp, sp, #20
 726              		.cfi_def_cfa_offset 24
 727 0004 0190     		str	r0, [sp, #4]
 728              	.LBB16:
 729              		.loc 5 101 0
 730 0006 FFF7FEFF 		bl	_ZN3r2p7SysLock7acquireEv
 731              		.loc 5 102 0
ARM GAS  /tmp/ccAGGJrn.s 			page 14


 732 000a 0198     		ldr	r0, [sp, #4]
 733 000c FFF7FEFF 		bl	_ZNK3r2p12StaticQueue_15is_empty_unsafeEv
 734 0010 0346     		mov	r3, r0
 735 0012 8DF80F30 		strb	r3, [sp, #15]
 736              		.loc 5 103 0
 737 0016 FFF7FEFF 		bl	_ZN3r2p7SysLock7releaseEv
 738              		.loc 5 104 0
 739 001a 9DF80F30 		ldrb	r3, [sp, #15]	@ zero_extendqisi2
 740              	.LBE16:
 741              		.loc 5 105 0
 742 001e 1846     		mov	r0, r3
 743 0020 05B0     		add	sp, sp, #20
 744              		@ sp needed
 745 0022 5DF804FB 		ldr	pc, [sp], #4
 746              		.cfi_endproc
 747              	.LFE48:
 748              		.size	_ZNK3r2p12StaticQueue_8is_emptyEv, .-_ZNK3r2p12StaticQueue_8is_emptyEv
 749 0026 00BFAFF3 		.section	.text._ZN3r2p12StaticQueue_4postERNS0_4LinkE,"ax",%progbits
 749      0080AFF3 
 749      0080
 750              		.align	2
 751              		.p2align 4,,15
 752              		.global	_ZN3r2p12StaticQueue_4postERNS0_4LinkE
 753              		.thumb
 754              		.thumb_func
 755              		.type	_ZN3r2p12StaticQueue_4postERNS0_4LinkE, %function
 756              	_ZN3r2p12StaticQueue_4postERNS0_4LinkE:
 757              	.LFB49:
 758              		.loc 5 108 0
 759              		.cfi_startproc
 760              		@ args = 0, pretend = 0, frame = 8
 761              		@ frame_needed = 0, uses_anonymous_args = 0
 762 0000 00B5     		push	{lr}
 763              		.cfi_def_cfa_offset 4
 764              		.cfi_offset 14, -4
 765 0002 83B0     		sub	sp, sp, #12
 766              		.cfi_def_cfa_offset 16
 767 0004 0190     		str	r0, [sp, #4]
 768 0006 0091     		str	r1, [sp]
 769              		.loc 5 110 0
 770 0008 FFF7FEFF 		bl	_ZN3r2p7SysLock7acquireEv
 771              		.loc 5 111 0
 772 000c 0198     		ldr	r0, [sp, #4]
 773 000e 0099     		ldr	r1, [sp]
 774 0010 FFF7FEFF 		bl	_ZN3r2p12StaticQueue_11post_unsafeERNS0_4LinkE
 775              		.loc 5 112 0
 776 0014 FFF7FEFF 		bl	_ZN3r2p7SysLock7releaseEv
 777              		.loc 5 113 0
 778 0018 03B0     		add	sp, sp, #12
 779              		@ sp needed
 780 001a 5DF804FB 		ldr	pc, [sp], #4
 781              		.cfi_endproc
 782              	.LFE49:
 783              		.size	_ZN3r2p12StaticQueue_4postERNS0_4LinkE, .-_ZN3r2p12StaticQueue_4postERNS0_4LinkE
 784 001e 00BF     		.section	.text._ZNK3r2p12StaticQueue_4peekERPKNS0_4LinkE,"ax",%progbits
 785              		.align	2
 786              		.p2align 4,,15
ARM GAS  /tmp/ccAGGJrn.s 			page 15


 787              		.global	_ZNK3r2p12StaticQueue_4peekERPKNS0_4LinkE
 788              		.thumb
 789              		.thumb_func
 790              		.type	_ZNK3r2p12StaticQueue_4peekERPKNS0_4LinkE, %function
 791              	_ZNK3r2p12StaticQueue_4peekERPKNS0_4LinkE:
 792              	.LFB50:
 793              		.loc 5 116 0
 794              		.cfi_startproc
 795              		@ args = 0, pretend = 0, frame = 16
 796              		@ frame_needed = 0, uses_anonymous_args = 0
 797 0000 00B5     		push	{lr}
 798              		.cfi_def_cfa_offset 4
 799              		.cfi_offset 14, -4
 800 0002 85B0     		sub	sp, sp, #20
 801              		.cfi_def_cfa_offset 24
 802 0004 0190     		str	r0, [sp, #4]
 803 0006 0091     		str	r1, [sp]
 804              	.LBB17:
 805              		.loc 5 118 0
 806 0008 FFF7FEFF 		bl	_ZN3r2p7SysLock7acquireEv
 807              		.loc 5 119 0
 808 000c 0198     		ldr	r0, [sp, #4]
 809 000e 0099     		ldr	r1, [sp]
 810 0010 FFF7FEFF 		bl	_ZNK3r2p12StaticQueue_11peek_unsafeERPKNS0_4LinkE
 811 0014 0346     		mov	r3, r0
 812 0016 8DF80F30 		strb	r3, [sp, #15]
 813              		.loc 5 120 0
 814 001a FFF7FEFF 		bl	_ZN3r2p7SysLock7releaseEv
 815              		.loc 5 121 0
 816 001e 9DF80F30 		ldrb	r3, [sp, #15]	@ zero_extendqisi2
 817              	.LBE17:
 818              		.loc 5 122 0
 819 0022 1846     		mov	r0, r3
 820 0024 05B0     		add	sp, sp, #20
 821              		@ sp needed
 822 0026 5DF804FB 		ldr	pc, [sp], #4
 823              		.cfi_endproc
 824              	.LFE50:
 825              		.size	_ZNK3r2p12StaticQueue_4peekERPKNS0_4LinkE, .-_ZNK3r2p12StaticQueue_4peekERPKNS0_4LinkE
 826 002a 00BFAFF3 		.section	.text._ZN3r2p12StaticQueue_5fetchERNS0_4LinkE,"ax",%progbits
 826      0080
 827              		.align	2
 828              		.p2align 4,,15
 829              		.global	_ZN3r2p12StaticQueue_5fetchERNS0_4LinkE
 830              		.thumb
 831              		.thumb_func
 832              		.type	_ZN3r2p12StaticQueue_5fetchERNS0_4LinkE, %function
 833              	_ZN3r2p12StaticQueue_5fetchERNS0_4LinkE:
 834              	.LFB51:
 835              		.loc 5 125 0
 836              		.cfi_startproc
 837              		@ args = 0, pretend = 0, frame = 16
 838              		@ frame_needed = 0, uses_anonymous_args = 0
 839 0000 00B5     		push	{lr}
 840              		.cfi_def_cfa_offset 4
 841              		.cfi_offset 14, -4
 842 0002 85B0     		sub	sp, sp, #20
ARM GAS  /tmp/ccAGGJrn.s 			page 16


 843              		.cfi_def_cfa_offset 24
 844 0004 0190     		str	r0, [sp, #4]
 845 0006 0091     		str	r1, [sp]
 846              	.LBB18:
 847              		.loc 5 127 0
 848 0008 FFF7FEFF 		bl	_ZN3r2p7SysLock7acquireEv
 849              		.loc 5 128 0
 850 000c 0198     		ldr	r0, [sp, #4]
 851 000e 0099     		ldr	r1, [sp]
 852 0010 FFF7FEFF 		bl	_ZN3r2p12StaticQueue_12fetch_unsafeERNS0_4LinkE
 853 0014 0346     		mov	r3, r0
 854 0016 8DF80F30 		strb	r3, [sp, #15]
 855              		.loc 5 129 0
 856 001a FFF7FEFF 		bl	_ZN3r2p7SysLock7releaseEv
 857              		.loc 5 130 0
 858 001e 9DF80F30 		ldrb	r3, [sp, #15]	@ zero_extendqisi2
 859              	.LBE18:
 860              		.loc 5 131 0
 861 0022 1846     		mov	r0, r3
 862 0024 05B0     		add	sp, sp, #20
 863              		@ sp needed
 864 0026 5DF804FB 		ldr	pc, [sp], #4
 865              		.cfi_endproc
 866              	.LFE51:
 867              		.size	_ZN3r2p12StaticQueue_5fetchERNS0_4LinkE, .-_ZN3r2p12StaticQueue_5fetchERNS0_4LinkE
 868 002a 00BFAFF3 		.section	.text._ZN3r2p12StaticQueue_4skipEv,"ax",%progbits
 868      0080
 869              		.align	2
 870              		.p2align 4,,15
 871              		.global	_ZN3r2p12StaticQueue_4skipEv
 872              		.thumb
 873              		.thumb_func
 874              		.type	_ZN3r2p12StaticQueue_4skipEv, %function
 875              	_ZN3r2p12StaticQueue_4skipEv:
 876              	.LFB52:
 877              		.loc 5 134 0
 878              		.cfi_startproc
 879              		@ args = 0, pretend = 0, frame = 16
 880              		@ frame_needed = 0, uses_anonymous_args = 0
 881 0000 00B5     		push	{lr}
 882              		.cfi_def_cfa_offset 4
 883              		.cfi_offset 14, -4
 884 0002 85B0     		sub	sp, sp, #20
 885              		.cfi_def_cfa_offset 24
 886 0004 0190     		str	r0, [sp, #4]
 887              	.LBB19:
 888              		.loc 5 136 0
 889 0006 FFF7FEFF 		bl	_ZN3r2p7SysLock7acquireEv
 890              		.loc 5 137 0
 891 000a 0198     		ldr	r0, [sp, #4]
 892 000c FFF7FEFF 		bl	_ZN3r2p12StaticQueue_11skip_unsafeEv
 893 0010 0346     		mov	r3, r0
 894 0012 8DF80F30 		strb	r3, [sp, #15]
 895              		.loc 5 138 0
 896 0016 FFF7FEFF 		bl	_ZN3r2p7SysLock7releaseEv
 897              		.loc 5 139 0
 898 001a 9DF80F30 		ldrb	r3, [sp, #15]	@ zero_extendqisi2
ARM GAS  /tmp/ccAGGJrn.s 			page 17


 899              	.LBE19:
 900              		.loc 5 140 0
 901 001e 1846     		mov	r0, r3
 902 0020 05B0     		add	sp, sp, #20
 903              		@ sp needed
 904 0022 5DF804FB 		ldr	pc, [sp], #4
 905              		.cfi_endproc
 906              	.LFE52:
 907              		.size	_ZN3r2p12StaticQueue_4skipEv, .-_ZN3r2p12StaticQueue_4skipEv
 908 0026 00BFAFF3 		.section	.text._ZN3r2p12StaticQueue_C2Ev,"ax",%progbits
 908      0080AFF3 
 908      0080
 909              		.align	2
 910              		.p2align 4,,15
 911              		.global	_ZN3r2p12StaticQueue_C2Ev
 912              		.thumb
 913              		.thumb_func
 914              		.type	_ZN3r2p12StaticQueue_C2Ev, %function
 915              	_ZN3r2p12StaticQueue_C2Ev:
 916              	.LFB54:
 917              		.loc 5 143 0
 918              		.cfi_startproc
 919              		@ args = 0, pretend = 0, frame = 8
 920              		@ frame_needed = 0, uses_anonymous_args = 0
 921 0000 00B5     		push	{lr}
 922              		.cfi_def_cfa_offset 4
 923              		.cfi_offset 14, -4
 924 0002 83B0     		sub	sp, sp, #12
 925              		.cfi_def_cfa_offset 16
 926 0004 0190     		str	r0, [sp, #4]
 927              	.LBB20:
 928              		.loc 5 146 0
 929 0006 0198     		ldr	r0, [sp, #4]
 930 0008 FFF7FEFF 		bl	_ZN3r2p10UncopyableC2Ev
 931 000c 019B     		ldr	r3, [sp, #4]
 932 000e 0022     		movs	r2, #0
 933 0010 1A60     		str	r2, [r3]
 934 0012 019B     		ldr	r3, [sp, #4]
 935 0014 0022     		movs	r2, #0
 936 0016 5A60     		str	r2, [r3, #4]
 937              	.LBE20:
 938              		.loc 5 147 0
 939 0018 019B     		ldr	r3, [sp, #4]
 940 001a 1846     		mov	r0, r3
 941 001c 03B0     		add	sp, sp, #12
 942              		@ sp needed
 943 001e 5DF804FB 		ldr	pc, [sp], #4
 944              		.cfi_endproc
 945              	.LFE54:
 946              		.size	_ZN3r2p12StaticQueue_C2Ev, .-_ZN3r2p12StaticQueue_C2Ev
 947              		.global	_ZN3r2p12StaticQueue_C1Ev
 948              		.thumb_set _ZN3r2p12StaticQueue_C1Ev,_ZN3r2p12StaticQueue_C2Ev
 949 0022 00BFAFF3 		.text
 949      0080AFF3 
 949      0080AFF3 
 949      0080
 950              	.Letext0:
ARM GAS  /tmp/ccAGGJrn.s 			page 18


 951              		.file 6 "/usr/lib/gcc/arm-none-eabi/4.8/include/stddef.h"
 952              		.file 7 "/usr/include/newlib/machine/_default_types.h"
 953              		.file 8 "/usr/include/newlib/c++/4.8/cstring"
 954              		.file 9 "/usr/include/newlib/string.h"
 955              		.file 10 "<built-in>"
 956              		.file 11 "/usr/include/newlib/stdint.h"