ARM GAS  /tmp/ccnOVcHB.s 			page 1


   1              		.syntax unified
   2              		.cpu cortex-m4
   3              		.eabi_attribute 27, 3
   4              		.eabi_attribute 28, 1
   5              		.fpu fpv4-sp-d16
   6              		.eabi_attribute 20, 1
   7              		.eabi_attribute 21, 1
   8              		.eabi_attribute 23, 3
   9              		.eabi_attribute 24, 1
  10              		.eabi_attribute 25, 1
  11              		.eabi_attribute 26, 1
  12              		.eabi_attribute 30, 6
  13              		.eabi_attribute 34, 1
  14              		.eabi_attribute 18, 4
  15              		.thumb
  16              		.file	"chvt.c"
  17              		.text
  18              	.Ltext0:
  19              		.cfi_sections	.debug_frame
  20              		.global	vtlist
  21              		.section	.bss.vtlist,"aw",%nobits
  22              		.align	2
  23              		.type	vtlist, %object
  24              		.size	vtlist, 16
  25              	vtlist:
  26 0000 00000000 		.space	16
  26      00000000 
  26      00000000 
  26      00000000 
  27              		.section	.text._vt_init,"ax",%progbits
  28              		.align	2
  29              		.p2align 4,,15
  30              		.global	_vt_init
  31              		.thumb
  32              		.thumb_func
  33              		.type	_vt_init, %function
  34              	_vt_init:
  35              	.LFB7:
  36              		.file 1 "/home/dave/r2p-sdk/core/ChibiOS/os/kernel/src/chvt.c"
  37              		.loc 1 50 0
  38              		.cfi_startproc
  39              		@ args = 0, pretend = 0, frame = 0
  40              		@ frame_needed = 0, uses_anonymous_args = 0
  41              		@ link register save eliminated.
  42              		.loc 1 52 0
  43 0000 074B     		ldr	r3, .L2
  44 0002 074A     		ldr	r2, .L2
  45 0004 5A60     		str	r2, [r3, #4]
  46 0006 064B     		ldr	r3, .L2
  47 0008 5A68     		ldr	r2, [r3, #4]
  48 000a 054B     		ldr	r3, .L2
  49 000c 1A60     		str	r2, [r3]
  50              		.loc 1 53 0
  51 000e 044B     		ldr	r3, .L2
  52 0010 4FF0FF32 		mov	r2, #-1
  53 0014 9A60     		str	r2, [r3, #8]
  54              		.loc 1 54 0
ARM GAS  /tmp/ccnOVcHB.s 			page 2


  55 0016 024B     		ldr	r3, .L2
  56 0018 0022     		movs	r2, #0
  57 001a DA60     		str	r2, [r3, #12]
  58              		.loc 1 55 0
  59 001c 7047     		bx	lr
  60              	.L3:
  61 001e 00BF     		.align	2
  62              	.L2:
  63 0020 00000000 		.word	vtlist
  64              		.cfi_endproc
  65              	.LFE7:
  66              		.size	_vt_init, .-_vt_init
  67 0024 AFF30080 		.section	.rodata
  67      AFF30080 
  67      AFF30080 
  68              		.align	2
  69              	.LC0:
  70 0000 22636856 		.ascii	"\"chVTSetI\"()\000"
  70      54536574 
  70      49222829 
  70      00
  71              		.section	.text.chVTSetI,"ax",%progbits
  72              		.align	2
  73              		.p2align 4,,15
  74              		.global	chVTSetI
  75              		.thumb
  76              		.thumb_func
  77              		.type	chVTSetI, %function
  78              	chVTSetI:
  79              	.LFB8:
  80              		.loc 1 76 0
  81              		.cfi_startproc
  82              		@ args = 0, pretend = 0, frame = 24
  83              		@ frame_needed = 0, uses_anonymous_args = 0
  84 0000 00B5     		push	{lr}
  85              		.cfi_def_cfa_offset 4
  86              		.cfi_offset 14, -4
  87 0002 87B0     		sub	sp, sp, #28
  88              		.cfi_def_cfa_offset 32
  89 0004 0390     		str	r0, [sp, #12]
  90 0006 0291     		str	r1, [sp, #8]
  91 0008 0192     		str	r2, [sp, #4]
  92 000a 0093     		str	r3, [sp]
  93              		.loc 1 79 0
  94 000c FFF7FEFF 		bl	chDbgCheckClassI
  95              		.loc 1 80 0
  96 0010 039B     		ldr	r3, [sp, #12]
  97 0012 002B     		cmp	r3, #0
  98 0014 05D0     		beq	.L5
  99              		.loc 1 80 0 is_stmt 0 discriminator 2
 100 0016 019B     		ldr	r3, [sp, #4]
 101 0018 002B     		cmp	r3, #0
 102 001a 02D0     		beq	.L5
 103              		.loc 1 80 0 discriminator 1
 104 001c 029B     		ldr	r3, [sp, #8]
 105 001e 002B     		cmp	r3, #0
 106 0020 02D1     		bne	.L6
ARM GAS  /tmp/ccnOVcHB.s 			page 3


 107              	.L5:
 108 0022 1D48     		ldr	r0, .L10
 109 0024 FFF7FEFF 		bl	chDbgPanic
 110              	.L6:
 111              		.loc 1 83 0 is_stmt 1
 112 0028 039B     		ldr	r3, [sp, #12]
 113 002a 009A     		ldr	r2, [sp]
 114 002c 1A61     		str	r2, [r3, #16]
 115              		.loc 1 84 0
 116 002e 039B     		ldr	r3, [sp, #12]
 117 0030 019A     		ldr	r2, [sp, #4]
 118 0032 DA60     		str	r2, [r3, #12]
 119              		.loc 1 85 0
 120 0034 194B     		ldr	r3, .L10+4
 121 0036 1B68     		ldr	r3, [r3]
 122 0038 0593     		str	r3, [sp, #20]
 123              		.loc 1 86 0
 124 003a 07E0     		b	.L7
 125              	.L8:
 126              		.loc 1 87 0
 127 003c 059B     		ldr	r3, [sp, #20]
 128 003e 9B68     		ldr	r3, [r3, #8]
 129 0040 029A     		ldr	r2, [sp, #8]
 130 0042 D31A     		subs	r3, r2, r3
 131 0044 0293     		str	r3, [sp, #8]
 132              		.loc 1 88 0
 133 0046 059B     		ldr	r3, [sp, #20]
 134 0048 1B68     		ldr	r3, [r3]
 135 004a 0593     		str	r3, [sp, #20]
 136              	.L7:
 137              		.loc 1 86 0 discriminator 1
 138 004c 059B     		ldr	r3, [sp, #20]
 139 004e 9A68     		ldr	r2, [r3, #8]
 140 0050 029B     		ldr	r3, [sp, #8]
 141 0052 9A42     		cmp	r2, r3
 142 0054 F2D3     		bcc	.L8
 143              		.loc 1 91 0
 144 0056 039B     		ldr	r3, [sp, #12]
 145 0058 059A     		ldr	r2, [sp, #20]
 146 005a 1A60     		str	r2, [r3]
 147 005c 039B     		ldr	r3, [sp, #12]
 148 005e 1B68     		ldr	r3, [r3]
 149 0060 5A68     		ldr	r2, [r3, #4]
 150 0062 039B     		ldr	r3, [sp, #12]
 151 0064 5A60     		str	r2, [r3, #4]
 152              		.loc 1 92 0
 153 0066 039B     		ldr	r3, [sp, #12]
 154 0068 5B68     		ldr	r3, [r3, #4]
 155 006a 059A     		ldr	r2, [sp, #20]
 156 006c 0399     		ldr	r1, [sp, #12]
 157 006e 5160     		str	r1, [r2, #4]
 158 0070 059A     		ldr	r2, [sp, #20]
 159 0072 5268     		ldr	r2, [r2, #4]
 160 0074 1A60     		str	r2, [r3]
 161              		.loc 1 93 0
 162 0076 039B     		ldr	r3, [sp, #12]
 163 0078 029A     		ldr	r2, [sp, #8]
ARM GAS  /tmp/ccnOVcHB.s 			page 4


 164 007a 9A60     		str	r2, [r3, #8]
 165              		.loc 1 94 0
 166 007c 059A     		ldr	r2, [sp, #20]
 167 007e 074B     		ldr	r3, .L10+4
 168 0080 9A42     		cmp	r2, r3
 169 0082 05D0     		beq	.L4
 170              		.loc 1 95 0
 171 0084 059B     		ldr	r3, [sp, #20]
 172 0086 9A68     		ldr	r2, [r3, #8]
 173 0088 029B     		ldr	r3, [sp, #8]
 174 008a D21A     		subs	r2, r2, r3
 175 008c 059B     		ldr	r3, [sp, #20]
 176 008e 9A60     		str	r2, [r3, #8]
 177              	.L4:
 178              		.loc 1 96 0
 179 0090 07B0     		add	sp, sp, #28
 180              		@ sp needed
 181 0092 5DF804FB 		ldr	pc, [sp], #4
 182              	.L11:
 183 0096 00BF     		.align	2
 184              	.L10:
 185 0098 00000000 		.word	.LC0
 186 009c 00000000 		.word	vtlist
 187              		.cfi_endproc
 188              	.LFE8:
 189              		.size	chVTSetI, .-chVTSetI
 190              		.section	.rodata
 191 000d 000000   		.align	2
 192              	.LC1:
 193 0010 22636856 		.ascii	"\"chVTResetI\"()\000"
 193      54526573 
 193      65744922 
 193      282900
 194 001f 00       		.align	2
 195              	.LC2:
 196 0020 63685654 		.ascii	"chVTResetI(), #1\000"
 196      52657365 
 196      74492829 
 196      2C202331 
 196      00
 197 0031 000000   		.section	.text.chVTResetI,"ax",%progbits
 198              		.align	2
 199              		.p2align 4,,15
 200              		.global	chVTResetI
 201              		.thumb
 202              		.thumb_func
 203              		.type	chVTResetI, %function
 204              	chVTResetI:
 205              	.LFB9:
 206              		.loc 1 106 0
 207              		.cfi_startproc
 208              		@ args = 0, pretend = 0, frame = 8
 209              		@ frame_needed = 0, uses_anonymous_args = 0
 210 0000 00B5     		push	{lr}
 211              		.cfi_def_cfa_offset 4
 212              		.cfi_offset 14, -4
 213 0002 83B0     		sub	sp, sp, #12
ARM GAS  /tmp/ccnOVcHB.s 			page 5


 214              		.cfi_def_cfa_offset 16
 215 0004 0190     		str	r0, [sp, #4]
 216              		.loc 1 108 0
 217 0006 FFF7FEFF 		bl	chDbgCheckClassI
 218              		.loc 1 109 0
 219 000a 019B     		ldr	r3, [sp, #4]
 220 000c 002B     		cmp	r3, #0
 221 000e 02D1     		bne	.L13
 222              		.loc 1 109 0 is_stmt 0 discriminator 1
 223 0010 1348     		ldr	r0, .L16
 224 0012 FFF7FEFF 		bl	chDbgPanic
 225              	.L13:
 226              		.loc 1 110 0 is_stmt 1
 227 0016 019B     		ldr	r3, [sp, #4]
 228 0018 DB68     		ldr	r3, [r3, #12]
 229 001a 002B     		cmp	r3, #0
 230 001c 02D1     		bne	.L14
 231              		.loc 1 110 0 is_stmt 0 discriminator 1
 232 001e 1148     		ldr	r0, .L16+4
 233 0020 FFF7FEFF 		bl	chDbgPanic
 234              	.L14:
 235              		.loc 1 114 0 is_stmt 1
 236 0024 019B     		ldr	r3, [sp, #4]
 237 0026 1A68     		ldr	r2, [r3]
 238 0028 0F4B     		ldr	r3, .L16+8
 239 002a 9A42     		cmp	r2, r3
 240 002c 08D0     		beq	.L15
 241              		.loc 1 115 0
 242 002e 019B     		ldr	r3, [sp, #4]
 243 0030 1B68     		ldr	r3, [r3]
 244 0032 019A     		ldr	r2, [sp, #4]
 245 0034 1268     		ldr	r2, [r2]
 246 0036 9168     		ldr	r1, [r2, #8]
 247 0038 019A     		ldr	r2, [sp, #4]
 248 003a 9268     		ldr	r2, [r2, #8]
 249 003c 0A44     		add	r2, r2, r1
 250 003e 9A60     		str	r2, [r3, #8]
 251              	.L15:
 252              		.loc 1 116 0
 253 0040 019B     		ldr	r3, [sp, #4]
 254 0042 5B68     		ldr	r3, [r3, #4]
 255 0044 019A     		ldr	r2, [sp, #4]
 256 0046 1268     		ldr	r2, [r2]
 257 0048 1A60     		str	r2, [r3]
 258              		.loc 1 117 0
 259 004a 019B     		ldr	r3, [sp, #4]
 260 004c 1B68     		ldr	r3, [r3]
 261 004e 019A     		ldr	r2, [sp, #4]
 262 0050 5268     		ldr	r2, [r2, #4]
 263 0052 5A60     		str	r2, [r3, #4]
 264              		.loc 1 118 0
 265 0054 019B     		ldr	r3, [sp, #4]
 266 0056 0022     		movs	r2, #0
 267 0058 DA60     		str	r2, [r3, #12]
 268              		.loc 1 119 0
 269 005a 03B0     		add	sp, sp, #12
 270              		@ sp needed
ARM GAS  /tmp/ccnOVcHB.s 			page 6


 271 005c 5DF804FB 		ldr	pc, [sp], #4
 272              	.L17:
 273              		.align	2
 274              	.L16:
 275 0060 10000000 		.word	.LC1
 276 0064 20000000 		.word	.LC2
 277 0068 00000000 		.word	vtlist
 278              		.cfi_endproc
 279              	.LFE9:
 280              		.size	chVTResetI, .-chVTResetI
 281 006c AFF30080 		.text
 282              	.Letext0:
 283              		.file 2 "/usr/include/newlib/machine/_default_types.h"
 284              		.file 3 "/usr/include/newlib/stdint.h"
 285              		.file 4 "/home/dave/r2p-sdk/core/ChibiOS/os/ports/GCC/ARMCMx/chtypes.h"
 286              		.file 5 "/home/dave/r2p-sdk/core/ChibiOS/os/kernel/include/chvt.h"