ARM GAS  /tmp/ccnOVcHB.s 			page 1


   1              		.syntax unified
   2              		.cpu cortex-m4
   3              		.eabi_attribute 27, 3
   4              		.eabi_attribute 28, 1
   5              		.fpu fpv4-sp-d16
   6              		.eabi_attribute 20, 1
   7              		.eabi_attribute 21, 1
   8              		.eabi_attribute 23, 3
   9              		.eabi_attribute 24, 1
  10              		.eabi_attribute 25, 1
  11              		.eabi_attribute 26, 1
  12              		.eabi_attribute 30, 6
  13              		.eabi_attribute 34, 1
  14              		.eabi_attribute 18, 4
  15              		.thumb
  16              		.file	"chvt.c"
  17              		.text
  18              	.Ltext0:
  19              		.cfi_sections	.debug_frame
  20              		.global	vtlist
  21              		.section	.bss.vtlist,"aw",%nobits
  22              		.align	2
  23              		.type	vtlist, %object
  24              		.size	vtlist, 16
  25              	vtlist:
  26 0000 00000000 		.space	16
  26      00000000 
  26      00000000 
  26      00000000 
  27              		.section	.text._vt_init,"ax",%progbits
  28              		.align	2
  29              		.p2align 4,,15
  30              		.global	_vt_init
  31              		.thumb
  32              		.thumb_func
  33              		.type	_vt_init, %function
  34              	_vt_init:
  35              	.LFB7:
  36              		.file 1 "/home/dave/r2p-sdk/core/ChibiOS/os/kernel/src/chvt.c"
  37              		.loc 1 50 0
  38              		.cfi_startproc
  39              		@ args = 0, pretend = 0, frame = 0
  40              		@ frame_needed = 0, uses_anonymous_args = 0
  41              		@ link register save eliminated.
  42              		.loc 1 52 0
  43 0000 074B     		ldr	r3, .L2
  44 0002 074A     		ldr	r2, .L2
  45 0004 5A60     		str	r2, [r3, #4]
  46 0006 064B     		ldr	r3, .L2
  47 0008 5A68     		ldr	r2, [r3, #4]
  48 000a 054B     		ldr	r3, .L2
  49 000c 1A60     		str	r2, [r3]
  50              		.loc 1 53 0
  51 000e 044B     		ldr	r3, .L2
  52 0010 4FF0FF32 		mov	r2, #-1
  53 0014 9A60     		str	r2, [r3, #8]
  54              		.loc 1 54 0
ARM GAS  /tmp/ccnOVcHB.s 			page 2


  55 0016 024B     		ldr	r3, .L2
  56 0018 0022     		movs	r2, #0
  57 001a DA60     		str	r2, [r3, #12]
  58              		.loc 1 55 0
  59 001c 7047     		bx	lr
  60              	.L3:
  61 001e 00BF     		.align	2
  62              	.L2:
  63 0020 00000000 		.word	vtlist
  64              		.cfi_endproc
  65              	.LFE7:
  66              		.size	_vt_init, .-_vt_init
  67 0024 AFF30080 		.section	.rodata
  67      AFF30080 
  67      AFF30080 
  68              		.align	2
  69              	.LC0:
  70 0000 22636856 		.ascii	"\"chVTSetI\"()\000"
  70      54536574 
  70      49222829 
  70      00
  71              		.section	.text.chVTSetI,"ax",%progbits
  72              		.align	2
  73              		.p2align 4,,15
  74              		.global	chVTSetI
  75              		.thumb
  76              		.thumb_func
  77              		.type	chVTSetI, %function
  78              	chVTSetI:
  79              	.LFB8:
  80              		.loc 1 76 0
  81              		.cfi_startproc
  82              		@ args = 0, pretend = 0, frame = 24
  83              		@ frame_needed = 0, uses_anonymous_args = 0
  84 0000 00B5     		push	{lr}
  85              		.cfi_def_cfa_offset 4
  86              		.cfi_offset 14, -4
  87 0002 87B0     		sub	sp, sp, #28
  88              		.cfi_def_cfa_offset 32
  89 0004 0390     		str	r0, [sp, #12]
  90 0006 0291     		str	r1, [sp, #8]
  91 0008 0192     		str	r2, [sp, #4]
  92 000a 0093     		str	r3, [sp]
  93              		.loc 1 79 0
  94 000c FFF7FEFF 		bl	chDbgCheckClassI
  95              		.loc 1 80 0
  96 0010 039B     		ldr	r3, [sp, #12]
  97 0012 002B     		cmp	r3, #0
  98 0014 05D0     		beq	.L5
  99              		.loc 1 80 0 is_stmt 0 discriminator 2
 100 0016 019B     		ldr	r3, [sp, #4]
 101 0018 002B     		cmp	r3, #0
 102 001a 02D0     		beq	.L5
 103              		.loc 1 80 0 discriminator 1
 104 001c 029B     		ldr	r3, [sp, #8]
 105 001e 002B     		cmp	r3, #0
 106 0020 02D1     		bne	.L6
ARM GAS  /tmp/ccnOVcHB.s 			page 3


 107              	.L5:
 108 0022 1D48     		ldr	r0, .L10
 109 0024 FFF7FEFF 		bl	chDbgPanic
 110              	.L6:
 111              		.loc 1 83 0 is_stmt 1
 112 0028 039B     		ldr	r3, [sp, #12]
 113 002a 009A     		ldr	r2, [sp]
 114 002c 1A61     		str	r2, [r3, #16]
 115              		.loc 1 84 0
 116 002e 039B     		ldr	r3, [sp, #12]
 117 0030 019A     		ldr	r2, [sp, #4]
 118 0032 DA60     		str	r2, [r3, #12]
 119              		.loc 1 85 0
 120 0034 194B     		ldr	r3, .L10+4
 121 0036 1B68     		ldr	r3, [r3]
 122 0038 0593     		str	r3, [sp, #20]
 123              		.loc 1 86 0
 124 003a 07E0     		b	.L7
 125              	.L8:
 126              		.loc 1 87 0
 127 003c 059B     		ldr	r3, [sp, #20]
 128 003e 9B68     		ldr	r3, [r3, #8]
 129 0040 029A     		ldr	r2, [sp, #8]
 130 0042 D31A     		subs	r3, r2, r3
 131 0044 0293     		str	r3, [sp, #8]
 132              		.loc 1 88 0
 133 0046 059B     		ldr	r3, [sp, #20]
 134 0048 1B68     		ldr	r3, [r3]
 135 004a 0593     		str	r3, [sp, #20]
 136              	.L7:
 137              		.loc 1 86 0 discriminator 1
 138 004c 059B     		ldr	r3, [sp, #20]
 139 004e 9A68     		ldr	r2, [r3, #8]
 140 0050 029B     		ldr	r3, [sp, #8]
 141 0052 9A42     		cmp	r2, r3
 142 0054 F2D3     		bcc	.L8
 143              		.loc 1 91 0
 144 0056 039B     		ldr	r3, [sp, #12]
 145 0058 059A     		ldr	r2, [sp, #20]
 146 005a 1A60     		str	r2, [r3]
 147 005c 039B     		ldr	r3, [sp, #12]
 148 005e 1B68     		ldr	r3, [r3]
 149 0060 5A68     		ldr	r2, [r3, #4]
 150 0062 039B     		ldr	r3, [sp, #12]
 151 0064 5A60     		str	r2, [r3, #4]
 152              		.loc 1 92 0
 153 0066 039B     		ldr	r3, [sp, #12]
 154 0068 5B68     		ldr	r3, [r3, #4]
 155 006a 059A     		ldr	r2, [sp, #20]
 156 006c 0399     		ldr	r1, [sp, #12]
 157 006e 5160     		str	r1, [r2, #4]
 158 0070 059A     		ldr	r2, [sp, #20]
 159 0072 5268     		ldr	r2, [r2, #4]
 160 0074 1A60     		str	r2, [r3]
 161              		.loc 1 93 0
 162 0076 039B     		ldr	r3, [sp, #12]
 163 0078 029A     		ldr	r2, [sp, #8]
ARM GAS  /tmp/ccnOVcHB.s 			page 4


 164 007a 9A60     		str	r2, [r3, #8]
 165              		.loc 1 94 0
 166 007c 059A     		ldr	r2, [sp, #20]
 167 007e 074B     		ldr	r3, .L10+4
 168 0080 9A42     		cmp	r2, r3
 169 0082 05D0     		beq	.L4
 170              		.loc 1 95 0
 171 0084 059B     		ldr	r3, [sp, #20]
 172 0086 9A68     		ldr	r2, [r3, #8]
 173 0088 029B     		ldr	r3, [sp, #8]
 174 008a D21A     		subs	r2, r2, r3
 175 008c 059B     		ldr	r3, [sp, #20]
 176 008e 9A60     		str	r2, [r3, #8]
 177              	.L4:
 178              		.loc 1 96 0
 179 0090 07B0     		add	sp, sp, #28
 180              		@ sp needed
 181 0092 5DF804FB 		ldr	pc, [sp], #4
 182              	.L11:
 183 0096 00BF     		.align	2
 184              	.L10:
 185 0098 00000000 		.word	.LC0
 186 009c 00000000 		.word	vtlist
 187              		.cfi_endproc
 188              	.LFE8:
 189              		.size	chVTSetI, .-chVTSetI
 190              		.section	.rodata
 191 000d 000000   		.align	2
 192              	.LC1:
 193 0010 22636856 		.ascii	"\"chVTResetI\"()\000"
 193      54526573 
 193      65744922 
 193      282900
 194 001f 00       		.align	2
 195              	.LC2:
 196 0020 63685654 		.ascii	"chVTResetI(), #1\000"
 196      52657365 
 196      74492829 
 196      2C202331 
 196      00
 197 0031 000000   		.section	.text.chVTResetI,"ax",%progbits
 198              		.align	2
 199              		.p2align 4,,15
 200              		.global	chVTResetI
 201              		.thumb
 202              		.thumb_func
 203              		.type	chVTResetI, %function
 204              	chVTResetI:
 205              	.LFB9:
 206              		.loc 1 106 0
 207              		.cfi_startproc
 208              		@ args = 0, pretend = 0, frame = 8
 209              		@ frame_needed = 0, uses_anonymous_args = 0
 210 0000 00B5     		push	{lr}
 211              		.cfi_def_cfa_offset 4
 212              		.cfi_offset 14, -4
 213 0002 83B0     		sub	sp, sp, #12
ARM GAS  /tmp/ccnOVcHB.s 			page 5


 214              		.cfi_def_cfa_offset 16
 215 0004 0190     		str	r0, [sp, #4]
 216              		.loc 1 108 0
 217 0006 FFF7FEFF 		bl	chDbgCheckClassI
 218              		.loc 1 109 0
 219 000a 019B     		ldr	r3, [sp, #4]
 220 000c 002B     		cmp	r3, #0
 221 000e 02D1     		bne	.L13
 222              		.loc 1 109 0 is_stmt 0 discriminator 1
 223 0010 1348     		ldr	r0, .L16
 224 0012 FFF7FEFF 		bl	chDbgPanic
 225              	.L13:
 226              		.loc 1 110 0 is_stmt 1
 227 0016 019B     		ldr	r3, [sp, #4]
 228 0018 DB68     		ldr	r3, [r3, #12]
 229 001a 002B     		cmp	r3, #0
 230 001c 02D1     		bne	.L14
 231              		.loc 1 110 0 is_stmt 0 discriminator 1
 232 001e 1148     		ldr	r0, .L16+4
 233 0020 FFF7FEFF 		bl	chDbgPanic
 234              	.L14:
 235              		.loc 1 114 0 is_stmt 1
 236 0024 019B     		ldr	r3, [sp, #4]
 237 0026 1A68     		ldr	r2, [r3]
 238 0028 0F4B     		ldr	r3, .L16+8
 239 002a 9A42     		cmp	r2, r3
 240 002c 08D0     		beq	.L15
 241              		.loc 1 115 0
 242 002e 019B     		ldr	r3, [sp, #4]
 243 0030 1B68     		ldr	r3, [r3]
 244 0032 019A     		ldr	r2, [sp, #4]
 245 0034 1268     		ldr	r2, [r2]
 246 0036 9168     		ldr	r1, [r2, #8]
 247 0038 019A     		ldr	r2, [sp, #4]
 248 003a 9268     		ldr	r2, [r2, #8]
 249 003c 0A44     		add	r2, r2, r1
 250 003e 9A60     		str	r2, [r3, #8]
 251              	.L15:
 252              		.loc 1 116 0
 253 0040 019B     		ldr	r3, [sp, #4]
 254 0042 5B68     		ldr	r3, [r3, #4]
 255 0044 019A     		ldr	r2, [sp, #4]
 256 0046 1268     		ldr	r2, [r2]
 257 0048 1A60     		str	r2, [r3]
 258              		.loc 1 117 0
 259 004a 019B     		ldr	r3, [sp, #4]
 260 004c 1B68     		ldr	r3, [r3]
 261 004e 019A     		ldr	r2, [sp, #4]
 262 0050 5268     		ldr	r2, [r2, #4]
 263 0052 5A60     		str	r2, [r3, #4]
 264              		.loc 1 118 0
 265 0054 019B     		ldr	r3, [sp, #4]
 266 0056 0022     		movs	r2, #0
 267 0058 DA60     		str	r2, [r3, #12]
 268              		.loc 1 119 0
 269 005a 03B0     		add	sp, sp, #12
 270              		@ sp needed
ARM GAS  /tmp/ccnOVcHB.s 			page 6


 271 005c 5DF804FB 		ldr	pc, [sp], #4
 272              	.L17:
 273              		.align	2
 274              	.L16:
 275 0060 10000000 		.word	.LC1
 276 0064 20000000 		.word	.LC2
 277 0068 00000000 		.word	vtlist
 278              		.cfi_endproc
 279              	.LFE9:
 280              		.size	chVTResetI, .-chVTResetI
 281 006c AFF30080 		.text
 282              	.Letext0:
 283              		.file 2 "/usr/include/newlib/machine/_default_types.h"
 284              		.file 3 "/usr/include/newlib/stdint.h"
 285              		.file 4 "/home/dave/r2p-sdk/core/ChibiOS/os/ports/GCC/ARMCMx/chtypes.h"
 286              		.file 5 "/home/dave/r2p-sdk/core/ChibiOS/os/kernel/include/chvt.h"
 287              		.section	.debug_info,"",%progbits
 288              	.Ldebug_info0:
 289 0000 FB010000 		.4byte	0x1fb
 290 0004 0400     		.2byte	0x4
 291 0006 00000000 		.4byte	.Ldebug_abbrev0
 292 000a 04       		.byte	0x4
 293 000b 01       		.uleb128 0x1
 294 000c 13010000 		.4byte	.LASF28
 295 0010 01       		.byte	0x1
 296 0011 00000000 		.4byte	.LASF29
 297 0015 00000000 		.4byte	.Ldebug_ranges0+0
 298 0019 00000000 		.4byte	0
 299 001d 00000000 		.4byte	.Ldebug_line0
 300 0021 02       		.uleb128 0x2
 301 0022 04       		.byte	0x4
 302 0023 05       		.byte	0x5
 303 0024 696E7400 		.ascii	"int\000"
 304 0028 03       		.uleb128 0x3
 305 0029 04       		.byte	0x4
 306 002a 07       		.byte	0x7
 307 002b A5000000 		.4byte	.LASF0
 308 002f 03       		.uleb128 0x3
 309 0030 01       		.byte	0x1
 310 0031 06       		.byte	0x6
 311 0032 2D020000 		.4byte	.LASF1
 312 0036 03       		.uleb128 0x3
 313 0037 01       		.byte	0x1
 314 0038 08       		.byte	0x8
 315 0039 83000000 		.4byte	.LASF2
 316 003d 03       		.uleb128 0x3
 317 003e 02       		.byte	0x2
 318 003f 05       		.byte	0x5
 319 0040 09020000 		.4byte	.LASF3
 320 0044 03       		.uleb128 0x3
 321 0045 02       		.byte	0x2
 322 0046 07       		.byte	0x7
 323 0047 63000000 		.4byte	.LASF4
 324 004b 03       		.uleb128 0x3
 325 004c 04       		.byte	0x4
 326 004d 05       		.byte	0x5
 327 004e 24020000 		.4byte	.LASF5
ARM GAS  /tmp/ccnOVcHB.s 			page 7


 328 0052 04       		.uleb128 0x4
 329 0053 9A000000 		.4byte	.LASF9
 330 0057 02       		.byte	0x2
 331 0058 41       		.byte	0x41
 332 0059 5D000000 		.4byte	0x5d
 333 005d 03       		.uleb128 0x3
 334 005e 04       		.byte	0x4
 335 005f 07       		.byte	0x7
 336 0060 51000000 		.4byte	.LASF6
 337 0064 03       		.uleb128 0x3
 338 0065 08       		.byte	0x8
 339 0066 05       		.byte	0x5
 340 0067 F1000000 		.4byte	.LASF7
 341 006b 03       		.uleb128 0x3
 342 006c 08       		.byte	0x8
 343 006d 07       		.byte	0x7
 344 006e B2000000 		.4byte	.LASF8
 345 0072 04       		.uleb128 0x4
 346 0073 1B020000 		.4byte	.LASF10
 347 0077 03       		.byte	0x3
 348 0078 42       		.byte	0x42
 349 0079 52000000 		.4byte	0x52
 350 007d 03       		.uleb128 0x3
 351 007e 01       		.byte	0x1
 352 007f 02       		.byte	0x2
 353 0080 53020000 		.4byte	.LASF11
 354 0084 04       		.uleb128 0x4
 355 0085 3E000000 		.4byte	.LASF12
 356 0089 04       		.byte	0x4
 357 008a 35       		.byte	0x35
 358 008b 72000000 		.4byte	0x72
 359 008f 05       		.uleb128 0x5
 360 0090 04       		.byte	0x4
 361 0091 03       		.uleb128 0x3
 362 0092 04       		.byte	0x4
 363 0093 07       		.byte	0x7
 364 0094 DD000000 		.4byte	.LASF13
 365 0098 04       		.uleb128 0x4
 366 0099 48000000 		.4byte	.LASF14
 367 009d 05       		.byte	0x5
 368 009e 58       		.byte	0x58
 369 009f A3000000 		.4byte	0xa3
 370 00a3 06       		.uleb128 0x6
 371 00a4 04       		.byte	0x4
 372 00a5 A9000000 		.4byte	0xa9
 373 00a9 07       		.uleb128 0x7
 374 00aa B4000000 		.4byte	0xb4
 375 00ae 08       		.uleb128 0x8
 376 00af 8F000000 		.4byte	0x8f
 377 00b3 00       		.byte	0
 378 00b4 04       		.uleb128 0x4
 379 00b5 76000000 		.4byte	.LASF15
 380 00b9 05       		.byte	0x5
 381 00ba 5D       		.byte	0x5d
 382 00bb BF000000 		.4byte	0xbf
 383 00bf 09       		.uleb128 0x9
 384 00c0 76000000 		.4byte	.LASF15
ARM GAS  /tmp/ccnOVcHB.s 			page 8


 385 00c4 14       		.byte	0x14
 386 00c5 05       		.byte	0x5
 387 00c6 64       		.byte	0x64
 388 00c7 08010000 		.4byte	0x108
 389 00cb 0A       		.uleb128 0xa
 390 00cc 40020000 		.4byte	.LASF16
 391 00d0 05       		.byte	0x5
 392 00d1 65       		.byte	0x65
 393 00d2 08010000 		.4byte	0x108
 394 00d6 00       		.byte	0
 395 00d7 0A       		.uleb128 0xa
 396 00d8 13020000 		.4byte	.LASF17
 397 00dc 05       		.byte	0x5
 398 00dd 67       		.byte	0x67
 399 00de 08010000 		.4byte	0x108
 400 00e2 04       		.byte	0x4
 401 00e3 0A       		.uleb128 0xa
 402 00e4 D5000000 		.4byte	.LASF18
 403 00e8 05       		.byte	0x5
 404 00e9 69       		.byte	0x69
 405 00ea 84000000 		.4byte	0x84
 406 00ee 08       		.byte	0x8
 407 00ef 0A       		.uleb128 0xa
 408 00f0 FF000000 		.4byte	.LASF19
 409 00f4 05       		.byte	0x5
 410 00f5 6A       		.byte	0x6a
 411 00f6 98000000 		.4byte	0x98
 412 00fa 0C       		.byte	0xc
 413 00fb 0A       		.uleb128 0xa
 414 00fc 02020000 		.4byte	.LASF20
 415 0100 05       		.byte	0x5
 416 0101 6C       		.byte	0x6c
 417 0102 8F000000 		.4byte	0x8f
 418 0106 10       		.byte	0x10
 419 0107 00       		.byte	0
 420 0108 06       		.uleb128 0x6
 421 0109 04       		.byte	0x4
 422 010a B4000000 		.4byte	0xb4
 423 010e 0B       		.uleb128 0xb
 424 010f 10       		.byte	0x10
 425 0110 05       		.byte	0x5
 426 0111 76       		.byte	0x76
 427 0112 47010000 		.4byte	0x147
 428 0116 0A       		.uleb128 0xa
 429 0117 40020000 		.4byte	.LASF16
 430 011b 05       		.byte	0x5
 431 011c 77       		.byte	0x77
 432 011d 08010000 		.4byte	0x108
 433 0121 00       		.byte	0
 434 0122 0A       		.uleb128 0xa
 435 0123 13020000 		.4byte	.LASF17
 436 0127 05       		.byte	0x5
 437 0128 79       		.byte	0x79
 438 0129 08010000 		.4byte	0x108
 439 012d 04       		.byte	0x4
 440 012e 0A       		.uleb128 0xa
 441 012f D5000000 		.4byte	.LASF18
ARM GAS  /tmp/ccnOVcHB.s 			page 9


 442 0133 05       		.byte	0x5
 443 0134 7B       		.byte	0x7b
 444 0135 84000000 		.4byte	0x84
 445 0139 08       		.byte	0x8
 446 013a 0A       		.uleb128 0xa
 447 013b E6000000 		.4byte	.LASF21
 448 013f 05       		.byte	0x5
 449 0140 7C       		.byte	0x7c
 450 0141 47010000 		.4byte	0x147
 451 0145 0C       		.byte	0xc
 452 0146 00       		.byte	0
 453 0147 0C       		.uleb128 0xc
 454 0148 84000000 		.4byte	0x84
 455 014c 04       		.uleb128 0x4
 456 014d 39020000 		.4byte	.LASF22
 457 0151 05       		.byte	0x5
 458 0152 7D       		.byte	0x7d
 459 0153 0E010000 		.4byte	0x10e
 460 0157 03       		.uleb128 0x3
 461 0158 01       		.byte	0x1
 462 0159 08       		.byte	0x8
 463 015a 0E010000 		.4byte	.LASF23
 464 015e 0D       		.uleb128 0xd
 465 015f 91000000 		.4byte	.LASF30
 466 0163 01       		.byte	0x1
 467 0164 32       		.byte	0x32
 468 0165 00000000 		.4byte	.LFB7
 469 0169 24000000 		.4byte	.LFE7-.LFB7
 470 016d 01       		.uleb128 0x1
 471 016e 9C       		.byte	0x9c
 472 016f 0E       		.uleb128 0xe
 473 0170 35000000 		.4byte	.LASF26
 474 0174 01       		.byte	0x1
 475 0175 4C       		.byte	0x4c
 476 0176 00000000 		.4byte	.LFB8
 477 017a A0000000 		.4byte	.LFE8-.LFB8
 478 017e 01       		.uleb128 0x1
 479 017f 9C       		.byte	0x9c
 480 0180 C9010000 		.4byte	0x1c9
 481 0184 0F       		.uleb128 0xf
 482 0185 76747000 		.ascii	"vtp\000"
 483 0189 01       		.byte	0x1
 484 018a 4C       		.byte	0x4c
 485 018b 08010000 		.4byte	0x108
 486 018f 02       		.uleb128 0x2
 487 0190 91       		.byte	0x91
 488 0191 6C       		.sleb128 -20
 489 0192 10       		.uleb128 0x10
 490 0193 D0000000 		.4byte	.LASF24
 491 0197 01       		.byte	0x1
 492 0198 4C       		.byte	0x4c
 493 0199 84000000 		.4byte	0x84
 494 019d 02       		.uleb128 0x2
 495 019e 91       		.byte	0x91
 496 019f 68       		.sleb128 -24
 497 01a0 10       		.uleb128 0x10
 498 01a1 07010000 		.4byte	.LASF25
ARM GAS  /tmp/ccnOVcHB.s 			page 10


 499 01a5 01       		.byte	0x1
 500 01a6 4C       		.byte	0x4c
 501 01a7 98000000 		.4byte	0x98
 502 01ab 02       		.uleb128 0x2
 503 01ac 91       		.byte	0x91
 504 01ad 64       		.sleb128 -28
 505 01ae 0F       		.uleb128 0xf
 506 01af 70617200 		.ascii	"par\000"
 507 01b3 01       		.byte	0x1
 508 01b4 4C       		.byte	0x4c
 509 01b5 8F000000 		.4byte	0x8f
 510 01b9 02       		.uleb128 0x2
 511 01ba 91       		.byte	0x91
 512 01bb 60       		.sleb128 -32
 513 01bc 11       		.uleb128 0x11
 514 01bd 7000     		.ascii	"p\000"
 515 01bf 01       		.byte	0x1
 516 01c0 4D       		.byte	0x4d
 517 01c1 08010000 		.4byte	0x108
 518 01c5 02       		.uleb128 0x2
 519 01c6 91       		.byte	0x91
 520 01c7 74       		.sleb128 -12
 521 01c8 00       		.byte	0
 522 01c9 0E       		.uleb128 0xe
 523 01ca 48020000 		.4byte	.LASF27
 524 01ce 01       		.byte	0x1
 525 01cf 6A       		.byte	0x6a
 526 01d0 00000000 		.4byte	.LFB9
 527 01d4 6C000000 		.4byte	.LFE9-.LFB9
 528 01d8 01       		.uleb128 0x1
 529 01d9 9C       		.byte	0x9c
 530 01da ED010000 		.4byte	0x1ed
 531 01de 0F       		.uleb128 0xf
 532 01df 76747000 		.ascii	"vtp\000"
 533 01e3 01       		.byte	0x1
 534 01e4 6A       		.byte	0x6a
 535 01e5 08010000 		.4byte	0x108
 536 01e9 02       		.uleb128 0x2
 537 01ea 91       		.byte	0x91
 538 01eb 74       		.sleb128 -12
 539 01ec 00       		.byte	0
 540 01ed 12       		.uleb128 0x12
 541 01ee C9000000 		.4byte	.LASF31
 542 01f2 01       		.byte	0x1
 543 01f3 2A       		.byte	0x2a
 544 01f4 4C010000 		.4byte	0x14c
 545 01f8 05       		.uleb128 0x5
 546 01f9 03       		.byte	0x3
 547 01fa 00000000 		.4byte	vtlist
 548 01fe 00       		.byte	0
 549              		.section	.debug_abbrev,"",%progbits
 550              	.Ldebug_abbrev0:
 551 0000 01       		.uleb128 0x1
 552 0001 11       		.uleb128 0x11
 553 0002 01       		.byte	0x1
 554 0003 25       		.uleb128 0x25
 555 0004 0E       		.uleb128 0xe
ARM GAS  /tmp/ccnOVcHB.s 			page 11


 556 0005 13       		.uleb128 0x13
 557 0006 0B       		.uleb128 0xb
 558 0007 03       		.uleb128 0x3
 559 0008 0E       		.uleb128 0xe
 560 0009 55       		.uleb128 0x55
 561 000a 17       		.uleb128 0x17
 562 000b 11       		.uleb128 0x11
 563 000c 01       		.uleb128 0x1
 564 000d 10       		.uleb128 0x10
 565 000e 17       		.uleb128 0x17
 566 000f 00       		.byte	0
 567 0010 00       		.byte	0
 568 0011 02       		.uleb128 0x2
 569 0012 24       		.uleb128 0x24
 570 0013 00       		.byte	0
 571 0014 0B       		.uleb128 0xb
 572 0015 0B       		.uleb128 0xb
 573 0016 3E       		.uleb128 0x3e
 574 0017 0B       		.uleb128 0xb
 575 0018 03       		.uleb128 0x3
 576 0019 08       		.uleb128 0x8
 577 001a 00       		.byte	0
 578 001b 00       		.byte	0
 579 001c 03       		.uleb128 0x3
 580 001d 24       		.uleb128 0x24
 581 001e 00       		.byte	0
 582 001f 0B       		.uleb128 0xb
 583 0020 0B       		.uleb128 0xb
 584 0021 3E       		.uleb128 0x3e
 585 0022 0B       		.uleb128 0xb
 586 0023 03       		.uleb128 0x3
 587 0024 0E       		.uleb128 0xe
 588 0025 00       		.byte	0
 589 0026 00       		.byte	0
 590 0027 04       		.uleb128 0x4
 591 0028 16       		.uleb128 0x16
 592 0029 00       		.byte	0
 593 002a 03       		.uleb128 0x3
 594 002b 0E       		.uleb128 0xe
 595 002c 3A       		.uleb128 0x3a
 596 002d 0B       		.uleb128 0xb
 597 002e 3B       		.uleb128 0x3b
 598 002f 0B       		.uleb128 0xb
 599 0030 49       		.uleb128 0x49
 600 0031 13       		.uleb128 0x13
 601 0032 00       		.byte	0
 602 0033 00       		.byte	0
 603 0034 05       		.uleb128 0x5
 604 0035 0F       		.uleb128 0xf
 605 0036 00       		.byte	0
 606 0037 0B       		.uleb128 0xb
 607 0038 0B       		.uleb128 0xb
 608 0039 00       		.byte	0
 609 003a 00       		.byte	0
 610 003b 06       		.uleb128 0x6
 611 003c 0F       		.uleb128 0xf
 612 003d 00       		.byte	0
ARM GAS  /tmp/ccnOVcHB.s 			page 12


 613 003e 0B       		.uleb128 0xb
 614 003f 0B       		.uleb128 0xb
 615 0040 49       		.uleb128 0x49
 616 0041 13       		.uleb128 0x13
 617 0042 00       		.byte	0
 618 0043 00       		.byte	0
 619 0044 07       		.uleb128 0x7
 620 0045 15       		.uleb128 0x15
 621 0046 01       		.byte	0x1
 622 0047 27       		.uleb128 0x27
 623 0048 19       		.uleb128 0x19
 624 0049 01       		.uleb128 0x1
 625 004a 13       		.uleb128 0x13
 626 004b 00       		.byte	0
 627 004c 00       		.byte	0
 628 004d 08       		.uleb128 0x8
 629 004e 05       		.uleb128 0x5
 630 004f 00       		.byte	0
 631 0050 49       		.uleb128 0x49
 632 0051 13       		.uleb128 0x13
 633 0052 00       		.byte	0
 634 0053 00       		.byte	0
 635 0054 09       		.uleb128 0x9
 636 0055 13       		.uleb128 0x13
 637 0056 01       		.byte	0x1
 638 0057 03       		.uleb128 0x3
 639 0058 0E       		.uleb128 0xe
 640 0059 0B       		.uleb128 0xb
 641 005a 0B       		.uleb128 0xb
 642 005b 3A       		.uleb128 0x3a
 643 005c 0B       		.uleb128 0xb
 644 005d 3B       		.uleb128 0x3b
 645 005e 0B       		.uleb128 0xb
 646 005f 01       		.uleb128 0x1
 647 0060 13       		.uleb128 0x13
 648 0061 00       		.byte	0
 649 0062 00       		.byte	0
 650 0063 0A       		.uleb128 0xa
 651 0064 0D       		.uleb128 0xd
 652 0065 00       		.byte	0
 653 0066 03       		.uleb128 0x3
 654 0067 0E       		.uleb128 0xe
 655 0068 3A       		.uleb128 0x3a
 656 0069 0B       		.uleb128 0xb
 657 006a 3B       		.uleb128 0x3b
 658 006b 0B       		.uleb128 0xb
 659 006c 49       		.uleb128 0x49
 660 006d 13       		.uleb128 0x13
 661 006e 38       		.uleb128 0x38
 662 006f 0B       		.uleb128 0xb
 663 0070 00       		.byte	0
 664 0071 00       		.byte	0
 665 0072 0B       		.uleb128 0xb
 666 0073 13       		.uleb128 0x13
 667 0074 01       		.byte	0x1
 668 0075 0B       		.uleb128 0xb
 669 0076 0B       		.uleb128 0xb
ARM GAS  /tmp/ccnOVcHB.s 			page 13


 670 0077 3A       		.uleb128 0x3a
 671 0078 0B       		.uleb128 0xb
 672 0079 3B       		.uleb128 0x3b
 673 007a 0B       		.uleb128 0xb
 674 007b 01       		.uleb128 0x1
 675 007c 13       		.uleb128 0x13
 676 007d 00       		.byte	0
 677 007e 00       		.byte	0
 678 007f 0C       		.uleb128 0xc
 679 0080 35       		.uleb128 0x35
 680 0081 00       		.byte	0
 681 0082 49       		.uleb128 0x49
 682 0083 13       		.uleb128 0x13
 683 0084 00       		.byte	0
 684 0085 00       		.byte	0
 685 0086 0D       		.uleb128 0xd
 686 0087 2E       		.uleb128 0x2e
 687 0088 00       		.byte	0
 688 0089 3F       		.uleb128 0x3f
 689 008a 19       		.uleb128 0x19
 690 008b 03       		.uleb128 0x3
 691 008c 0E       		.uleb128 0xe
 692 008d 3A       		.uleb128 0x3a
 693 008e 0B       		.uleb128 0xb
 694 008f 3B       		.uleb128 0x3b
 695 0090 0B       		.uleb128 0xb
 696 0091 27       		.uleb128 0x27
 697 0092 19       		.uleb128 0x19
 698 0093 11       		.uleb128 0x11
 699 0094 01       		.uleb128 0x1
 700 0095 12       		.uleb128 0x12
 701 0096 06       		.uleb128 0x6
 702 0097 40       		.uleb128 0x40
 703 0098 18       		.uleb128 0x18
 704 0099 9742     		.uleb128 0x2117
 705 009b 19       		.uleb128 0x19
 706 009c 00       		.byte	0
 707 009d 00       		.byte	0
 708 009e 0E       		.uleb128 0xe
 709 009f 2E       		.uleb128 0x2e
 710 00a0 01       		.byte	0x1
 711 00a1 3F       		.uleb128 0x3f
 712 00a2 19       		.uleb128 0x19
 713 00a3 03       		.uleb128 0x3
 714 00a4 0E       		.uleb128 0xe
 715 00a5 3A       		.uleb128 0x3a
 716 00a6 0B       		.uleb128 0xb
 717 00a7 3B       		.uleb128 0x3b
 718 00a8 0B       		.uleb128 0xb
 719 00a9 27       		.uleb128 0x27
 720 00aa 19       		.uleb128 0x19
 721 00ab 11       		.uleb128 0x11
 722 00ac 01       		.uleb128 0x1
 723 00ad 12       		.uleb128 0x12
 724 00ae 06       		.uleb128 0x6
 725 00af 40       		.uleb128 0x40
 726 00b0 18       		.uleb128 0x18
ARM GAS  /tmp/ccnOVcHB.s 			page 14


 727 00b1 9642     		.uleb128 0x2116
 728 00b3 19       		.uleb128 0x19
 729 00b4 01       		.uleb128 0x1
 730 00b5 13       		.uleb128 0x13
 731 00b6 00       		.byte	0
 732 00b7 00       		.byte	0
 733 00b8 0F       		.uleb128 0xf
 734 00b9 05       		.uleb128 0x5
 735 00ba 00       		.byte	0
 736 00bb 03       		.uleb128 0x3
 737 00bc 08       		.uleb128 0x8
 738 00bd 3A       		.uleb128 0x3a
 739 00be 0B       		.uleb128 0xb
 740 00bf 3B       		.uleb128 0x3b
 741 00c0 0B       		.uleb128 0xb
 742 00c1 49       		.uleb128 0x49
 743 00c2 13       		.uleb128 0x13
 744 00c3 02       		.uleb128 0x2
 745 00c4 18       		.uleb128 0x18
 746 00c5 00       		.byte	0
 747 00c6 00       		.byte	0
 748 00c7 10       		.uleb128 0x10
 749 00c8 05       		.uleb128 0x5
 750 00c9 00       		.byte	0
 751 00ca 03       		.uleb128 0x3
 752 00cb 0E       		.uleb128 0xe
 753 00cc 3A       		.uleb128 0x3a
 754 00cd 0B       		.uleb128 0xb
 755 00ce 3B       		.uleb128 0x3b
 756 00cf 0B       		.uleb128 0xb
 757 00d0 49       		.uleb128 0x49
 758 00d1 13       		.uleb128 0x13
 759 00d2 02       		.uleb128 0x2
 760 00d3 18       		.uleb128 0x18
 761 00d4 00       		.byte	0
 762 00d5 00       		.byte	0
 763 00d6 11       		.uleb128 0x11
 764 00d7 34       		.uleb128 0x34
 765 00d8 00       		.byte	0
 766 00d9 03       		.uleb128 0x3
 767 00da 08       		.uleb128 0x8
 768 00db 3A       		.uleb128 0x3a
 769 00dc 0B       		.uleb128 0xb
 770 00dd 3B       		.uleb128 0x3b
 771 00de 0B       		.uleb128 0xb
 772 00df 49       		.uleb128 0x49
 773 00e0 13       		.uleb128 0x13
 774 00e1 02       		.uleb128 0x2
 775 00e2 18       		.uleb128 0x18
 776 00e3 00       		.byte	0
 777 00e4 00       		.byte	0
 778 00e5 12       		.uleb128 0x12
 779 00e6 34       		.uleb128 0x34
 780 00e7 00       		.byte	0
 781 00e8 03       		.uleb128 0x3
 782 00e9 0E       		.uleb128 0xe
 783 00ea 3A       		.uleb128 0x3a
ARM GAS  /tmp/ccnOVcHB.s 			page 15


 784 00eb 0B       		.uleb128 0xb
 785 00ec 3B       		.uleb128 0x3b
 786 00ed 0B       		.uleb128 0xb
 787 00ee 49       		.uleb128 0x49
 788 00ef 13       		.uleb128 0x13
 789 00f0 3F       		.uleb128 0x3f
 790 00f1 19       		.uleb128 0x19
 791 00f2 02       		.uleb128 0x2
 792 00f3 18       		.uleb128 0x18
 793 00f4 00       		.byte	0
 794 00f5 00       		.byte	0
 795 00f6 00       		.byte	0
 796              		.section	.debug_aranges,"",%progbits
 797 0000 2C000000 		.4byte	0x2c
 798 0004 0200     		.2byte	0x2
 799 0006 00000000 		.4byte	.Ldebug_info0
 800 000a 04       		.byte	0x4
 801 000b 00       		.byte	0
 802 000c 0000     		.2byte	0
 803 000e 0000     		.2byte	0
 804 0010 00000000 		.4byte	.LFB7
 805 0014 24000000 		.4byte	.LFE7-.LFB7
 806 0018 00000000 		.4byte	.LFB8
 807 001c A0000000 		.4byte	.LFE8-.LFB8
 808 0020 00000000 		.4byte	.LFB9
 809 0024 6C000000 		.4byte	.LFE9-.LFB9
 810 0028 00000000 		.4byte	0
 811 002c 00000000 		.4byte	0
 812              		.section	.debug_ranges,"",%progbits
 813              	.Ldebug_ranges0:
 814 0000 00000000 		.4byte	.LFB7
 815 0004 24000000 		.4byte	.LFE7
 816 0008 00000000 		.4byte	.LFB8
 817 000c A0000000 		.4byte	.LFE8
 818 0010 00000000 		.4byte	.LFB9
 819 0014 6C000000 		.4byte	.LFE9
 820 0018 00000000 		.4byte	0
 821 001c 00000000 		.4byte	0
 822              		.section	.debug_line,"",%progbits
 823              	.Ldebug_line0:
 824 0000 87010000 		.section	.debug_str,"MS",%progbits,1
 824      02001801 
 824      00000201 
 824      FB0E0D00 
 824      01010101 
 825              	.LASF29:
 826 0000 2F686F6D 		.ascii	"/home/dave/r2p-sdk/core/ChibiOS/os/kernel/src/chvt."
 826      652F6461 
 826      76652F72 
 826      32702D73 
 826      646B2F63 
 827 0033 6300     		.ascii	"c\000"
 828              	.LASF26:
 829 0035 63685654 		.ascii	"chVTSetI\000"
 829      53657449 
 829      00
 830              	.LASF12:
ARM GAS  /tmp/ccnOVcHB.s 			page 16


 831 003e 73797374 		.ascii	"systime_t\000"
 831      696D655F 
 831      7400
 832              	.LASF14:
 833 0048 76746675 		.ascii	"vtfunc_t\000"
 833      6E635F74 
 833      00
 834              	.LASF6:
 835 0051 6C6F6E67 		.ascii	"long unsigned int\000"
 835      20756E73 
 835      69676E65 
 835      6420696E 
 835      7400
 836              	.LASF4:
 837 0063 73686F72 		.ascii	"short unsigned int\000"
 837      7420756E 
 837      7369676E 
 837      65642069 
 837      6E7400
 838              	.LASF15:
 839 0076 56697274 		.ascii	"VirtualTimer\000"
 839      75616C54 
 839      696D6572 
 839      00
 840              	.LASF2:
 841 0083 756E7369 		.ascii	"unsigned char\000"
 841      676E6564 
 841      20636861 
 841      7200
 842              	.LASF30:
 843 0091 5F76745F 		.ascii	"_vt_init\000"
 843      696E6974 
 843      00
 844              	.LASF9:
 845 009a 5F5F7569 		.ascii	"__uint32_t\000"
 845      6E743332 
 845      5F7400
 846              	.LASF0:
 847 00a5 756E7369 		.ascii	"unsigned int\000"
 847      676E6564 
 847      20696E74 
 847      00
 848              	.LASF8:
 849 00b2 6C6F6E67 		.ascii	"long long unsigned int\000"
 849      206C6F6E 
 849      6720756E 
 849      7369676E 
 849      65642069 
 850              	.LASF31:
 851 00c9 76746C69 		.ascii	"vtlist\000"
 851      737400
 852              	.LASF24:
 853 00d0 74696D65 		.ascii	"time\000"
 853      00
 854              	.LASF18:
 855 00d5 76745F74 		.ascii	"vt_time\000"
 855      696D6500 
ARM GAS  /tmp/ccnOVcHB.s 			page 17


 856              	.LASF13:
 857 00dd 73697A65 		.ascii	"sizetype\000"
 857      74797065 
 857      00
 858              	.LASF21:
 859 00e6 76745F73 		.ascii	"vt_systime\000"
 859      79737469 
 859      6D6500
 860              	.LASF7:
 861 00f1 6C6F6E67 		.ascii	"long long int\000"
 861      206C6F6E 
 861      6720696E 
 861      7400
 862              	.LASF19:
 863 00ff 76745F66 		.ascii	"vt_func\000"
 863      756E6300 
 864              	.LASF25:
 865 0107 76746675 		.ascii	"vtfunc\000"
 865      6E6300
 866              	.LASF23:
 867 010e 63686172 		.ascii	"char\000"
 867      00
 868              	.LASF28:
 869 0113 474E5520 		.ascii	"GNU C 4.8.4 20141219 (release) -mcpu=cortex-m4 -mfl"
 869      4320342E 
 869      382E3420 
 869      32303134 
 869      31323139 
 870 0146 6F61742D 		.ascii	"oat-abi=hard -mfpu=fpv4-sp-d16 -mno-thumb-interwork"
 870      6162693D 
 870      68617264 
 870      202D6D66 
 870      70753D66 
 871 0179 202D6D74 		.ascii	" -mthumb -ggdb -O0 -fomit-frame-pointer -falign-fun"
 871      68756D62 
 871      202D6767 
 871      6462202D 
 871      4F30202D 
 872 01ac 6374696F 		.ascii	"ctions=16 -ffunction-sections -fdata-sections -fno-"
 872      6E733D31 
 872      36202D66 
 872      66756E63 
 872      74696F6E 
 873 01df 636F6D6D 		.ascii	"common -fsingle-precision-constant\000"
 873      6F6E202D 
 873      6673696E 
 873      676C652D 
 873      70726563 
 874              	.LASF20:
 875 0202 76745F70 		.ascii	"vt_par\000"
 875      617200
 876              	.LASF3:
 877 0209 73686F72 		.ascii	"short int\000"
 877      7420696E 
 877      7400
 878              	.LASF17:
 879 0213 76745F70 		.ascii	"vt_prev\000"
ARM GAS  /tmp/ccnOVcHB.s 			page 18


 879      72657600 
 880              	.LASF10:
 881 021b 75696E74 		.ascii	"uint32_t\000"
 881      33325F74 
 881      00
 882              	.LASF5:
 883 0224 6C6F6E67 		.ascii	"long int\000"
 883      20696E74 
 883      00
 884              	.LASF1:
 885 022d 7369676E 		.ascii	"signed char\000"
 885      65642063 
 885      68617200 
 886              	.LASF22:
 887 0239 56544C69 		.ascii	"VTList\000"
 887      737400
 888              	.LASF16:
 889 0240 76745F6E 		.ascii	"vt_next\000"
 889      65787400 
 890              	.LASF27:
 891 0248 63685654 		.ascii	"chVTResetI\000"
 891      52657365 
 891      744900
 892              	.LASF11:
 893 0253 5F426F6F 		.ascii	"_Bool\000"
 893      6C00
 894              		.ident	"GCC: (4.8.4-1+11-1) 4.8.4 20141219 (release)"
ARM GAS  /tmp/ccnOVcHB.s 			page 19


DEFINED SYMBOLS
                            *ABS*:0000000000000000 chvt.c
     /tmp/ccnOVcHB.s:25     .bss.vtlist:0000000000000000 vtlist
     /tmp/ccnOVcHB.s:22     .bss.vtlist:0000000000000000 $d
     /tmp/ccnOVcHB.s:28     .text._vt_init:0000000000000000 $t
     /tmp/ccnOVcHB.s:34     .text._vt_init:0000000000000000 _vt_init
     /tmp/ccnOVcHB.s:63     .text._vt_init:0000000000000020 $d
     /tmp/ccnOVcHB.s:68     .rodata:0000000000000000 $d
     /tmp/ccnOVcHB.s:72     .text.chVTSetI:0000000000000000 $t
     /tmp/ccnOVcHB.s:78     .text.chVTSetI:0000000000000000 chVTSetI
     /tmp/ccnOVcHB.s:185    .text.chVTSetI:0000000000000098 $d
     /tmp/ccnOVcHB.s:198    .text.chVTResetI:0000000000000000 $t
     /tmp/ccnOVcHB.s:204    .text.chVTResetI:0000000000000000 chVTResetI
     /tmp/ccnOVcHB.s:275    .text.chVTResetI:0000000000000060 $d
                     .debug_frame:0000000000000010 $d
     /tmp/ccnOVcHB.s:67     .text._vt_init:0000000000000024 $t
     /tmp/ccnOVcHB.s:281    .text.chVTResetI:000000000000006c $t

UNDEFINED SYMBOLS
chDbgCheckClassI
chDbgPanic
