ARM GAS  /tmp/ccrvMDS7.s 			page 1


   1              		.syntax unified
   2              		.cpu cortex-m4
   3              		.eabi_attribute 27, 3
   4              		.eabi_attribute 28, 1
   5              		.fpu fpv4-sp-d16
   6              		.eabi_attribute 20, 1
   7              		.eabi_attribute 21, 1
   8              		.eabi_attribute 23, 3
   9              		.eabi_attribute 24, 1
  10              		.eabi_attribute 25, 1
  11              		.eabi_attribute 26, 1
  12              		.eabi_attribute 30, 6
  13              		.eabi_attribute 34, 1
  14              		.eabi_attribute 18, 4
  15              		.thumb
  16              		.file	"main.cpp"
  17              		.text
  18              	.Ltext0:
  19              		.cfi_sections	.debug_frame
  20              		.section	.text._ZN3r2p10UncopyableD2Ev,"axG",%progbits,_ZN3r2p10UncopyableD5Ev,comdat
  21              		.align	2
  22              		.p2align 4,,15
  23              		.weak	_ZN3r2p10UncopyableD2Ev
  24              		.thumb
  25              		.thumb_func
  26              		.type	_ZN3r2p10UncopyableD2Ev, %function
  27              	_ZN3r2p10UncopyableD2Ev:
  28              	.LFB127:
  29              		.file 1 "/home/dave/r2p-sdk/core/Middleware/include/r2p/Uncopyable.hpp"
  30              		.loc 1 21 0
  31              		.cfi_startproc
  32              		@ args = 0, pretend = 0, frame = 8
  33              		@ frame_needed = 0, uses_anonymous_args = 0
  34              		@ link register save eliminated.
  35 0000 82B0     		sub	sp, sp, #8
  36              		.cfi_def_cfa_offset 8
  37 0002 0190     		str	r0, [sp, #4]
  38              		.loc 1 21 0
  39 0004 019B     		ldr	r3, [sp, #4]
  40 0006 1846     		mov	r0, r3
  41 0008 02B0     		add	sp, sp, #8
  42              		@ sp needed
  43 000a 7047     		bx	lr
  44              		.cfi_endproc
  45              	.LFE127:
  46              		.size	_ZN3r2p10UncopyableD2Ev, .-_ZN3r2p10UncopyableD2Ev
  47              		.weak	_ZN3r2p10UncopyableD1Ev
  48              		.thumb_set _ZN3r2p10UncopyableD1Ev,_ZN3r2p10UncopyableD2Ev
  49 000c AFF30080 		.section	.text._ZNK3r2p4Time8to_s_rawEv,"axG",%progbits,_ZNK3r2p4Time8to_s_rawEv,comdat
  50              		.align	2
  51              		.p2align 4,,15
  52              		.weak	_ZNK3r2p4Time8to_s_rawEv
  53              		.thumb
  54              		.thumb_func
  55              		.type	_ZNK3r2p4Time8to_s_rawEv, %function
  56              	_ZNK3r2p4Time8to_s_rawEv:
  57              	.LFB256:
ARM GAS  /tmp/ccrvMDS7.s 			page 2


  58              		.file 2 "/home/dave/r2p-sdk/core/Middleware/include/r2p/Time.hpp"
  59              		.loc 2 89 0
  60              		.cfi_startproc
  61              		@ args = 0, pretend = 0, frame = 8
  62              		@ frame_needed = 0, uses_anonymous_args = 0
  63              		@ link register save eliminated.
  64 0000 82B0     		sub	sp, sp, #8
  65              		.cfi_def_cfa_offset 8
  66 0002 0190     		str	r0, [sp, #4]
  67              		.loc 2 91 0
  68 0004 019B     		ldr	r3, [sp, #4]
  69 0006 1B68     		ldr	r3, [r3]
  70 0008 044A     		ldr	r2, .L6
  71 000a 82FB0312 		smull	r1, r2, r2, r3
  72 000e 9214     		asrs	r2, r2, #18
  73 0010 DB17     		asrs	r3, r3, #31
  74 0012 D31A     		subs	r3, r2, r3
  75              		.loc 2 92 0
  76 0014 1846     		mov	r0, r3
  77 0016 02B0     		add	sp, sp, #8
  78              		@ sp needed
  79 0018 7047     		bx	lr
  80              	.L7:
  81 001a 00BF     		.align	2
  82              	.L6:
  83 001c 83DE1B43 		.word	1125899907
  84              		.cfi_endproc
  85              	.LFE256:
  86              		.size	_ZNK3r2p4Time8to_s_rawEv, .-_ZNK3r2p4Time8to_s_rawEv
  87              		.section	.text._ZN3r2p4TimeaSERKS0_,"axG",%progbits,_ZN3r2p4TimeaSERKS0_,comdat
  88              		.align	2
  89              		.p2align 4,,15
  90              		.weak	_ZN3r2p4TimeaSERKS0_
  91              		.thumb
  92              		.thumb_func
  93              		.type	_ZN3r2p4TimeaSERKS0_, %function
  94              	_ZN3r2p4TimeaSERKS0_:
  95              	.LFB262:
  96              		.loc 2 131 0
  97              		.cfi_startproc
  98              		@ args = 0, pretend = 0, frame = 8
  99              		@ frame_needed = 0, uses_anonymous_args = 0
 100              		@ link register save eliminated.
 101 0000 82B0     		sub	sp, sp, #8
 102              		.cfi_def_cfa_offset 8
 103 0002 0190     		str	r0, [sp, #4]
 104 0004 0091     		str	r1, [sp]
 105              		.loc 2 133 0
 106 0006 009B     		ldr	r3, [sp]
 107 0008 1A68     		ldr	r2, [r3]
 108 000a 019B     		ldr	r3, [sp, #4]
 109 000c 1A60     		str	r2, [r3]
 110              		.loc 2 134 0
 111 000e 019B     		ldr	r3, [sp, #4]
 112              		.loc 2 135 0
 113 0010 1846     		mov	r0, r3
 114 0012 02B0     		add	sp, sp, #8
ARM GAS  /tmp/ccrvMDS7.s 			page 3


 115              		@ sp needed
 116 0014 7047     		bx	lr
 117              		.cfi_endproc
 118              	.LFE262:
 119              		.size	_ZN3r2p4TimeaSERKS0_, .-_ZN3r2p4TimeaSERKS0_
 120 0016 00BFAFF3 		.section	.text._ZN3r2p4Time2msEl,"axG",%progbits,_ZN3r2p4Time2msEl,comdat
 120      0080AFF3 
 120      0080
 121              		.align	2
 122              		.p2align 4,,15
 123              		.weak	_ZN3r2p4Time2msEl
 124              		.thumb
 125              		.thumb_func
 126              		.type	_ZN3r2p4Time2msEl, %function
 127              	_ZN3r2p4Time2msEl:
 128              	.LFB276:
 129              		.loc 2 184 0
 130              		.cfi_startproc
 131              		@ args = 0, pretend = 0, frame = 8
 132              		@ frame_needed = 0, uses_anonymous_args = 0
 133 0000 00B5     		push	{lr}
 134              		.cfi_def_cfa_offset 4
 135              		.cfi_offset 14, -4
 136 0002 83B0     		sub	sp, sp, #12
 137              		.cfi_def_cfa_offset 16
 138 0004 0190     		str	r0, [sp, #4]
 139 0006 0091     		str	r1, [sp]
 140              		.loc 2 186 0
 141 0008 009B     		ldr	r3, [sp]
 142 000a 4FF47A72 		mov	r2, #1000
 143 000e 02FB03F3 		mul	r3, r2, r3
 144 0012 0198     		ldr	r0, [sp, #4]
 145 0014 1946     		mov	r1, r3
 146 0016 FFF7FEFF 		bl	_ZN3r2p4TimeC1IlEET_
 147              		.loc 2 187 0
 148 001a 0198     		ldr	r0, [sp, #4]
 149 001c 03B0     		add	sp, sp, #12
 150              		@ sp needed
 151 001e 5DF804FB 		ldr	pc, [sp], #4
 152              		.cfi_endproc
 153              	.LFE276:
 154              		.size	_ZN3r2p4Time2msEl, .-_ZN3r2p4Time2msEl
 155 0022 00BFAFF3 		.section	.text._ZN3r2p7Thread_11create_heapEPvjmPFlS1_ES1_PKc,"axG",%progbits,_ZN3r2p7Thread_11cre
 155      0080AFF3 
 155      0080AFF3 
 155      0080
 156              		.align	2
 157              		.p2align 4,,15
 158              		.weak	_ZN3r2p7Thread_11create_heapEPvjmPFlS1_ES1_PKc
 159              		.thumb
 160              		.thumb_func
 161              		.type	_ZN3r2p7Thread_11create_heapEPvjmPFlS1_ES1_PKc, %function
 162              	_ZN3r2p7Thread_11create_heapEPvjmPFlS1_ES1_PKc:
 163              	.LFB334:
 164              		.file 3 "/home/dave/r2p-sdk/core/Middleware/port/chibios/include/r2p/impl/Thread_.hpp"
 165              		.loc 3 115 0
 166              		.cfi_startproc
ARM GAS  /tmp/ccrvMDS7.s 			page 4


 167              		@ args = 8, pretend = 0, frame = 24
 168              		@ frame_needed = 0, uses_anonymous_args = 0
 169 0000 00B5     		push	{lr}
 170              		.cfi_def_cfa_offset 4
 171              		.cfi_offset 14, -4
 172 0002 89B0     		sub	sp, sp, #36
 173              		.cfi_def_cfa_offset 40
 174 0004 0590     		str	r0, [sp, #20]
 175 0006 0491     		str	r1, [sp, #16]
 176 0008 0392     		str	r2, [sp, #12]
 177 000a 0293     		str	r3, [sp, #8]
 178              	.LBB10:
 179              		.loc 3 120 0
 180 000c 0A9B     		ldr	r3, [sp, #40]
 181 000e 0093     		str	r3, [sp]
 182 0010 0598     		ldr	r0, [sp, #20]
 183 0012 0499     		ldr	r1, [sp, #16]
 184 0014 039A     		ldr	r2, [sp, #12]
 185 0016 029B     		ldr	r3, [sp, #8]
 186 0018 FFF7FEFF 		bl	chThdCreateFromHeap
 187 001c 0790     		str	r0, [sp, #28]
 188              		.loc 3 122 0
 189 001e 079B     		ldr	r3, [sp, #28]
 190 0020 002B     		cmp	r3, #0
 191 0022 02D0     		beq	.L13
 192              		.loc 3 123 0
 193 0024 079B     		ldr	r3, [sp, #28]
 194 0026 0B9A     		ldr	r2, [sp, #44]
 195 0028 9A61     		str	r2, [r3, #24]
 196              	.L13:
 197              		.loc 3 128 0
 198 002a 079B     		ldr	r3, [sp, #28]
 199              	.LBE10:
 200              		.loc 3 129 0
 201 002c 1846     		mov	r0, r3
 202 002e 09B0     		add	sp, sp, #36
 203              		@ sp needed
 204 0030 5DF804FB 		ldr	pc, [sp], #4
 205              		.cfi_endproc
 206              	.LFE334:
 207              		.size	_ZN3r2p7Thread_11create_heapEPvjmPFlS1_ES1_PKc, .-_ZN3r2p7Thread_11create_heapEPvjmPFlS1_ES1
 208 0034 AFF30080 		.section	.text._ZN3r2p7Thread_5sleepERKNS_4TimeE,"axG",%progbits,_ZN3r2p7Thread_5sleepERKNS_4TimeE
 208      AFF30080 
 208      AFF30080 
 209              		.align	2
 210              		.p2align 4,,15
 211              		.weak	_ZN3r2p7Thread_5sleepERKNS_4TimeE
 212              		.thumb
 213              		.thumb_func
 214              		.type	_ZN3r2p7Thread_5sleepERKNS_4TimeE, %function
 215              	_ZN3r2p7Thread_5sleepERKNS_4TimeE:
 216              	.LFB340:
 217              		.loc 3 180 0
 218              		.cfi_startproc
 219              		@ args = 0, pretend = 0, frame = 8
 220              		@ frame_needed = 0, uses_anonymous_args = 0
 221 0000 00B5     		push	{lr}
ARM GAS  /tmp/ccrvMDS7.s 			page 5


 222              		.cfi_def_cfa_offset 4
 223              		.cfi_offset 14, -4
 224 0002 83B0     		sub	sp, sp, #12
 225              		.cfi_def_cfa_offset 16
 226 0004 0190     		str	r0, [sp, #4]
 227              		.loc 3 182 0
 228 0006 019B     		ldr	r3, [sp, #4]
 229 0008 1B68     		ldr	r3, [r3]
 230 000a 002B     		cmp	r3, #0
 231 000c 20DD     		ble	.L16
 232              		.loc 3 183 0
 233 000e 019B     		ldr	r3, [sp, #4]
 234 0010 1A68     		ldr	r2, [r3]
 235 0012 124B     		ldr	r3, .L20
 236 0014 9A42     		cmp	r2, r3
 237 0016 0FDC     		bgt	.L17
 238              		.loc 3 184 0
 239 0018 019B     		ldr	r3, [sp, #4]
 240 001a 1B68     		ldr	r3, [r3]
 241 001c 4FF47A72 		mov	r2, #1000
 242 0020 02FB03F3 		mul	r3, r2, r3
 243 0024 5A1E     		subs	r2, r3, #1
 244 0026 0E4B     		ldr	r3, .L20+4
 245 0028 A3FB0213 		umull	r1, r3, r3, r2
 246 002c 9B0C     		lsrs	r3, r3, #18
 247 002e 0133     		adds	r3, r3, #1
 248 0030 1846     		mov	r0, r3
 249 0032 FFF7FEFF 		bl	chThdSleep
 250 0036 0DE0     		b	.L15
 251              	.L17:
 252              		.loc 3 186 0
 253 0038 0198     		ldr	r0, [sp, #4]
 254 003a FFF7FEFF 		bl	_ZNK3r2p4Time8to_s_rawEv
 255 003e 0346     		mov	r3, r0
 256 0040 4FF47A72 		mov	r2, #1000
 257 0044 02FB03F3 		mul	r3, r2, r3
 258 0048 1846     		mov	r0, r3
 259 004a FFF7FEFF 		bl	chThdSleep
 260 004e 01E0     		b	.L15
 261              	.L16:
 262              		.loc 3 189 0
 263 0050 FFF7FEFF 		bl	chThdYield
 264              	.L15:
 265              		.loc 3 191 0
 266 0054 03B0     		add	sp, sp, #12
 267              		@ sp needed
 268 0056 5DF804FB 		ldr	pc, [sp], #4
 269              	.L21:
 270 005a 00BF     		.align	2
 271              	.L20:
 272 005c 3F420F00 		.word	999999
 273 0060 83DE1B43 		.word	1125899907
 274              		.cfi_endproc
 275              	.LFE340:
 276              		.size	_ZN3r2p7Thread_5sleepERKNS_4TimeE, .-_ZN3r2p7Thread_5sleepERKNS_4TimeE
 277 0064 AFF30080 		.section	.text._ZN3r2p6Thread11create_heapEPvjmPFlS1_ES1_PKc,"axG",%progbits,_ZN3r2p6Thread11creat
 277      AFF30080 
ARM GAS  /tmp/ccrvMDS7.s 			page 6


 277      AFF30080 
 278              		.align	2
 279              		.p2align 4,,15
 280              		.weak	_ZN3r2p6Thread11create_heapEPvjmPFlS1_ES1_PKc
 281              		.thumb
 282              		.thumb_func
 283              		.type	_ZN3r2p6Thread11create_heapEPvjmPFlS1_ES1_PKc, %function
 284              	_ZN3r2p6Thread11create_heapEPvjmPFlS1_ES1_PKc:
 285              	.LFB345:
 286              		.file 4 "/home/dave/r2p-sdk/core/Middleware/include/r2p/Thread.hpp"
 287              		.loc 4 92 0
 288              		.cfi_startproc
 289              		@ args = 8, pretend = 0, frame = 16
 290              		@ frame_needed = 0, uses_anonymous_args = 0
 291 0000 00B5     		push	{lr}
 292              		.cfi_def_cfa_offset 4
 293              		.cfi_offset 14, -4
 294 0002 87B0     		sub	sp, sp, #28
 295              		.cfi_def_cfa_offset 32
 296 0004 0590     		str	r0, [sp, #20]
 297 0006 0491     		str	r1, [sp, #16]
 298 0008 0392     		str	r2, [sp, #12]
 299 000a 0293     		str	r3, [sp, #8]
 300              		.loc 4 96 0
 301 000c 089B     		ldr	r3, [sp, #32]
 302 000e 0093     		str	r3, [sp]
 303 0010 099B     		ldr	r3, [sp, #36]
 304 0012 0193     		str	r3, [sp, #4]
 305 0014 0598     		ldr	r0, [sp, #20]
 306 0016 0499     		ldr	r1, [sp, #16]
 307 0018 039A     		ldr	r2, [sp, #12]
 308 001a 029B     		ldr	r3, [sp, #8]
 309 001c FFF7FEFF 		bl	_ZN3r2p7Thread_11create_heapEPvjmPFlS1_ES1_PKc
 310 0020 0346     		mov	r3, r0
 311              		.loc 4 97 0
 312 0022 1846     		mov	r0, r3
 313 0024 07B0     		add	sp, sp, #28
 314              		@ sp needed
 315 0026 5DF804FB 		ldr	pc, [sp], #4
 316              		.cfi_endproc
 317              	.LFE345:
 318              		.size	_ZN3r2p6Thread11create_heapEPvjmPFlS1_ES1_PKc, .-_ZN3r2p6Thread11create_heapEPvjmPFlS1_ES1_P
 319 002a 00BFAFF3 		.section	.text._ZN3r2p6Thread5sleepERKNS_4TimeE,"axG",%progbits,_ZN3r2p6Thread5sleepERKNS_4TimeE,c
 319      0080
 320              		.align	2
 321              		.p2align 4,,15
 322              		.weak	_ZN3r2p6Thread5sleepERKNS_4TimeE
 323              		.thumb
 324              		.thumb_func
 325              		.type	_ZN3r2p6Thread5sleepERKNS_4TimeE, %function
 326              	_ZN3r2p6Thread5sleepERKNS_4TimeE:
 327              	.LFB351:
 328              		.loc 4 140 0
 329              		.cfi_startproc
 330              		@ args = 0, pretend = 0, frame = 8
 331              		@ frame_needed = 0, uses_anonymous_args = 0
 332 0000 00B5     		push	{lr}
ARM GAS  /tmp/ccrvMDS7.s 			page 7


 333              		.cfi_def_cfa_offset 4
 334              		.cfi_offset 14, -4
 335 0002 83B0     		sub	sp, sp, #12
 336              		.cfi_def_cfa_offset 16
 337 0004 0190     		str	r0, [sp, #4]
 338              		.loc 4 142 0
 339 0006 0198     		ldr	r0, [sp, #4]
 340 0008 FFF7FEFF 		bl	_ZN3r2p7Thread_5sleepERKNS_4TimeE
 341              		.loc 4 143 0
 342 000c 03B0     		add	sp, sp, #12
 343              		@ sp needed
 344 000e 5DF804FB 		ldr	pc, [sp], #4
 345              		.cfi_endproc
 346              	.LFE351:
 347              		.size	_ZN3r2p6Thread5sleepERKNS_4TimeE, .-_ZN3r2p6Thread5sleepERKNS_4TimeE
 348 0012 00BFAFF3 		.section	.text._ZNK3r2p10SpinEvent_10get_threadEv,"axG",%progbits,_ZNK3r2p10SpinEvent_10get_thread
 348      0080AFF3 
 348      0080AFF3 
 348      0080
 349              		.align	2
 350              		.p2align 4,,15
 351              		.weak	_ZNK3r2p10SpinEvent_10get_threadEv
 352              		.thumb
 353              		.thumb_func
 354              		.type	_ZNK3r2p10SpinEvent_10get_threadEv, %function
 355              	_ZNK3r2p10SpinEvent_10get_threadEv:
 356              	.LFB353:
 357              		.file 5 "/home/dave/r2p-sdk/core/Middleware/port/chibios/include/r2p/impl/SpinEvent_.hpp"
 358              		.loc 5 36 0
 359              		.cfi_startproc
 360              		@ args = 0, pretend = 0, frame = 8
 361              		@ frame_needed = 0, uses_anonymous_args = 0
 362              		@ link register save eliminated.
 363 0000 82B0     		sub	sp, sp, #8
 364              		.cfi_def_cfa_offset 8
 365 0002 0190     		str	r0, [sp, #4]
 366              		.loc 5 38 0
 367 0004 019B     		ldr	r3, [sp, #4]
 368 0006 1B68     		ldr	r3, [r3]
 369              		.loc 5 39 0
 370 0008 1846     		mov	r0, r3
 371 000a 02B0     		add	sp, sp, #8
 372              		@ sp needed
 373 000c 7047     		bx	lr
 374              		.cfi_endproc
 375              	.LFE353:
 376              		.size	_ZNK3r2p10SpinEvent_10get_threadEv, .-_ZNK3r2p10SpinEvent_10get_threadEv
 377 000e 00BF     		.section	.rodata
 378              		.align	2
 379              	.LC0:
 380 0000 5232505F 		.ascii	"R2P_ASSERT()\000"
 380      41535345 
 380      52542829 
 380      00
 381              		.section	.text._ZN3r2p10SpinEvent_13signal_unsafeEj,"axG",%progbits,_ZN3r2p10SpinEvent_13signal_un
 382              		.align	2
 383              		.p2align 4,,15
ARM GAS  /tmp/ccrvMDS7.s 			page 8


 384              		.weak	_ZN3r2p10SpinEvent_13signal_unsafeEj
 385              		.thumb
 386              		.thumb_func
 387              		.type	_ZN3r2p10SpinEvent_13signal_unsafeEj, %function
 388              	_ZN3r2p10SpinEvent_13signal_unsafeEj:
 389              	.LFB355:
 390              		.loc 5 50 0
 391              		.cfi_startproc
 392              		@ args = 0, pretend = 0, frame = 8
 393              		@ frame_needed = 0, uses_anonymous_args = 0
 394 0000 00B5     		push	{lr}
 395              		.cfi_def_cfa_offset 4
 396              		.cfi_offset 14, -4
 397 0002 83B0     		sub	sp, sp, #12
 398              		.cfi_def_cfa_offset 16
 399 0004 0190     		str	r0, [sp, #4]
 400 0006 0091     		str	r1, [sp]
 401              		.loc 5 52 0
 402 0008 019B     		ldr	r3, [sp, #4]
 403 000a 1B68     		ldr	r3, [r3]
 404 000c 002B     		cmp	r3, #0
 405 000e 10D0     		beq	.L27
 406              		.loc 5 53 0
 407 0010 2022     		movs	r2, #32
 408 0012 009B     		ldr	r3, [sp]
 409 0014 9A42     		cmp	r2, r3
 410 0016 02D8     		bhi	.L29
 411              		.loc 5 53 0 is_stmt 0 discriminator 1
 412 0018 0748     		ldr	r0, .L30
 413 001a FFF7FEFF 		bl	chDbgPanic
 414              	.L29:
 415              		.loc 5 54 0 is_stmt 1 discriminator 1
 416 001e 019B     		ldr	r3, [sp, #4]
 417 0020 1A68     		ldr	r2, [r3]
 418 0022 009B     		ldr	r3, [sp]
 419 0024 0121     		movs	r1, #1
 420 0026 01FA03F3 		lsl	r3, r1, r3
 421 002a 1046     		mov	r0, r2
 422 002c 1946     		mov	r1, r3
 423 002e FFF7FEFF 		bl	chEvtSignalI
 424              	.L27:
 425              		.loc 5 56 0
 426 0032 03B0     		add	sp, sp, #12
 427              		@ sp needed
 428 0034 5DF804FB 		ldr	pc, [sp], #4
 429              	.L31:
 430              		.align	2
 431              	.L30:
 432 0038 00000000 		.word	.LC0
 433              		.cfi_endproc
 434              	.LFE355:
 435              		.size	_ZN3r2p10SpinEvent_13signal_unsafeEj, .-_ZN3r2p10SpinEvent_13signal_unsafeEj
 436 003c AFF30080 		.section	.text._ZNK3r2p9SpinEvent10get_threadEv,"axG",%progbits,_ZNK3r2p9SpinEvent10get_threadEv,c
 437              		.align	2
 438              		.p2align 4,,15
 439              		.weak	_ZNK3r2p9SpinEvent10get_threadEv
 440              		.thumb
ARM GAS  /tmp/ccrvMDS7.s 			page 9


 441              		.thumb_func
 442              		.type	_ZNK3r2p9SpinEvent10get_threadEv, %function
 443              	_ZNK3r2p9SpinEvent10get_threadEv:
 444              	.LFB361:
 445              		.file 6 "/home/dave/r2p-sdk/core/Middleware/include/r2p/SpinEvent.hpp"
 446              		.loc 6 35 0
 447              		.cfi_startproc
 448              		@ args = 0, pretend = 0, frame = 8
 449              		@ frame_needed = 0, uses_anonymous_args = 0
 450 0000 00B5     		push	{lr}
 451              		.cfi_def_cfa_offset 4
 452              		.cfi_offset 14, -4
 453 0002 83B0     		sub	sp, sp, #12
 454              		.cfi_def_cfa_offset 16
 455 0004 0190     		str	r0, [sp, #4]
 456              		.loc 6 37 0
 457 0006 019B     		ldr	r3, [sp, #4]
 458 0008 1846     		mov	r0, r3
 459 000a FFF7FEFF 		bl	_ZNK3r2p10SpinEvent_10get_threadEv
 460 000e 0346     		mov	r3, r0
 461              		.loc 6 38 0
 462 0010 1846     		mov	r0, r3
 463 0012 03B0     		add	sp, sp, #12
 464              		@ sp needed
 465 0014 5DF804FB 		ldr	pc, [sp], #4
 466              		.cfi_endproc
 467              	.LFE361:
 468              		.size	_ZNK3r2p9SpinEvent10get_threadEv, .-_ZNK3r2p9SpinEvent10get_threadEv
 469 0018 AFF30080 		.section	.text._ZN3r2p9SpinEvent13signal_unsafeEj,"axG",%progbits,_ZN3r2p9SpinEvent13signal_unsafe
 469      AFF30080 
 470              		.align	2
 471              		.p2align 4,,15
 472              		.weak	_ZN3r2p9SpinEvent13signal_unsafeEj
 473              		.thumb
 474              		.thumb_func
 475              		.type	_ZN3r2p9SpinEvent13signal_unsafeEj, %function
 476              	_ZN3r2p9SpinEvent13signal_unsafeEj:
 477              	.LFB363:
 478              		.loc 6 49 0
 479              		.cfi_startproc
 480              		@ args = 0, pretend = 0, frame = 8
 481              		@ frame_needed = 0, uses_anonymous_args = 0
 482 0000 00B5     		push	{lr}
 483              		.cfi_def_cfa_offset 4
 484              		.cfi_offset 14, -4
 485 0002 83B0     		sub	sp, sp, #12
 486              		.cfi_def_cfa_offset 16
 487 0004 0190     		str	r0, [sp, #4]
 488 0006 0091     		str	r1, [sp]
 489              		.loc 6 51 0
 490 0008 019B     		ldr	r3, [sp, #4]
 491 000a 1846     		mov	r0, r3
 492 000c 0099     		ldr	r1, [sp]
 493 000e FFF7FEFF 		bl	_ZN3r2p10SpinEvent_13signal_unsafeEj
 494              		.loc 6 52 0
 495 0012 03B0     		add	sp, sp, #12
 496              		@ sp needed
ARM GAS  /tmp/ccrvMDS7.s 			page 10


 497 0014 5DF804FB 		ldr	pc, [sp], #4
 498              		.cfi_endproc
 499              	.LFE363:
 500              		.size	_ZN3r2p9SpinEvent13signal_unsafeEj, .-_ZN3r2p9SpinEvent13signal_unsafeEj
 501 0018 AFF30080 		.section	.text._ZNK3r2p4Node11get_enabledEv,"axG",%progbits,_ZNK3r2p4Node11get_enabledEv,comdat
 501      AFF30080 
 502              		.align	2
 503              		.p2align 4,,15
 504              		.weak	_ZNK3r2p4Node11get_enabledEv
 505              		.thumb
 506              		.thumb_func
 507              		.type	_ZNK3r2p4Node11get_enabledEv, %function
 508              	_ZNK3r2p4Node11get_enabledEv:
 509              	.LFB380:
 510              		.file 7 "/home/dave/r2p-sdk/core/Middleware/include/r2p/Node.hpp"
 511              		.loc 7 103 0
 512              		.cfi_startproc
 513              		@ args = 0, pretend = 0, frame = 8
 514              		@ frame_needed = 0, uses_anonymous_args = 0
 515 0000 00B5     		push	{lr}
 516              		.cfi_def_cfa_offset 4
 517              		.cfi_offset 14, -4
 518 0002 83B0     		sub	sp, sp, #12
 519              		.cfi_def_cfa_offset 16
 520 0004 0190     		str	r0, [sp, #4]
 521              		.loc 7 105 0
 522 0006 019B     		ldr	r3, [sp, #4]
 523 0008 0C33     		adds	r3, r3, #12
 524 000a 1846     		mov	r0, r3
 525 000c FFF7FEFF 		bl	_ZNK3r2p9SpinEvent10get_threadEv
 526 0010 0346     		mov	r3, r0
 527 0012 002B     		cmp	r3, #0
 528 0014 0CBF     		ite	eq
 529 0016 0023     		moveq	r3, #0
 530 0018 0123     		movne	r3, #1
 531 001a DBB2     		uxtb	r3, r3
 532              		.loc 7 106 0
 533 001c 1846     		mov	r0, r3
 534 001e 03B0     		add	sp, sp, #12
 535              		@ sp needed
 536 0020 5DF804FB 		ldr	pc, [sp], #4
 537              		.cfi_endproc
 538              	.LFE380:
 539              		.size	_ZNK3r2p4Node11get_enabledEv, .-_ZNK3r2p4Node11get_enabledEv
 540 0024 AFF30080 		.section	.text._ZN3r2p4Node13notify_unsafeEj,"axG",%progbits,_ZN3r2p4Node13notify_unsafeEj,comdat
 540      AFF30080 
 540      AFF30080 
 541              		.align	2
 542              		.p2align 4,,15
 543              		.weak	_ZN3r2p4Node13notify_unsafeEj
 544              		.thumb
 545              		.thumb_func
 546              		.type	_ZN3r2p4Node13notify_unsafeEj, %function
 547              	_ZN3r2p4Node13notify_unsafeEj:
 548              	.LFB385:
 549              		.loc 7 140 0
 550              		.cfi_startproc
ARM GAS  /tmp/ccrvMDS7.s 			page 11


 551              		@ args = 0, pretend = 0, frame = 8
 552              		@ frame_needed = 0, uses_anonymous_args = 0
 553 0000 00B5     		push	{lr}
 554              		.cfi_def_cfa_offset 4
 555              		.cfi_offset 14, -4
 556 0002 83B0     		sub	sp, sp, #12
 557              		.cfi_def_cfa_offset 16
 558 0004 0190     		str	r0, [sp, #4]
 559 0006 0091     		str	r1, [sp]
 560              		.loc 7 142 0
 561 0008 019B     		ldr	r3, [sp, #4]
 562 000a 0C33     		adds	r3, r3, #12
 563 000c 1846     		mov	r0, r3
 564 000e 0099     		ldr	r1, [sp]
 565 0010 FFF7FEFF 		bl	_ZN3r2p9SpinEvent13signal_unsafeEj
 566              		.loc 7 143 0
 567 0014 03B0     		add	sp, sp, #12
 568              		@ sp needed
 569 0016 5DF804FB 		ldr	pc, [sp], #4
 570              		.cfi_endproc
 571              	.LFE385:
 572              		.size	_ZN3r2p4Node13notify_unsafeEj, .-_ZN3r2p4Node13notify_unsafeEj
 573 001a 00BFAFF3 		.section	.text._ZNK3r2p15LocalSubscriber16get_queue_lengthEv,"axG",%progbits,_ZNK3r2p15LocalSubscr
 573      0080
 574              		.align	2
 575              		.p2align 4,,15
 576              		.weak	_ZNK3r2p15LocalSubscriber16get_queue_lengthEv
 577              		.thumb
 578              		.thumb_func
 579              		.type	_ZNK3r2p15LocalSubscriber16get_queue_lengthEv, %function
 580              	_ZNK3r2p15LocalSubscriber16get_queue_lengthEv:
 581              	.LFB391:
 582              		.file 8 "/home/dave/r2p-sdk/core/Middleware/include/r2p/LocalSubscriber.hpp"
 583              		.loc 8 64 0
 584              		.cfi_startproc
 585              		@ args = 0, pretend = 0, frame = 8
 586              		@ frame_needed = 0, uses_anonymous_args = 0
 587 0000 00B5     		push	{lr}
 588              		.cfi_def_cfa_offset 4
 589              		.cfi_offset 14, -4
 590 0002 83B0     		sub	sp, sp, #12
 591              		.cfi_def_cfa_offset 16
 592 0004 0190     		str	r0, [sp, #4]
 593              		.loc 8 66 0
 594 0006 019B     		ldr	r3, [sp, #4]
 595 0008 1033     		adds	r3, r3, #16
 596 000a 1846     		mov	r0, r3
 597 000c FFF7FEFF 		bl	_ZNK3r2p10ArrayQueueIPNS_7MessageEE10get_lengthEv
 598 0010 0346     		mov	r3, r0
 599              		.loc 8 67 0
 600 0012 1846     		mov	r0, r3
 601 0014 03B0     		add	sp, sp, #12
 602              		@ sp needed
 603 0016 5DF804FB 		ldr	pc, [sp], #4
 604              		.cfi_endproc
 605              	.LFE391:
 606              		.size	_ZNK3r2p15LocalSubscriber16get_queue_lengthEv, .-_ZNK3r2p15LocalSubscriber16get_queue_length
ARM GAS  /tmp/ccrvMDS7.s 			page 12


 607 001a 00BFAFF3 		.section	.text._ZN3r2p15LocalSubscriber12fetch_unsafeERPNS_7MessageERNS_4TimeE,"axG",%progbits,_ZN
 607      0080
 608              		.align	2
 609              		.p2align 4,,15
 610              		.weak	_ZN3r2p15LocalSubscriber12fetch_unsafeERPNS_7MessageERNS_4TimeE
 611              		.thumb
 612              		.thumb_func
 613              		.type	_ZN3r2p15LocalSubscriber12fetch_unsafeERPNS_7MessageERNS_4TimeE, %function
 614              	_ZN3r2p15LocalSubscriber12fetch_unsafeERPNS_7MessageERNS_4TimeE:
 615              	.LFB392:
 616              		.loc 8 71 0
 617              		.cfi_startproc
 618              		@ args = 0, pretend = 0, frame = 24
 619              		@ frame_needed = 0, uses_anonymous_args = 0
 620 0000 00B5     		push	{lr}
 621              		.cfi_def_cfa_offset 4
 622              		.cfi_offset 14, -4
 623 0002 87B0     		sub	sp, sp, #28
 624              		.cfi_def_cfa_offset 32
 625 0004 0390     		str	r0, [sp, #12]
 626 0006 0291     		str	r1, [sp, #8]
 627 0008 0192     		str	r2, [sp, #4]
 628              		.loc 8 73 0
 629 000a 039B     		ldr	r3, [sp, #12]
 630 000c 1033     		adds	r3, r3, #16
 631 000e 1846     		mov	r0, r3
 632 0010 0299     		ldr	r1, [sp, #8]
 633 0012 FFF7FEFF 		bl	_ZN3r2p10ArrayQueueIPNS_7MessageEE12fetch_unsafeERS2_
 634 0016 0346     		mov	r3, r0
 635 0018 002B     		cmp	r3, #0
 636 001a 0AD0     		beq	.L41
 637              		.loc 8 74 0
 638 001c 05AB     		add	r3, sp, #20
 639 001e 1846     		mov	r0, r3
 640 0020 FFF7FEFF 		bl	_ZN3r2p4Time3nowEv
 641 0024 05AB     		add	r3, sp, #20
 642 0026 0198     		ldr	r0, [sp, #4]
 643 0028 1946     		mov	r1, r3
 644 002a FFF7FEFF 		bl	_ZN3r2p4TimeaSERKS0_
 645              		.loc 8 75 0
 646 002e 0123     		movs	r3, #1
 647 0030 00E0     		b	.L42
 648              	.L41:
 649              		.loc 8 77 0
 650 0032 0023     		movs	r3, #0
 651              	.L42:
 652              		.loc 8 78 0
 653 0034 1846     		mov	r0, r3
 654 0036 07B0     		add	sp, sp, #28
 655              		@ sp needed
 656 0038 5DF804FB 		ldr	pc, [sp], #4
 657              		.cfi_endproc
 658              	.LFE392:
 659              		.size	_ZN3r2p15LocalSubscriber12fetch_unsafeERPNS_7MessageERNS_4TimeE, .-_ZN3r2p15LocalSubscriber1
 660 003c AFF30080 		.section	.text._ZN3r2p15LocalSubscriber13notify_unsafeERNS_7MessageERKNS_4TimeE,"axG",%progbits,_Z
 661              		.align	2
 662              		.p2align 4,,15
ARM GAS  /tmp/ccrvMDS7.s 			page 13


 663              		.weak	_ZN3r2p15LocalSubscriber13notify_unsafeERNS_7MessageERKNS_4TimeE
 664              		.thumb
 665              		.thumb_func
 666              		.type	_ZN3r2p15LocalSubscriber13notify_unsafeERNS_7MessageERKNS_4TimeE, %function
 667              	_ZN3r2p15LocalSubscriber13notify_unsafeERNS_7MessageERKNS_4TimeE:
 668              	.LFB393:
 669              		.loc 8 82 0
 670              		.cfi_startproc
 671              		@ args = 0, pretend = 0, frame = 16
 672              		@ frame_needed = 0, uses_anonymous_args = 0
 673 0000 00B5     		push	{lr}
 674              		.cfi_def_cfa_offset 4
 675              		.cfi_offset 14, -4
 676 0002 85B0     		sub	sp, sp, #20
 677              		.cfi_def_cfa_offset 24
 678 0004 0390     		str	r0, [sp, #12]
 679 0006 0291     		str	r1, [sp, #8]
 680 0008 0192     		str	r2, [sp, #4]
 681              		.loc 8 86 0
 682 000a 039B     		ldr	r3, [sp, #12]
 683 000c 9B68     		ldr	r3, [r3, #8]
 684 000e 1846     		mov	r0, r3
 685 0010 FFF7FEFF 		bl	_ZNK3r2p4Node11get_enabledEv
 686 0014 0346     		mov	r3, r0
 687 0016 002B     		cmp	r3, #0
 688 0018 0AD0     		beq	.L44
 689              		.loc 8 86 0 is_stmt 0 discriminator 1
 690 001a 039B     		ldr	r3, [sp, #12]
 691 001c 1033     		adds	r3, r3, #16
 692 001e 1846     		mov	r0, r3
 693 0020 0299     		ldr	r1, [sp, #8]
 694 0022 FFF7FEFF 		bl	_ZN3r2p10ArrayQueueIPNS_7MessageEE11post_unsafeES2_
 695 0026 0346     		mov	r3, r0
 696 0028 002B     		cmp	r3, #0
 697 002a 01D0     		beq	.L44
 698              		.loc 8 86 0 discriminator 3
 699 002c 0123     		movs	r3, #1
 700 002e 00E0     		b	.L45
 701              	.L44:
 702              		.loc 8 86 0 discriminator 2
 703 0030 0023     		movs	r3, #0
 704              	.L45:
 705              		.loc 8 86 0 discriminator 4
 706 0032 002B     		cmp	r3, #0
 707 0034 0AD0     		beq	.L46
 708              		.loc 8 87 0 is_stmt 1
 709 0036 039B     		ldr	r3, [sp, #12]
 710 0038 9A68     		ldr	r2, [r3, #8]
 711 003a 039B     		ldr	r3, [sp, #12]
 712 003c 93F82430 		ldrb	r3, [r3, #36]	@ zero_extendqisi2
 713 0040 1046     		mov	r0, r2
 714 0042 1946     		mov	r1, r3
 715 0044 FFF7FEFF 		bl	_ZN3r2p4Node13notify_unsafeEj
 716              		.loc 8 88 0
 717 0048 0123     		movs	r3, #1
 718 004a 00E0     		b	.L47
 719              	.L46:
ARM GAS  /tmp/ccrvMDS7.s 			page 14


 720              		.loc 8 90 0
 721 004c 0023     		movs	r3, #0
 722              	.L47:
 723              		.loc 8 91 0
 724 004e 1846     		mov	r0, r3
 725 0050 05B0     		add	sp, sp, #20
 726              		@ sp needed
 727 0052 5DF804FB 		ldr	pc, [sp], #4
 728              		.cfi_endproc
 729              	.LFE393:
 730              		.size	_ZN3r2p15LocalSubscriber13notify_unsafeERNS_7MessageERKNS_4TimeE, .-_ZN3r2p15LocalSubscriber
 731 0056 00BFAFF3 		.section	.text._ZN3r2p6Mutex_D2Ev,"axG",%progbits,_ZN3r2p6Mutex_D5Ev,comdat
 731      0080AFF3 
 731      0080
 732              		.align	2
 733              		.p2align 4,,15
 734              		.weak	_ZN3r2p6Mutex_D2Ev
 735              		.thumb
 736              		.thumb_func
 737              		.type	_ZN3r2p6Mutex_D2Ev, %function
 738              	_ZN3r2p6Mutex_D2Ev:
 739              	.LFB459:
 740              		.file 9 "/home/dave/r2p-sdk/core/Middleware/port/chibios/include/r2p/impl/Mutex_.hpp"
 741              		.loc 9 9 0
 742              		.cfi_startproc
 743              		@ args = 0, pretend = 0, frame = 8
 744              		@ frame_needed = 0, uses_anonymous_args = 0
 745 0000 00B5     		push	{lr}
 746              		.cfi_def_cfa_offset 4
 747              		.cfi_offset 14, -4
 748 0002 83B0     		sub	sp, sp, #12
 749              		.cfi_def_cfa_offset 16
 750 0004 0190     		str	r0, [sp, #4]
 751              	.LBB11:
 752              		.loc 9 9 0
 753 0006 0198     		ldr	r0, [sp, #4]
 754 0008 FFF7FEFF 		bl	_ZN3r2p10UncopyableD2Ev
 755              	.LBE11:
 756 000c 019B     		ldr	r3, [sp, #4]
 757 000e 1846     		mov	r0, r3
 758 0010 03B0     		add	sp, sp, #12
 759              		@ sp needed
 760 0012 5DF804FB 		ldr	pc, [sp], #4
 761              		.cfi_endproc
 762              	.LFE459:
 763              		.size	_ZN3r2p6Mutex_D2Ev, .-_ZN3r2p6Mutex_D2Ev
 764              		.weak	_ZN3r2p6Mutex_D1Ev
 765              		.thumb_set _ZN3r2p6Mutex_D1Ev,_ZN3r2p6Mutex_D2Ev
 766 0016 00BFAFF3 		.section	.text._ZN3r2p5MutexD2Ev,"axG",%progbits,_ZN3r2p5MutexD5Ev,comdat
 766      0080AFF3 
 766      0080
 767              		.align	2
 768              		.p2align 4,,15
 769              		.weak	_ZN3r2p5MutexD2Ev
 770              		.thumb
 771              		.thumb_func
 772              		.type	_ZN3r2p5MutexD2Ev, %function
ARM GAS  /tmp/ccrvMDS7.s 			page 15


 773              	_ZN3r2p5MutexD2Ev:
 774              	.LFB473:
 775              		.file 10 "/home/dave/r2p-sdk/core/Middleware/include/r2p/Mutex.hpp"
 776              		.loc 10 9 0
 777              		.cfi_startproc
 778              		@ args = 0, pretend = 0, frame = 8
 779              		@ frame_needed = 0, uses_anonymous_args = 0
 780 0000 00B5     		push	{lr}
 781              		.cfi_def_cfa_offset 4
 782              		.cfi_offset 14, -4
 783 0002 83B0     		sub	sp, sp, #12
 784              		.cfi_def_cfa_offset 16
 785 0004 0190     		str	r0, [sp, #4]
 786              	.LBB12:
 787              		.loc 10 9 0
 788 0006 019B     		ldr	r3, [sp, #4]
 789 0008 0433     		adds	r3, r3, #4
 790 000a 1846     		mov	r0, r3
 791 000c FFF7FEFF 		bl	_ZN3r2p6Mutex_D1Ev
 792 0010 0198     		ldr	r0, [sp, #4]
 793 0012 FFF7FEFF 		bl	_ZN3r2p10UncopyableD2Ev
 794              	.LBE12:
 795 0016 019B     		ldr	r3, [sp, #4]
 796 0018 1846     		mov	r0, r3
 797 001a 03B0     		add	sp, sp, #12
 798              		@ sp needed
 799 001c 5DF804FB 		ldr	pc, [sp], #4
 800              		.cfi_endproc
 801              	.LFE473:
 802              		.size	_ZN3r2p5MutexD2Ev, .-_ZN3r2p5MutexD2Ev
 803              		.weak	_ZN3r2p5MutexD1Ev
 804              		.thumb_set _ZN3r2p5MutexD1Ev,_ZN3r2p5MutexD2Ev
 805              		.section	.bss._ZL7wa_info,"aw",%nobits
 806              		.align	3
 807              		.type	_ZL7wa_info, %object
 808              		.size	_ZL7wa_info, 1368
 809              	_ZL7wa_info:
 810 0000 00000000 		.space	1368
 810      00000000 
 810      00000000 
 810      00000000 
 810      00000000 
 811              		.section	.bss._ZL8rtcantra,"aw",%nobits
 812              		.align	2
 813              		.type	_ZL8rtcantra, %object
 814              		.size	_ZL8rtcantra, 572
 815              	_ZL8rtcantra:
 816 0000 00000000 		.space	572
 816      00000000 
 816      00000000 
 816      00000000 
 816      00000000 
 817              		.global	rtcan_config
 818              		.section	.data.rtcan_config,"aw",%progbits
 819              		.align	2
 820              		.type	rtcan_config, %object
 821              		.size	rtcan_config, 12
ARM GAS  /tmp/ccrvMDS7.s 			page 16


 822              	rtcan_config:
 823 0000 40420F00 		.word	1000000
 824 0004 64000000 		.word	100
 825 0008 3C000000 		.word	60
 826              		.global	_ZN3r2p10Middleware8instanceE
 827              		.section	.bss._ZN3r2p10Middleware8instanceE,"aw",%nobits
 828              		.align	2
 829              		.type	_ZN3r2p10Middleware8instanceE, %object
 830              		.size	_ZN3r2p10Middleware8instanceE, 608
 831              	_ZN3r2p10Middleware8instanceE:
 832 0000 00000000 		.space	608
 832      00000000 
 832      00000000 
 832      00000000 
 832      00000000 
 833              		.section	.text._Z22usb_lld_disconnect_busP9USBDriver,"ax",%progbits
 834              		.align	2
 835              		.p2align 4,,15
 836              		.global	_Z22usb_lld_disconnect_busP9USBDriver
 837              		.thumb
 838              		.thumb_func
 839              		.type	_Z22usb_lld_disconnect_busP9USBDriver, %function
 840              	_Z22usb_lld_disconnect_busP9USBDriver:
 841              	.LFB596:
 842              		.file 11 "main.cpp"
 843              		.loc 11 24 0
 844              		.cfi_startproc
 845              		@ args = 0, pretend = 0, frame = 8
 846              		@ frame_needed = 0, uses_anonymous_args = 0
 847 0000 00B5     		push	{lr}
 848              		.cfi_def_cfa_offset 4
 849              		.cfi_offset 14, -4
 850 0002 83B0     		sub	sp, sp, #12
 851              		.cfi_def_cfa_offset 16
 852 0004 0190     		str	r0, [sp, #4]
 853              		.loc 11 27 0
 854 0006 4FF09043 		mov	r3, #1207959552
 855 000a 4FF4C052 		mov	r2, #6144
 856 000e 5A83     		strh	r2, [r3, #26]	@ movhi
 857              		.loc 11 28 0
 858 0010 4FF09040 		mov	r0, #1207959552
 859 0014 4FF40061 		mov	r1, #2048
 860 0018 0122     		movs	r2, #1
 861 001a FFF7FEFF 		bl	_pal_lld_setgroupmode
 862              		.loc 11 29 0
 863 001e 4FF09040 		mov	r0, #1207959552
 864 0022 4FF48051 		mov	r1, #4096
 865 0026 0122     		movs	r2, #1
 866 0028 FFF7FEFF 		bl	_pal_lld_setgroupmode
 867              		.loc 11 30 0
 868 002c 03B0     		add	sp, sp, #12
 869              		@ sp needed
 870 002e 5DF804FB 		ldr	pc, [sp], #4
 871              		.cfi_endproc
 872              	.LFE596:
 873              		.size	_Z22usb_lld_disconnect_busP9USBDriver, .-_Z22usb_lld_disconnect_busP9USBDriver
 874 0032 00BFAFF3 		.section	.text._Z19usb_lld_connect_busP9USBDriver,"ax",%progbits
ARM GAS  /tmp/ccrvMDS7.s 			page 17


 874      0080AFF3 
 874      0080AFF3 
 874      0080
 875              		.align	2
 876              		.p2align 4,,15
 877              		.global	_Z19usb_lld_connect_busP9USBDriver
 878              		.thumb
 879              		.thumb_func
 880              		.type	_Z19usb_lld_connect_busP9USBDriver, %function
 881              	_Z19usb_lld_connect_busP9USBDriver:
 882              	.LFB597:
 883              		.loc 11 32 0
 884              		.cfi_startproc
 885              		@ args = 0, pretend = 0, frame = 8
 886              		@ frame_needed = 0, uses_anonymous_args = 0
 887 0000 00B5     		push	{lr}
 888              		.cfi_def_cfa_offset 4
 889              		.cfi_offset 14, -4
 890 0002 83B0     		sub	sp, sp, #12
 891              		.cfi_def_cfa_offset 16
 892 0004 0190     		str	r0, [sp, #4]
 893              		.loc 11 35 0
 894 0006 4FF09043 		mov	r3, #1207959552
 895 000a 4FF4C052 		mov	r2, #6144
 896 000e 5A83     		strh	r2, [r3, #26]	@ movhi
 897              		.loc 11 36 0
 898 0010 4FF09040 		mov	r0, #1207959552
 899 0014 4FF40061 		mov	r1, #2048
 900 0018 40F20272 		movw	r2, #1794
 901 001c FFF7FEFF 		bl	_pal_lld_setgroupmode
 902              		.loc 11 37 0
 903 0020 4FF09040 		mov	r0, #1207959552
 904 0024 4FF48051 		mov	r1, #4096
 905 0028 40F20272 		movw	r2, #1794
 906 002c FFF7FEFF 		bl	_pal_lld_setgroupmode
 907              		.loc 11 38 0
 908 0030 03B0     		add	sp, sp, #12
 909              		@ sp needed
 910 0032 5DF804FB 		ldr	pc, [sp], #4
 911              		.cfi_endproc
 912              	.LFE597:
 913              		.size	_Z19usb_lld_connect_busP9USBDriver, .-_Z19usb_lld_connect_busP9USBDriver
 914 0036 00BFAFF3 		.section	.rodata
 914      0080AFF3 
 914      0080
 915 000d 000000   		.align	2
 916              	.LC1:
 917 0010 6C656400 		.ascii	"led\000"
 918              		.section	.text.main,"ax",%progbits
 919              		.align	2
 920              		.p2align 4,,15
 921              		.global	main
 922              		.thumb
 923              		.thumb_func
 924              		.type	main, %function
 925              	main:
 926              	.LFB598:
ARM GAS  /tmp/ccrvMDS7.s 			page 18


 927              		.loc 11 44 0
 928              		.cfi_startproc
 929              		@ args = 0, pretend = 0, frame = 8
 930              		@ frame_needed = 0, uses_anonymous_args = 0
 931 0000 00B5     		push	{lr}
 932              		.cfi_def_cfa_offset 4
 933              		.cfi_offset 14, -4
 934 0002 87B0     		sub	sp, sp, #28
 935              		.cfi_def_cfa_offset 32
 936              	.LBB13:
 937              		.loc 11 46 0
 938 0004 FFF7FEFF 		bl	halInit
 939              		.loc 11 47 0
 940 0008 FFF7FEFF 		bl	chSysInit
 941              		.loc 11 52 0
 942 000c 4048     		ldr	r0, .L58
 943 000e FFF7FEFF 		bl	sduObjectInit
 944              		.loc 11 53 0
 945 0012 3F48     		ldr	r0, .L58
 946 0014 3F49     		ldr	r1, .L58+4
 947 0016 FFF7FEFF 		bl	sduStart
 948              		.loc 11 60 0
 949 001a 3E4B     		ldr	r3, .L58+4
 950 001c 1B68     		ldr	r3, [r3]
 951 001e 1846     		mov	r0, r3
 952 0020 FFF7FEFF 		bl	_Z22usb_lld_disconnect_busP9USBDriver
 953              		.loc 11 61 0
 954 0024 4FF4FA70 		mov	r0, #500
 955 0028 FFF7FEFF 		bl	chThdSleep
 956              		.loc 11 62 0
 957 002c 394B     		ldr	r3, .L58+4
 958 002e 1B68     		ldr	r3, [r3]
 959 0030 1846     		mov	r0, r3
 960 0032 3949     		ldr	r1, .L58+8
 961 0034 FFF7FEFF 		bl	usbStart
 962              		.loc 11 63 0
 963 0038 364B     		ldr	r3, .L58+4
 964 003a 1B68     		ldr	r3, [r3]
 965 003c 1846     		mov	r0, r3
 966 003e FFF7FEFF 		bl	_Z19usb_lld_connect_busP9USBDriver
 967              		.loc 11 65 0
 968 0042 0023     		movs	r3, #0
 969 0044 0093     		str	r3, [sp]
 970 0046 0023     		movs	r3, #0
 971 0048 0193     		str	r3, [sp, #4]
 972 004a 0223     		movs	r3, #2
 973 004c 0293     		str	r3, [sp, #8]
 974 004e 3348     		ldr	r0, .L58+12
 975 0050 3349     		ldr	r1, .L58+16
 976 0052 4FF4AB62 		mov	r2, #1368
 977 0056 0223     		movs	r3, #2
 978 0058 FFF7FEFF 		bl	_ZN3r2p10Middleware10initializeEPvjmS1_jm
 979              		.loc 11 66 0
 980 005c 3148     		ldr	r0, .L58+20
 981 005e 3249     		ldr	r1, .L58+24
 982 0060 FFF7FEFF 		bl	_ZN3r2p14RTCANTransport10initializeERK11RTCANConfig
 983              		.loc 11 67 0
ARM GAS  /tmp/ccrvMDS7.s 			page 19


 984 0064 2D48     		ldr	r0, .L58+12
 985 0066 FFF7FEFF 		bl	_ZN3r2p10Middleware5startEv
 986              		.loc 11 69 0
 987 006a 304B     		ldr	r3, .L58+28
 988 006c 0493     		str	r3, [sp, #16]
 989              		.loc 11 70 0
 990 006e B023     		movs	r3, #176
 991 0070 6833     		adds	r3, r3, #104
 992 0072 03F23F22 		addw	r2, r3, #575
 993 0076 0723     		movs	r3, #7
 994 0078 1343     		orrs	r3, r3, r2
 995 007a 0133     		adds	r3, r3, #1
 996 007c 04AA     		add	r2, sp, #16
 997 007e 0092     		str	r2, [sp]
 998 0080 0022     		movs	r2, #0
 999 0082 0192     		str	r2, [sp, #4]
 1000 0084 0020     		movs	r0, #0
 1001 0086 1946     		mov	r1, r3
 1002 0088 4022     		movs	r2, #64
 1003 008a 294B     		ldr	r3, .L58+32
 1004 008c FFF7FEFF 		bl	_ZN3r2p6Thread11create_heapEPvjmPFlS1_ES1_PKc
 1005              		.loc 11 72 0
 1006 0090 B023     		movs	r3, #176
 1007 0092 6833     		adds	r3, r3, #104
 1008 0094 03F23F42 		addw	r2, r3, #1087
 1009 0098 0723     		movs	r3, #7
 1010 009a 1343     		orrs	r3, r3, r2
 1011 009c 0133     		adds	r3, r3, #1
 1012 009e 0022     		movs	r2, #0
 1013 00a0 0092     		str	r2, [sp]
 1014 00a2 0022     		movs	r2, #0
 1015 00a4 0192     		str	r2, [sp, #4]
 1016 00a6 0020     		movs	r0, #0
 1017 00a8 1946     		mov	r1, r3
 1018 00aa 4022     		movs	r2, #64
 1019 00ac 214B     		ldr	r3, .L58+36
 1020 00ae FFF7FEFF 		bl	_ZN3r2p6Thread11create_heapEPvjmPFlS1_ES1_PKc
 1021              		.loc 11 74 0
 1022 00b2 B023     		movs	r3, #176
 1023 00b4 6833     		adds	r3, r3, #104
 1024 00b6 03F58153 		add	r3, r3, #4128
 1025 00ba 1F33     		adds	r3, r3, #31
 1026 00bc 0722     		movs	r2, #7
 1027 00be 1343     		orrs	r3, r3, r2
 1028 00c0 0133     		adds	r3, r3, #1
 1029 00c2 0022     		movs	r2, #0
 1030 00c4 0092     		str	r2, [sp]
 1031 00c6 0022     		movs	r2, #0
 1032 00c8 0192     		str	r2, [sp, #4]
 1033 00ca 0020     		movs	r0, #0
 1034 00cc 1946     		mov	r1, r3
 1035 00ce 4022     		movs	r2, #64
 1036 00d0 194B     		ldr	r3, .L58+40
 1037 00d2 FFF7FEFF 		bl	_ZN3r2p6Thread11create_heapEPvjmPFlS1_ES1_PKc
 1038              		.loc 11 75 0
 1039 00d6 B023     		movs	r3, #176
 1040 00d8 6833     		adds	r3, r3, #104
ARM GAS  /tmp/ccrvMDS7.s 			page 20


 1041 00da 03F63F02 		addw	r2, r3, #2111
 1042 00de 0723     		movs	r3, #7
 1043 00e0 1343     		orrs	r3, r3, r2
 1044 00e2 0133     		adds	r3, r3, #1
 1045 00e4 0022     		movs	r2, #0
 1046 00e6 0092     		str	r2, [sp]
 1047 00e8 0022     		movs	r2, #0
 1048 00ea 0192     		str	r2, [sp, #4]
 1049 00ec 0020     		movs	r0, #0
 1050 00ee 1946     		mov	r1, r3
 1051 00f0 4022     		movs	r2, #64
 1052 00f2 124B     		ldr	r3, .L58+44
 1053 00f4 FFF7FEFF 		bl	_ZN3r2p6Thread11create_heapEPvjmPFlS1_ES1_PKc
 1054              	.L57:
 1055              		.loc 11 78 0 discriminator 1
 1056 00f8 05AB     		add	r3, sp, #20
 1057 00fa 1846     		mov	r0, r3
 1058 00fc 4FF4FA71 		mov	r1, #500
 1059 0100 FFF7FEFF 		bl	_ZN3r2p4Time2msEl
 1060 0104 05AB     		add	r3, sp, #20
 1061 0106 1846     		mov	r0, r3
 1062 0108 FFF7FEFF 		bl	_ZN3r2p6Thread5sleepERKNS_4TimeE
 1063              		.loc 11 81 0 discriminator 1
 1064 010c F4E7     		b	.L57
 1065              	.L59:
 1066 010e 00BF     		.align	2
 1067              	.L58:
 1068 0110 00000000 		.word	SDU1
 1069 0114 00000000 		.word	serusbcfg
 1070 0118 00000000 		.word	usbcfg
 1071 011c 00000000 		.word	_ZN3r2p10Middleware8instanceE
 1072 0120 00000000 		.word	_ZL7wa_info
 1073 0124 00000000 		.word	_ZL8rtcantra
 1074 0128 00000000 		.word	rtcan_config
 1075 012c 10000000 		.word	.LC1
 1076 0130 00000000 		.word	_ZN3r2p11ledsub_nodeEPv
 1077 0134 00000000 		.word	_Z12r2p_sub_nodePv
 1078 0138 00000000 		.word	_Z20rosserial_pub_threadPv
 1079 013c 00000000 		.word	_Z20rosserial_sub_threadPv
 1080              	.LBE13:
 1081              		.cfi_endproc
 1082              	.LFE598:
 1083              		.size	main, .-main
 1084              		.section	.text._ZN3r2p4TimeC2IlEET_,"axG",%progbits,_ZN3r2p4TimeC5IlEET_,comdat
 1085              		.align	2
 1086              		.p2align 4,,15
 1087              		.weak	_ZN3r2p4TimeC2IlEET_
 1088              		.thumb
 1089              		.thumb_func
 1090              		.type	_ZN3r2p4TimeC2IlEET_, %function
 1091              	_ZN3r2p4TimeC2IlEET_:
 1092              	.LFB600:
 1093              		.loc 2 159 0
 1094              		.cfi_startproc
 1095              		@ args = 0, pretend = 0, frame = 8
 1096              		@ frame_needed = 0, uses_anonymous_args = 0
 1097              		@ link register save eliminated.
ARM GAS  /tmp/ccrvMDS7.s 			page 21


 1098 0000 82B0     		sub	sp, sp, #8
 1099              		.cfi_def_cfa_offset 8
 1100 0002 0190     		str	r0, [sp, #4]
 1101 0004 0091     		str	r1, [sp]
 1102              	.LBB14:
 1103              		.loc 2 161 0
 1104 0006 019B     		ldr	r3, [sp, #4]
 1105 0008 009A     		ldr	r2, [sp]
 1106 000a 1A60     		str	r2, [r3]
 1107              	.LBE14:
 1108              		.loc 2 162 0
 1109 000c 019B     		ldr	r3, [sp, #4]
 1110 000e 1846     		mov	r0, r3
 1111 0010 02B0     		add	sp, sp, #8
 1112              		@ sp needed
 1113 0012 7047     		bx	lr
 1114              		.cfi_endproc
 1115              	.LFE600:
 1116              		.size	_ZN3r2p4TimeC2IlEET_, .-_ZN3r2p4TimeC2IlEET_
 1117              		.weak	_ZN3r2p4TimeC1IlEET_
 1118              		.thumb_set _ZN3r2p4TimeC1IlEET_,_ZN3r2p4TimeC2IlEET_
 1119 0014 AFF30080 		.section	.text._ZNK3r2p10ArrayQueueIPNS_7MessageEE10get_lengthEv,"axG",%progbits,_ZNK3r2p10ArrayQu
 1119      AFF30080 
 1119      AFF30080 
 1120              		.align	2
 1121              		.p2align 4,,15
 1122              		.weak	_ZNK3r2p10ArrayQueueIPNS_7MessageEE10get_lengthEv
 1123              		.thumb
 1124              		.thumb_func
 1125              		.type	_ZNK3r2p10ArrayQueueIPNS_7MessageEE10get_lengthEv, %function
 1126              	_ZNK3r2p10ArrayQueueIPNS_7MessageEE10get_lengthEv:
 1127              	.LFB608:
 1128              		.file 12 "/home/dave/r2p-sdk/core/Middleware/include/r2p/ArrayQueue.hpp"
 1129              		.loc 12 81 0
 1130              		.cfi_startproc
 1131              		@ args = 0, pretend = 0, frame = 8
 1132              		@ frame_needed = 0, uses_anonymous_args = 0
 1133              		@ link register save eliminated.
 1134 0000 82B0     		sub	sp, sp, #8
 1135              		.cfi_def_cfa_offset 8
 1136 0002 0190     		str	r0, [sp, #4]
 1137              		.loc 12 83 0
 1138 0004 019B     		ldr	r3, [sp, #4]
 1139 0006 5B68     		ldr	r3, [r3, #4]
 1140              		.loc 12 84 0
 1141 0008 1846     		mov	r0, r3
 1142 000a 02B0     		add	sp, sp, #8
 1143              		@ sp needed
 1144 000c 7047     		bx	lr
 1145              		.cfi_endproc
 1146              	.LFE608:
 1147              		.size	_ZNK3r2p10ArrayQueueIPNS_7MessageEE10get_lengthEv, .-_ZNK3r2p10ArrayQueueIPNS_7MessageEE10ge
 1148 000e 00BF     		.section	.text._ZN3r2p10ArrayQueueIPNS_7MessageEE12fetch_unsafeERS2_,"axG",%progbits,_ZN3r2p10Arra
 1149              		.align	2
 1150              		.p2align 4,,15
 1151              		.weak	_ZN3r2p10ArrayQueueIPNS_7MessageEE12fetch_unsafeERS2_
 1152              		.thumb
ARM GAS  /tmp/ccrvMDS7.s 			page 22


 1153              		.thumb_func
 1154              		.type	_ZN3r2p10ArrayQueueIPNS_7MessageEE12fetch_unsafeERS2_, %function
 1155              	_ZN3r2p10ArrayQueueIPNS_7MessageEE12fetch_unsafeERS2_:
 1156              	.LFB609:
 1157              		.loc 12 52 0
 1158              		.cfi_startproc
 1159              		@ args = 0, pretend = 0, frame = 8
 1160              		@ frame_needed = 0, uses_anonymous_args = 0
 1161              		@ link register save eliminated.
 1162 0000 82B0     		sub	sp, sp, #8
 1163              		.cfi_def_cfa_offset 8
 1164 0002 0190     		str	r0, [sp, #4]
 1165 0004 0091     		str	r1, [sp]
 1166              		.loc 12 54 0
 1167 0006 019B     		ldr	r3, [sp, #4]
 1168 0008 9B68     		ldr	r3, [r3, #8]
 1169 000a 002B     		cmp	r3, #0
 1170 000c 23D0     		beq	.L66
 1171              		.loc 12 55 0
 1172 000e 019B     		ldr	r3, [sp, #4]
 1173 0010 9B68     		ldr	r3, [r3, #8]
 1174 0012 5A1E     		subs	r2, r3, #1
 1175 0014 019B     		ldr	r3, [sp, #4]
 1176 0016 9A60     		str	r2, [r3, #8]
 1177              		.loc 12 56 0
 1178 0018 019B     		ldr	r3, [sp, #4]
 1179 001a DB68     		ldr	r3, [r3, #12]
 1180 001c 1A68     		ldr	r2, [r3]
 1181 001e 009B     		ldr	r3, [sp]
 1182 0020 1A60     		str	r2, [r3]
 1183              		.loc 12 57 0
 1184 0022 019B     		ldr	r3, [sp, #4]
 1185 0024 DB68     		ldr	r3, [r3, #12]
 1186 0026 1A1D     		adds	r2, r3, #4
 1187 0028 019B     		ldr	r3, [sp, #4]
 1188 002a DA60     		str	r2, [r3, #12]
 1189 002c 019B     		ldr	r3, [sp, #4]
 1190 002e DA68     		ldr	r2, [r3, #12]
 1191 0030 019B     		ldr	r3, [sp, #4]
 1192 0032 1968     		ldr	r1, [r3]
 1193 0034 019B     		ldr	r3, [sp, #4]
 1194 0036 5B68     		ldr	r3, [r3, #4]
 1195 0038 9B00     		lsls	r3, r3, #2
 1196 003a 0B44     		add	r3, r3, r1
 1197 003c 9A42     		cmp	r2, r3
 1198 003e 34BF     		ite	cc
 1199 0040 0023     		movcc	r3, #0
 1200 0042 0123     		movcs	r3, #1
 1201 0044 DBB2     		uxtb	r3, r3
 1202 0046 002B     		cmp	r3, #0
 1203 0048 03D0     		beq	.L67
 1204              		.loc 12 58 0
 1205 004a 019B     		ldr	r3, [sp, #4]
 1206 004c 1A68     		ldr	r2, [r3]
 1207 004e 019B     		ldr	r3, [sp, #4]
 1208 0050 DA60     		str	r2, [r3, #12]
 1209              	.L67:
ARM GAS  /tmp/ccrvMDS7.s 			page 23


 1210              		.loc 12 60 0
 1211 0052 0123     		movs	r3, #1
 1212 0054 00E0     		b	.L68
 1213              	.L66:
 1214              		.loc 12 62 0
 1215 0056 0023     		movs	r3, #0
 1216              	.L68:
 1217              		.loc 12 63 0
 1218 0058 1846     		mov	r0, r3
 1219 005a 02B0     		add	sp, sp, #8
 1220              		@ sp needed
 1221 005c 7047     		bx	lr
 1222              		.cfi_endproc
 1223              	.LFE609:
 1224              		.size	_ZN3r2p10ArrayQueueIPNS_7MessageEE12fetch_unsafeERS2_, .-_ZN3r2p10ArrayQueueIPNS_7MessageEE1
 1225              		.section	.text._ZN3r2p10ArrayQueueIPNS_7MessageEE11post_unsafeES2_,"axG",%progbits,_ZN3r2p10ArrayQ
 1226              		.align	2
 1227              		.p2align 4,,15
 1228              		.weak	_ZN3r2p10ArrayQueueIPNS_7MessageEE11post_unsafeES2_
 1229              		.thumb
 1230              		.thumb_func
 1231              		.type	_ZN3r2p10ArrayQueueIPNS_7MessageEE11post_unsafeES2_, %function
 1232              	_ZN3r2p10ArrayQueueIPNS_7MessageEE11post_unsafeES2_:
 1233              	.LFB610:
 1234              		.loc 12 37 0
 1235              		.cfi_startproc
 1236              		@ args = 0, pretend = 0, frame = 8
 1237              		@ frame_needed = 0, uses_anonymous_args = 0
 1238              		@ link register save eliminated.
 1239 0000 82B0     		sub	sp, sp, #8
 1240              		.cfi_def_cfa_offset 8
 1241 0002 0190     		str	r0, [sp, #4]
 1242 0004 0091     		str	r1, [sp]
 1243              		.loc 12 39 0
 1244 0006 019B     		ldr	r3, [sp, #4]
 1245 0008 9A68     		ldr	r2, [r3, #8]
 1246 000a 019B     		ldr	r3, [sp, #4]
 1247 000c 5B68     		ldr	r3, [r3, #4]
 1248 000e 9A42     		cmp	r2, r3
 1249 0010 22D2     		bcs	.L70
 1250              		.loc 12 40 0
 1251 0012 019B     		ldr	r3, [sp, #4]
 1252 0014 9B68     		ldr	r3, [r3, #8]
 1253 0016 5A1C     		adds	r2, r3, #1
 1254 0018 019B     		ldr	r3, [sp, #4]
 1255 001a 9A60     		str	r2, [r3, #8]
 1256              		.loc 12 41 0
 1257 001c 019B     		ldr	r3, [sp, #4]
 1258 001e 1B69     		ldr	r3, [r3, #16]
 1259 0020 009A     		ldr	r2, [sp]
 1260 0022 1A60     		str	r2, [r3]
 1261              		.loc 12 42 0
 1262 0024 019B     		ldr	r3, [sp, #4]
 1263 0026 1B69     		ldr	r3, [r3, #16]
 1264 0028 1A1D     		adds	r2, r3, #4
 1265 002a 019B     		ldr	r3, [sp, #4]
 1266 002c 1A61     		str	r2, [r3, #16]
ARM GAS  /tmp/ccrvMDS7.s 			page 24


 1267 002e 019B     		ldr	r3, [sp, #4]
 1268 0030 1A69     		ldr	r2, [r3, #16]
 1269 0032 019B     		ldr	r3, [sp, #4]
 1270 0034 1968     		ldr	r1, [r3]
 1271 0036 019B     		ldr	r3, [sp, #4]
 1272 0038 5B68     		ldr	r3, [r3, #4]
 1273 003a 9B00     		lsls	r3, r3, #2
 1274 003c 0B44     		add	r3, r3, r1
 1275 003e 9A42     		cmp	r2, r3
 1276 0040 34BF     		ite	cc
 1277 0042 0023     		movcc	r3, #0
 1278 0044 0123     		movcs	r3, #1
 1279 0046 DBB2     		uxtb	r3, r3
 1280 0048 002B     		cmp	r3, #0
 1281 004a 03D0     		beq	.L71
 1282              		.loc 12 43 0
 1283 004c 019B     		ldr	r3, [sp, #4]
 1284 004e 1A68     		ldr	r2, [r3]
 1285 0050 019B     		ldr	r3, [sp, #4]
 1286 0052 1A61     		str	r2, [r3, #16]
 1287              	.L71:
 1288              		.loc 12 45 0
 1289 0054 0123     		movs	r3, #1
 1290 0056 00E0     		b	.L72
 1291              	.L70:
 1292              		.loc 12 47 0
 1293 0058 0023     		movs	r3, #0
 1294              	.L72:
 1295              		.loc 12 48 0
 1296 005a 1846     		mov	r0, r3
 1297 005c 02B0     		add	sp, sp, #8
 1298              		@ sp needed
 1299 005e 7047     		bx	lr
 1300              		.cfi_endproc
 1301              	.LFE610:
 1302              		.size	_ZN3r2p10ArrayQueueIPNS_7MessageEE11post_unsafeES2_, .-_ZN3r2p10ArrayQueueIPNS_7MessageEE11p
 1303              		.weak	_ZTVN3r2p16SubscriberExtBufINS_7MgmtMsgEEE
 1304              		.section	.rodata._ZTVN3r2p16SubscriberExtBufINS_7MgmtMsgEEE,"aG",%progbits,_ZTVN3r2p16SubscriberEx
 1305              		.align	3
 1306              		.type	_ZTVN3r2p16SubscriberExtBufINS_7MgmtMsgEEE, %object
 1307              		.size	_ZTVN3r2p16SubscriberExtBufINS_7MgmtMsgEEE, 36
 1308              	_ZTVN3r2p16SubscriberExtBufINS_7MgmtMsgEEE:
 1309 0000 00000000 		.word	0
 1310 0004 00000000 		.word	0
 1311 0008 00000000 		.word	_ZNK3r2p15LocalSubscriber16get_queue_lengthEv
 1312 000c 00000000 		.word	_ZN3r2p15LocalSubscriber13notify_unsafeERNS_7MessageERKNS_4TimeE
 1313 0010 00000000 		.word	_ZN3r2p15LocalSubscriber12fetch_unsafeERPNS_7MessageERNS_4TimeE
 1314 0014 00000000 		.word	_ZN3r2p15LocalSubscriber6notifyERNS_7MessageERKNS_4TimeE
 1315 0018 00000000 		.word	_ZN3r2p15LocalSubscriber5fetchERPNS_7MessageERNS_4TimeE
 1316 001c 00000000 		.word	_ZN3r2p16SubscriberExtBufINS_7MgmtMsgEED1Ev
 1317 0020 00000000 		.word	_ZN3r2p16SubscriberExtBufINS_7MgmtMsgEED0Ev
 1318              		.weak	_ZTVN3r2p9PublisherINS_7MgmtMsgEEE
 1319 0024 00000000 		.section	.rodata._ZTVN3r2p9PublisherINS_7MgmtMsgEEE,"aG",%progbits,_ZTVN3r2p9PublisherINS_7MgmtMsg
 1320              		.align	3
 1321              		.type	_ZTVN3r2p9PublisherINS_7MgmtMsgEEE, %object
 1322              		.size	_ZTVN3r2p9PublisherINS_7MgmtMsgEEE, 16
 1323              	_ZTVN3r2p9PublisherINS_7MgmtMsgEEE:
ARM GAS  /tmp/ccrvMDS7.s 			page 25


 1324 0000 00000000 		.word	0
 1325 0004 00000000 		.word	0
 1326 0008 00000000 		.word	_ZN3r2p9PublisherINS_7MgmtMsgEED1Ev
 1327 000c 00000000 		.word	_ZN3r2p9PublisherINS_7MgmtMsgEED0Ev
 1328              		.section	.text._ZN3r2p10StaticListINS_4NodeEED2Ev,"axG",%progbits,_ZN3r2p10StaticListINS_4NodeEED5
 1329              		.align	2
 1330              		.p2align 4,,15
 1331              		.weak	_ZN3r2p10StaticListINS_4NodeEED2Ev
 1332              		.thumb
 1333              		.thumb_func
 1334              		.type	_ZN3r2p10StaticListINS_4NodeEED2Ev, %function
 1335              	_ZN3r2p10StaticListINS_4NodeEED2Ev:
 1336              	.LFB623:
 1337              		.file 13 "/home/dave/r2p-sdk/core/Middleware/include/r2p/StaticList.hpp"
 1338              		.loc 13 15 0
 1339              		.cfi_startproc
 1340              		@ args = 0, pretend = 0, frame = 8
 1341              		@ frame_needed = 0, uses_anonymous_args = 0
 1342 0000 00B5     		push	{lr}
 1343              		.cfi_def_cfa_offset 4
 1344              		.cfi_offset 14, -4
 1345 0002 83B0     		sub	sp, sp, #12
 1346              		.cfi_def_cfa_offset 16
 1347 0004 0190     		str	r0, [sp, #4]
 1348              	.LBB15:
 1349              		.loc 13 15 0
 1350 0006 0198     		ldr	r0, [sp, #4]
 1351 0008 FFF7FEFF 		bl	_ZN3r2p10UncopyableD2Ev
 1352              	.LBE15:
 1353 000c 019B     		ldr	r3, [sp, #4]
 1354 000e 1846     		mov	r0, r3
 1355 0010 03B0     		add	sp, sp, #12
 1356              		@ sp needed
 1357 0012 5DF804FB 		ldr	pc, [sp], #4
 1358              		.cfi_endproc
 1359              	.LFE623:
 1360              		.size	_ZN3r2p10StaticListINS_4NodeEED2Ev, .-_ZN3r2p10StaticListINS_4NodeEED2Ev
 1361              		.weak	_ZN3r2p10StaticListINS_4NodeEED1Ev
 1362              		.thumb_set _ZN3r2p10StaticListINS_4NodeEED1Ev,_ZN3r2p10StaticListINS_4NodeEED2Ev
 1363 0016 00BFAFF3 		.section	.text._ZN3r2p10StaticListINS_5TopicEED2Ev,"axG",%progbits,_ZN3r2p10StaticListINS_5TopicEE
 1363      0080AFF3 
 1363      0080
 1364              		.align	2
 1365              		.p2align 4,,15
 1366              		.weak	_ZN3r2p10StaticListINS_5TopicEED2Ev
 1367              		.thumb
 1368              		.thumb_func
 1369              		.type	_ZN3r2p10StaticListINS_5TopicEED2Ev, %function
 1370              	_ZN3r2p10StaticListINS_5TopicEED2Ev:
 1371              	.LFB626:
 1372              		.loc 13 15 0
 1373              		.cfi_startproc
 1374              		@ args = 0, pretend = 0, frame = 8
 1375              		@ frame_needed = 0, uses_anonymous_args = 0
 1376 0000 00B5     		push	{lr}
 1377              		.cfi_def_cfa_offset 4
 1378              		.cfi_offset 14, -4
ARM GAS  /tmp/ccrvMDS7.s 			page 26


 1379 0002 83B0     		sub	sp, sp, #12
 1380              		.cfi_def_cfa_offset 16
 1381 0004 0190     		str	r0, [sp, #4]
 1382              	.LBB16:
 1383              		.loc 13 15 0
 1384 0006 0198     		ldr	r0, [sp, #4]
 1385 0008 FFF7FEFF 		bl	_ZN3r2p10UncopyableD2Ev
 1386              	.LBE16:
 1387 000c 019B     		ldr	r3, [sp, #4]
 1388 000e 1846     		mov	r0, r3
 1389 0010 03B0     		add	sp, sp, #12
 1390              		@ sp needed
 1391 0012 5DF804FB 		ldr	pc, [sp], #4
 1392              		.cfi_endproc
 1393              	.LFE626:
 1394              		.size	_ZN3r2p10StaticListINS_5TopicEED2Ev, .-_ZN3r2p10StaticListINS_5TopicEED2Ev
 1395              		.weak	_ZN3r2p10StaticListINS_5TopicEED1Ev
 1396              		.thumb_set _ZN3r2p10StaticListINS_5TopicEED1Ev,_ZN3r2p10StaticListINS_5TopicEED2Ev
 1397 0016 00BFAFF3 		.section	.text._ZN3r2p10StaticListINS_9TransportEED2Ev,"axG",%progbits,_ZN3r2p10StaticListINS_9Tra
 1397      0080AFF3 
 1397      0080
 1398              		.align	2
 1399              		.p2align 4,,15
 1400              		.weak	_ZN3r2p10StaticListINS_9TransportEED2Ev
 1401              		.thumb
 1402              		.thumb_func
 1403              		.type	_ZN3r2p10StaticListINS_9TransportEED2Ev, %function
 1404              	_ZN3r2p10StaticListINS_9TransportEED2Ev:
 1405              	.LFB629:
 1406              		.loc 13 15 0
 1407              		.cfi_startproc
 1408              		@ args = 0, pretend = 0, frame = 8
 1409              		@ frame_needed = 0, uses_anonymous_args = 0
 1410 0000 00B5     		push	{lr}
 1411              		.cfi_def_cfa_offset 4
 1412              		.cfi_offset 14, -4
 1413 0002 83B0     		sub	sp, sp, #12
 1414              		.cfi_def_cfa_offset 16
 1415 0004 0190     		str	r0, [sp, #4]
 1416              	.LBB17:
 1417              		.loc 13 15 0
 1418 0006 0198     		ldr	r0, [sp, #4]
 1419 0008 FFF7FEFF 		bl	_ZN3r2p10UncopyableD2Ev
 1420              	.LBE17:
 1421 000c 019B     		ldr	r3, [sp, #4]
 1422 000e 1846     		mov	r0, r3
 1423 0010 03B0     		add	sp, sp, #12
 1424              		@ sp needed
 1425 0012 5DF804FB 		ldr	pc, [sp], #4
 1426              		.cfi_endproc
 1427              	.LFE629:
 1428              		.size	_ZN3r2p10StaticListINS_9TransportEED2Ev, .-_ZN3r2p10StaticListINS_9TransportEED2Ev
 1429              		.weak	_ZN3r2p10StaticListINS_9TransportEED1Ev
 1430              		.thumb_set _ZN3r2p10StaticListINS_9TransportEED1Ev,_ZN3r2p10StaticListINS_9TransportEED2Ev
 1431 0016 00BFAFF3 		.section	.text._ZN3r2p7ReMutexD2Ev,"axG",%progbits,_ZN3r2p7ReMutexD5Ev,comdat
 1431      0080AFF3 
 1431      0080
ARM GAS  /tmp/ccrvMDS7.s 			page 27


 1432              		.align	2
 1433              		.p2align 4,,15
 1434              		.weak	_ZN3r2p7ReMutexD2Ev
 1435              		.thumb
 1436              		.thumb_func
 1437              		.type	_ZN3r2p7ReMutexD2Ev, %function
 1438              	_ZN3r2p7ReMutexD2Ev:
 1439              	.LFB632:
 1440              		.file 14 "/home/dave/r2p-sdk/core/Middleware/include/r2p/ReMutex.hpp"
 1441              		.loc 14 9 0
 1442              		.cfi_startproc
 1443              		@ args = 0, pretend = 0, frame = 8
 1444              		@ frame_needed = 0, uses_anonymous_args = 0
 1445 0000 00B5     		push	{lr}
 1446              		.cfi_def_cfa_offset 4
 1447              		.cfi_offset 14, -4
 1448 0002 83B0     		sub	sp, sp, #12
 1449              		.cfi_def_cfa_offset 16
 1450 0004 0190     		str	r0, [sp, #4]
 1451              	.LBB18:
 1452              		.loc 14 9 0
 1453 0006 019B     		ldr	r3, [sp, #4]
 1454 0008 0433     		adds	r3, r3, #4
 1455 000a 1846     		mov	r0, r3
 1456 000c FFF7FEFF 		bl	_ZN3r2p5MutexD1Ev
 1457 0010 0198     		ldr	r0, [sp, #4]
 1458 0012 FFF7FEFF 		bl	_ZN3r2p10UncopyableD2Ev
 1459              	.LBE18:
 1460 0016 019B     		ldr	r3, [sp, #4]
 1461 0018 1846     		mov	r0, r3
 1462 001a 03B0     		add	sp, sp, #12
 1463              		@ sp needed
 1464 001c 5DF804FB 		ldr	pc, [sp], #4
 1465              		.cfi_endproc
 1466              	.LFE632:
 1467              		.size	_ZN3r2p7ReMutexD2Ev, .-_ZN3r2p7ReMutexD2Ev
 1468              		.weak	_ZN3r2p7ReMutexD1Ev
 1469              		.thumb_set _ZN3r2p7ReMutexD1Ev,_ZN3r2p7ReMutexD2Ev
 1470              		.section	.text._ZN3r2p11MemoryPool_D2Ev,"axG",%progbits,_ZN3r2p11MemoryPool_D5Ev,comdat
 1471              		.align	2
 1472              		.p2align 4,,15
 1473              		.weak	_ZN3r2p11MemoryPool_D2Ev
 1474              		.thumb
 1475              		.thumb_func
 1476              		.type	_ZN3r2p11MemoryPool_D2Ev, %function
 1477              	_ZN3r2p11MemoryPool_D2Ev:
 1478              	.LFB636:
 1479              		.file 15 "/home/dave/r2p-sdk/core/Middleware/port/chibios/include/r2p/impl/MemoryPool_.hpp"
 1480              		.loc 15 9 0
 1481              		.cfi_startproc
 1482              		@ args = 0, pretend = 0, frame = 8
 1483              		@ frame_needed = 0, uses_anonymous_args = 0
 1484 0000 00B5     		push	{lr}
 1485              		.cfi_def_cfa_offset 4
 1486              		.cfi_offset 14, -4
 1487 0002 83B0     		sub	sp, sp, #12
 1488              		.cfi_def_cfa_offset 16
ARM GAS  /tmp/ccrvMDS7.s 			page 28


 1489 0004 0190     		str	r0, [sp, #4]
 1490              	.LBB19:
 1491              		.loc 15 9 0
 1492 0006 0198     		ldr	r0, [sp, #4]
 1493 0008 FFF7FEFF 		bl	_ZN3r2p10UncopyableD2Ev
 1494              	.LBE19:
 1495 000c 019B     		ldr	r3, [sp, #4]
 1496 000e 1846     		mov	r0, r3
 1497 0010 03B0     		add	sp, sp, #12
 1498              		@ sp needed
 1499 0012 5DF804FB 		ldr	pc, [sp], #4
 1500              		.cfi_endproc
 1501              	.LFE636:
 1502              		.size	_ZN3r2p11MemoryPool_D2Ev, .-_ZN3r2p11MemoryPool_D2Ev
 1503              		.weak	_ZN3r2p11MemoryPool_D1Ev
 1504              		.thumb_set _ZN3r2p11MemoryPool_D1Ev,_ZN3r2p11MemoryPool_D2Ev
 1505 0016 00BFAFF3 		.section	.text._ZN3r2p10StaticListINS_15LocalSubscriberEED2Ev,"axG",%progbits,_ZN3r2p10StaticListI
 1505      0080AFF3 
 1505      0080
 1506              		.align	2
 1507              		.p2align 4,,15
 1508              		.weak	_ZN3r2p10StaticListINS_15LocalSubscriberEED2Ev
 1509              		.thumb
 1510              		.thumb_func
 1511              		.type	_ZN3r2p10StaticListINS_15LocalSubscriberEED2Ev, %function
 1512              	_ZN3r2p10StaticListINS_15LocalSubscriberEED2Ev:
 1513              	.LFB639:
 1514              		.loc 13 15 0
 1515              		.cfi_startproc
 1516              		@ args = 0, pretend = 0, frame = 8
 1517              		@ frame_needed = 0, uses_anonymous_args = 0
 1518 0000 00B5     		push	{lr}
 1519              		.cfi_def_cfa_offset 4
 1520              		.cfi_offset 14, -4
 1521 0002 83B0     		sub	sp, sp, #12
 1522              		.cfi_def_cfa_offset 16
 1523 0004 0190     		str	r0, [sp, #4]
 1524              	.LBB20:
 1525              		.loc 13 15 0
 1526 0006 0198     		ldr	r0, [sp, #4]
 1527 0008 FFF7FEFF 		bl	_ZN3r2p10UncopyableD2Ev
 1528              	.LBE20:
 1529 000c 019B     		ldr	r3, [sp, #4]
 1530 000e 1846     		mov	r0, r3
 1531 0010 03B0     		add	sp, sp, #12
 1532              		@ sp needed
 1533 0012 5DF804FB 		ldr	pc, [sp], #4
 1534              		.cfi_endproc
 1535              	.LFE639:
 1536              		.size	_ZN3r2p10StaticListINS_15LocalSubscriberEED2Ev, .-_ZN3r2p10StaticListINS_15LocalSubscriberEE
 1537              		.weak	_ZN3r2p10StaticListINS_15LocalSubscriberEED1Ev
 1538              		.thumb_set _ZN3r2p10StaticListINS_15LocalSubscriberEED1Ev,_ZN3r2p10StaticListINS_15LocalSubscriber
 1539 0016 00BFAFF3 		.section	.text._ZN3r2p10StaticListINS_16RemoteSubscriberEED2Ev,"axG",%progbits,_ZN3r2p10StaticList
 1539      0080AFF3 
 1539      0080
 1540              		.align	2
 1541              		.p2align 4,,15
ARM GAS  /tmp/ccrvMDS7.s 			page 29


 1542              		.weak	_ZN3r2p10StaticListINS_16RemoteSubscriberEED2Ev
 1543              		.thumb
 1544              		.thumb_func
 1545              		.type	_ZN3r2p10StaticListINS_16RemoteSubscriberEED2Ev, %function
 1546              	_ZN3r2p10StaticListINS_16RemoteSubscriberEED2Ev:
 1547              	.LFB642:
 1548              		.loc 13 15 0
 1549              		.cfi_startproc
 1550              		@ args = 0, pretend = 0, frame = 8
 1551              		@ frame_needed = 0, uses_anonymous_args = 0
 1552 0000 00B5     		push	{lr}
 1553              		.cfi_def_cfa_offset 4
 1554              		.cfi_offset 14, -4
 1555 0002 83B0     		sub	sp, sp, #12
 1556              		.cfi_def_cfa_offset 16
 1557 0004 0190     		str	r0, [sp, #4]
 1558              	.LBB21:
 1559              		.loc 13 15 0
 1560 0006 0198     		ldr	r0, [sp, #4]
 1561 0008 FFF7FEFF 		bl	_ZN3r2p10UncopyableD2Ev
 1562              	.LBE21:
 1563 000c 019B     		ldr	r3, [sp, #4]
 1564 000e 1846     		mov	r0, r3
 1565 0010 03B0     		add	sp, sp, #12
 1566              		@ sp needed
 1567 0012 5DF804FB 		ldr	pc, [sp], #4
 1568              		.cfi_endproc
 1569              	.LFE642:
 1570              		.size	_ZN3r2p10StaticListINS_16RemoteSubscriberEED2Ev, .-_ZN3r2p10StaticListINS_16RemoteSubscriber
 1571              		.weak	_ZN3r2p10StaticListINS_16RemoteSubscriberEED1Ev
 1572              		.thumb_set _ZN3r2p10StaticListINS_16RemoteSubscriberEED1Ev,_ZN3r2p10StaticListINS_16RemoteSubscrib
 1573 0016 00BFAFF3 		.section	.text._ZN3r2p5TopicD2Ev,"axG",%progbits,_ZN3r2p5TopicD5Ev,comdat
 1573      0080AFF3 
 1573      0080
 1574              		.align	2
 1575              		.p2align 4,,15
 1576              		.weak	_ZN3r2p5TopicD2Ev
 1577              		.thumb
 1578              		.thumb_func
 1579              		.type	_ZN3r2p5TopicD2Ev, %function
 1580              	_ZN3r2p5TopicD2Ev:
 1581              	.LFB644:
 1582              		.file 16 "/home/dave/r2p-sdk/core/Middleware/include/r2p/Topic.hpp"
 1583              		.loc 16 23 0
 1584              		.cfi_startproc
 1585              		@ args = 0, pretend = 0, frame = 8
 1586              		@ frame_needed = 0, uses_anonymous_args = 0
 1587 0000 00B5     		push	{lr}
 1588              		.cfi_def_cfa_offset 4
 1589              		.cfi_offset 14, -4
 1590 0002 83B0     		sub	sp, sp, #12
 1591              		.cfi_def_cfa_offset 16
 1592 0004 0190     		str	r0, [sp, #4]
 1593              	.LBB22:
 1594              		.loc 16 23 0
 1595 0006 019B     		ldr	r3, [sp, #4]
 1596 0008 2033     		adds	r3, r3, #32
ARM GAS  /tmp/ccrvMDS7.s 			page 30


 1597 000a 1846     		mov	r0, r3
 1598 000c FFF7FEFF 		bl	_ZN3r2p10StaticListINS_16RemoteSubscriberEED1Ev
 1599 0010 019B     		ldr	r3, [sp, #4]
 1600 0012 1C33     		adds	r3, r3, #28
 1601 0014 1846     		mov	r0, r3
 1602 0016 FFF7FEFF 		bl	_ZN3r2p10StaticListINS_15LocalSubscriberEED1Ev
 1603 001a 019B     		ldr	r3, [sp, #4]
 1604 001c 0833     		adds	r3, r3, #8
 1605 001e 1846     		mov	r0, r3
 1606 0020 FFF7FEFF 		bl	_ZN3r2p11MemoryPool_D1Ev
 1607 0024 0198     		ldr	r0, [sp, #4]
 1608 0026 FFF7FEFF 		bl	_ZN3r2p10UncopyableD2Ev
 1609              	.LBE22:
 1610 002a 019B     		ldr	r3, [sp, #4]
 1611 002c 1846     		mov	r0, r3
 1612 002e 03B0     		add	sp, sp, #12
 1613              		@ sp needed
 1614 0030 5DF804FB 		ldr	pc, [sp], #4
 1615              		.cfi_endproc
 1616              	.LFE644:
 1617              		.size	_ZN3r2p5TopicD2Ev, .-_ZN3r2p5TopicD2Ev
 1618              		.weak	_ZN3r2p5TopicD1Ev
 1619              		.thumb_set _ZN3r2p5TopicD1Ev,_ZN3r2p5TopicD2Ev
 1620 0034 AFF30080 		.section	.text._ZN3r2p10MiddlewareD2Ev,"axG",%progbits,_ZN3r2p10MiddlewareD5Ev,comdat
 1620      AFF30080 
 1620      AFF30080 
 1621              		.align	2
 1622              		.p2align 4,,15
 1623              		.weak	_ZN3r2p10MiddlewareD2Ev
 1624              		.thumb
 1625              		.thumb_func
 1626              		.type	_ZN3r2p10MiddlewareD2Ev, %function
 1627              	_ZN3r2p10MiddlewareD2Ev:
 1628              	.LFB646:
 1629              		.file 17 "/home/dave/r2p-sdk/core/Middleware/include/r2p/Middleware.hpp"
 1630              		.loc 17 34 0
 1631              		.cfi_startproc
 1632              		@ args = 0, pretend = 0, frame = 8
 1633              		@ frame_needed = 0, uses_anonymous_args = 0
 1634 0000 00B5     		push	{lr}
 1635              		.cfi_def_cfa_offset 4
 1636              		.cfi_offset 14, -4
 1637 0002 83B0     		sub	sp, sp, #12
 1638              		.cfi_def_cfa_offset 16
 1639 0004 0190     		str	r0, [sp, #4]
 1640              	.LBB23:
 1641              		.loc 17 34 0
 1642 0006 019B     		ldr	r3, [sp, #4]
 1643 0008 9433     		adds	r3, r3, #148
 1644 000a 1846     		mov	r0, r3
 1645 000c FFF7FEFF 		bl	_ZN3r2p16SubscriberExtBufINS_7MgmtMsgEED1Ev
 1646 0010 019B     		ldr	r3, [sp, #4]
 1647 0012 8433     		adds	r3, r3, #132
 1648 0014 1846     		mov	r0, r3
 1649 0016 FFF7FEFF 		bl	_ZN3r2p9PublisherINS_7MgmtMsgEED1Ev
 1650 001a 019B     		ldr	r3, [sp, #4]
 1651 001c 6833     		adds	r3, r3, #104
ARM GAS  /tmp/ccrvMDS7.s 			page 31


 1652 001e 1846     		mov	r0, r3
 1653 0020 FFF7FEFF 		bl	_ZN3r2p4NodeD1Ev
 1654 0024 019B     		ldr	r3, [sp, #4]
 1655 0026 2833     		adds	r3, r3, #40
 1656 0028 1846     		mov	r0, r3
 1657 002a FFF7FEFF 		bl	_ZN3r2p5TopicD1Ev
 1658 002e 019B     		ldr	r3, [sp, #4]
 1659 0030 1033     		adds	r3, r3, #16
 1660 0032 1846     		mov	r0, r3
 1661 0034 FFF7FEFF 		bl	_ZN3r2p7ReMutexD1Ev
 1662 0038 019B     		ldr	r3, [sp, #4]
 1663 003a 0C33     		adds	r3, r3, #12
 1664 003c 1846     		mov	r0, r3
 1665 003e FFF7FEFF 		bl	_ZN3r2p10StaticListINS_9TransportEED1Ev
 1666 0042 019B     		ldr	r3, [sp, #4]
 1667 0044 0833     		adds	r3, r3, #8
 1668 0046 1846     		mov	r0, r3
 1669 0048 FFF7FEFF 		bl	_ZN3r2p10StaticListINS_5TopicEED1Ev
 1670 004c 019B     		ldr	r3, [sp, #4]
 1671 004e 0433     		adds	r3, r3, #4
 1672 0050 1846     		mov	r0, r3
 1673 0052 FFF7FEFF 		bl	_ZN3r2p10StaticListINS_4NodeEED1Ev
 1674 0056 0198     		ldr	r0, [sp, #4]
 1675 0058 FFF7FEFF 		bl	_ZN3r2p10UncopyableD2Ev
 1676              	.LBE23:
 1677 005c 019B     		ldr	r3, [sp, #4]
 1678 005e 1846     		mov	r0, r3
 1679 0060 03B0     		add	sp, sp, #12
 1680              		@ sp needed
 1681 0062 5DF804FB 		ldr	pc, [sp], #4
 1682              		.cfi_endproc
 1683              	.LFE646:
 1684              		.size	_ZN3r2p10MiddlewareD2Ev, .-_ZN3r2p10MiddlewareD2Ev
 1685              		.weak	_ZN3r2p10MiddlewareD1Ev
 1686              		.thumb_set _ZN3r2p10MiddlewareD1Ev,_ZN3r2p10MiddlewareD2Ev
 1687 0066 00BFAFF3 		.section	.rodata
 1687      0080AFF3 
 1687      0080
 1688              		.align	2
 1689              	.LC2:
 1690 0014 75736200 		.ascii	"usb\000"
 1691              		.align	2
 1692              	.LC3:
 1693 0018 424F4F54 		.ascii	"BOOT_usb\000"
 1693      5F757362 
 1693      00
 1694 0021 000000   		.section	.text._Z41__static_initialization_and_destruction_0ii,"ax",%progbits
 1695              		.align	2
 1696              		.p2align 4,,15
 1697              		.thumb
 1698              		.thumb_func
 1699              		.type	_Z41__static_initialization_and_destruction_0ii, %function
 1700              	_Z41__static_initialization_and_destruction_0ii:
 1701              	.LFB620:
 1702              		.loc 11 83 0
 1703              		.cfi_startproc
 1704              		@ args = 0, pretend = 0, frame = 8
ARM GAS  /tmp/ccrvMDS7.s 			page 32


 1705              		@ frame_needed = 0, uses_anonymous_args = 0
 1706 0000 00B5     		push	{lr}
 1707              		.cfi_def_cfa_offset 4
 1708              		.cfi_offset 14, -4
 1709 0002 85B0     		sub	sp, sp, #20
 1710              		.cfi_def_cfa_offset 24
 1711 0004 0390     		str	r0, [sp, #12]
 1712 0006 0291     		str	r1, [sp, #8]
 1713              		.loc 11 83 0
 1714 0008 039B     		ldr	r3, [sp, #12]
 1715 000a 012B     		cmp	r3, #1
 1716 000c 1AD1     		bne	.L100
 1717              		.loc 11 83 0 is_stmt 0 discriminator 1
 1718 000e 029A     		ldr	r2, [sp, #8]
 1719 0010 4FF6FF73 		movw	r3, #65535
 1720 0014 9A42     		cmp	r2, r3
 1721 0016 15D1     		bne	.L100
 1722              		.loc 11 14 0 is_stmt 1
 1723 0018 0C48     		ldr	r0, .L102
 1724 001a 0D49     		ldr	r1, .L102+4
 1725 001c FFF7FEFF 		bl	_ZN3r2p14RTCANTransportC1ER11RTCANDriver
 1726 0020 0A48     		ldr	r0, .L102
 1727 0022 0C49     		ldr	r1, .L102+8
 1728 0024 0C4A     		ldr	r2, .L102+12
 1729 0026 FFF7FEFF 		bl	__aeabi_atexit
 1730              		.loc 11 18 0
 1731 002a 0023     		movs	r3, #0
 1732 002c 0093     		str	r3, [sp]
 1733 002e 0B48     		ldr	r0, .L102+16
 1734 0030 0B49     		ldr	r1, .L102+20
 1735 0032 0C4A     		ldr	r2, .L102+24
 1736 0034 0023     		movs	r3, #0
 1737 0036 FFF7FEFF 		bl	_ZN3r2p10MiddlewareC1EPKcS2_PNS0_10PubSubStepEj
 1738 003a 0848     		ldr	r0, .L102+16
 1739 003c 0A49     		ldr	r1, .L102+28
 1740 003e 064A     		ldr	r2, .L102+12
 1741 0040 FFF7FEFF 		bl	__aeabi_atexit
 1742              	.L100:
 1743              		.loc 11 83 0
 1744 0044 05B0     		add	sp, sp, #20
 1745              		@ sp needed
 1746 0046 5DF804FB 		ldr	pc, [sp], #4
 1747              	.L103:
 1748 004a 00BF     		.align	2
 1749              	.L102:
 1750 004c 00000000 		.word	_ZL8rtcantra
 1751 0050 00000000 		.word	RTCAND1
 1752 0054 00000000 		.word	_ZN3r2p14RTCANTransportD1Ev
 1753 0058 00000000 		.word	__dso_handle
 1754 005c 00000000 		.word	_ZN3r2p10Middleware8instanceE
 1755 0060 14000000 		.word	.LC2
 1756 0064 18000000 		.word	.LC3
 1757 0068 00000000 		.word	_ZN3r2p10MiddlewareD1Ev
 1758              		.cfi_endproc
 1759              	.LFE620:
 1760              		.size	_Z41__static_initialization_and_destruction_0ii, .-_Z41__static_initialization_and_destructi
 1761 006c AFF30080 		.section	.text._ZN3r2p9PublisherINS_7MgmtMsgEED2Ev,"axG",%progbits,_ZN3r2p9PublisherINS_7MgmtMsgEE
ARM GAS  /tmp/ccrvMDS7.s 			page 33


 1762              		.align	2
 1763              		.p2align 4,,15
 1764              		.weak	_ZN3r2p9PublisherINS_7MgmtMsgEED2Ev
 1765              		.thumb
 1766              		.thumb_func
 1767              		.type	_ZN3r2p9PublisherINS_7MgmtMsgEED2Ev, %function
 1768              	_ZN3r2p9PublisherINS_7MgmtMsgEED2Ev:
 1769              	.LFB649:
 1770              		.file 18 "/home/dave/r2p-sdk/core/Middleware/include/r2p/Publisher.hpp"
 1771              		.loc 18 54 0
 1772              		.cfi_startproc
 1773              		@ args = 0, pretend = 0, frame = 8
 1774              		@ frame_needed = 0, uses_anonymous_args = 0
 1775 0000 00B5     		push	{lr}
 1776              		.cfi_def_cfa_offset 4
 1777              		.cfi_offset 14, -4
 1778 0002 83B0     		sub	sp, sp, #12
 1779              		.cfi_def_cfa_offset 16
 1780 0004 0190     		str	r0, [sp, #4]
 1781              	.LBB24:
 1782              		.loc 18 57 0
 1783 0006 019B     		ldr	r3, [sp, #4]
 1784 0008 084A     		ldr	r2, .L108
 1785 000a 1A60     		str	r2, [r3]
 1786 000c 019B     		ldr	r3, [sp, #4]
 1787 000e 1846     		mov	r0, r3
 1788 0010 FFF7FEFF 		bl	_ZN3r2p14LocalPublisherD2Ev
 1789              	.LBE24:
 1790 0014 0023     		movs	r3, #0
 1791 0016 002B     		cmp	r3, #0
 1792 0018 02D0     		beq	.L106
 1793              		.loc 18 57 0 is_stmt 0 discriminator 1
 1794 001a 0198     		ldr	r0, [sp, #4]
 1795 001c FFF7FEFF 		bl	_ZdlPv
 1796              	.L106:
 1797              		.loc 18 57 0 discriminator 2
 1798 0020 019B     		ldr	r3, [sp, #4]
 1799 0022 1846     		mov	r0, r3
 1800 0024 03B0     		add	sp, sp, #12
 1801              		@ sp needed
 1802 0026 5DF804FB 		ldr	pc, [sp], #4
 1803              	.L109:
 1804 002a 00BF     		.align	2
 1805              	.L108:
 1806 002c 08000000 		.word	_ZTVN3r2p9PublisherINS_7MgmtMsgEEE+8
 1807              		.cfi_endproc
 1808              	.LFE649:
 1809              		.size	_ZN3r2p9PublisherINS_7MgmtMsgEED2Ev, .-_ZN3r2p9PublisherINS_7MgmtMsgEED2Ev
 1810              		.weak	_ZN3r2p9PublisherINS_7MgmtMsgEED1Ev
 1811              		.thumb_set _ZN3r2p9PublisherINS_7MgmtMsgEED1Ev,_ZN3r2p9PublisherINS_7MgmtMsgEED2Ev
 1812              		.section	.text._ZN3r2p9PublisherINS_7MgmtMsgEED0Ev,"axG",%progbits,_ZN3r2p9PublisherINS_7MgmtMsgEE
 1813              		.align	2
 1814              		.p2align 4,,15
 1815              		.weak	_ZN3r2p9PublisherINS_7MgmtMsgEED0Ev
 1816              		.thumb
 1817              		.thumb_func
 1818              		.type	_ZN3r2p9PublisherINS_7MgmtMsgEED0Ev, %function
ARM GAS  /tmp/ccrvMDS7.s 			page 34


 1819              	_ZN3r2p9PublisherINS_7MgmtMsgEED0Ev:
 1820              	.LFB651:
 1821              		.loc 18 54 0 is_stmt 1
 1822              		.cfi_startproc
 1823              		@ args = 0, pretend = 0, frame = 8
 1824              		@ frame_needed = 0, uses_anonymous_args = 0
 1825 0000 00B5     		push	{lr}
 1826              		.cfi_def_cfa_offset 4
 1827              		.cfi_offset 14, -4
 1828 0002 83B0     		sub	sp, sp, #12
 1829              		.cfi_def_cfa_offset 16
 1830 0004 0190     		str	r0, [sp, #4]
 1831              		.loc 18 57 0
 1832 0006 0198     		ldr	r0, [sp, #4]
 1833 0008 FFF7FEFF 		bl	_ZN3r2p9PublisherINS_7MgmtMsgEED1Ev
 1834 000c 0198     		ldr	r0, [sp, #4]
 1835 000e FFF7FEFF 		bl	_ZdlPv
 1836 0012 019B     		ldr	r3, [sp, #4]
 1837 0014 1846     		mov	r0, r3
 1838 0016 03B0     		add	sp, sp, #12
 1839              		@ sp needed
 1840 0018 5DF804FB 		ldr	pc, [sp], #4
 1841              		.cfi_endproc
 1842              	.LFE651:
 1843              		.size	_ZN3r2p9PublisherINS_7MgmtMsgEED0Ev, .-_ZN3r2p9PublisherINS_7MgmtMsgEED0Ev
 1844 001c AFF30080 		.section	.text._ZN3r2p16SubscriberExtBufINS_7MgmtMsgEED2Ev,"axG",%progbits,_ZN3r2p16SubscriberExtB
 1845              		.align	2
 1846              		.p2align 4,,15
 1847              		.weak	_ZN3r2p16SubscriberExtBufINS_7MgmtMsgEED2Ev
 1848              		.thumb
 1849              		.thumb_func
 1850              		.type	_ZN3r2p16SubscriberExtBufINS_7MgmtMsgEED2Ev, %function
 1851              	_ZN3r2p16SubscriberExtBufINS_7MgmtMsgEED2Ev:
 1852              	.LFB653:
 1853              		.file 19 "/home/dave/r2p-sdk/core/Middleware/include/r2p/SubscriberExtBuf.hpp"
 1854              		.loc 19 76 0
 1855              		.cfi_startproc
 1856              		@ args = 0, pretend = 0, frame = 8
 1857              		@ frame_needed = 0, uses_anonymous_args = 0
 1858 0000 00B5     		push	{lr}
 1859              		.cfi_def_cfa_offset 4
 1860              		.cfi_offset 14, -4
 1861 0002 83B0     		sub	sp, sp, #12
 1862              		.cfi_def_cfa_offset 16
 1863 0004 0190     		str	r0, [sp, #4]
 1864              	.LBB25:
 1865              		.loc 19 79 0
 1866 0006 019B     		ldr	r3, [sp, #4]
 1867 0008 084A     		ldr	r2, .L117
 1868 000a 1A60     		str	r2, [r3]
 1869 000c 019B     		ldr	r3, [sp, #4]
 1870 000e 1846     		mov	r0, r3
 1871 0010 FFF7FEFF 		bl	_ZN3r2p15LocalSubscriberD2Ev
 1872              	.LBE25:
 1873 0014 0023     		movs	r3, #0
 1874 0016 002B     		cmp	r3, #0
 1875 0018 02D0     		beq	.L115
ARM GAS  /tmp/ccrvMDS7.s 			page 35


 1876              		.loc 19 79 0 is_stmt 0 discriminator 1
 1877 001a 0198     		ldr	r0, [sp, #4]
 1878 001c FFF7FEFF 		bl	_ZdlPv
 1879              	.L115:
 1880              		.loc 19 79 0 discriminator 2
 1881 0020 019B     		ldr	r3, [sp, #4]
 1882 0022 1846     		mov	r0, r3
 1883 0024 03B0     		add	sp, sp, #12
 1884              		@ sp needed
 1885 0026 5DF804FB 		ldr	pc, [sp], #4
 1886              	.L118:
 1887 002a 00BF     		.align	2
 1888              	.L117:
 1889 002c 08000000 		.word	_ZTVN3r2p16SubscriberExtBufINS_7MgmtMsgEEE+8
 1890              		.cfi_endproc
 1891              	.LFE653:
 1892              		.size	_ZN3r2p16SubscriberExtBufINS_7MgmtMsgEED2Ev, .-_ZN3r2p16SubscriberExtBufINS_7MgmtMsgEED2Ev
 1893              		.weak	_ZN3r2p16SubscriberExtBufINS_7MgmtMsgEED1Ev
 1894              		.thumb_set _ZN3r2p16SubscriberExtBufINS_7MgmtMsgEED1Ev,_ZN3r2p16SubscriberExtBufINS_7MgmtMsgEED2Ev
 1895              		.section	.text._ZN3r2p16SubscriberExtBufINS_7MgmtMsgEED0Ev,"axG",%progbits,_ZN3r2p16SubscriberExtB
 1896              		.align	2
 1897              		.p2align 4,,15
 1898              		.weak	_ZN3r2p16SubscriberExtBufINS_7MgmtMsgEED0Ev
 1899              		.thumb
 1900              		.thumb_func
 1901              		.type	_ZN3r2p16SubscriberExtBufINS_7MgmtMsgEED0Ev, %function
 1902              	_ZN3r2p16SubscriberExtBufINS_7MgmtMsgEED0Ev:
 1903              	.LFB655:
 1904              		.loc 19 76 0 is_stmt 1
 1905              		.cfi_startproc
 1906              		@ args = 0, pretend = 0, frame = 8
 1907              		@ frame_needed = 0, uses_anonymous_args = 0
 1908 0000 00B5     		push	{lr}
 1909              		.cfi_def_cfa_offset 4
 1910              		.cfi_offset 14, -4
 1911 0002 83B0     		sub	sp, sp, #12
 1912              		.cfi_def_cfa_offset 16
 1913 0004 0190     		str	r0, [sp, #4]
 1914              		.loc 19 79 0
 1915 0006 0198     		ldr	r0, [sp, #4]
 1916 0008 FFF7FEFF 		bl	_ZN3r2p16SubscriberExtBufINS_7MgmtMsgEED1Ev
 1917 000c 0198     		ldr	r0, [sp, #4]
 1918 000e FFF7FEFF 		bl	_ZdlPv
 1919 0012 019B     		ldr	r3, [sp, #4]
 1920 0014 1846     		mov	r0, r3
 1921 0016 03B0     		add	sp, sp, #12
 1922              		@ sp needed
 1923 0018 5DF804FB 		ldr	pc, [sp], #4
 1924              		.cfi_endproc
 1925              	.LFE655:
 1926              		.size	_ZN3r2p16SubscriberExtBufINS_7MgmtMsgEED0Ev, .-_ZN3r2p16SubscriberExtBufINS_7MgmtMsgEED0Ev
 1927 001c AFF30080 		.section	.text._GLOBAL__sub_I_rtcan_config,"ax",%progbits
 1928              		.align	2
 1929              		.p2align 4,,15
 1930              		.thumb
 1931              		.thumb_func
 1932              		.type	_GLOBAL__sub_I_rtcan_config, %function
ARM GAS  /tmp/ccrvMDS7.s 			page 36


 1933              	_GLOBAL__sub_I_rtcan_config:
 1934              	.LFB657:
 1935              		.loc 11 83 0
 1936              		.cfi_startproc
 1937              		@ args = 0, pretend = 0, frame = 0
 1938              		@ frame_needed = 0, uses_anonymous_args = 0
 1939 0000 08B5     		push	{r3, lr}
 1940              		.cfi_def_cfa_offset 8
 1941              		.cfi_offset 3, -8
 1942              		.cfi_offset 14, -4
 1943              		.loc 11 83 0
 1944 0002 0120     		movs	r0, #1
 1945 0004 4FF6FF71 		movw	r1, #65535
 1946 0008 FFF7FEFF 		bl	_Z41__static_initialization_and_destruction_0ii
 1947 000c 08BD     		pop	{r3, pc}
 1948              		.cfi_endproc
 1949              	.LFE657:
 1950              		.size	_GLOBAL__sub_I_rtcan_config, .-_GLOBAL__sub_I_rtcan_config
 1951 000e 00BF     		.section	.init_array,"aw",%init_array
 1952              		.align	2
 1953 0000 00000000 		.word	_GLOBAL__sub_I_rtcan_config(target1)
 1954              		.text
 1955              	.Letext0:
 1956              		.file 20 "/usr/include/newlib/machine/_default_types.h"
 1957              		.file 21 "/usr/include/newlib/stdint.h"
 1958              		.file 22 "/usr/lib/gcc/arm-none-eabi/4.8/include/stddef.h"
 1959              		.file 23 "/home/dave/r2p-sdk/core/ChibiOS/os/ports/GCC/ARMCMx/chtypes.h"
 1960              		.file 24 "/home/dave/r2p-sdk/core/ChibiOS/os/kernel/include/chlists.h"
 1961              		.file 25 "/home/dave/r2p-sdk/core/ChibiOS/os/kernel/include/chthreads.h"
 1962              		.file 26 "/home/dave/r2p-sdk/core/ChibiOS/os/ports/GCC/ARMCMx/chcore_v7m.h"
 1963              		.file 27 "/home/dave/r2p-sdk/core/ChibiOS/os/kernel/include/chschd.h"
 1964              		.file 28 "/home/dave/r2p-sdk/core/ChibiOS/os/kernel/include/chmtx.h"
 1965              		.file 29 "/home/dave/r2p-sdk/core/ChibiOS/os/kernel/include/chevents.h"
 1966              		.file 30 "/home/dave/r2p-sdk/core/ChibiOS/os/kernel/include/chmemcore.h"
 1967              		.file 31 "/home/dave/r2p-sdk/core/ChibiOS/os/kernel/include/chheap.h"
 1968              		.file 32 "/home/dave/r2p-sdk/core/ChibiOS/os/kernel/include/chmempools.h"
 1969              		.file 33 "/home/dave/r2p-sdk/core/ChibiOS/os/kernel/include/chqueues.h"
 1970              		.file 34 "/home/dave/r2p-sdk/core/ChibiOS/os/hal/platforms/STM32F30x/stm32f30x.h"
 1971              		.file 35 "/home/dave/r2p-sdk/core/ChibiOS/os/hal/platforms/STM32/GPIOv2/pal_lld.h"
 1972              		.file 36 "/home/dave/r2p-sdk/core/ChibiOS/os/hal/include/usb.h"
 1973              		.file 37 "/home/dave/r2p-sdk/core/ChibiOS/os/hal/platforms/STM32/USBv1/usb_lld.h"
 1974              		.file 38 "/home/dave/r2p-sdk/core/ChibiOS/os/hal/include/serial_usb.h"
 1975              		.file 39 "/usr/include/newlib/c++/4.8/cstring"
 1976              		.file 40 "/usr/include/newlib/string.h"
 1977              		.file 41 "<built-in>"
 1978              		.file 42 "/home/dave/r2p-sdk/core/Middleware/include/r2p/NamingTraits.hpp"
 1979              		.file 43 "/home/dave/r2p-sdk/core/Middleware/include/r2p/Message.hpp"
 1980              		.file 44 "/home/dave/r2p-sdk/core/Middleware/include/r2p/LocalPublisher.hpp"
 1981              		.file 45 "/home/dave/r2p-sdk/core/Middleware/include/r2p/MgmtMsg.hpp"
 1982              		.file 46 "/home/dave/r2p-sdk/core/Middleware/include/r2p/BootMsg.hpp"
 1983              		.file 47 "/home/dave/r2p-sdk/core/Middleware/include/r2p/BaseSubscriber.hpp"
 1984              		.file 48 "/home/dave/r2p-sdk/core/Middleware/include/r2p/transport/DebugTransport.hpp"
 1985              		.file 49 "/home/dave/r2p-sdk/core/Middleware/include/r2p/transport/RTCANTransport.hpp"
 1986              		.file 50 "/home/dave/r2p-sdk/core/Middleware/include/r2p/node/led.hpp"
 1987              		.file 51 "/home/dave/r2p-sdk/core/Middleware/include/r2p/BasePublisher.hpp"
 1988              		.file 52 "/home/dave/r2p-sdk/core/RTCAN/include/rtcan.h"
 1989              		.file 53 "/home/dave/r2p-sdk/core/RTCAN/include/msgqueue.h"
ARM GAS  /tmp/ccrvMDS7.s 			page 37


 1990              		.file 54 "/home/dave/r2p-sdk/core/RTCAN/include/hrt.h"
 1991              		.file 55 "/home/dave/r2p-sdk/core/Middleware/include/r2p/common.hpp"
 1992              		.file 56 "/home/dave/r2p-sdk/core/ChibiOS/os/ports/common/ARMCMx/CMSIS/include/core_cm4.h"
 1993              		.file 57 "/home/dave/r2p-sdk/modules/USB_module/usbcfg.h"
 1994              		.file 58 "/home/dave/r2p-sdk/core/RTCAN/platforms/STM32/rtcan_lld_can.h"