ARM GAS  /tmp/ccZxe8ar.s 			page 1


   1              		.syntax unified
   2              		.cpu cortex-m4
   3              		.eabi_attribute 27, 3
   4              		.eabi_attribute 28, 1
   5              		.fpu fpv4-sp-d16
   6              		.eabi_attribute 20, 1
   7              		.eabi_attribute 21, 1
   8              		.eabi_attribute 23, 3
   9              		.eabi_attribute 24, 1
  10              		.eabi_attribute 25, 1
  11              		.eabi_attribute 26, 1
  12              		.eabi_attribute 30, 6
  13              		.eabi_attribute 34, 1
  14              		.eabi_attribute 18, 4
  15              		.thumb
  16              		.file	"mmcsd.c"
  17              		.text
  18              	.Ltext0:
  19              		.cfi_sections	.debug_frame
  20              		.section	.rodata
  21              		.align	2
  22              	.LC0:
  23 0000 226D6D63 		.ascii	"\"mmcsd_get_slice\"()\000"
  23      73645F67 
  23      65745F73 
  23      6C696365 
  23      22282900 
  24              		.section	.text.mmcsd_get_slice,"ax",%progbits
  25              		.align	2
  26              		.p2align 4,,15
  27              		.thumb
  28              		.thumb_func
  29              		.type	mmcsd_get_slice, %function
  30              	mmcsd_get_slice:
  31              	.LFB118:
  32              		.file 1 "/home/dave/r2p-sdk/core/ChibiOS/os/hal/src/mmcsd.c"
  33              		.loc 1 69 0
  34              		.cfi_startproc
  35              		@ args = 0, pretend = 0, frame = 32
  36              		@ frame_needed = 0, uses_anonymous_args = 0
  37 0000 00B5     		push	{lr}
  38              		.cfi_def_cfa_offset 4
  39              		.cfi_offset 14, -4
  40 0002 89B0     		sub	sp, sp, #36
  41              		.cfi_def_cfa_offset 40
  42 0004 0390     		str	r0, [sp, #12]
  43 0006 0291     		str	r1, [sp, #8]
  44 0008 0192     		str	r2, [sp, #4]
  45              		.loc 1 73 0
  46 000a 029A     		ldr	r2, [sp, #8]
  47 000c 019B     		ldr	r3, [sp, #4]
  48 000e 9A42     		cmp	r2, r3
  49 0010 04D3     		bcc	.L2
  50              		.loc 1 73 0 is_stmt 0 discriminator 2
  51 0012 029A     		ldr	r2, [sp, #8]
  52 0014 019B     		ldr	r3, [sp, #4]
  53 0016 D31A     		subs	r3, r2, r3
ARM GAS  /tmp/ccZxe8ar.s 			page 2


  54 0018 1F2B     		cmp	r3, #31
  55 001a 02D9     		bls	.L3
  56              	.L2:
  57              		.loc 1 73 0 discriminator 1
  58 001c 1E48     		ldr	r0, .L6
  59 001e FFF7FEFF 		bl	chDbgPanic
  60              	.L3:
  61              		.loc 1 75 0 is_stmt 1
  62 0022 019B     		ldr	r3, [sp, #4]
  63 0024 5B09     		lsrs	r3, r3, #5
  64 0026 0793     		str	r3, [sp, #28]
  65              		.loc 1 76 0
  66 0028 019B     		ldr	r3, [sp, #4]
  67 002a 03F01F03 		and	r3, r3, #31
  68 002e 0693     		str	r3, [sp, #24]
  69              		.loc 1 77 0
  70 0030 029B     		ldr	r3, [sp, #8]
  71 0032 5B09     		lsrs	r3, r3, #5
  72 0034 0593     		str	r3, [sp, #20]
  73              		.loc 1 78 0
  74 0036 029B     		ldr	r3, [sp, #8]
  75 0038 03F01F03 		and	r3, r3, #31
  76 003c 0133     		adds	r3, r3, #1
  77 003e 0122     		movs	r2, #1
  78 0040 02FA03F3 		lsl	r3, r2, r3
  79 0044 013B     		subs	r3, r3, #1
  80 0046 0493     		str	r3, [sp, #16]
  81              		.loc 1 81 0
  82 0048 079A     		ldr	r2, [sp, #28]
  83 004a 059B     		ldr	r3, [sp, #20]
  84 004c 9A42     		cmp	r2, r3
  85 004e 14D2     		bcs	.L4
  86              		.loc 1 82 0
  87 0050 079B     		ldr	r3, [sp, #28]
  88 0052 9B00     		lsls	r3, r3, #2
  89 0054 039A     		ldr	r2, [sp, #12]
  90 0056 1344     		add	r3, r3, r2
  91 0058 1A68     		ldr	r2, [r3]
  92 005a 069B     		ldr	r3, [sp, #24]
  93 005c DA40     		lsrs	r2, r2, r3
  94              		.loc 1 83 0
  95 005e 059B     		ldr	r3, [sp, #20]
  96 0060 9B00     		lsls	r3, r3, #2
  97 0062 0399     		ldr	r1, [sp, #12]
  98 0064 0B44     		add	r3, r3, r1
  99 0066 1968     		ldr	r1, [r3]
 100 0068 049B     		ldr	r3, [sp, #16]
 101 006a 1940     		ands	r1, r1, r3
 102 006c 069B     		ldr	r3, [sp, #24]
 103 006e C3F12003 		rsb	r3, r3, #32
 104 0072 01FA03F3 		lsl	r3, r1, r3
 105              		.loc 1 82 0
 106 0076 1343     		orrs	r3, r3, r2
 107 0078 09E0     		b	.L5
 108              	.L4:
 109              		.loc 1 84 0
 110 007a 079B     		ldr	r3, [sp, #28]
ARM GAS  /tmp/ccZxe8ar.s 			page 3


 111 007c 9B00     		lsls	r3, r3, #2
 112 007e 039A     		ldr	r2, [sp, #12]
 113 0080 1344     		add	r3, r3, r2
 114 0082 1A68     		ldr	r2, [r3]
 115 0084 049B     		ldr	r3, [sp, #16]
 116 0086 1A40     		ands	r2, r2, r3
 117 0088 069B     		ldr	r3, [sp, #24]
 118 008a 22FA03F3 		lsr	r3, r2, r3
 119              	.L5:
 120              		.loc 1 85 0
 121 008e 1846     		mov	r0, r3
 122 0090 09B0     		add	sp, sp, #36
 123              		@ sp needed
 124 0092 5DF804FB 		ldr	pc, [sp], #4
 125              	.L7:
 126 0096 00BF     		.align	2
 127              	.L6:
 128 0098 00000000 		.word	.LC0
 129              		.cfi_endproc
 130              	.LFE118:
 131              		.size	mmcsd_get_slice, .-mmcsd_get_slice
 132 009c AFF30080 		.section	.text.mmcsdGetCapacity,"ax",%progbits
 133              		.align	2
 134              		.p2align 4,,15
 135              		.global	mmcsdGetCapacity
 136              		.thumb
 137              		.thumb_func
 138              		.type	mmcsdGetCapacity, %function
 139              	mmcsdGetCapacity:
 140              	.LFB119:
 141              		.loc 1 100 0
 142              		.cfi_startproc
 143              		@ args = 0, pretend = 0, frame = 24
 144              		@ frame_needed = 0, uses_anonymous_args = 0
 145 0000 00B5     		push	{lr}
 146              		.cfi_def_cfa_offset 4
 147              		.cfi_offset 14, -4
 148 0002 87B0     		sub	sp, sp, #28
 149              		.cfi_def_cfa_offset 32
 150 0004 0190     		str	r0, [sp, #4]
 151              		.loc 1 102 0
 152 0006 019B     		ldr	r3, [sp, #4]
 153 0008 0C33     		adds	r3, r3, #12
 154 000a 1B68     		ldr	r3, [r3]
 155 000c 9B0F     		lsrs	r3, r3, #30
 156 000e 002B     		cmp	r3, #0
 157 0010 02D0     		beq	.L10
 158 0012 012B     		cmp	r3, #1
 159 0014 1CD0     		beq	.L11
 160 0016 24E0     		b	.L13
 161              	.L10:
 162              	.LBB2:
 163              		.loc 1 106 0
 164 0018 0198     		ldr	r0, [sp, #4]
 165 001a 4921     		movs	r1, #73
 166 001c 3E22     		movs	r2, #62
 167 001e FFF7FEFF 		bl	mmcsd_get_slice
ARM GAS  /tmp/ccZxe8ar.s 			page 4


 168 0022 0590     		str	r0, [sp, #20]
 169              		.loc 1 107 0
 170 0024 0198     		ldr	r0, [sp, #4]
 171 0026 3121     		movs	r1, #49
 172 0028 2F22     		movs	r2, #47
 173 002a FFF7FEFF 		bl	mmcsd_get_slice
 174 002e 0490     		str	r0, [sp, #16]
 175              		.loc 1 108 0
 176 0030 0198     		ldr	r0, [sp, #4]
 177 0032 5321     		movs	r1, #83
 178 0034 5022     		movs	r2, #80
 179 0036 FFF7FEFF 		bl	mmcsd_get_slice
 180 003a 0390     		str	r0, [sp, #12]
 181              		.loc 1 109 0
 182 003c 059B     		ldr	r3, [sp, #20]
 183 003e 5A1C     		adds	r2, r3, #1
 184 0040 049B     		ldr	r3, [sp, #16]
 185 0042 0233     		adds	r3, r3, #2
 186 0044 9A40     		lsls	r2, r2, r3
 187 0046 039B     		ldr	r3, [sp, #12]
 188 0048 093B     		subs	r3, r3, #9
 189 004a 02FA03F3 		lsl	r3, r2, r3
 190 004e 09E0     		b	.L12
 191              	.L11:
 192              		.loc 1 112 0
 193 0050 0198     		ldr	r0, [sp, #4]
 194 0052 4521     		movs	r1, #69
 195 0054 3022     		movs	r2, #48
 196 0056 FFF7FEFF 		bl	mmcsd_get_slice
 197 005a 0346     		mov	r3, r0
 198 005c 0133     		adds	r3, r3, #1
 199 005e 9B02     		lsls	r3, r3, #10
 200 0060 00E0     		b	.L12
 201              	.L13:
 202              		.loc 1 115 0
 203 0062 0023     		movs	r3, #0
 204              	.L12:
 205              	.LBE2:
 206              		.loc 1 117 0
 207 0064 1846     		mov	r0, r3
 208 0066 07B0     		add	sp, sp, #28
 209              		@ sp needed
 210 0068 5DF804FB 		ldr	pc, [sp], #4
 211              		.cfi_endproc
 212              	.LFE119:
 213              		.size	mmcsdGetCapacity, .-mmcsdGetCapacity
 214 006c AFF30080 		.text
 215              	.Letext0:
 216              		.file 2 "/usr/include/newlib/machine/_default_types.h"
 217              		.file 3 "/usr/include/newlib/stdint.h"
 218              		.file 4 "/home/dave/r2p-sdk/core/ChibiOS/os/ports/common/ARMCMx/CMSIS/include/core_cm4.h"