ARM GAS  /tmp/ccg61o9J.s 			page 1


   1              		.syntax unified
   2              		.cpu cortex-m4
   3              		.eabi_attribute 27, 3
   4              		.eabi_attribute 28, 1
   5              		.fpu fpv4-sp-d16
   6              		.eabi_attribute 20, 1
   7              		.eabi_attribute 21, 1
   8              		.eabi_attribute 23, 3
   9              		.eabi_attribute 24, 1
  10              		.eabi_attribute 25, 1
  11              		.eabi_attribute 26, 1
  12              		.eabi_attribute 30, 6
  13              		.eabi_attribute 34, 1
  14              		.eabi_attribute 18, 4
  15              		.thumb
  16              		.file	"rosserial.cpp"
  17              		.text
  18              	.Ltext0:
  19              		.cfi_sections	.debug_frame
  20              		.section	.text._ZN3r2p8SysLock_7acquireEv,"axG",%progbits,_ZN3r2p8SysLock_7acquireEv,comdat
  21              		.align	2
  22              		.p2align 4,,15
  23              		.weak	_ZN3r2p8SysLock_7acquireEv
  24              		.thumb
  25              		.thumb_func
  26              		.type	_ZN3r2p8SysLock_7acquireEv, %function
  27              	_ZN3r2p8SysLock_7acquireEv:
  28              	.LFB129:
  29              		.file 1 "/home/dave/r2p-sdk/core/Middleware/port/chibios/include/r2p/impl/SysLock_.hpp"
  30              		.loc 1 20 0
  31              		.cfi_startproc
  32              		@ args = 0, pretend = 0, frame = 0
  33              		@ frame_needed = 0, uses_anonymous_args = 0
  34 0000 08B5     		push	{r3, lr}
  35              		.cfi_def_cfa_offset 8
  36              		.cfi_offset 3, -8
  37              		.cfi_offset 14, -4
  38              	.LBB54:
  39              	.LBB55:
  40              	.LBB56:
  41              		.loc 1 22 0
  42 0002 2023     		movs	r3, #32
  43              	@ 22 "/home/dave/r2p-sdk/core/Middleware/port/chibios/include/r2p/impl/SysLock_.hpp" 1
  44 0004 83F31188 		msr     BASEPRI, r3
  45              	@ 0 "" 2
  46              		.thumb
  47              	.LBE56:
  48 0008 FFF7FEFF 		bl	dbg_check_lock
  49              	.LBE55:
  50              	.LBE54:
  51              		.loc 1 23 0
  52 000c 08BD     		pop	{r3, pc}
  53              		.cfi_endproc
  54              	.LFE129:
  55              		.size	_ZN3r2p8SysLock_7acquireEv, .-_ZN3r2p8SysLock_7acquireEv
  56 000e 00BF     		.section	.text._ZN3r2p8SysLock_7releaseEv,"axG",%progbits,_ZN3r2p8SysLock_7releaseEv,comdat
  57              		.align	2
ARM GAS  /tmp/ccg61o9J.s 			page 2


  58              		.p2align 4,,15
  59              		.weak	_ZN3r2p8SysLock_7releaseEv
  60              		.thumb
  61              		.thumb_func
  62              		.type	_ZN3r2p8SysLock_7releaseEv, %function
  63              	_ZN3r2p8SysLock_7releaseEv:
  64              	.LFB130:
  65              		.loc 1 27 0
  66              		.cfi_startproc
  67              		@ args = 0, pretend = 0, frame = 0
  68              		@ frame_needed = 0, uses_anonymous_args = 0
  69 0000 08B5     		push	{r3, lr}
  70              		.cfi_def_cfa_offset 8
  71              		.cfi_offset 3, -8
  72              		.cfi_offset 14, -4
  73              	.LBB57:
  74              	.LBB58:
  75              		.loc 1 29 0
  76 0002 FFF7FEFF 		bl	dbg_check_unlock
  77              	.LBB59:
  78 0006 0023     		movs	r3, #0
  79              	@ 29 "/home/dave/r2p-sdk/core/Middleware/port/chibios/include/r2p/impl/SysLock_.hpp" 1
  80 0008 83F31188 		msr     BASEPRI, r3
  81              	@ 0 "" 2
  82              		.thumb
  83              	.LBE59:
  84              	.LBE58:
  85              	.LBE57:
  86              		.loc 1 30 0
  87 000c 08BD     		pop	{r3, pc}
  88              		.cfi_endproc
  89              	.LFE130:
  90              		.size	_ZN3r2p8SysLock_7releaseEv, .-_ZN3r2p8SysLock_7releaseEv
  91 000e 00BF     		.section	.text._ZN3r2p7SysLock7acquireEv,"axG",%progbits,_ZN3r2p7SysLock7acquireEv,comdat
  92              		.align	2
  93              		.p2align 4,,15
  94              		.weak	_ZN3r2p7SysLock7acquireEv
  95              		.thumb
  96              		.thumb_func
  97              		.type	_ZN3r2p7SysLock7acquireEv, %function
  98              	_ZN3r2p7SysLock7acquireEv:
  99              	.LFB137:
 100              		.file 2 "/home/dave/r2p-sdk/core/Middleware/include/r2p/SysLock.hpp"
 101              		.loc 2 27 0
 102              		.cfi_startproc
 103              		@ args = 0, pretend = 0, frame = 0
 104              		@ frame_needed = 0, uses_anonymous_args = 0
 105 0000 08B5     		push	{r3, lr}
 106              		.cfi_def_cfa_offset 8
 107              		.cfi_offset 3, -8
 108              		.cfi_offset 14, -4
 109              		.loc 2 29 0
 110 0002 FFF7FEFF 		bl	_ZN3r2p8SysLock_7acquireEv
 111              		.loc 2 30 0
 112 0006 08BD     		pop	{r3, pc}
 113              		.cfi_endproc
 114              	.LFE137:
ARM GAS  /tmp/ccg61o9J.s 			page 3


 115              		.size	_ZN3r2p7SysLock7acquireEv, .-_ZN3r2p7SysLock7acquireEv
 116 0008 AFF30080 		.section	.text._ZN3r2p7SysLock7releaseEv,"axG",%progbits,_ZN3r2p7SysLock7releaseEv,comdat
 116      AFF30080 
 117              		.align	2
 118              		.p2align 4,,15
 119              		.weak	_ZN3r2p7SysLock7releaseEv
 120              		.thumb
 121              		.thumb_func
 122              		.type	_ZN3r2p7SysLock7releaseEv, %function
 123              	_ZN3r2p7SysLock7releaseEv:
 124              	.LFB138:
 125              		.loc 2 34 0
 126              		.cfi_startproc
 127              		@ args = 0, pretend = 0, frame = 0
 128              		@ frame_needed = 0, uses_anonymous_args = 0
 129 0000 08B5     		push	{r3, lr}
 130              		.cfi_def_cfa_offset 8
 131              		.cfi_offset 3, -8
 132              		.cfi_offset 14, -4
 133              		.loc 2 36 0
 134 0002 FFF7FEFF 		bl	_ZN3r2p8SysLock_7releaseEv
 135              		.loc 2 37 0
 136 0006 08BD     		pop	{r3, pc}
 137              		.cfi_endproc
 138              	.LFE138:
 139              		.size	_ZN3r2p7SysLock7releaseEv, .-_ZN3r2p7SysLock7releaseEv
 140 0008 AFF30080 		.section	.text._ZN3r2p11MemoryPool_12alloc_unsafeEv,"axG",%progbits,_ZN3r2p11MemoryPool_12alloc_un
 140      AFF30080 
 141              		.align	2
 142              		.p2align 4,,15
 143              		.weak	_ZN3r2p11MemoryPool_12alloc_unsafeEv
 144              		.thumb
 145              		.thumb_func
 146              		.type	_ZN3r2p11MemoryPool_12alloc_unsafeEv, %function
 147              	_ZN3r2p11MemoryPool_12alloc_unsafeEv:
 148              	.LFB236:
 149              		.file 3 "/home/dave/r2p-sdk/core/Middleware/port/chibios/include/r2p/impl/MemoryPool_.hpp"
 150              		.loc 3 53 0
 151              		.cfi_startproc
 152              		@ args = 0, pretend = 0, frame = 8
 153              		@ frame_needed = 0, uses_anonymous_args = 0
 154 0000 00B5     		push	{lr}
 155              		.cfi_def_cfa_offset 4
 156              		.cfi_offset 14, -4
 157 0002 83B0     		sub	sp, sp, #12
 158              		.cfi_def_cfa_offset 16
 159 0004 0190     		str	r0, [sp, #4]
 160              		.loc 3 55 0
 161 0006 019B     		ldr	r3, [sp, #4]
 162 0008 1846     		mov	r0, r3
 163 000a FFF7FEFF 		bl	chPoolAllocI
 164 000e 0346     		mov	r3, r0
 165              		.loc 3 56 0
 166 0010 1846     		mov	r0, r3
 167 0012 03B0     		add	sp, sp, #12
 168              		@ sp needed
 169 0014 5DF804FB 		ldr	pc, [sp], #4
ARM GAS  /tmp/ccg61o9J.s 			page 4


 170              		.cfi_endproc
 171              	.LFE236:
 172              		.size	_ZN3r2p11MemoryPool_12alloc_unsafeEv, .-_ZN3r2p11MemoryPool_12alloc_unsafeEv
 173 0018 AFF30080 		.section	.text._ZN3r2p4TimeaSERKS0_,"axG",%progbits,_ZN3r2p4TimeaSERKS0_,comdat
 173      AFF30080 
 174              		.align	2
 175              		.p2align 4,,15
 176              		.weak	_ZN3r2p4TimeaSERKS0_
 177              		.thumb
 178              		.thumb_func
 179              		.type	_ZN3r2p4TimeaSERKS0_, %function
 180              	_ZN3r2p4TimeaSERKS0_:
 181              	.LFB262:
 182              		.file 4 "/home/dave/r2p-sdk/core/Middleware/include/r2p/Time.hpp"
 183              		.loc 4 131 0
 184              		.cfi_startproc
 185              		@ args = 0, pretend = 0, frame = 8
 186              		@ frame_needed = 0, uses_anonymous_args = 0
 187              		@ link register save eliminated.
 188 0000 82B0     		sub	sp, sp, #8
 189              		.cfi_def_cfa_offset 8
 190 0002 0190     		str	r0, [sp, #4]
 191 0004 0091     		str	r1, [sp]
 192              		.loc 4 133 0
 193 0006 009B     		ldr	r3, [sp]
 194 0008 1A68     		ldr	r2, [r3]
 195 000a 019B     		ldr	r3, [sp, #4]
 196 000c 1A60     		str	r2, [r3]
 197              		.loc 4 134 0
 198 000e 019B     		ldr	r3, [sp, #4]
 199              		.loc 4 135 0
 200 0010 1846     		mov	r0, r3
 201 0012 02B0     		add	sp, sp, #8
 202              		@ sp needed
 203 0014 7047     		bx	lr
 204              		.cfi_endproc
 205              	.LFE262:
 206              		.size	_ZN3r2p4TimeaSERKS0_, .-_ZN3r2p4TimeaSERKS0_
 207 0016 00BFAFF3 		.section	.text._ZN3r2p4Time2msEl,"axG",%progbits,_ZN3r2p4Time2msEl,comdat
 207      0080AFF3 
 207      0080
 208              		.align	2
 209              		.p2align 4,,15
 210              		.weak	_ZN3r2p4Time2msEl
 211              		.thumb
 212              		.thumb_func
 213              		.type	_ZN3r2p4Time2msEl, %function
 214              	_ZN3r2p4Time2msEl:
 215              	.LFB276:
 216              		.loc 4 184 0
 217              		.cfi_startproc
 218              		@ args = 0, pretend = 0, frame = 8
 219              		@ frame_needed = 0, uses_anonymous_args = 0
 220 0000 00B5     		push	{lr}
 221              		.cfi_def_cfa_offset 4
 222              		.cfi_offset 14, -4
 223 0002 83B0     		sub	sp, sp, #12
ARM GAS  /tmp/ccg61o9J.s 			page 5


 224              		.cfi_def_cfa_offset 16
 225 0004 0190     		str	r0, [sp, #4]
 226 0006 0091     		str	r1, [sp]
 227              		.loc 4 186 0
 228 0008 009B     		ldr	r3, [sp]
 229 000a 4FF47A72 		mov	r2, #1000
 230 000e 02FB03F3 		mul	r3, r2, r3
 231 0012 0198     		ldr	r0, [sp, #4]
 232 0014 1946     		mov	r1, r3
 233 0016 FFF7FEFF 		bl	_ZN3r2p4TimeC1IlEET_
 234              		.loc 4 187 0
 235 001a 0198     		ldr	r0, [sp, #4]
 236 001c 03B0     		add	sp, sp, #12
 237              		@ sp needed
 238 001e 5DF804FB 		ldr	pc, [sp], #4
 239              		.cfi_endproc
 240              	.LFE276:
 241              		.size	_ZN3r2p4Time2msEl, .-_ZN3r2p4Time2msEl
 242 0022 00BFAFF3 		.section	.text._ZN3r2p7Message12reset_unsafeEv,"axG",%progbits,_ZN3r2p7Message12reset_unsafeEv,com
 242      0080AFF3 
 242      0080AFF3 
 242      0080
 243              		.align	2
 244              		.p2align 4,,15
 245              		.weak	_ZN3r2p7Message12reset_unsafeEv
 246              		.thumb
 247              		.thumb_func
 248              		.type	_ZN3r2p7Message12reset_unsafeEv, %function
 249              	_ZN3r2p7Message12reset_unsafeEv:
 250              	.LFB292:
 251              		.file 5 "/home/dave/r2p-sdk/core/Middleware/include/r2p/Message.hpp"
 252              		.loc 5 122 0
 253              		.cfi_startproc
 254              		@ args = 0, pretend = 0, frame = 8
 255              		@ frame_needed = 0, uses_anonymous_args = 0
 256              		@ link register save eliminated.
 257 0000 82B0     		sub	sp, sp, #8
 258              		.cfi_def_cfa_offset 8
 259 0002 0190     		str	r0, [sp, #4]
 260              		.loc 5 127 0
 261 0004 019B     		ldr	r3, [sp, #4]
 262 0006 0022     		movs	r2, #0
 263 0008 1A70     		strb	r2, [r3]
 264 000a 0022     		movs	r2, #0
 265 000c 5A70     		strb	r2, [r3, #1]
 266              		.loc 5 128 0
 267 000e 02B0     		add	sp, sp, #8
 268              		@ sp needed
 269 0010 7047     		bx	lr
 270              		.cfi_endproc
 271              	.LFE292:
 272              		.size	_ZN3r2p7Message12reset_unsafeEv, .-_ZN3r2p7Message12reset_unsafeEv
 273 0012 00BFAFF3 		.section	.text._ZN3r2p7MessageC2Ev,"axG",%progbits,_ZN3r2p7MessageC5Ev,comdat
 273      0080AFF3 
 273      0080AFF3 
 273      0080
 274              		.align	2
ARM GAS  /tmp/ccg61o9J.s 			page 6


 275              		.p2align 4,,15
 276              		.weak	_ZN3r2p7MessageC2Ev
 277              		.thumb
 278              		.thumb_func
 279              		.type	_ZN3r2p7MessageC2Ev, %function
 280              	_ZN3r2p7MessageC2Ev:
 281              	.LFB294:
 282              		.loc 5 132 0
 283              		.cfi_startproc
 284              		@ args = 0, pretend = 0, frame = 8
 285              		@ frame_needed = 0, uses_anonymous_args = 0
 286              		@ link register save eliminated.
 287 0000 82B0     		sub	sp, sp, #8
 288              		.cfi_def_cfa_offset 8
 289 0002 0190     		str	r0, [sp, #4]
 290              	.LBB60:
 291              		.loc 5 137 0
 292 0004 019B     		ldr	r3, [sp, #4]
 293 0006 0022     		movs	r2, #0
 294 0008 1A70     		strb	r2, [r3]
 295 000a 0022     		movs	r2, #0
 296 000c 5A70     		strb	r2, [r3, #1]
 297              	.LBE60:
 298              		.loc 5 138 0
 299 000e 019B     		ldr	r3, [sp, #4]
 300 0010 1846     		mov	r0, r3
 301 0012 02B0     		add	sp, sp, #8
 302              		@ sp needed
 303 0014 7047     		bx	lr
 304              		.cfi_endproc
 305              	.LFE294:
 306              		.size	_ZN3r2p7MessageC2Ev, .-_ZN3r2p7MessageC2Ev
 307              		.weak	_ZN3r2p7MessageC1Ev
 308              		.thumb_set _ZN3r2p7MessageC1Ev,_ZN3r2p7MessageC2Ev
 309 0016 00BFAFF3 		.section	.rodata
 309      0080AFF3 
 309      0080
 310              		.align	2
 311              	.LC0:
 312 0000 5232505F 		.ascii	"R2P_ASSERT()\000"
 312      41535345 
 312      52542829 
 312      00
 313              		.section	.text._ZN3r2p13BasePublisher12alloc_unsafeERPNS_7MessageE,"axG",%progbits,_ZN3r2p13BasePu
 314              		.align	2
 315              		.p2align 4,,15
 316              		.weak	_ZN3r2p13BasePublisher12alloc_unsafeERPNS_7MessageE
 317              		.thumb
 318              		.thumb_func
 319              		.type	_ZN3r2p13BasePublisher12alloc_unsafeERPNS_7MessageE, %function
 320              	_ZN3r2p13BasePublisher12alloc_unsafeERPNS_7MessageE:
 321              	.LFB303:
 322              		.file 6 "/home/dave/r2p-sdk/core/Middleware/include/r2p/BasePublisher.hpp"
 323              		.loc 6 64 0
 324              		.cfi_startproc
 325              		@ args = 0, pretend = 0, frame = 8
 326              		@ frame_needed = 0, uses_anonymous_args = 0
ARM GAS  /tmp/ccg61o9J.s 			page 7


 327 0000 00B5     		push	{lr}
 328              		.cfi_def_cfa_offset 4
 329              		.cfi_offset 14, -4
 330 0002 83B0     		sub	sp, sp, #12
 331              		.cfi_def_cfa_offset 16
 332 0004 0190     		str	r0, [sp, #4]
 333 0006 0091     		str	r1, [sp]
 334              		.loc 6 66 0
 335 0008 019B     		ldr	r3, [sp, #4]
 336 000a 5B68     		ldr	r3, [r3, #4]
 337 000c 002B     		cmp	r3, #0
 338 000e 02D1     		bne	.L16
 339              		.loc 6 66 0 is_stmt 0 discriminator 1
 340 0010 0A48     		ldr	r0, .L18
 341 0012 FFF7FEFF 		bl	chDbgPanic
 342              	.L16:
 343              		.loc 6 68 0 is_stmt 1
 344 0016 019B     		ldr	r3, [sp, #4]
 345 0018 5B68     		ldr	r3, [r3, #4]
 346 001a 1846     		mov	r0, r3
 347 001c FFF7FEFF 		bl	_ZN3r2p5Topic12alloc_unsafeEv
 348 0020 0246     		mov	r2, r0
 349 0022 009B     		ldr	r3, [sp]
 350 0024 1A60     		str	r2, [r3]
 351              		.loc 6 69 0
 352 0026 009B     		ldr	r3, [sp]
 353 0028 1B68     		ldr	r3, [r3]
 354 002a 002B     		cmp	r3, #0
 355 002c 0CBF     		ite	eq
 356 002e 0023     		moveq	r3, #0
 357 0030 0123     		movne	r3, #1
 358 0032 DBB2     		uxtb	r3, r3
 359              		.loc 6 70 0
 360 0034 1846     		mov	r0, r3
 361 0036 03B0     		add	sp, sp, #12
 362              		@ sp needed
 363 0038 5DF804FB 		ldr	pc, [sp], #4
 364              	.L19:
 365              		.align	2
 366              	.L18:
 367 003c 00000000 		.word	.LC0
 368              		.cfi_endproc
 369              	.LFE303:
 370              		.size	_ZN3r2p13BasePublisher12alloc_unsafeERPNS_7MessageE, .-_ZN3r2p13BasePublisher12alloc_unsafeE
 371              		.section	.text._ZN3r2p13BasePublisher5allocERPNS_7MessageE,"axG",%progbits,_ZN3r2p13BasePublisher5
 372              		.align	2
 373              		.p2align 4,,15
 374              		.weak	_ZN3r2p13BasePublisher5allocERPNS_7MessageE
 375              		.thumb
 376              		.thumb_func
 377              		.type	_ZN3r2p13BasePublisher5allocERPNS_7MessageE, %function
 378              	_ZN3r2p13BasePublisher5allocERPNS_7MessageE:
 379              	.LFB304:
 380              		.loc 6 74 0
 381              		.cfi_startproc
 382              		@ args = 0, pretend = 0, frame = 16
 383              		@ frame_needed = 0, uses_anonymous_args = 0
ARM GAS  /tmp/ccg61o9J.s 			page 8


 384 0000 00B5     		push	{lr}
 385              		.cfi_def_cfa_offset 4
 386              		.cfi_offset 14, -4
 387 0002 85B0     		sub	sp, sp, #20
 388              		.cfi_def_cfa_offset 24
 389 0004 0190     		str	r0, [sp, #4]
 390 0006 0091     		str	r1, [sp]
 391              	.LBB61:
 392              		.loc 6 76 0
 393 0008 FFF7FEFF 		bl	_ZN3r2p7SysLock7acquireEv
 394              		.loc 6 77 0
 395 000c 0198     		ldr	r0, [sp, #4]
 396 000e 0099     		ldr	r1, [sp]
 397 0010 FFF7FEFF 		bl	_ZN3r2p13BasePublisher12alloc_unsafeERPNS_7MessageE
 398 0014 0346     		mov	r3, r0
 399 0016 8DF80F30 		strb	r3, [sp, #15]
 400              		.loc 6 78 0
 401 001a FFF7FEFF 		bl	_ZN3r2p7SysLock7releaseEv
 402              		.loc 6 79 0
 403 001e 9DF80F30 		ldrb	r3, [sp, #15]	@ zero_extendqisi2
 404              	.LBE61:
 405              		.loc 6 80 0
 406 0022 1846     		mov	r0, r3
 407 0024 05B0     		add	sp, sp, #20
 408              		@ sp needed
 409 0026 5DF804FB 		ldr	pc, [sp], #4
 410              		.cfi_endproc
 411              	.LFE304:
 412              		.size	_ZN3r2p13BasePublisher5allocERPNS_7MessageE, .-_ZN3r2p13BasePublisher5allocERPNS_7MessageE
 413 002a 00BFAFF3 		.section	.text._ZNK3r2p10SpinEvent_10get_threadEv,"axG",%progbits,_ZNK3r2p10SpinEvent_10get_thread
 413      0080
 414              		.align	2
 415              		.p2align 4,,15
 416              		.weak	_ZNK3r2p10SpinEvent_10get_threadEv
 417              		.thumb
 418              		.thumb_func
 419              		.type	_ZNK3r2p10SpinEvent_10get_threadEv, %function
 420              	_ZNK3r2p10SpinEvent_10get_threadEv:
 421              	.LFB353:
 422              		.file 7 "/home/dave/r2p-sdk/core/Middleware/port/chibios/include/r2p/impl/SpinEvent_.hpp"
 423              		.loc 7 36 0
 424              		.cfi_startproc
 425              		@ args = 0, pretend = 0, frame = 8
 426              		@ frame_needed = 0, uses_anonymous_args = 0
 427              		@ link register save eliminated.
 428 0000 82B0     		sub	sp, sp, #8
 429              		.cfi_def_cfa_offset 8
 430 0002 0190     		str	r0, [sp, #4]
 431              		.loc 7 38 0
 432 0004 019B     		ldr	r3, [sp, #4]
 433 0006 1B68     		ldr	r3, [r3]
 434              		.loc 7 39 0
 435 0008 1846     		mov	r0, r3
 436 000a 02B0     		add	sp, sp, #8
 437              		@ sp needed
 438 000c 7047     		bx	lr
 439              		.cfi_endproc
ARM GAS  /tmp/ccg61o9J.s 			page 9


 440              	.LFE353:
 441              		.size	_ZNK3r2p10SpinEvent_10get_threadEv, .-_ZNK3r2p10SpinEvent_10get_threadEv
 442 000e 00BF     		.section	.text._ZN3r2p10SpinEvent_13signal_unsafeEj,"axG",%progbits,_ZN3r2p10SpinEvent_13signal_un
 443              		.align	2
 444              		.p2align 4,,15
 445              		.weak	_ZN3r2p10SpinEvent_13signal_unsafeEj
 446              		.thumb
 447              		.thumb_func
 448              		.type	_ZN3r2p10SpinEvent_13signal_unsafeEj, %function
 449              	_ZN3r2p10SpinEvent_13signal_unsafeEj:
 450              	.LFB355:
 451              		.loc 7 50 0
 452              		.cfi_startproc
 453              		@ args = 0, pretend = 0, frame = 8
 454              		@ frame_needed = 0, uses_anonymous_args = 0
 455 0000 00B5     		push	{lr}
 456              		.cfi_def_cfa_offset 4
 457              		.cfi_offset 14, -4
 458 0002 83B0     		sub	sp, sp, #12
 459              		.cfi_def_cfa_offset 16
 460 0004 0190     		str	r0, [sp, #4]
 461 0006 0091     		str	r1, [sp]
 462              		.loc 7 52 0
 463 0008 019B     		ldr	r3, [sp, #4]
 464 000a 1B68     		ldr	r3, [r3]
 465 000c 002B     		cmp	r3, #0
 466 000e 10D0     		beq	.L24
 467              		.loc 7 53 0
 468 0010 2022     		movs	r2, #32
 469 0012 009B     		ldr	r3, [sp]
 470 0014 9A42     		cmp	r2, r3
 471 0016 02D8     		bhi	.L26
 472              		.loc 7 53 0 is_stmt 0 discriminator 1
 473 0018 0748     		ldr	r0, .L27
 474 001a FFF7FEFF 		bl	chDbgPanic
 475              	.L26:
 476              		.loc 7 54 0 is_stmt 1 discriminator 1
 477 001e 019B     		ldr	r3, [sp, #4]
 478 0020 1A68     		ldr	r2, [r3]
 479 0022 009B     		ldr	r3, [sp]
 480 0024 0121     		movs	r1, #1
 481 0026 01FA03F3 		lsl	r3, r1, r3
 482 002a 1046     		mov	r0, r2
 483 002c 1946     		mov	r1, r3
 484 002e FFF7FEFF 		bl	chEvtSignalI
 485              	.L24:
 486              		.loc 7 56 0
 487 0032 03B0     		add	sp, sp, #12
 488              		@ sp needed
 489 0034 5DF804FB 		ldr	pc, [sp], #4
 490              	.L28:
 491              		.align	2
 492              	.L27:
 493 0038 00000000 		.word	.LC0
 494              		.cfi_endproc
 495              	.LFE355:
 496              		.size	_ZN3r2p10SpinEvent_13signal_unsafeEj, .-_ZN3r2p10SpinEvent_13signal_unsafeEj
ARM GAS  /tmp/ccg61o9J.s 			page 10


 497 003c AFF30080 		.section	.text._ZNK3r2p9SpinEvent10get_threadEv,"axG",%progbits,_ZNK3r2p9SpinEvent10get_threadEv,c
 498              		.align	2
 499              		.p2align 4,,15
 500              		.weak	_ZNK3r2p9SpinEvent10get_threadEv
 501              		.thumb
 502              		.thumb_func
 503              		.type	_ZNK3r2p9SpinEvent10get_threadEv, %function
 504              	_ZNK3r2p9SpinEvent10get_threadEv:
 505              	.LFB361:
 506              		.file 8 "/home/dave/r2p-sdk/core/Middleware/include/r2p/SpinEvent.hpp"
 507              		.loc 8 35 0
 508              		.cfi_startproc
 509              		@ args = 0, pretend = 0, frame = 8
 510              		@ frame_needed = 0, uses_anonymous_args = 0
 511 0000 00B5     		push	{lr}
 512              		.cfi_def_cfa_offset 4
 513              		.cfi_offset 14, -4
 514 0002 83B0     		sub	sp, sp, #12
 515              		.cfi_def_cfa_offset 16
 516 0004 0190     		str	r0, [sp, #4]
 517              		.loc 8 37 0
 518 0006 019B     		ldr	r3, [sp, #4]
 519 0008 1846     		mov	r0, r3
 520 000a FFF7FEFF 		bl	_ZNK3r2p10SpinEvent_10get_threadEv
 521 000e 0346     		mov	r3, r0
 522              		.loc 8 38 0
 523 0010 1846     		mov	r0, r3
 524 0012 03B0     		add	sp, sp, #12
 525              		@ sp needed
 526 0014 5DF804FB 		ldr	pc, [sp], #4
 527              		.cfi_endproc
 528              	.LFE361:
 529              		.size	_ZNK3r2p9SpinEvent10get_threadEv, .-_ZNK3r2p9SpinEvent10get_threadEv
 530 0018 AFF30080 		.section	.text._ZN3r2p9SpinEvent13signal_unsafeEj,"axG",%progbits,_ZN3r2p9SpinEvent13signal_unsafe
 530      AFF30080 
 531              		.align	2
 532              		.p2align 4,,15
 533              		.weak	_ZN3r2p9SpinEvent13signal_unsafeEj
 534              		.thumb
 535              		.thumb_func
 536              		.type	_ZN3r2p9SpinEvent13signal_unsafeEj, %function
 537              	_ZN3r2p9SpinEvent13signal_unsafeEj:
 538              	.LFB363:
 539              		.loc 8 49 0
 540              		.cfi_startproc
 541              		@ args = 0, pretend = 0, frame = 8
 542              		@ frame_needed = 0, uses_anonymous_args = 0
 543 0000 00B5     		push	{lr}
 544              		.cfi_def_cfa_offset 4
 545              		.cfi_offset 14, -4
 546 0002 83B0     		sub	sp, sp, #12
 547              		.cfi_def_cfa_offset 16
 548 0004 0190     		str	r0, [sp, #4]
 549 0006 0091     		str	r1, [sp]
 550              		.loc 8 51 0
 551 0008 019B     		ldr	r3, [sp, #4]
 552 000a 1846     		mov	r0, r3
ARM GAS  /tmp/ccg61o9J.s 			page 11


 553 000c 0099     		ldr	r1, [sp]
 554 000e FFF7FEFF 		bl	_ZN3r2p10SpinEvent_13signal_unsafeEj
 555              		.loc 8 52 0
 556 0012 03B0     		add	sp, sp, #12
 557              		@ sp needed
 558 0014 5DF804FB 		ldr	pc, [sp], #4
 559              		.cfi_endproc
 560              	.LFE363:
 561              		.size	_ZN3r2p9SpinEvent13signal_unsafeEj, .-_ZN3r2p9SpinEvent13signal_unsafeEj
 562 0018 AFF30080 		.section	.text._ZNK3r2p4Node11get_enabledEv,"axG",%progbits,_ZNK3r2p4Node11get_enabledEv,comdat
 562      AFF30080 
 563              		.align	2
 564              		.p2align 4,,15
 565              		.weak	_ZNK3r2p4Node11get_enabledEv
 566              		.thumb
 567              		.thumb_func
 568              		.type	_ZNK3r2p4Node11get_enabledEv, %function
 569              	_ZNK3r2p4Node11get_enabledEv:
 570              	.LFB380:
 571              		.file 9 "/home/dave/r2p-sdk/core/Middleware/include/r2p/Node.hpp"
 572              		.loc 9 103 0
 573              		.cfi_startproc
 574              		@ args = 0, pretend = 0, frame = 8
 575              		@ frame_needed = 0, uses_anonymous_args = 0
 576 0000 00B5     		push	{lr}
 577              		.cfi_def_cfa_offset 4
 578              		.cfi_offset 14, -4
 579 0002 83B0     		sub	sp, sp, #12
 580              		.cfi_def_cfa_offset 16
 581 0004 0190     		str	r0, [sp, #4]
 582              		.loc 9 105 0
 583 0006 019B     		ldr	r3, [sp, #4]
 584 0008 0C33     		adds	r3, r3, #12
 585 000a 1846     		mov	r0, r3
 586 000c FFF7FEFF 		bl	_ZNK3r2p9SpinEvent10get_threadEv
 587 0010 0346     		mov	r3, r0
 588 0012 002B     		cmp	r3, #0
 589 0014 0CBF     		ite	eq
 590 0016 0023     		moveq	r3, #0
 591 0018 0123     		movne	r3, #1
 592 001a DBB2     		uxtb	r3, r3
 593              		.loc 9 106 0
 594 001c 1846     		mov	r0, r3
 595 001e 03B0     		add	sp, sp, #12
 596              		@ sp needed
 597 0020 5DF804FB 		ldr	pc, [sp], #4
 598              		.cfi_endproc
 599              	.LFE380:
 600              		.size	_ZNK3r2p4Node11get_enabledEv, .-_ZNK3r2p4Node11get_enabledEv
 601 0024 AFF30080 		.section	.text._ZN3r2p4Node13notify_unsafeEj,"axG",%progbits,_ZN3r2p4Node13notify_unsafeEj,comdat
 601      AFF30080 
 601      AFF30080 
 602              		.align	2
 603              		.p2align 4,,15
 604              		.weak	_ZN3r2p4Node13notify_unsafeEj
 605              		.thumb
 606              		.thumb_func
ARM GAS  /tmp/ccg61o9J.s 			page 12


 607              		.type	_ZN3r2p4Node13notify_unsafeEj, %function
 608              	_ZN3r2p4Node13notify_unsafeEj:
 609              	.LFB385:
 610              		.loc 9 140 0
 611              		.cfi_startproc
 612              		@ args = 0, pretend = 0, frame = 8
 613              		@ frame_needed = 0, uses_anonymous_args = 0
 614 0000 00B5     		push	{lr}
 615              		.cfi_def_cfa_offset 4
 616              		.cfi_offset 14, -4
 617 0002 83B0     		sub	sp, sp, #12
 618              		.cfi_def_cfa_offset 16
 619 0004 0190     		str	r0, [sp, #4]
 620 0006 0091     		str	r1, [sp]
 621              		.loc 9 142 0
 622 0008 019B     		ldr	r3, [sp, #4]
 623 000a 0C33     		adds	r3, r3, #12
 624 000c 1846     		mov	r0, r3
 625 000e 0099     		ldr	r1, [sp]
 626 0010 FFF7FEFF 		bl	_ZN3r2p9SpinEvent13signal_unsafeEj
 627              		.loc 9 143 0
 628 0014 03B0     		add	sp, sp, #12
 629              		@ sp needed
 630 0016 5DF804FB 		ldr	pc, [sp], #4
 631              		.cfi_endproc
 632              	.LFE385:
 633              		.size	_ZN3r2p4Node13notify_unsafeEj, .-_ZN3r2p4Node13notify_unsafeEj
 634 001a 00BFAFF3 		.section	.text._ZNK3r2p15LocalSubscriber16get_queue_lengthEv,"axG",%progbits,_ZNK3r2p15LocalSubscr
 634      0080
 635              		.align	2
 636              		.p2align 4,,15
 637              		.weak	_ZNK3r2p15LocalSubscriber16get_queue_lengthEv
 638              		.thumb
 639              		.thumb_func
 640              		.type	_ZNK3r2p15LocalSubscriber16get_queue_lengthEv, %function
 641              	_ZNK3r2p15LocalSubscriber16get_queue_lengthEv:
 642              	.LFB391:
 643              		.file 10 "/home/dave/r2p-sdk/core/Middleware/include/r2p/LocalSubscriber.hpp"
 644              		.loc 10 64 0
 645              		.cfi_startproc
 646              		@ args = 0, pretend = 0, frame = 8
 647              		@ frame_needed = 0, uses_anonymous_args = 0
 648 0000 00B5     		push	{lr}
 649              		.cfi_def_cfa_offset 4
 650              		.cfi_offset 14, -4
 651 0002 83B0     		sub	sp, sp, #12
 652              		.cfi_def_cfa_offset 16
 653 0004 0190     		str	r0, [sp, #4]
 654              		.loc 10 66 0
 655 0006 019B     		ldr	r3, [sp, #4]
 656 0008 1033     		adds	r3, r3, #16
 657 000a 1846     		mov	r0, r3
 658 000c FFF7FEFF 		bl	_ZNK3r2p10ArrayQueueIPNS_7MessageEE10get_lengthEv
 659 0010 0346     		mov	r3, r0
 660              		.loc 10 67 0
 661 0012 1846     		mov	r0, r3
 662 0014 03B0     		add	sp, sp, #12
ARM GAS  /tmp/ccg61o9J.s 			page 13


 663              		@ sp needed
 664 0016 5DF804FB 		ldr	pc, [sp], #4
 665              		.cfi_endproc
 666              	.LFE391:
 667              		.size	_ZNK3r2p15LocalSubscriber16get_queue_lengthEv, .-_ZNK3r2p15LocalSubscriber16get_queue_length
 668 001a 00BFAFF3 		.section	.text._ZN3r2p15LocalSubscriber12fetch_unsafeERPNS_7MessageERNS_4TimeE,"axG",%progbits,_ZN
 668      0080
 669              		.align	2
 670              		.p2align 4,,15
 671              		.weak	_ZN3r2p15LocalSubscriber12fetch_unsafeERPNS_7MessageERNS_4TimeE
 672              		.thumb
 673              		.thumb_func
 674              		.type	_ZN3r2p15LocalSubscriber12fetch_unsafeERPNS_7MessageERNS_4TimeE, %function
 675              	_ZN3r2p15LocalSubscriber12fetch_unsafeERPNS_7MessageERNS_4TimeE:
 676              	.LFB392:
 677              		.loc 10 71 0
 678              		.cfi_startproc
 679              		@ args = 0, pretend = 0, frame = 24
 680              		@ frame_needed = 0, uses_anonymous_args = 0
 681 0000 00B5     		push	{lr}
 682              		.cfi_def_cfa_offset 4
 683              		.cfi_offset 14, -4
 684 0002 87B0     		sub	sp, sp, #28
 685              		.cfi_def_cfa_offset 32
 686 0004 0390     		str	r0, [sp, #12]
 687 0006 0291     		str	r1, [sp, #8]
 688 0008 0192     		str	r2, [sp, #4]
 689              		.loc 10 73 0
 690 000a 039B     		ldr	r3, [sp, #12]
 691 000c 1033     		adds	r3, r3, #16
 692 000e 1846     		mov	r0, r3
 693 0010 0299     		ldr	r1, [sp, #8]
 694 0012 FFF7FEFF 		bl	_ZN3r2p10ArrayQueueIPNS_7MessageEE12fetch_unsafeERS2_
 695 0016 0346     		mov	r3, r0
 696 0018 002B     		cmp	r3, #0
 697 001a 0AD0     		beq	.L38
 698              		.loc 10 74 0
 699 001c 05AB     		add	r3, sp, #20
 700 001e 1846     		mov	r0, r3
 701 0020 FFF7FEFF 		bl	_ZN3r2p4Time3nowEv
 702 0024 05AB     		add	r3, sp, #20
 703 0026 0198     		ldr	r0, [sp, #4]
 704 0028 1946     		mov	r1, r3
 705 002a FFF7FEFF 		bl	_ZN3r2p4TimeaSERKS0_
 706              		.loc 10 75 0
 707 002e 0123     		movs	r3, #1
 708 0030 00E0     		b	.L39
 709              	.L38:
 710              		.loc 10 77 0
 711 0032 0023     		movs	r3, #0
 712              	.L39:
 713              		.loc 10 78 0
 714 0034 1846     		mov	r0, r3
 715 0036 07B0     		add	sp, sp, #28
 716              		@ sp needed
 717 0038 5DF804FB 		ldr	pc, [sp], #4
 718              		.cfi_endproc
ARM GAS  /tmp/ccg61o9J.s 			page 14


 719              	.LFE392:
 720              		.size	_ZN3r2p15LocalSubscriber12fetch_unsafeERPNS_7MessageERNS_4TimeE, .-_ZN3r2p15LocalSubscriber1
 721 003c AFF30080 		.section	.text._ZN3r2p15LocalSubscriber13notify_unsafeERNS_7MessageERKNS_4TimeE,"axG",%progbits,_Z
 722              		.align	2
 723              		.p2align 4,,15
 724              		.weak	_ZN3r2p15LocalSubscriber13notify_unsafeERNS_7MessageERKNS_4TimeE
 725              		.thumb
 726              		.thumb_func
 727              		.type	_ZN3r2p15LocalSubscriber13notify_unsafeERNS_7MessageERKNS_4TimeE, %function
 728              	_ZN3r2p15LocalSubscriber13notify_unsafeERNS_7MessageERKNS_4TimeE:
 729              	.LFB393:
 730              		.loc 10 82 0
 731              		.cfi_startproc
 732              		@ args = 0, pretend = 0, frame = 16
 733              		@ frame_needed = 0, uses_anonymous_args = 0
 734 0000 00B5     		push	{lr}
 735              		.cfi_def_cfa_offset 4
 736              		.cfi_offset 14, -4
 737 0002 85B0     		sub	sp, sp, #20
 738              		.cfi_def_cfa_offset 24
 739 0004 0390     		str	r0, [sp, #12]
 740 0006 0291     		str	r1, [sp, #8]
 741 0008 0192     		str	r2, [sp, #4]
 742              		.loc 10 86 0
 743 000a 039B     		ldr	r3, [sp, #12]
 744 000c 9B68     		ldr	r3, [r3, #8]
 745 000e 1846     		mov	r0, r3
 746 0010 FFF7FEFF 		bl	_ZNK3r2p4Node11get_enabledEv
 747 0014 0346     		mov	r3, r0
 748 0016 002B     		cmp	r3, #0
 749 0018 0AD0     		beq	.L41
 750              		.loc 10 86 0 is_stmt 0 discriminator 1
 751 001a 039B     		ldr	r3, [sp, #12]
 752 001c 1033     		adds	r3, r3, #16
 753 001e 1846     		mov	r0, r3
 754 0020 0299     		ldr	r1, [sp, #8]
 755 0022 FFF7FEFF 		bl	_ZN3r2p10ArrayQueueIPNS_7MessageEE11post_unsafeES2_
 756 0026 0346     		mov	r3, r0
 757 0028 002B     		cmp	r3, #0
 758 002a 01D0     		beq	.L41
 759              		.loc 10 86 0 discriminator 3
 760 002c 0123     		movs	r3, #1
 761 002e 00E0     		b	.L42
 762              	.L41:
 763              		.loc 10 86 0 discriminator 2
 764 0030 0023     		movs	r3, #0
 765              	.L42:
 766              		.loc 10 86 0 discriminator 4
 767 0032 002B     		cmp	r3, #0
 768 0034 0AD0     		beq	.L43
 769              		.loc 10 87 0 is_stmt 1
 770 0036 039B     		ldr	r3, [sp, #12]
 771 0038 9A68     		ldr	r2, [r3, #8]
 772 003a 039B     		ldr	r3, [sp, #12]
 773 003c 93F82430 		ldrb	r3, [r3, #36]	@ zero_extendqisi2
 774 0040 1046     		mov	r0, r2
 775 0042 1946     		mov	r1, r3
ARM GAS  /tmp/ccg61o9J.s 			page 15


 776 0044 FFF7FEFF 		bl	_ZN3r2p4Node13notify_unsafeEj
 777              		.loc 10 88 0
 778 0048 0123     		movs	r3, #1
 779 004a 00E0     		b	.L44
 780              	.L43:
 781              		.loc 10 90 0
 782 004c 0023     		movs	r3, #0
 783              	.L44:
 784              		.loc 10 91 0
 785 004e 1846     		mov	r0, r3
 786 0050 05B0     		add	sp, sp, #20
 787              		@ sp needed
 788 0052 5DF804FB 		ldr	pc, [sp], #4
 789              		.cfi_endproc
 790              	.LFE393:
 791              		.size	_ZN3r2p15LocalSubscriber13notify_unsafeERNS_7MessageERKNS_4TimeE, .-_ZN3r2p15LocalSubscriber
 792 0056 00BFAFF3 		.section	.text._ZN3r2p5Topic12alloc_unsafeEv,"axG",%progbits,_ZN3r2p5Topic12alloc_unsafeEv,comdat
 792      0080AFF3 
 792      0080
 793              		.align	2
 794              		.p2align 4,,15
 795              		.weak	_ZN3r2p5Topic12alloc_unsafeEv
 796              		.thumb
 797              		.thumb_func
 798              		.type	_ZN3r2p5Topic12alloc_unsafeEv, %function
 799              	_ZN3r2p5Topic12alloc_unsafeEv:
 800              	.LFB412:
 801              		.file 11 "/home/dave/r2p-sdk/core/Middleware/include/r2p/Topic.hpp"
 802              		.loc 11 250 0
 803              		.cfi_startproc
 804              		@ args = 0, pretend = 0, frame = 8
 805              		@ frame_needed = 0, uses_anonymous_args = 0
 806 0000 10B5     		push	{r4, lr}
 807              		.cfi_def_cfa_offset 8
 808              		.cfi_offset 4, -8
 809              		.cfi_offset 14, -4
 810 0002 82B0     		sub	sp, sp, #8
 811              		.cfi_def_cfa_offset 16
 812 0004 0190     		str	r0, [sp, #4]
 813              	.LBB62:
 814              		.loc 11 252 0
 815 0006 019B     		ldr	r3, [sp, #4]
 816 0008 0833     		adds	r3, r3, #8
 817 000a 1846     		mov	r0, r3
 818 000c FFF7FEFF 		bl	_ZN3r2p11MemoryPool_12alloc_unsafeEv
 819 0010 0446     		mov	r4, r0
 820              		.loc 11 253 0
 821 0012 002C     		cmp	r4, #0
 822 0014 04D0     		beq	.L46
 823              		.loc 11 254 0
 824 0016 2046     		mov	r0, r4
 825 0018 FFF7FEFF 		bl	_ZN3r2p7Message12reset_unsafeEv
 826              		.loc 11 255 0
 827 001c 2346     		mov	r3, r4
 828 001e 00E0     		b	.L47
 829              	.L46:
 830              		.loc 11 257 0
ARM GAS  /tmp/ccg61o9J.s 			page 16


 831 0020 0023     		movs	r3, #0
 832              	.L47:
 833              	.LBE62:
 834              		.loc 11 258 0
 835 0022 1846     		mov	r0, r3
 836 0024 02B0     		add	sp, sp, #8
 837              		@ sp needed
 838 0026 10BD     		pop	{r4, pc}
 839              		.cfi_endproc
 840              	.LFE412:
 841              		.size	_ZN3r2p5Topic12alloc_unsafeEv, .-_ZN3r2p5Topic12alloc_unsafeEv
 842 0028 AFF30080 		.section	.text._ZN3ros3Msg19serializeAvrFloat64EPhf,"axG",%progbits,_ZN3ros3Msg19serializeAvrFloat
 842      AFF30080 
 843              		.align	2
 844              		.p2align 4,,15
 845              		.weak	_ZN3ros3Msg19serializeAvrFloat64EPhf
 846              		.thumb
 847              		.thumb_func
 848              		.type	_ZN3ros3Msg19serializeAvrFloat64EPhf, %function
 849              	_ZN3ros3Msg19serializeAvrFloat64EPhf:
 850              	.LFB596:
 851              		.file 12 "ros_lib/ros/msg.h"
 852              		.loc 12 62 0
 853              		.cfi_startproc
 854              		@ args = 0, pretend = 0, frame = 24
 855              		@ frame_needed = 0, uses_anonymous_args = 0
 856              		@ link register save eliminated.
 857 0000 86B0     		sub	sp, sp, #24
 858              		.cfi_def_cfa_offset 24
 859 0002 0190     		str	r0, [sp, #4]
 860 0004 8DED000A 		fsts	s0, [sp]
 861              	.LBB63:
 862              		.loc 12 64 0
 863 0008 6B46     		mov	r3, sp
 864 000a 0493     		str	r3, [sp, #16]
 865              		.loc 12 65 0
 866 000c 049B     		ldr	r3, [sp, #16]
 867 000e 1B68     		ldr	r3, [r3]
 868 0010 DB15     		asrs	r3, r3, #23
 869 0012 DBB2     		uxtb	r3, r3
 870 0014 0593     		str	r3, [sp, #20]
 871              		.loc 12 66 0
 872 0016 059B     		ldr	r3, [sp, #20]
 873 0018 002B     		cmp	r3, #0
 874 001a 03D0     		beq	.L49
 875              		.loc 12 68 0
 876 001c 059B     		ldr	r3, [sp, #20]
 877 001e 03F56073 		add	r3, r3, #896
 878 0022 0593     		str	r3, [sp, #20]
 879              	.L49:
 880              		.loc 12 71 0
 881 0024 049B     		ldr	r3, [sp, #16]
 882 0026 1B68     		ldr	r3, [r3]
 883 0028 0393     		str	r3, [sp, #12]
 884              		.loc 12 72 0
 885 002a 019B     		ldr	r3, [sp, #4]
 886 002c 5A1C     		adds	r2, r3, #1
ARM GAS  /tmp/ccg61o9J.s 			page 17


 887 002e 0192     		str	r2, [sp, #4]
 888 0030 0022     		movs	r2, #0
 889 0032 1A70     		strb	r2, [r3]
 890              		.loc 12 73 0
 891 0034 019B     		ldr	r3, [sp, #4]
 892 0036 5A1C     		adds	r2, r3, #1
 893 0038 0192     		str	r2, [sp, #4]
 894 003a 0022     		movs	r2, #0
 895 003c 1A70     		strb	r2, [r3]
 896              		.loc 12 74 0
 897 003e 019B     		ldr	r3, [sp, #4]
 898 0040 5A1C     		adds	r2, r3, #1
 899 0042 0192     		str	r2, [sp, #4]
 900 0044 0022     		movs	r2, #0
 901 0046 1A70     		strb	r2, [r3]
 902              		.loc 12 75 0
 903 0048 019B     		ldr	r3, [sp, #4]
 904 004a 5A1C     		adds	r2, r3, #1
 905 004c 0192     		str	r2, [sp, #4]
 906 004e 039A     		ldr	r2, [sp, #12]
 907 0050 5201     		lsls	r2, r2, #5
 908 0052 D2B2     		uxtb	r2, r2
 909 0054 1A70     		strb	r2, [r3]
 910              		.loc 12 76 0
 911 0056 019B     		ldr	r3, [sp, #4]
 912 0058 5A1C     		adds	r2, r3, #1
 913 005a 0192     		str	r2, [sp, #4]
 914 005c 039A     		ldr	r2, [sp, #12]
 915 005e D210     		asrs	r2, r2, #3
 916 0060 D2B2     		uxtb	r2, r2
 917 0062 1A70     		strb	r2, [r3]
 918              		.loc 12 77 0
 919 0064 019B     		ldr	r3, [sp, #4]
 920 0066 5A1C     		adds	r2, r3, #1
 921 0068 0192     		str	r2, [sp, #4]
 922 006a 039A     		ldr	r2, [sp, #12]
 923 006c D212     		asrs	r2, r2, #11
 924 006e D2B2     		uxtb	r2, r2
 925 0070 1A70     		strb	r2, [r3]
 926              		.loc 12 78 0
 927 0072 019B     		ldr	r3, [sp, #4]
 928 0074 5A1C     		adds	r2, r3, #1
 929 0076 0192     		str	r2, [sp, #4]
 930 0078 059A     		ldr	r2, [sp, #20]
 931 007a 1201     		lsls	r2, r2, #4
 932 007c D1B2     		uxtb	r1, r2
 933 007e 039A     		ldr	r2, [sp, #12]
 934 0080 D214     		asrs	r2, r2, #19
 935 0082 D2B2     		uxtb	r2, r2
 936 0084 02F00F02 		and	r2, r2, #15
 937 0088 D2B2     		uxtb	r2, r2
 938 008a 0A43     		orrs	r2, r2, r1
 939 008c D2B2     		uxtb	r2, r2
 940 008e D2B2     		uxtb	r2, r2
 941 0090 1A70     		strb	r2, [r3]
 942              		.loc 12 79 0
 943 0092 019B     		ldr	r3, [sp, #4]
ARM GAS  /tmp/ccg61o9J.s 			page 18


 944 0094 5A1C     		adds	r2, r3, #1
 945 0096 0192     		str	r2, [sp, #4]
 946 0098 059A     		ldr	r2, [sp, #20]
 947 009a 1211     		asrs	r2, r2, #4
 948 009c D2B2     		uxtb	r2, r2
 949 009e 02F07F02 		and	r2, r2, #127
 950 00a2 D2B2     		uxtb	r2, r2
 951 00a4 1A70     		strb	r2, [r3]
 952              		.loc 12 82 0
 953 00a6 DDED007A 		flds	s15, [sp]
 954 00aa F5EEC07A 		fcmpezs	s15
 955 00ae F1EE10FA 		fmstat
 956 00b2 08D5     		bpl	.L50
 957              		.loc 12 84 0
 958 00b4 019B     		ldr	r3, [sp, #4]
 959 00b6 013B     		subs	r3, r3, #1
 960 00b8 019A     		ldr	r2, [sp, #4]
 961 00ba 013A     		subs	r2, r2, #1
 962 00bc 1278     		ldrb	r2, [r2]	@ zero_extendqisi2
 963 00be 62F07F02 		orn	r2, r2, #127
 964 00c2 D2B2     		uxtb	r2, r2
 965 00c4 1A70     		strb	r2, [r3]
 966              	.L50:
 967              		.loc 12 87 0
 968 00c6 0823     		movs	r3, #8
 969              	.LBE63:
 970              		.loc 12 88 0
 971 00c8 1846     		mov	r0, r3
 972 00ca 06B0     		add	sp, sp, #24
 973              		@ sp needed
 974 00cc 7047     		bx	lr
 975              		.cfi_endproc
 976              	.LFE596:
 977              		.size	_ZN3ros3Msg19serializeAvrFloat64EPhf, .-_ZN3ros3Msg19serializeAvrFloat64EPhf
 978 00ce 00BF     		.section	.text._ZN3ros3Msg21deserializeAvrFloat64EPKhPf,"axG",%progbits,_ZN3ros3Msg21deserializeAv
 979              		.align	2
 980              		.p2align 4,,15
 981              		.weak	_ZN3ros3Msg21deserializeAvrFloat64EPKhPf
 982              		.thumb
 983              		.thumb_func
 984              		.type	_ZN3ros3Msg21deserializeAvrFloat64EPKhPf, %function
 985              	_ZN3ros3Msg21deserializeAvrFloat64EPKhPf:
 986              	.LFB597:
 987              		.loc 12 100 0
 988              		.cfi_startproc
 989              		@ args = 0, pretend = 0, frame = 16
 990              		@ frame_needed = 0, uses_anonymous_args = 0
 991              		@ link register save eliminated.
 992 0000 84B0     		sub	sp, sp, #16
 993              		.cfi_def_cfa_offset 16
 994 0002 0190     		str	r0, [sp, #4]
 995 0004 0091     		str	r1, [sp]
 996              	.LBB64:
 997              		.loc 12 102 0
 998 0006 009B     		ldr	r3, [sp]
 999 0008 0393     		str	r3, [sp, #12]
 1000              		.loc 12 103 0
ARM GAS  /tmp/ccg61o9J.s 			page 19


 1001 000a 019B     		ldr	r3, [sp, #4]
 1002 000c 0333     		adds	r3, r3, #3
 1003 000e 0193     		str	r3, [sp, #4]
 1004              		.loc 12 106 0
 1005 0010 019B     		ldr	r3, [sp, #4]
 1006 0012 5A1C     		adds	r2, r3, #1
 1007 0014 0192     		str	r2, [sp, #4]
 1008 0016 1B78     		ldrb	r3, [r3]	@ zero_extendqisi2
 1009 0018 5B09     		lsrs	r3, r3, #5
 1010 001a DBB2     		uxtb	r3, r3
 1011 001c 1A46     		mov	r2, r3
 1012 001e 039B     		ldr	r3, [sp, #12]
 1013 0020 1A60     		str	r2, [r3]
 1014              		.loc 12 107 0
 1015 0022 019B     		ldr	r3, [sp, #4]
 1016 0024 5A1C     		adds	r2, r3, #1
 1017 0026 0192     		str	r2, [sp, #4]
 1018 0028 1B78     		ldrb	r3, [r3]	@ zero_extendqisi2
 1019 002a DB00     		lsls	r3, r3, #3
 1020 002c 039A     		ldr	r2, [sp, #12]
 1021 002e 1268     		ldr	r2, [r2]
 1022 0030 1A43     		orrs	r2, r2, r3
 1023 0032 039B     		ldr	r3, [sp, #12]
 1024 0034 1A60     		str	r2, [r3]
 1025              		.loc 12 108 0
 1026 0036 019B     		ldr	r3, [sp, #4]
 1027 0038 5A1C     		adds	r2, r3, #1
 1028 003a 0192     		str	r2, [sp, #4]
 1029 003c 1B78     		ldrb	r3, [r3]	@ zero_extendqisi2
 1030 003e DB02     		lsls	r3, r3, #11
 1031 0040 039A     		ldr	r2, [sp, #12]
 1032 0042 1268     		ldr	r2, [r2]
 1033 0044 1A43     		orrs	r2, r2, r3
 1034 0046 039B     		ldr	r3, [sp, #12]
 1035 0048 1A60     		str	r2, [r3]
 1036              		.loc 12 109 0
 1037 004a 039B     		ldr	r3, [sp, #12]
 1038 004c 1A68     		ldr	r2, [r3]
 1039 004e 019B     		ldr	r3, [sp, #4]
 1040 0050 1B78     		ldrb	r3, [r3]	@ zero_extendqisi2
 1041 0052 03F00F03 		and	r3, r3, #15
 1042 0056 DB04     		lsls	r3, r3, #19
 1043 0058 1A43     		orrs	r2, r2, r3
 1044 005a 039B     		ldr	r3, [sp, #12]
 1045 005c 1A60     		str	r2, [r3]
 1046              		.loc 12 112 0
 1047 005e 019B     		ldr	r3, [sp, #4]
 1048 0060 5A1C     		adds	r2, r3, #1
 1049 0062 0192     		str	r2, [sp, #4]
 1050 0064 1B78     		ldrb	r3, [r3]	@ zero_extendqisi2
 1051 0066 1B09     		lsrs	r3, r3, #4
 1052 0068 DBB2     		uxtb	r3, r3
 1053 006a 0293     		str	r3, [sp, #8]
 1054              		.loc 12 113 0
 1055 006c 019B     		ldr	r3, [sp, #4]
 1056 006e 1B78     		ldrb	r3, [r3]	@ zero_extendqisi2
 1057 0070 03F07F03 		and	r3, r3, #127
ARM GAS  /tmp/ccg61o9J.s 			page 20


 1058 0074 1B01     		lsls	r3, r3, #4
 1059 0076 029A     		ldr	r2, [sp, #8]
 1060 0078 1343     		orrs	r3, r3, r2
 1061 007a 0293     		str	r3, [sp, #8]
 1062              		.loc 12 114 0
 1063 007c 029B     		ldr	r3, [sp, #8]
 1064 007e 002B     		cmp	r3, #0
 1065 0080 08D0     		beq	.L55
 1066              		.loc 12 116 0
 1067 0082 039B     		ldr	r3, [sp, #12]
 1068 0084 1A68     		ldr	r2, [r3]
 1069 0086 029B     		ldr	r3, [sp, #8]
 1070 0088 A3F56073 		sub	r3, r3, #896
 1071 008c DB05     		lsls	r3, r3, #23
 1072 008e 1A43     		orrs	r2, r2, r3
 1073 0090 039B     		ldr	r3, [sp, #12]
 1074 0092 1A60     		str	r2, [r3]
 1075              	.L55:
 1076              		.loc 12 120 0
 1077 0094 019B     		ldr	r3, [sp, #4]
 1078 0096 5A1C     		adds	r2, r3, #1
 1079 0098 0192     		str	r2, [sp, #4]
 1080 009a 1B78     		ldrb	r3, [r3]	@ zero_extendqisi2
 1081 009c 03F08003 		and	r3, r3, #128
 1082 00a0 1B06     		lsls	r3, r3, #24
 1083 00a2 039A     		ldr	r2, [sp, #12]
 1084 00a4 1268     		ldr	r2, [r2]
 1085 00a6 1A43     		orrs	r2, r2, r3
 1086 00a8 039B     		ldr	r3, [sp, #12]
 1087 00aa 1A60     		str	r2, [r3]
 1088              		.loc 12 122 0
 1089 00ac 0823     		movs	r3, #8
 1090              	.LBE64:
 1091              		.loc 12 123 0
 1092 00ae 1846     		mov	r0, r3
 1093 00b0 04B0     		add	sp, sp, #16
 1094              		@ sp needed
 1095 00b2 7047     		bx	lr
 1096              		.cfi_endproc
 1097              	.LFE597:
 1098              		.size	_ZN3ros3Msg21deserializeAvrFloat64EPKhPf, .-_ZN3ros3Msg21deserializeAvrFloat64EPKhPf
 1099 00b4 AFF30080 		.section	.text._ZN3ros4TimeC2Ev,"axG",%progbits,_ZN3ros4TimeC5Ev,comdat
 1099      AFF30080 
 1099      AFF30080 
 1100              		.align	2
 1101              		.p2align 4,,15
 1102              		.weak	_ZN3ros4TimeC2Ev
 1103              		.thumb
 1104              		.thumb_func
 1105              		.type	_ZN3ros4TimeC2Ev, %function
 1106              	_ZN3ros4TimeC2Ev:
 1107              	.LFB607:
 1108              		.file 13 "ros_lib/ros/time.h"
 1109              		.loc 13 50 0
 1110              		.cfi_startproc
 1111              		@ args = 0, pretend = 0, frame = 8
 1112              		@ frame_needed = 0, uses_anonymous_args = 0
ARM GAS  /tmp/ccg61o9J.s 			page 21


 1113              		@ link register save eliminated.
 1114 0000 82B0     		sub	sp, sp, #8
 1115              		.cfi_def_cfa_offset 8
 1116 0002 0190     		str	r0, [sp, #4]
 1117              	.LBB65:
 1118              		.loc 13 50 0
 1119 0004 019B     		ldr	r3, [sp, #4]
 1120 0006 0022     		movs	r2, #0
 1121 0008 1A60     		str	r2, [r3]
 1122 000a 019B     		ldr	r3, [sp, #4]
 1123 000c 0022     		movs	r2, #0
 1124 000e 5A60     		str	r2, [r3, #4]
 1125              	.LBE65:
 1126 0010 019B     		ldr	r3, [sp, #4]
 1127 0012 1846     		mov	r0, r3
 1128 0014 02B0     		add	sp, sp, #8
 1129              		@ sp needed
 1130 0016 7047     		bx	lr
 1131              		.cfi_endproc
 1132              	.LFE607:
 1133              		.size	_ZN3ros4TimeC2Ev, .-_ZN3ros4TimeC2Ev
 1134              		.weak	_ZN3ros4TimeC1Ev
 1135              		.thumb_set _ZN3ros4TimeC1Ev,_ZN3ros4TimeC2Ev
 1136 0018 AFF30080 		.section	.text._ZNK8std_msgs4Time9serializeEPh,"axG",%progbits,_ZNK8std_msgs4Time9serializeEPh,com
 1136      AFF30080 
 1137              		.align	2
 1138              		.p2align 4,,15
 1139              		.weak	_ZNK8std_msgs4Time9serializeEPh
 1140              		.thumb
 1141              		.thumb_func
 1142              		.type	_ZNK8std_msgs4Time9serializeEPh, %function
 1143              	_ZNK8std_msgs4Time9serializeEPh:
 1144              	.LFB615:
 1145              		.file 14 "ros_lib/std_msgs/Time.h"
 1146              		.loc 14 18 0
 1147              		.cfi_startproc
 1148              		@ args = 0, pretend = 0, frame = 16
 1149              		@ frame_needed = 0, uses_anonymous_args = 0
 1150              		@ link register save eliminated.
 1151 0000 84B0     		sub	sp, sp, #16
 1152              		.cfi_def_cfa_offset 16
 1153 0002 0190     		str	r0, [sp, #4]
 1154 0004 0091     		str	r1, [sp]
 1155              	.LBB66:
 1156              		.loc 14 20 0
 1157 0006 0023     		movs	r3, #0
 1158 0008 0393     		str	r3, [sp, #12]
 1159              		.loc 14 21 0
 1160 000a 039B     		ldr	r3, [sp, #12]
 1161 000c 009A     		ldr	r2, [sp]
 1162 000e 1344     		add	r3, r3, r2
 1163 0010 019A     		ldr	r2, [sp, #4]
 1164 0012 5268     		ldr	r2, [r2, #4]
 1165 0014 D2B2     		uxtb	r2, r2
 1166 0016 1A70     		strb	r2, [r3]
 1167              		.loc 14 22 0
 1168 0018 039B     		ldr	r3, [sp, #12]
ARM GAS  /tmp/ccg61o9J.s 			page 22


 1169 001a 0133     		adds	r3, r3, #1
 1170 001c 009A     		ldr	r2, [sp]
 1171 001e 1344     		add	r3, r3, r2
 1172 0020 019A     		ldr	r2, [sp, #4]
 1173 0022 5268     		ldr	r2, [r2, #4]
 1174 0024 120A     		lsrs	r2, r2, #8
 1175 0026 D2B2     		uxtb	r2, r2
 1176 0028 1A70     		strb	r2, [r3]
 1177              		.loc 14 23 0
 1178 002a 039B     		ldr	r3, [sp, #12]
 1179 002c 0233     		adds	r3, r3, #2
 1180 002e 009A     		ldr	r2, [sp]
 1181 0030 1344     		add	r3, r3, r2
 1182 0032 019A     		ldr	r2, [sp, #4]
 1183 0034 5268     		ldr	r2, [r2, #4]
 1184 0036 120C     		lsrs	r2, r2, #16
 1185 0038 D2B2     		uxtb	r2, r2
 1186 003a 1A70     		strb	r2, [r3]
 1187              		.loc 14 24 0
 1188 003c 039B     		ldr	r3, [sp, #12]
 1189 003e 0333     		adds	r3, r3, #3
 1190 0040 009A     		ldr	r2, [sp]
 1191 0042 1344     		add	r3, r3, r2
 1192 0044 019A     		ldr	r2, [sp, #4]
 1193 0046 5268     		ldr	r2, [r2, #4]
 1194 0048 120E     		lsrs	r2, r2, #24
 1195 004a D2B2     		uxtb	r2, r2
 1196 004c 1A70     		strb	r2, [r3]
 1197              		.loc 14 25 0
 1198 004e 039B     		ldr	r3, [sp, #12]
 1199 0050 0433     		adds	r3, r3, #4
 1200 0052 0393     		str	r3, [sp, #12]
 1201              		.loc 14 26 0
 1202 0054 039B     		ldr	r3, [sp, #12]
 1203 0056 009A     		ldr	r2, [sp]
 1204 0058 1344     		add	r3, r3, r2
 1205 005a 019A     		ldr	r2, [sp, #4]
 1206 005c 9268     		ldr	r2, [r2, #8]
 1207 005e D2B2     		uxtb	r2, r2
 1208 0060 1A70     		strb	r2, [r3]
 1209              		.loc 14 27 0
 1210 0062 039B     		ldr	r3, [sp, #12]
 1211 0064 0133     		adds	r3, r3, #1
 1212 0066 009A     		ldr	r2, [sp]
 1213 0068 1344     		add	r3, r3, r2
 1214 006a 019A     		ldr	r2, [sp, #4]
 1215 006c 9268     		ldr	r2, [r2, #8]
 1216 006e 120A     		lsrs	r2, r2, #8
 1217 0070 D2B2     		uxtb	r2, r2
 1218 0072 1A70     		strb	r2, [r3]
 1219              		.loc 14 28 0
 1220 0074 039B     		ldr	r3, [sp, #12]
 1221 0076 0233     		adds	r3, r3, #2
 1222 0078 009A     		ldr	r2, [sp]
 1223 007a 1344     		add	r3, r3, r2
 1224 007c 019A     		ldr	r2, [sp, #4]
 1225 007e 9268     		ldr	r2, [r2, #8]
ARM GAS  /tmp/ccg61o9J.s 			page 23


 1226 0080 120C     		lsrs	r2, r2, #16
 1227 0082 D2B2     		uxtb	r2, r2
 1228 0084 1A70     		strb	r2, [r3]
 1229              		.loc 14 29 0
 1230 0086 039B     		ldr	r3, [sp, #12]
 1231 0088 0333     		adds	r3, r3, #3
 1232 008a 009A     		ldr	r2, [sp]
 1233 008c 1344     		add	r3, r3, r2
 1234 008e 019A     		ldr	r2, [sp, #4]
 1235 0090 9268     		ldr	r2, [r2, #8]
 1236 0092 120E     		lsrs	r2, r2, #24
 1237 0094 D2B2     		uxtb	r2, r2
 1238 0096 1A70     		strb	r2, [r3]
 1239              		.loc 14 30 0
 1240 0098 039B     		ldr	r3, [sp, #12]
 1241 009a 0433     		adds	r3, r3, #4
 1242 009c 0393     		str	r3, [sp, #12]
 1243              		.loc 14 31 0
 1244 009e 039B     		ldr	r3, [sp, #12]
 1245              	.LBE66:
 1246              		.loc 14 32 0
 1247 00a0 1846     		mov	r0, r3
 1248 00a2 04B0     		add	sp, sp, #16
 1249              		@ sp needed
 1250 00a4 7047     		bx	lr
 1251              		.cfi_endproc
 1252              	.LFE615:
 1253              		.size	_ZNK8std_msgs4Time9serializeEPh, .-_ZNK8std_msgs4Time9serializeEPh
 1254 00a6 00BFAFF3 		.section	.text._ZN8std_msgs4Time11deserializeEPh,"axG",%progbits,_ZN8std_msgs4Time11deserializeEPh
 1254      0080AFF3 
 1254      0080
 1255              		.align	2
 1256              		.p2align 4,,15
 1257              		.weak	_ZN8std_msgs4Time11deserializeEPh
 1258              		.thumb
 1259              		.thumb_func
 1260              		.type	_ZN8std_msgs4Time11deserializeEPh, %function
 1261              	_ZN8std_msgs4Time11deserializeEPh:
 1262              	.LFB616:
 1263              		.loc 14 34 0
 1264              		.cfi_startproc
 1265              		@ args = 0, pretend = 0, frame = 16
 1266              		@ frame_needed = 0, uses_anonymous_args = 0
 1267              		@ link register save eliminated.
 1268 0000 84B0     		sub	sp, sp, #16
 1269              		.cfi_def_cfa_offset 16
 1270 0002 0190     		str	r0, [sp, #4]
 1271 0004 0091     		str	r1, [sp]
 1272              	.LBB67:
 1273              		.loc 14 36 0
 1274 0006 0023     		movs	r3, #0
 1275 0008 0393     		str	r3, [sp, #12]
 1276              		.loc 14 37 0
 1277 000a 039B     		ldr	r3, [sp, #12]
 1278 000c 009A     		ldr	r2, [sp]
 1279 000e 1344     		add	r3, r3, r2
 1280 0010 1B78     		ldrb	r3, [r3]	@ zero_extendqisi2
ARM GAS  /tmp/ccg61o9J.s 			page 24


 1281 0012 1A46     		mov	r2, r3
 1282 0014 019B     		ldr	r3, [sp, #4]
 1283 0016 5A60     		str	r2, [r3, #4]
 1284              		.loc 14 38 0
 1285 0018 019B     		ldr	r3, [sp, #4]
 1286 001a 5A68     		ldr	r2, [r3, #4]
 1287 001c 039B     		ldr	r3, [sp, #12]
 1288 001e 0133     		adds	r3, r3, #1
 1289 0020 0099     		ldr	r1, [sp]
 1290 0022 0B44     		add	r3, r3, r1
 1291 0024 1B78     		ldrb	r3, [r3]	@ zero_extendqisi2
 1292 0026 1B02     		lsls	r3, r3, #8
 1293 0028 1A43     		orrs	r2, r2, r3
 1294 002a 019B     		ldr	r3, [sp, #4]
 1295 002c 5A60     		str	r2, [r3, #4]
 1296              		.loc 14 39 0
 1297 002e 019B     		ldr	r3, [sp, #4]
 1298 0030 5A68     		ldr	r2, [r3, #4]
 1299 0032 039B     		ldr	r3, [sp, #12]
 1300 0034 0233     		adds	r3, r3, #2
 1301 0036 0099     		ldr	r1, [sp]
 1302 0038 0B44     		add	r3, r3, r1
 1303 003a 1B78     		ldrb	r3, [r3]	@ zero_extendqisi2
 1304 003c 1B04     		lsls	r3, r3, #16
 1305 003e 1A43     		orrs	r2, r2, r3
 1306 0040 019B     		ldr	r3, [sp, #4]
 1307 0042 5A60     		str	r2, [r3, #4]
 1308              		.loc 14 40 0
 1309 0044 019B     		ldr	r3, [sp, #4]
 1310 0046 5A68     		ldr	r2, [r3, #4]
 1311 0048 039B     		ldr	r3, [sp, #12]
 1312 004a 0333     		adds	r3, r3, #3
 1313 004c 0099     		ldr	r1, [sp]
 1314 004e 0B44     		add	r3, r3, r1
 1315 0050 1B78     		ldrb	r3, [r3]	@ zero_extendqisi2
 1316 0052 1B06     		lsls	r3, r3, #24
 1317 0054 1A43     		orrs	r2, r2, r3
 1318 0056 019B     		ldr	r3, [sp, #4]
 1319 0058 5A60     		str	r2, [r3, #4]
 1320              		.loc 14 41 0
 1321 005a 039B     		ldr	r3, [sp, #12]
 1322 005c 0433     		adds	r3, r3, #4
 1323 005e 0393     		str	r3, [sp, #12]
 1324              		.loc 14 42 0
 1325 0060 039B     		ldr	r3, [sp, #12]
 1326 0062 009A     		ldr	r2, [sp]
 1327 0064 1344     		add	r3, r3, r2
 1328 0066 1B78     		ldrb	r3, [r3]	@ zero_extendqisi2
 1329 0068 1A46     		mov	r2, r3
 1330 006a 019B     		ldr	r3, [sp, #4]
 1331 006c 9A60     		str	r2, [r3, #8]
 1332              		.loc 14 43 0
 1333 006e 019B     		ldr	r3, [sp, #4]
 1334 0070 9A68     		ldr	r2, [r3, #8]
 1335 0072 039B     		ldr	r3, [sp, #12]
 1336 0074 0133     		adds	r3, r3, #1
 1337 0076 0099     		ldr	r1, [sp]
ARM GAS  /tmp/ccg61o9J.s 			page 25


 1338 0078 0B44     		add	r3, r3, r1
 1339 007a 1B78     		ldrb	r3, [r3]	@ zero_extendqisi2
 1340 007c 1B02     		lsls	r3, r3, #8
 1341 007e 1A43     		orrs	r2, r2, r3
 1342 0080 019B     		ldr	r3, [sp, #4]
 1343 0082 9A60     		str	r2, [r3, #8]
 1344              		.loc 14 44 0
 1345 0084 019B     		ldr	r3, [sp, #4]
 1346 0086 9A68     		ldr	r2, [r3, #8]
 1347 0088 039B     		ldr	r3, [sp, #12]
 1348 008a 0233     		adds	r3, r3, #2
 1349 008c 0099     		ldr	r1, [sp]
 1350 008e 0B44     		add	r3, r3, r1
 1351 0090 1B78     		ldrb	r3, [r3]	@ zero_extendqisi2
 1352 0092 1B04     		lsls	r3, r3, #16
 1353 0094 1A43     		orrs	r2, r2, r3
 1354 0096 019B     		ldr	r3, [sp, #4]
 1355 0098 9A60     		str	r2, [r3, #8]
 1356              		.loc 14 45 0
 1357 009a 019B     		ldr	r3, [sp, #4]
 1358 009c 9A68     		ldr	r2, [r3, #8]
 1359 009e 039B     		ldr	r3, [sp, #12]
 1360 00a0 0333     		adds	r3, r3, #3
 1361 00a2 0099     		ldr	r1, [sp]
 1362 00a4 0B44     		add	r3, r3, r1
 1363 00a6 1B78     		ldrb	r3, [r3]	@ zero_extendqisi2
 1364 00a8 1B06     		lsls	r3, r3, #24
 1365 00aa 1A43     		orrs	r2, r2, r3
 1366 00ac 019B     		ldr	r3, [sp, #4]
 1367 00ae 9A60     		str	r2, [r3, #8]
 1368              		.loc 14 46 0
 1369 00b0 039B     		ldr	r3, [sp, #12]
 1370 00b2 0433     		adds	r3, r3, #4
 1371 00b4 0393     		str	r3, [sp, #12]
 1372              		.loc 14 47 0
 1373 00b6 039B     		ldr	r3, [sp, #12]
 1374              	.LBE67:
 1375              		.loc 14 48 0
 1376 00b8 1846     		mov	r0, r3
 1377 00ba 04B0     		add	sp, sp, #16
 1378              		@ sp needed
 1379 00bc 7047     		bx	lr
 1380              		.cfi_endproc
 1381              	.LFE616:
 1382              		.size	_ZN8std_msgs4Time11deserializeEPh, .-_ZN8std_msgs4Time11deserializeEPh
 1383 00be 00BF     		.section	.rodata
 1384 000d 000000   		.align	2
 1385              	.LC1:
 1386 0010 7374645F 		.ascii	"std_msgs/Time\000"
 1386      6D736773 
 1386      2F54696D 
 1386      6500
 1387              		.section	.text._ZN8std_msgs4Time7getTypeEv,"axG",%progbits,_ZN8std_msgs4Time7getTypeEv,comdat
 1388              		.align	2
 1389              		.p2align 4,,15
 1390              		.weak	_ZN8std_msgs4Time7getTypeEv
 1391              		.thumb
ARM GAS  /tmp/ccg61o9J.s 			page 26


 1392              		.thumb_func
 1393              		.type	_ZN8std_msgs4Time7getTypeEv, %function
 1394              	_ZN8std_msgs4Time7getTypeEv:
 1395              	.LFB617:
 1396              		.loc 14 50 0
 1397              		.cfi_startproc
 1398              		@ args = 0, pretend = 0, frame = 8
 1399              		@ frame_needed = 0, uses_anonymous_args = 0
 1400              		@ link register save eliminated.
 1401 0000 82B0     		sub	sp, sp, #8
 1402              		.cfi_def_cfa_offset 8
 1403 0002 0190     		str	r0, [sp, #4]
 1404              		.loc 14 50 0
 1405 0004 014B     		ldr	r3, .L66
 1406 0006 1846     		mov	r0, r3
 1407 0008 02B0     		add	sp, sp, #8
 1408              		@ sp needed
 1409 000a 7047     		bx	lr
 1410              	.L67:
 1411              		.align	2
 1412              	.L66:
 1413 000c 10000000 		.word	.LC1
 1414              		.cfi_endproc
 1415              	.LFE617:
 1416              		.size	_ZN8std_msgs4Time7getTypeEv, .-_ZN8std_msgs4Time7getTypeEv
 1417              		.section	.rodata
 1418 001e 0000     		.align	2
 1419              	.LC2:
 1420 0020 63643731 		.ascii	"cd7166c74c552c311fbcc2fe5a7bc289\000"
 1420      36366337 
 1420      34633535 
 1420      32633331 
 1420      31666263 
 1421              		.section	.text._ZN8std_msgs4Time6getMD5Ev,"axG",%progbits,_ZN8std_msgs4Time6getMD5Ev,comdat
 1422              		.align	2
 1423              		.p2align 4,,15
 1424              		.weak	_ZN8std_msgs4Time6getMD5Ev
 1425              		.thumb
 1426              		.thumb_func
 1427              		.type	_ZN8std_msgs4Time6getMD5Ev, %function
 1428              	_ZN8std_msgs4Time6getMD5Ev:
 1429              	.LFB618:
 1430              		.loc 14 51 0
 1431              		.cfi_startproc
 1432              		@ args = 0, pretend = 0, frame = 8
 1433              		@ frame_needed = 0, uses_anonymous_args = 0
 1434              		@ link register save eliminated.
 1435 0000 82B0     		sub	sp, sp, #8
 1436              		.cfi_def_cfa_offset 8
 1437 0002 0190     		str	r0, [sp, #4]
 1438              		.loc 14 51 0
 1439 0004 014B     		ldr	r3, .L70
 1440 0006 1846     		mov	r0, r3
 1441 0008 02B0     		add	sp, sp, #8
 1442              		@ sp needed
 1443 000a 7047     		bx	lr
 1444              	.L71:
ARM GAS  /tmp/ccg61o9J.s 			page 27


 1445              		.align	2
 1446              	.L70:
 1447 000c 20000000 		.word	.LC2
 1448              		.cfi_endproc
 1449              	.LFE618:
 1450              		.size	_ZN8std_msgs4Time6getMD5Ev, .-_ZN8std_msgs4Time6getMD5Ev
 1451              		.section	.text._ZNK14rosserial_msgs9TopicInfo9serializeEPh,"axG",%progbits,_ZNK14rosserial_msgs9To
 1452              		.align	2
 1453              		.p2align 4,,15
 1454              		.weak	_ZNK14rosserial_msgs9TopicInfo9serializeEPh
 1455              		.thumb
 1456              		.thumb_func
 1457              		.type	_ZNK14rosserial_msgs9TopicInfo9serializeEPh, %function
 1458              	_ZNK14rosserial_msgs9TopicInfo9serializeEPh:
 1459              	.LFB619:
 1460              		.file 15 "ros_lib/rosserial_msgs/TopicInfo.h"
 1461              		.loc 15 29 0
 1462              		.cfi_startproc
 1463              		@ args = 0, pretend = 0, frame = 32
 1464              		@ frame_needed = 0, uses_anonymous_args = 0
 1465 0000 00B5     		push	{lr}
 1466              		.cfi_def_cfa_offset 4
 1467              		.cfi_offset 14, -4
 1468 0002 89B0     		sub	sp, sp, #36
 1469              		.cfi_def_cfa_offset 40
 1470 0004 0190     		str	r0, [sp, #4]
 1471 0006 0091     		str	r1, [sp]
 1472              	.LBB68:
 1473              		.loc 15 31 0
 1474 0008 0023     		movs	r3, #0
 1475 000a 0793     		str	r3, [sp, #28]
 1476              		.loc 15 32 0
 1477 000c 079B     		ldr	r3, [sp, #28]
 1478 000e 009A     		ldr	r2, [sp]
 1479 0010 1344     		add	r3, r3, r2
 1480 0012 019A     		ldr	r2, [sp, #4]
 1481 0014 9288     		ldrh	r2, [r2, #4]
 1482 0016 D2B2     		uxtb	r2, r2
 1483 0018 1A70     		strb	r2, [r3]
 1484              		.loc 15 33 0
 1485 001a 079B     		ldr	r3, [sp, #28]
 1486 001c 0133     		adds	r3, r3, #1
 1487 001e 009A     		ldr	r2, [sp]
 1488 0020 1344     		add	r3, r3, r2
 1489 0022 019A     		ldr	r2, [sp, #4]
 1490 0024 9288     		ldrh	r2, [r2, #4]
 1491 0026 120A     		lsrs	r2, r2, #8
 1492 0028 92B2     		uxth	r2, r2
 1493 002a D2B2     		uxtb	r2, r2
 1494 002c 1A70     		strb	r2, [r3]
 1495              		.loc 15 34 0
 1496 002e 079B     		ldr	r3, [sp, #28]
 1497 0030 0233     		adds	r3, r3, #2
 1498 0032 0793     		str	r3, [sp, #28]
 1499              		.loc 15 35 0
 1500 0034 019B     		ldr	r3, [sp, #4]
 1501 0036 9B68     		ldr	r3, [r3, #8]
ARM GAS  /tmp/ccg61o9J.s 			page 28


 1502 0038 1846     		mov	r0, r3
 1503 003a FFF7FEFF 		bl	strlen
 1504 003e 0346     		mov	r3, r0
 1505 0040 0693     		str	r3, [sp, #24]
 1506              		.loc 15 36 0
 1507 0042 079B     		ldr	r3, [sp, #28]
 1508 0044 009A     		ldr	r2, [sp]
 1509 0046 1A44     		add	r2, r2, r3
 1510 0048 06AB     		add	r3, sp, #24
 1511 004a 1046     		mov	r0, r2
 1512 004c 1946     		mov	r1, r3
 1513 004e 0422     		movs	r2, #4
 1514 0050 FFF7FEFF 		bl	memcpy
 1515              		.loc 15 37 0
 1516 0054 079B     		ldr	r3, [sp, #28]
 1517 0056 0433     		adds	r3, r3, #4
 1518 0058 0793     		str	r3, [sp, #28]
 1519              		.loc 15 38 0
 1520 005a 079B     		ldr	r3, [sp, #28]
 1521 005c 009A     		ldr	r2, [sp]
 1522 005e D118     		adds	r1, r2, r3
 1523 0060 019B     		ldr	r3, [sp, #4]
 1524 0062 9A68     		ldr	r2, [r3, #8]
 1525 0064 069B     		ldr	r3, [sp, #24]
 1526 0066 0846     		mov	r0, r1
 1527 0068 1146     		mov	r1, r2
 1528 006a 1A46     		mov	r2, r3
 1529 006c FFF7FEFF 		bl	memcpy
 1530              		.loc 15 39 0
 1531 0070 079A     		ldr	r2, [sp, #28]
 1532 0072 069B     		ldr	r3, [sp, #24]
 1533 0074 1344     		add	r3, r3, r2
 1534 0076 0793     		str	r3, [sp, #28]
 1535              		.loc 15 40 0
 1536 0078 019B     		ldr	r3, [sp, #4]
 1537 007a DB68     		ldr	r3, [r3, #12]
 1538 007c 1846     		mov	r0, r3
 1539 007e FFF7FEFF 		bl	strlen
 1540 0082 0346     		mov	r3, r0
 1541 0084 0593     		str	r3, [sp, #20]
 1542              		.loc 15 41 0
 1543 0086 079B     		ldr	r3, [sp, #28]
 1544 0088 009A     		ldr	r2, [sp]
 1545 008a 1A44     		add	r2, r2, r3
 1546 008c 05AB     		add	r3, sp, #20
 1547 008e 1046     		mov	r0, r2
 1548 0090 1946     		mov	r1, r3
 1549 0092 0422     		movs	r2, #4
 1550 0094 FFF7FEFF 		bl	memcpy
 1551              		.loc 15 42 0
 1552 0098 079B     		ldr	r3, [sp, #28]
 1553 009a 0433     		adds	r3, r3, #4
 1554 009c 0793     		str	r3, [sp, #28]
 1555              		.loc 15 43 0
 1556 009e 079B     		ldr	r3, [sp, #28]
 1557 00a0 009A     		ldr	r2, [sp]
 1558 00a2 D118     		adds	r1, r2, r3
ARM GAS  /tmp/ccg61o9J.s 			page 29


 1559 00a4 019B     		ldr	r3, [sp, #4]
 1560 00a6 DA68     		ldr	r2, [r3, #12]
 1561 00a8 059B     		ldr	r3, [sp, #20]
 1562 00aa 0846     		mov	r0, r1
 1563 00ac 1146     		mov	r1, r2
 1564 00ae 1A46     		mov	r2, r3
 1565 00b0 FFF7FEFF 		bl	memcpy
 1566              		.loc 15 44 0
 1567 00b4 079A     		ldr	r2, [sp, #28]
 1568 00b6 059B     		ldr	r3, [sp, #20]
 1569 00b8 1344     		add	r3, r3, r2
 1570 00ba 0793     		str	r3, [sp, #28]
 1571              		.loc 15 45 0
 1572 00bc 019B     		ldr	r3, [sp, #4]
 1573 00be 1B69     		ldr	r3, [r3, #16]
 1574 00c0 1846     		mov	r0, r3
 1575 00c2 FFF7FEFF 		bl	strlen
 1576 00c6 0346     		mov	r3, r0
 1577 00c8 0493     		str	r3, [sp, #16]
 1578              		.loc 15 46 0
 1579 00ca 079B     		ldr	r3, [sp, #28]
 1580 00cc 009A     		ldr	r2, [sp]
 1581 00ce 1A44     		add	r2, r2, r3
 1582 00d0 04AB     		add	r3, sp, #16
 1583 00d2 1046     		mov	r0, r2
 1584 00d4 1946     		mov	r1, r3
 1585 00d6 0422     		movs	r2, #4
 1586 00d8 FFF7FEFF 		bl	memcpy
 1587              		.loc 15 47 0
 1588 00dc 079B     		ldr	r3, [sp, #28]
 1589 00de 0433     		adds	r3, r3, #4
 1590 00e0 0793     		str	r3, [sp, #28]
 1591              		.loc 15 48 0
 1592 00e2 079B     		ldr	r3, [sp, #28]
 1593 00e4 009A     		ldr	r2, [sp]
 1594 00e6 D118     		adds	r1, r2, r3
 1595 00e8 019B     		ldr	r3, [sp, #4]
 1596 00ea 1A69     		ldr	r2, [r3, #16]
 1597 00ec 049B     		ldr	r3, [sp, #16]
 1598 00ee 0846     		mov	r0, r1
 1599 00f0 1146     		mov	r1, r2
 1600 00f2 1A46     		mov	r2, r3
 1601 00f4 FFF7FEFF 		bl	memcpy
 1602              		.loc 15 49 0
 1603 00f8 079A     		ldr	r2, [sp, #28]
 1604 00fa 049B     		ldr	r3, [sp, #16]
 1605 00fc 1344     		add	r3, r3, r2
 1606 00fe 0793     		str	r3, [sp, #28]
 1607              		.loc 15 54 0
 1608 0100 019B     		ldr	r3, [sp, #4]
 1609 0102 5B69     		ldr	r3, [r3, #20]
 1610 0104 0393     		str	r3, [sp, #12]
 1611              		.loc 15 55 0
 1612 0106 079B     		ldr	r3, [sp, #28]
 1613 0108 009A     		ldr	r2, [sp]
 1614 010a 1344     		add	r3, r3, r2
 1615 010c 039A     		ldr	r2, [sp, #12]
ARM GAS  /tmp/ccg61o9J.s 			page 30


 1616 010e D2B2     		uxtb	r2, r2
 1617 0110 1A70     		strb	r2, [r3]
 1618              		.loc 15 56 0
 1619 0112 079B     		ldr	r3, [sp, #28]
 1620 0114 0133     		adds	r3, r3, #1
 1621 0116 009A     		ldr	r2, [sp]
 1622 0118 1344     		add	r3, r3, r2
 1623 011a 039A     		ldr	r2, [sp, #12]
 1624 011c 120A     		lsrs	r2, r2, #8
 1625 011e D2B2     		uxtb	r2, r2
 1626 0120 1A70     		strb	r2, [r3]
 1627              		.loc 15 57 0
 1628 0122 079B     		ldr	r3, [sp, #28]
 1629 0124 0233     		adds	r3, r3, #2
 1630 0126 009A     		ldr	r2, [sp]
 1631 0128 1344     		add	r3, r3, r2
 1632 012a 039A     		ldr	r2, [sp, #12]
 1633 012c 120C     		lsrs	r2, r2, #16
 1634 012e D2B2     		uxtb	r2, r2
 1635 0130 1A70     		strb	r2, [r3]
 1636              		.loc 15 58 0
 1637 0132 079B     		ldr	r3, [sp, #28]
 1638 0134 0333     		adds	r3, r3, #3
 1639 0136 009A     		ldr	r2, [sp]
 1640 0138 1344     		add	r3, r3, r2
 1641 013a 039A     		ldr	r2, [sp, #12]
 1642 013c 120E     		lsrs	r2, r2, #24
 1643 013e D2B2     		uxtb	r2, r2
 1644 0140 1A70     		strb	r2, [r3]
 1645              		.loc 15 59 0
 1646 0142 079B     		ldr	r3, [sp, #28]
 1647 0144 0433     		adds	r3, r3, #4
 1648 0146 0793     		str	r3, [sp, #28]
 1649              		.loc 15 60 0
 1650 0148 079B     		ldr	r3, [sp, #28]
 1651              	.LBE68:
 1652              		.loc 15 61 0
 1653 014a 1846     		mov	r0, r3
 1654 014c 09B0     		add	sp, sp, #36
 1655              		@ sp needed
 1656 014e 5DF804FB 		ldr	pc, [sp], #4
 1657              		.cfi_endproc
 1658              	.LFE619:
 1659              		.size	_ZNK14rosserial_msgs9TopicInfo9serializeEPh, .-_ZNK14rosserial_msgs9TopicInfo9serializeEPh
 1660 0152 00BFAFF3 		.section	.text._ZN14rosserial_msgs9TopicInfo11deserializeEPh,"axG",%progbits,_ZN14rosserial_msgs9T
 1660      0080AFF3 
 1660      0080AFF3 
 1660      0080
 1661              		.align	2
 1662              		.p2align 4,,15
 1663              		.weak	_ZN14rosserial_msgs9TopicInfo11deserializeEPh
 1664              		.thumb
 1665              		.thumb_func
 1666              		.type	_ZN14rosserial_msgs9TopicInfo11deserializeEPh, %function
 1667              	_ZN14rosserial_msgs9TopicInfo11deserializeEPh:
 1668              	.LFB620:
 1669              		.loc 15 63 0
ARM GAS  /tmp/ccg61o9J.s 			page 31


 1670              		.cfi_startproc
 1671              		@ args = 0, pretend = 0, frame = 40
 1672              		@ frame_needed = 0, uses_anonymous_args = 0
 1673 0000 00B5     		push	{lr}
 1674              		.cfi_def_cfa_offset 4
 1675              		.cfi_offset 14, -4
 1676 0002 8BB0     		sub	sp, sp, #44
 1677              		.cfi_def_cfa_offset 48
 1678 0004 0190     		str	r0, [sp, #4]
 1679 0006 0091     		str	r1, [sp]
 1680              	.LBB69:
 1681              		.loc 15 65 0
 1682 0008 0023     		movs	r3, #0
 1683 000a 0693     		str	r3, [sp, #24]
 1684              		.loc 15 66 0
 1685 000c 069B     		ldr	r3, [sp, #24]
 1686 000e 009A     		ldr	r2, [sp]
 1687 0010 1344     		add	r3, r3, r2
 1688 0012 1B78     		ldrb	r3, [r3]	@ zero_extendqisi2
 1689 0014 1A46     		mov	r2, r3
 1690 0016 019B     		ldr	r3, [sp, #4]
 1691 0018 9A80     		strh	r2, [r3, #4]	@ movhi
 1692              		.loc 15 67 0
 1693 001a 019B     		ldr	r3, [sp, #4]
 1694 001c 9B88     		ldrh	r3, [r3, #4]
 1695 001e 9AB2     		uxth	r2, r3
 1696 0020 069B     		ldr	r3, [sp, #24]
 1697 0022 0133     		adds	r3, r3, #1
 1698 0024 0099     		ldr	r1, [sp]
 1699 0026 0B44     		add	r3, r3, r1
 1700 0028 1B78     		ldrb	r3, [r3]	@ zero_extendqisi2
 1701 002a 1B02     		lsls	r3, r3, #8
 1702 002c 9BB2     		uxth	r3, r3
 1703 002e 1343     		orrs	r3, r3, r2
 1704 0030 9BB2     		uxth	r3, r3
 1705 0032 9AB2     		uxth	r2, r3
 1706 0034 019B     		ldr	r3, [sp, #4]
 1707 0036 9A80     		strh	r2, [r3, #4]	@ movhi
 1708              		.loc 15 68 0
 1709 0038 069B     		ldr	r3, [sp, #24]
 1710 003a 0233     		adds	r3, r3, #2
 1711 003c 0693     		str	r3, [sp, #24]
 1712              		.loc 15 70 0
 1713 003e 069B     		ldr	r3, [sp, #24]
 1714 0040 009A     		ldr	r2, [sp]
 1715 0042 1344     		add	r3, r3, r2
 1716 0044 05AA     		add	r2, sp, #20
 1717 0046 1046     		mov	r0, r2
 1718 0048 1946     		mov	r1, r3
 1719 004a 0422     		movs	r2, #4
 1720 004c FFF7FEFF 		bl	memcpy
 1721              		.loc 15 71 0
 1722 0050 069B     		ldr	r3, [sp, #24]
 1723 0052 0433     		adds	r3, r3, #4
 1724 0054 0693     		str	r3, [sp, #24]
 1725              	.LBB70:
 1726              		.loc 15 72 0
ARM GAS  /tmp/ccg61o9J.s 			page 32


 1727 0056 069B     		ldr	r3, [sp, #24]
 1728 0058 0993     		str	r3, [sp, #36]
 1729 005a 0BE0     		b	.L75
 1730              	.L76:
 1731              		.loc 15 73 0 discriminator 2
 1732 005c 099B     		ldr	r3, [sp, #36]
 1733 005e 013B     		subs	r3, r3, #1
 1734 0060 009A     		ldr	r2, [sp]
 1735 0062 1344     		add	r3, r3, r2
 1736 0064 0099     		ldr	r1, [sp]
 1737 0066 099A     		ldr	r2, [sp, #36]
 1738 0068 0A44     		add	r2, r2, r1
 1739 006a 1278     		ldrb	r2, [r2]	@ zero_extendqisi2
 1740 006c 1A70     		strb	r2, [r3]
 1741              		.loc 15 72 0 discriminator 2
 1742 006e 099B     		ldr	r3, [sp, #36]
 1743 0070 0133     		adds	r3, r3, #1
 1744 0072 0993     		str	r3, [sp, #36]
 1745              	.L75:
 1746              		.loc 15 72 0 is_stmt 0 discriminator 1
 1747 0074 069A     		ldr	r2, [sp, #24]
 1748 0076 059B     		ldr	r3, [sp, #20]
 1749 0078 1A44     		add	r2, r2, r3
 1750 007a 099B     		ldr	r3, [sp, #36]
 1751 007c 9A42     		cmp	r2, r3
 1752 007e EDD8     		bhi	.L76
 1753              	.LBE70:
 1754              		.loc 15 75 0 is_stmt 1
 1755 0080 069A     		ldr	r2, [sp, #24]
 1756 0082 059B     		ldr	r3, [sp, #20]
 1757 0084 1344     		add	r3, r3, r2
 1758 0086 013B     		subs	r3, r3, #1
 1759 0088 009A     		ldr	r2, [sp]
 1760 008a 1344     		add	r3, r3, r2
 1761 008c 0022     		movs	r2, #0
 1762 008e 1A70     		strb	r2, [r3]
 1763              		.loc 15 76 0
 1764 0090 069B     		ldr	r3, [sp, #24]
 1765 0092 013B     		subs	r3, r3, #1
 1766 0094 009A     		ldr	r2, [sp]
 1767 0096 1A44     		add	r2, r2, r3
 1768 0098 019B     		ldr	r3, [sp, #4]
 1769 009a 9A60     		str	r2, [r3, #8]
 1770              		.loc 15 77 0
 1771 009c 069A     		ldr	r2, [sp, #24]
 1772 009e 059B     		ldr	r3, [sp, #20]
 1773 00a0 1344     		add	r3, r3, r2
 1774 00a2 0693     		str	r3, [sp, #24]
 1775              		.loc 15 79 0
 1776 00a4 069B     		ldr	r3, [sp, #24]
 1777 00a6 009A     		ldr	r2, [sp]
 1778 00a8 1344     		add	r3, r3, r2
 1779 00aa 04AA     		add	r2, sp, #16
 1780 00ac 1046     		mov	r0, r2
 1781 00ae 1946     		mov	r1, r3
 1782 00b0 0422     		movs	r2, #4
 1783 00b2 FFF7FEFF 		bl	memcpy
ARM GAS  /tmp/ccg61o9J.s 			page 33


 1784              		.loc 15 80 0
 1785 00b6 069B     		ldr	r3, [sp, #24]
 1786 00b8 0433     		adds	r3, r3, #4
 1787 00ba 0693     		str	r3, [sp, #24]
 1788              	.LBB71:
 1789              		.loc 15 81 0
 1790 00bc 069B     		ldr	r3, [sp, #24]
 1791 00be 0893     		str	r3, [sp, #32]
 1792 00c0 0BE0     		b	.L77
 1793              	.L78:
 1794              		.loc 15 82 0 discriminator 2
 1795 00c2 089B     		ldr	r3, [sp, #32]
 1796 00c4 013B     		subs	r3, r3, #1
 1797 00c6 009A     		ldr	r2, [sp]
 1798 00c8 1344     		add	r3, r3, r2
 1799 00ca 0099     		ldr	r1, [sp]
 1800 00cc 089A     		ldr	r2, [sp, #32]
 1801 00ce 0A44     		add	r2, r2, r1
 1802 00d0 1278     		ldrb	r2, [r2]	@ zero_extendqisi2
 1803 00d2 1A70     		strb	r2, [r3]
 1804              		.loc 15 81 0 discriminator 2
 1805 00d4 089B     		ldr	r3, [sp, #32]
 1806 00d6 0133     		adds	r3, r3, #1
 1807 00d8 0893     		str	r3, [sp, #32]
 1808              	.L77:
 1809              		.loc 15 81 0 is_stmt 0 discriminator 1
 1810 00da 069A     		ldr	r2, [sp, #24]
 1811 00dc 049B     		ldr	r3, [sp, #16]
 1812 00de 1A44     		add	r2, r2, r3
 1813 00e0 089B     		ldr	r3, [sp, #32]
 1814 00e2 9A42     		cmp	r2, r3
 1815 00e4 EDD8     		bhi	.L78
 1816              	.LBE71:
 1817              		.loc 15 84 0 is_stmt 1
 1818 00e6 069A     		ldr	r2, [sp, #24]
 1819 00e8 049B     		ldr	r3, [sp, #16]
 1820 00ea 1344     		add	r3, r3, r2
 1821 00ec 013B     		subs	r3, r3, #1
 1822 00ee 009A     		ldr	r2, [sp]
 1823 00f0 1344     		add	r3, r3, r2
 1824 00f2 0022     		movs	r2, #0
 1825 00f4 1A70     		strb	r2, [r3]
 1826              		.loc 15 85 0
 1827 00f6 069B     		ldr	r3, [sp, #24]
 1828 00f8 013B     		subs	r3, r3, #1
 1829 00fa 009A     		ldr	r2, [sp]
 1830 00fc 1A44     		add	r2, r2, r3
 1831 00fe 019B     		ldr	r3, [sp, #4]
 1832 0100 DA60     		str	r2, [r3, #12]
 1833              		.loc 15 86 0
 1834 0102 069A     		ldr	r2, [sp, #24]
 1835 0104 049B     		ldr	r3, [sp, #16]
 1836 0106 1344     		add	r3, r3, r2
 1837 0108 0693     		str	r3, [sp, #24]
 1838              		.loc 15 88 0
 1839 010a 069B     		ldr	r3, [sp, #24]
 1840 010c 009A     		ldr	r2, [sp]
ARM GAS  /tmp/ccg61o9J.s 			page 34


 1841 010e 1344     		add	r3, r3, r2
 1842 0110 03AA     		add	r2, sp, #12
 1843 0112 1046     		mov	r0, r2
 1844 0114 1946     		mov	r1, r3
 1845 0116 0422     		movs	r2, #4
 1846 0118 FFF7FEFF 		bl	memcpy
 1847              		.loc 15 89 0
 1848 011c 069B     		ldr	r3, [sp, #24]
 1849 011e 0433     		adds	r3, r3, #4
 1850 0120 0693     		str	r3, [sp, #24]
 1851              	.LBB72:
 1852              		.loc 15 90 0
 1853 0122 069B     		ldr	r3, [sp, #24]
 1854 0124 0793     		str	r3, [sp, #28]
 1855 0126 0BE0     		b	.L79
 1856              	.L80:
 1857              		.loc 15 91 0 discriminator 2
 1858 0128 079B     		ldr	r3, [sp, #28]
 1859 012a 013B     		subs	r3, r3, #1
 1860 012c 009A     		ldr	r2, [sp]
 1861 012e 1344     		add	r3, r3, r2
 1862 0130 0099     		ldr	r1, [sp]
 1863 0132 079A     		ldr	r2, [sp, #28]
 1864 0134 0A44     		add	r2, r2, r1
 1865 0136 1278     		ldrb	r2, [r2]	@ zero_extendqisi2
 1866 0138 1A70     		strb	r2, [r3]
 1867              		.loc 15 90 0 discriminator 2
 1868 013a 079B     		ldr	r3, [sp, #28]
 1869 013c 0133     		adds	r3, r3, #1
 1870 013e 0793     		str	r3, [sp, #28]
 1871              	.L79:
 1872              		.loc 15 90 0 is_stmt 0 discriminator 1
 1873 0140 069A     		ldr	r2, [sp, #24]
 1874 0142 039B     		ldr	r3, [sp, #12]
 1875 0144 1A44     		add	r2, r2, r3
 1876 0146 079B     		ldr	r3, [sp, #28]
 1877 0148 9A42     		cmp	r2, r3
 1878 014a EDD8     		bhi	.L80
 1879              	.LBE72:
 1880              		.loc 15 93 0 is_stmt 1
 1881 014c 069A     		ldr	r2, [sp, #24]
 1882 014e 039B     		ldr	r3, [sp, #12]
 1883 0150 1344     		add	r3, r3, r2
 1884 0152 013B     		subs	r3, r3, #1
 1885 0154 009A     		ldr	r2, [sp]
 1886 0156 1344     		add	r3, r3, r2
 1887 0158 0022     		movs	r2, #0
 1888 015a 1A70     		strb	r2, [r3]
 1889              		.loc 15 94 0
 1890 015c 069B     		ldr	r3, [sp, #24]
 1891 015e 013B     		subs	r3, r3, #1
 1892 0160 009A     		ldr	r2, [sp]
 1893 0162 1A44     		add	r2, r2, r3
 1894 0164 019B     		ldr	r3, [sp, #4]
 1895 0166 1A61     		str	r2, [r3, #16]
 1896              		.loc 15 95 0
 1897 0168 069A     		ldr	r2, [sp, #24]
ARM GAS  /tmp/ccg61o9J.s 			page 35


 1898 016a 039B     		ldr	r3, [sp, #12]
 1899 016c 1344     		add	r3, r3, r2
 1900 016e 0693     		str	r3, [sp, #24]
 1901              		.loc 15 100 0
 1902 0170 0023     		movs	r3, #0
 1903 0172 0293     		str	r3, [sp, #8]
 1904              		.loc 15 101 0
 1905 0174 029A     		ldr	r2, [sp, #8]
 1906 0176 069B     		ldr	r3, [sp, #24]
 1907 0178 0099     		ldr	r1, [sp]
 1908 017a 0B44     		add	r3, r3, r1
 1909 017c 1B78     		ldrb	r3, [r3]	@ zero_extendqisi2
 1910 017e 1343     		orrs	r3, r3, r2
 1911 0180 0293     		str	r3, [sp, #8]
 1912              		.loc 15 102 0
 1913 0182 029A     		ldr	r2, [sp, #8]
 1914 0184 069B     		ldr	r3, [sp, #24]
 1915 0186 0133     		adds	r3, r3, #1
 1916 0188 0099     		ldr	r1, [sp]
 1917 018a 0B44     		add	r3, r3, r1
 1918 018c 1B78     		ldrb	r3, [r3]	@ zero_extendqisi2
 1919 018e 1B02     		lsls	r3, r3, #8
 1920 0190 1343     		orrs	r3, r3, r2
 1921 0192 0293     		str	r3, [sp, #8]
 1922              		.loc 15 103 0
 1923 0194 029A     		ldr	r2, [sp, #8]
 1924 0196 069B     		ldr	r3, [sp, #24]
 1925 0198 0233     		adds	r3, r3, #2
 1926 019a 0099     		ldr	r1, [sp]
 1927 019c 0B44     		add	r3, r3, r1
 1928 019e 1B78     		ldrb	r3, [r3]	@ zero_extendqisi2
 1929 01a0 1B04     		lsls	r3, r3, #16
 1930 01a2 1343     		orrs	r3, r3, r2
 1931 01a4 0293     		str	r3, [sp, #8]
 1932              		.loc 15 104 0
 1933 01a6 029A     		ldr	r2, [sp, #8]
 1934 01a8 069B     		ldr	r3, [sp, #24]
 1935 01aa 0333     		adds	r3, r3, #3
 1936 01ac 0099     		ldr	r1, [sp]
 1937 01ae 0B44     		add	r3, r3, r1
 1938 01b0 1B78     		ldrb	r3, [r3]	@ zero_extendqisi2
 1939 01b2 1B06     		lsls	r3, r3, #24
 1940 01b4 1343     		orrs	r3, r3, r2
 1941 01b6 0293     		str	r3, [sp, #8]
 1942              		.loc 15 105 0
 1943 01b8 029A     		ldr	r2, [sp, #8]
 1944 01ba 019B     		ldr	r3, [sp, #4]
 1945 01bc 5A61     		str	r2, [r3, #20]
 1946              		.loc 15 106 0
 1947 01be 069B     		ldr	r3, [sp, #24]
 1948 01c0 0433     		adds	r3, r3, #4
 1949 01c2 0693     		str	r3, [sp, #24]
 1950              		.loc 15 107 0
 1951 01c4 069B     		ldr	r3, [sp, #24]
 1952              	.LBE69:
 1953              		.loc 15 108 0
 1954 01c6 1846     		mov	r0, r3
ARM GAS  /tmp/ccg61o9J.s 			page 36


 1955 01c8 0BB0     		add	sp, sp, #44
 1956              		@ sp needed
 1957 01ca 5DF804FB 		ldr	pc, [sp], #4
 1958              		.cfi_endproc
 1959              	.LFE620:
 1960              		.size	_ZN14rosserial_msgs9TopicInfo11deserializeEPh, .-_ZN14rosserial_msgs9TopicInfo11deserializeE
 1961 01ce 00BF     		.section	.rodata
 1962 0041 000000   		.align	2
 1963              	.LC3:
 1964 0044 726F7373 		.ascii	"rosserial_msgs/TopicInfo\000"
 1964      65726961 
 1964      6C5F6D73 
 1964      67732F54 
 1964      6F706963 
 1965              		.section	.text._ZN14rosserial_msgs9TopicInfo7getTypeEv,"axG",%progbits,_ZN14rosserial_msgs9TopicIn
 1966              		.align	2
 1967              		.p2align 4,,15
 1968              		.weak	_ZN14rosserial_msgs9TopicInfo7getTypeEv
 1969              		.thumb
 1970              		.thumb_func
 1971              		.type	_ZN14rosserial_msgs9TopicInfo7getTypeEv, %function
 1972              	_ZN14rosserial_msgs9TopicInfo7getTypeEv:
 1973              	.LFB621:
 1974              		.loc 15 110 0
 1975              		.cfi_startproc
 1976              		@ args = 0, pretend = 0, frame = 8
 1977              		@ frame_needed = 0, uses_anonymous_args = 0
 1978              		@ link register save eliminated.
 1979 0000 82B0     		sub	sp, sp, #8
 1980              		.cfi_def_cfa_offset 8
 1981 0002 0190     		str	r0, [sp, #4]
 1982              		.loc 15 110 0
 1983 0004 014B     		ldr	r3, .L84
 1984 0006 1846     		mov	r0, r3
 1985 0008 02B0     		add	sp, sp, #8
 1986              		@ sp needed
 1987 000a 7047     		bx	lr
 1988              	.L85:
 1989              		.align	2
 1990              	.L84:
 1991 000c 44000000 		.word	.LC3
 1992              		.cfi_endproc
 1993              	.LFE621:
 1994              		.size	_ZN14rosserial_msgs9TopicInfo7getTypeEv, .-_ZN14rosserial_msgs9TopicInfo7getTypeEv
 1995              		.section	.rodata
 1996 005d 000000   		.align	2
 1997              	.LC4:
 1998 0060 30616435 		.ascii	"0ad51f88fc44892f8c10684077646005\000"
 1998      31663838 
 1998      66633434 
 1998      38393266 
 1998      38633130 
 1999              		.section	.text._ZN14rosserial_msgs9TopicInfo6getMD5Ev,"axG",%progbits,_ZN14rosserial_msgs9TopicInf
 2000              		.align	2
 2001              		.p2align 4,,15
 2002              		.weak	_ZN14rosserial_msgs9TopicInfo6getMD5Ev
 2003              		.thumb
ARM GAS  /tmp/ccg61o9J.s 			page 37


 2004              		.thumb_func
 2005              		.type	_ZN14rosserial_msgs9TopicInfo6getMD5Ev, %function
 2006              	_ZN14rosserial_msgs9TopicInfo6getMD5Ev:
 2007              	.LFB622:
 2008              		.loc 15 111 0
 2009              		.cfi_startproc
 2010              		@ args = 0, pretend = 0, frame = 8
 2011              		@ frame_needed = 0, uses_anonymous_args = 0
 2012              		@ link register save eliminated.
 2013 0000 82B0     		sub	sp, sp, #8
 2014              		.cfi_def_cfa_offset 8
 2015 0002 0190     		str	r0, [sp, #4]
 2016              		.loc 15 111 0
 2017 0004 014B     		ldr	r3, .L88
 2018 0006 1846     		mov	r0, r3
 2019 0008 02B0     		add	sp, sp, #8
 2020              		@ sp needed
 2021 000a 7047     		bx	lr
 2022              	.L89:
 2023              		.align	2
 2024              	.L88:
 2025 000c 60000000 		.word	.LC4
 2026              		.cfi_endproc
 2027              	.LFE622:
 2028              		.size	_ZN14rosserial_msgs9TopicInfo6getMD5Ev, .-_ZN14rosserial_msgs9TopicInfo6getMD5Ev
 2029              		.section	.text._ZNK14rosserial_msgs3Log9serializeEPh,"axG",%progbits,_ZNK14rosserial_msgs3Log9seri
 2030              		.align	2
 2031              		.p2align 4,,15
 2032              		.weak	_ZNK14rosserial_msgs3Log9serializeEPh
 2033              		.thumb
 2034              		.thumb_func
 2035              		.type	_ZNK14rosserial_msgs3Log9serializeEPh, %function
 2036              	_ZNK14rosserial_msgs3Log9serializeEPh:
 2037              	.LFB623:
 2038              		.file 16 "ros_lib/rosserial_msgs/Log.h"
 2039              		.loc 16 23 0
 2040              		.cfi_startproc
 2041              		@ args = 0, pretend = 0, frame = 16
 2042              		@ frame_needed = 0, uses_anonymous_args = 0
 2043 0000 00B5     		push	{lr}
 2044              		.cfi_def_cfa_offset 4
 2045              		.cfi_offset 14, -4
 2046 0002 85B0     		sub	sp, sp, #20
 2047              		.cfi_def_cfa_offset 24
 2048 0004 0190     		str	r0, [sp, #4]
 2049 0006 0091     		str	r1, [sp]
 2050              	.LBB73:
 2051              		.loc 16 25 0
 2052 0008 0023     		movs	r3, #0
 2053 000a 0393     		str	r3, [sp, #12]
 2054              		.loc 16 26 0
 2055 000c 039B     		ldr	r3, [sp, #12]
 2056 000e 009A     		ldr	r2, [sp]
 2057 0010 1344     		add	r3, r3, r2
 2058 0012 019A     		ldr	r2, [sp, #4]
 2059 0014 1279     		ldrb	r2, [r2, #4]	@ zero_extendqisi2
 2060 0016 1A70     		strb	r2, [r3]
ARM GAS  /tmp/ccg61o9J.s 			page 38


 2061              		.loc 16 27 0
 2062 0018 039B     		ldr	r3, [sp, #12]
 2063 001a 0133     		adds	r3, r3, #1
 2064 001c 0393     		str	r3, [sp, #12]
 2065              		.loc 16 28 0
 2066 001e 019B     		ldr	r3, [sp, #4]
 2067 0020 9B68     		ldr	r3, [r3, #8]
 2068 0022 1846     		mov	r0, r3
 2069 0024 FFF7FEFF 		bl	strlen
 2070 0028 0346     		mov	r3, r0
 2071 002a 0293     		str	r3, [sp, #8]
 2072              		.loc 16 29 0
 2073 002c 039B     		ldr	r3, [sp, #12]
 2074 002e 009A     		ldr	r2, [sp]
 2075 0030 1A44     		add	r2, r2, r3
 2076 0032 02AB     		add	r3, sp, #8
 2077 0034 1046     		mov	r0, r2
 2078 0036 1946     		mov	r1, r3
 2079 0038 0422     		movs	r2, #4
 2080 003a FFF7FEFF 		bl	memcpy
 2081              		.loc 16 30 0
 2082 003e 039B     		ldr	r3, [sp, #12]
 2083 0040 0433     		adds	r3, r3, #4
 2084 0042 0393     		str	r3, [sp, #12]
 2085              		.loc 16 31 0
 2086 0044 039B     		ldr	r3, [sp, #12]
 2087 0046 009A     		ldr	r2, [sp]
 2088 0048 D118     		adds	r1, r2, r3
 2089 004a 019B     		ldr	r3, [sp, #4]
 2090 004c 9A68     		ldr	r2, [r3, #8]
 2091 004e 029B     		ldr	r3, [sp, #8]
 2092 0050 0846     		mov	r0, r1
 2093 0052 1146     		mov	r1, r2
 2094 0054 1A46     		mov	r2, r3
 2095 0056 FFF7FEFF 		bl	memcpy
 2096              		.loc 16 32 0
 2097 005a 039A     		ldr	r2, [sp, #12]
 2098 005c 029B     		ldr	r3, [sp, #8]
 2099 005e 1344     		add	r3, r3, r2
 2100 0060 0393     		str	r3, [sp, #12]
 2101              		.loc 16 33 0
 2102 0062 039B     		ldr	r3, [sp, #12]
 2103              	.LBE73:
 2104              		.loc 16 34 0
 2105 0064 1846     		mov	r0, r3
 2106 0066 05B0     		add	sp, sp, #20
 2107              		@ sp needed
 2108 0068 5DF804FB 		ldr	pc, [sp], #4
 2109              		.cfi_endproc
 2110              	.LFE623:
 2111              		.size	_ZNK14rosserial_msgs3Log9serializeEPh, .-_ZNK14rosserial_msgs3Log9serializeEPh
 2112 006c AFF30080 		.section	.text._ZN14rosserial_msgs3Log11deserializeEPh,"axG",%progbits,_ZN14rosserial_msgs3Log11de
 2113              		.align	2
 2114              		.p2align 4,,15
 2115              		.weak	_ZN14rosserial_msgs3Log11deserializeEPh
 2116              		.thumb
 2117              		.thumb_func
ARM GAS  /tmp/ccg61o9J.s 			page 39


 2118              		.type	_ZN14rosserial_msgs3Log11deserializeEPh, %function
 2119              	_ZN14rosserial_msgs3Log11deserializeEPh:
 2120              	.LFB624:
 2121              		.loc 16 36 0
 2122              		.cfi_startproc
 2123              		@ args = 0, pretend = 0, frame = 24
 2124              		@ frame_needed = 0, uses_anonymous_args = 0
 2125 0000 00B5     		push	{lr}
 2126              		.cfi_def_cfa_offset 4
 2127              		.cfi_offset 14, -4
 2128 0002 87B0     		sub	sp, sp, #28
 2129              		.cfi_def_cfa_offset 32
 2130 0004 0190     		str	r0, [sp, #4]
 2131 0006 0091     		str	r1, [sp]
 2132              	.LBB74:
 2133              		.loc 16 38 0
 2134 0008 0023     		movs	r3, #0
 2135 000a 0493     		str	r3, [sp, #16]
 2136              		.loc 16 39 0
 2137 000c 049B     		ldr	r3, [sp, #16]
 2138 000e 009A     		ldr	r2, [sp]
 2139 0010 1344     		add	r3, r3, r2
 2140 0012 1A78     		ldrb	r2, [r3]	@ zero_extendqisi2
 2141 0014 019B     		ldr	r3, [sp, #4]
 2142 0016 1A71     		strb	r2, [r3, #4]
 2143              		.loc 16 40 0
 2144 0018 049B     		ldr	r3, [sp, #16]
 2145 001a 0133     		adds	r3, r3, #1
 2146 001c 0493     		str	r3, [sp, #16]
 2147              		.loc 16 42 0
 2148 001e 049B     		ldr	r3, [sp, #16]
 2149 0020 009A     		ldr	r2, [sp]
 2150 0022 1344     		add	r3, r3, r2
 2151 0024 03AA     		add	r2, sp, #12
 2152 0026 1046     		mov	r0, r2
 2153 0028 1946     		mov	r1, r3
 2154 002a 0422     		movs	r2, #4
 2155 002c FFF7FEFF 		bl	memcpy
 2156              		.loc 16 43 0
 2157 0030 049B     		ldr	r3, [sp, #16]
 2158 0032 0433     		adds	r3, r3, #4
 2159 0034 0493     		str	r3, [sp, #16]
 2160              	.LBB75:
 2161              		.loc 16 44 0
 2162 0036 049B     		ldr	r3, [sp, #16]
 2163 0038 0593     		str	r3, [sp, #20]
 2164 003a 0BE0     		b	.L93
 2165              	.L94:
 2166              		.loc 16 45 0 discriminator 2
 2167 003c 059B     		ldr	r3, [sp, #20]
 2168 003e 013B     		subs	r3, r3, #1
 2169 0040 009A     		ldr	r2, [sp]
 2170 0042 1344     		add	r3, r3, r2
 2171 0044 0099     		ldr	r1, [sp]
 2172 0046 059A     		ldr	r2, [sp, #20]
 2173 0048 0A44     		add	r2, r2, r1
 2174 004a 1278     		ldrb	r2, [r2]	@ zero_extendqisi2
ARM GAS  /tmp/ccg61o9J.s 			page 40


 2175 004c 1A70     		strb	r2, [r3]
 2176              		.loc 16 44 0 discriminator 2
 2177 004e 059B     		ldr	r3, [sp, #20]
 2178 0050 0133     		adds	r3, r3, #1
 2179 0052 0593     		str	r3, [sp, #20]
 2180              	.L93:
 2181              		.loc 16 44 0 is_stmt 0 discriminator 1
 2182 0054 049A     		ldr	r2, [sp, #16]
 2183 0056 039B     		ldr	r3, [sp, #12]
 2184 0058 1A44     		add	r2, r2, r3
 2185 005a 059B     		ldr	r3, [sp, #20]
 2186 005c 9A42     		cmp	r2, r3
 2187 005e EDD8     		bhi	.L94
 2188              	.LBE75:
 2189              		.loc 16 47 0 is_stmt 1
 2190 0060 049A     		ldr	r2, [sp, #16]
 2191 0062 039B     		ldr	r3, [sp, #12]
 2192 0064 1344     		add	r3, r3, r2
 2193 0066 013B     		subs	r3, r3, #1
 2194 0068 009A     		ldr	r2, [sp]
 2195 006a 1344     		add	r3, r3, r2
 2196 006c 0022     		movs	r2, #0
 2197 006e 1A70     		strb	r2, [r3]
 2198              		.loc 16 48 0
 2199 0070 049B     		ldr	r3, [sp, #16]
 2200 0072 013B     		subs	r3, r3, #1
 2201 0074 009A     		ldr	r2, [sp]
 2202 0076 1A44     		add	r2, r2, r3
 2203 0078 019B     		ldr	r3, [sp, #4]
 2204 007a 9A60     		str	r2, [r3, #8]
 2205              		.loc 16 49 0
 2206 007c 049A     		ldr	r2, [sp, #16]
 2207 007e 039B     		ldr	r3, [sp, #12]
 2208 0080 1344     		add	r3, r3, r2
 2209 0082 0493     		str	r3, [sp, #16]
 2210              		.loc 16 50 0
 2211 0084 049B     		ldr	r3, [sp, #16]
 2212              	.LBE74:
 2213              		.loc 16 51 0
 2214 0086 1846     		mov	r0, r3
 2215 0088 07B0     		add	sp, sp, #28
 2216              		@ sp needed
 2217 008a 5DF804FB 		ldr	pc, [sp], #4
 2218              		.cfi_endproc
 2219              	.LFE624:
 2220              		.size	_ZN14rosserial_msgs3Log11deserializeEPh, .-_ZN14rosserial_msgs3Log11deserializeEPh
 2221 008e 00BF     		.section	.rodata
 2222 0081 000000   		.align	2
 2223              	.LC5:
 2224 0084 726F7373 		.ascii	"rosserial_msgs/Log\000"
 2224      65726961 
 2224      6C5F6D73 
 2224      67732F4C 
 2224      6F6700
 2225              		.section	.text._ZN14rosserial_msgs3Log7getTypeEv,"axG",%progbits,_ZN14rosserial_msgs3Log7getTypeEv
 2226              		.align	2
 2227              		.p2align 4,,15
ARM GAS  /tmp/ccg61o9J.s 			page 41


 2228              		.weak	_ZN14rosserial_msgs3Log7getTypeEv
 2229              		.thumb
 2230              		.thumb_func
 2231              		.type	_ZN14rosserial_msgs3Log7getTypeEv, %function
 2232              	_ZN14rosserial_msgs3Log7getTypeEv:
 2233              	.LFB625:
 2234              		.loc 16 53 0
 2235              		.cfi_startproc
 2236              		@ args = 0, pretend = 0, frame = 8
 2237              		@ frame_needed = 0, uses_anonymous_args = 0
 2238              		@ link register save eliminated.
 2239 0000 82B0     		sub	sp, sp, #8
 2240              		.cfi_def_cfa_offset 8
 2241 0002 0190     		str	r0, [sp, #4]
 2242              		.loc 16 53 0
 2243 0004 014B     		ldr	r3, .L98
 2244 0006 1846     		mov	r0, r3
 2245 0008 02B0     		add	sp, sp, #8
 2246              		@ sp needed
 2247 000a 7047     		bx	lr
 2248              	.L99:
 2249              		.align	2
 2250              	.L98:
 2251 000c 84000000 		.word	.LC5
 2252              		.cfi_endproc
 2253              	.LFE625:
 2254              		.size	_ZN14rosserial_msgs3Log7getTypeEv, .-_ZN14rosserial_msgs3Log7getTypeEv
 2255              		.section	.rodata
 2256 0097 00       		.align	2
 2257              	.LC6:
 2258 0098 31316162 		.ascii	"11abd731c25933261cd6183bd12d6295\000"
 2258      64373331 
 2258      63323539 
 2258      33333236 
 2258      31636436 
 2259              		.section	.text._ZN14rosserial_msgs3Log6getMD5Ev,"axG",%progbits,_ZN14rosserial_msgs3Log6getMD5Ev,c
 2260              		.align	2
 2261              		.p2align 4,,15
 2262              		.weak	_ZN14rosserial_msgs3Log6getMD5Ev
 2263              		.thumb
 2264              		.thumb_func
 2265              		.type	_ZN14rosserial_msgs3Log6getMD5Ev, %function
 2266              	_ZN14rosserial_msgs3Log6getMD5Ev:
 2267              	.LFB626:
 2268              		.loc 16 54 0
 2269              		.cfi_startproc
 2270              		@ args = 0, pretend = 0, frame = 8
 2271              		@ frame_needed = 0, uses_anonymous_args = 0
 2272              		@ link register save eliminated.
 2273 0000 82B0     		sub	sp, sp, #8
 2274              		.cfi_def_cfa_offset 8
 2275 0002 0190     		str	r0, [sp, #4]
 2276              		.loc 16 54 0
 2277 0004 014B     		ldr	r3, .L102
 2278 0006 1846     		mov	r0, r3
 2279 0008 02B0     		add	sp, sp, #8
 2280              		@ sp needed
ARM GAS  /tmp/ccg61o9J.s 			page 42


 2281 000a 7047     		bx	lr
 2282              	.L103:
 2283              		.align	2
 2284              	.L102:
 2285 000c 98000000 		.word	.LC6
 2286              		.cfi_endproc
 2287              	.LFE626:
 2288              		.size	_ZN14rosserial_msgs3Log6getMD5Ev, .-_ZN14rosserial_msgs3Log6getMD5Ev
 2289              		.section	.text._ZNK14rosserial_msgs20RequestParamResponse9serializeEPh,"axG",%progbits,_ZNK14rosse
 2290              		.align	2
 2291              		.p2align 4,,15
 2292              		.weak	_ZNK14rosserial_msgs20RequestParamResponse9serializeEPh
 2293              		.thumb
 2294              		.thumb_func
 2295              		.type	_ZNK14rosserial_msgs20RequestParamResponse9serializeEPh, %function
 2296              	_ZNK14rosserial_msgs20RequestParamResponse9serializeEPh:
 2297              	.LFB631:
 2298              		.file 17 "ros_lib/rosserial_msgs/RequestParam.h"
 2299              		.loc 17 62 0
 2300              		.cfi_startproc
 2301              		@ args = 0, pretend = 0, frame = 32
 2302              		@ frame_needed = 0, uses_anonymous_args = 0
 2303 0000 00B5     		push	{lr}
 2304              		.cfi_def_cfa_offset 4
 2305              		.cfi_offset 14, -4
 2306 0002 89B0     		sub	sp, sp, #36
 2307              		.cfi_def_cfa_offset 40
 2308 0004 0190     		str	r0, [sp, #4]
 2309 0006 0091     		str	r1, [sp]
 2310              	.LBB76:
 2311              		.loc 17 64 0
 2312 0008 0023     		movs	r3, #0
 2313 000a 0793     		str	r3, [sp, #28]
 2314              		.loc 17 65 0
 2315 000c 079B     		ldr	r3, [sp, #28]
 2316 000e 5A1C     		adds	r2, r3, #1
 2317 0010 0792     		str	r2, [sp, #28]
 2318 0012 009A     		ldr	r2, [sp]
 2319 0014 1344     		add	r3, r3, r2
 2320 0016 019A     		ldr	r2, [sp, #4]
 2321 0018 1279     		ldrb	r2, [r2, #4]	@ zero_extendqisi2
 2322 001a 1A70     		strb	r2, [r3]
 2323              		.loc 17 66 0
 2324 001c 079B     		ldr	r3, [sp, #28]
 2325 001e 5A1C     		adds	r2, r3, #1
 2326 0020 0792     		str	r2, [sp, #28]
 2327 0022 009A     		ldr	r2, [sp]
 2328 0024 1344     		add	r3, r3, r2
 2329 0026 0022     		movs	r2, #0
 2330 0028 1A70     		strb	r2, [r3]
 2331              		.loc 17 67 0
 2332 002a 079B     		ldr	r3, [sp, #28]
 2333 002c 5A1C     		adds	r2, r3, #1
 2334 002e 0792     		str	r2, [sp, #28]
 2335 0030 009A     		ldr	r2, [sp]
 2336 0032 1344     		add	r3, r3, r2
 2337 0034 0022     		movs	r2, #0
ARM GAS  /tmp/ccg61o9J.s 			page 43


 2338 0036 1A70     		strb	r2, [r3]
 2339              		.loc 17 68 0
 2340 0038 079B     		ldr	r3, [sp, #28]
 2341 003a 5A1C     		adds	r2, r3, #1
 2342 003c 0792     		str	r2, [sp, #28]
 2343 003e 009A     		ldr	r2, [sp]
 2344 0040 1344     		add	r3, r3, r2
 2345 0042 0022     		movs	r2, #0
 2346 0044 1A70     		strb	r2, [r3]
 2347              	.LBB77:
 2348              		.loc 17 69 0
 2349 0046 0023     		movs	r3, #0
 2350 0048 8DF81B30 		strb	r3, [sp, #27]
 2351 004c 2DE0     		b	.L105
 2352              	.L106:
 2353              	.LBB78:
 2354              		.loc 17 74 0 discriminator 2
 2355 004e 019B     		ldr	r3, [sp, #4]
 2356 0050 DA68     		ldr	r2, [r3, #12]
 2357 0052 9DF81B30 		ldrb	r3, [sp, #27]	@ zero_extendqisi2
 2358 0056 9B00     		lsls	r3, r3, #2
 2359 0058 1344     		add	r3, r3, r2
 2360 005a 1B68     		ldr	r3, [r3]
 2361 005c 0593     		str	r3, [sp, #20]
 2362              		.loc 17 75 0 discriminator 2
 2363 005e 079B     		ldr	r3, [sp, #28]
 2364 0060 009A     		ldr	r2, [sp]
 2365 0062 1344     		add	r3, r3, r2
 2366 0064 059A     		ldr	r2, [sp, #20]
 2367 0066 D2B2     		uxtb	r2, r2
 2368 0068 1A70     		strb	r2, [r3]
 2369              		.loc 17 76 0 discriminator 2
 2370 006a 079B     		ldr	r3, [sp, #28]
 2371 006c 0133     		adds	r3, r3, #1
 2372 006e 009A     		ldr	r2, [sp]
 2373 0070 1344     		add	r3, r3, r2
 2374 0072 059A     		ldr	r2, [sp, #20]
 2375 0074 120A     		lsrs	r2, r2, #8
 2376 0076 D2B2     		uxtb	r2, r2
 2377 0078 1A70     		strb	r2, [r3]
 2378              		.loc 17 77 0 discriminator 2
 2379 007a 079B     		ldr	r3, [sp, #28]
 2380 007c 0233     		adds	r3, r3, #2
 2381 007e 009A     		ldr	r2, [sp]
 2382 0080 1344     		add	r3, r3, r2
 2383 0082 059A     		ldr	r2, [sp, #20]
 2384 0084 120C     		lsrs	r2, r2, #16
 2385 0086 D2B2     		uxtb	r2, r2
 2386 0088 1A70     		strb	r2, [r3]
 2387              		.loc 17 78 0 discriminator 2
 2388 008a 079B     		ldr	r3, [sp, #28]
 2389 008c 0333     		adds	r3, r3, #3
 2390 008e 009A     		ldr	r2, [sp]
 2391 0090 1344     		add	r3, r3, r2
 2392 0092 059A     		ldr	r2, [sp, #20]
 2393 0094 120E     		lsrs	r2, r2, #24
 2394 0096 D2B2     		uxtb	r2, r2
ARM GAS  /tmp/ccg61o9J.s 			page 44


 2395 0098 1A70     		strb	r2, [r3]
 2396              		.loc 17 79 0 discriminator 2
 2397 009a 079B     		ldr	r3, [sp, #28]
 2398 009c 0433     		adds	r3, r3, #4
 2399 009e 0793     		str	r3, [sp, #28]
 2400              	.LBE78:
 2401              		.loc 17 69 0 discriminator 2
 2402 00a0 9DF81B30 		ldrb	r3, [sp, #27]	@ zero_extendqisi2
 2403 00a4 0133     		adds	r3, r3, #1
 2404 00a6 8DF81B30 		strb	r3, [sp, #27]
 2405              	.L105:
 2406              		.loc 17 69 0 is_stmt 0 discriminator 1
 2407 00aa 019B     		ldr	r3, [sp, #4]
 2408 00ac 1B79     		ldrb	r3, [r3, #4]	@ zero_extendqisi2
 2409 00ae 9DF81B20 		ldrb	r2, [sp, #27]	@ zero_extendqisi2
 2410 00b2 9A42     		cmp	r2, r3
 2411 00b4 CBD3     		bcc	.L106
 2412              	.LBE77:
 2413              		.loc 17 81 0 is_stmt 1
 2414 00b6 079B     		ldr	r3, [sp, #28]
 2415 00b8 5A1C     		adds	r2, r3, #1
 2416 00ba 0792     		str	r2, [sp, #28]
 2417 00bc 009A     		ldr	r2, [sp]
 2418 00be 1344     		add	r3, r3, r2
 2419 00c0 019A     		ldr	r2, [sp, #4]
 2420 00c2 127C     		ldrb	r2, [r2, #16]	@ zero_extendqisi2
 2421 00c4 1A70     		strb	r2, [r3]
 2422              		.loc 17 82 0
 2423 00c6 079B     		ldr	r3, [sp, #28]
 2424 00c8 5A1C     		adds	r2, r3, #1
 2425 00ca 0792     		str	r2, [sp, #28]
 2426 00cc 009A     		ldr	r2, [sp]
 2427 00ce 1344     		add	r3, r3, r2
 2428 00d0 0022     		movs	r2, #0
 2429 00d2 1A70     		strb	r2, [r3]
 2430              		.loc 17 83 0
 2431 00d4 079B     		ldr	r3, [sp, #28]
 2432 00d6 5A1C     		adds	r2, r3, #1
 2433 00d8 0792     		str	r2, [sp, #28]
 2434 00da 009A     		ldr	r2, [sp]
 2435 00dc 1344     		add	r3, r3, r2
 2436 00de 0022     		movs	r2, #0
 2437 00e0 1A70     		strb	r2, [r3]
 2438              		.loc 17 84 0
 2439 00e2 079B     		ldr	r3, [sp, #28]
 2440 00e4 5A1C     		adds	r2, r3, #1
 2441 00e6 0792     		str	r2, [sp, #28]
 2442 00e8 009A     		ldr	r2, [sp]
 2443 00ea 1344     		add	r3, r3, r2
 2444 00ec 0022     		movs	r2, #0
 2445 00ee 1A70     		strb	r2, [r3]
 2446              	.LBB79:
 2447              		.loc 17 85 0
 2448 00f0 0023     		movs	r3, #0
 2449 00f2 8DF81A30 		strb	r3, [sp, #26]
 2450 00f6 2DE0     		b	.L107
 2451              	.L108:
ARM GAS  /tmp/ccg61o9J.s 			page 45


 2452              	.LBB80:
 2453              		.loc 17 90 0 discriminator 2
 2454 00f8 019B     		ldr	r3, [sp, #4]
 2455 00fa 9A69     		ldr	r2, [r3, #24]
 2456 00fc 9DF81A30 		ldrb	r3, [sp, #26]	@ zero_extendqisi2
 2457 0100 9B00     		lsls	r3, r3, #2
 2458 0102 1344     		add	r3, r3, r2
 2459 0104 1B68     		ldr	r3, [r3]	@ float
 2460 0106 0493     		str	r3, [sp, #16]	@ float
 2461              		.loc 17 91 0 discriminator 2
 2462 0108 079B     		ldr	r3, [sp, #28]
 2463 010a 009A     		ldr	r2, [sp]
 2464 010c 1344     		add	r3, r3, r2
 2465 010e 049A     		ldr	r2, [sp, #16]
 2466 0110 D2B2     		uxtb	r2, r2
 2467 0112 1A70     		strb	r2, [r3]
 2468              		.loc 17 92 0 discriminator 2
 2469 0114 079B     		ldr	r3, [sp, #28]
 2470 0116 0133     		adds	r3, r3, #1
 2471 0118 009A     		ldr	r2, [sp]
 2472 011a 1344     		add	r3, r3, r2
 2473 011c 049A     		ldr	r2, [sp, #16]
 2474 011e 120A     		lsrs	r2, r2, #8
 2475 0120 D2B2     		uxtb	r2, r2
 2476 0122 1A70     		strb	r2, [r3]
 2477              		.loc 17 93 0 discriminator 2
 2478 0124 079B     		ldr	r3, [sp, #28]
 2479 0126 0233     		adds	r3, r3, #2
 2480 0128 009A     		ldr	r2, [sp]
 2481 012a 1344     		add	r3, r3, r2
 2482 012c 049A     		ldr	r2, [sp, #16]
 2483 012e 120C     		lsrs	r2, r2, #16
 2484 0130 D2B2     		uxtb	r2, r2
 2485 0132 1A70     		strb	r2, [r3]
 2486              		.loc 17 94 0 discriminator 2
 2487 0134 079B     		ldr	r3, [sp, #28]
 2488 0136 0333     		adds	r3, r3, #3
 2489 0138 009A     		ldr	r2, [sp]
 2490 013a 1344     		add	r3, r3, r2
 2491 013c 049A     		ldr	r2, [sp, #16]
 2492 013e 120E     		lsrs	r2, r2, #24
 2493 0140 D2B2     		uxtb	r2, r2
 2494 0142 1A70     		strb	r2, [r3]
 2495              		.loc 17 95 0 discriminator 2
 2496 0144 079B     		ldr	r3, [sp, #28]
 2497 0146 0433     		adds	r3, r3, #4
 2498 0148 0793     		str	r3, [sp, #28]
 2499              	.LBE80:
 2500              		.loc 17 85 0 discriminator 2
 2501 014a 9DF81A30 		ldrb	r3, [sp, #26]	@ zero_extendqisi2
 2502 014e 0133     		adds	r3, r3, #1
 2503 0150 8DF81A30 		strb	r3, [sp, #26]
 2504              	.L107:
 2505              		.loc 17 85 0 is_stmt 0 discriminator 1
 2506 0154 019B     		ldr	r3, [sp, #4]
 2507 0156 1B7C     		ldrb	r3, [r3, #16]	@ zero_extendqisi2
 2508 0158 9DF81A20 		ldrb	r2, [sp, #26]	@ zero_extendqisi2
ARM GAS  /tmp/ccg61o9J.s 			page 46


 2509 015c 9A42     		cmp	r2, r3
 2510 015e CBD3     		bcc	.L108
 2511              	.LBE79:
 2512              		.loc 17 97 0 is_stmt 1
 2513 0160 079B     		ldr	r3, [sp, #28]
 2514 0162 5A1C     		adds	r2, r3, #1
 2515 0164 0792     		str	r2, [sp, #28]
 2516 0166 009A     		ldr	r2, [sp]
 2517 0168 1344     		add	r3, r3, r2
 2518 016a 019A     		ldr	r2, [sp, #4]
 2519 016c 127F     		ldrb	r2, [r2, #28]	@ zero_extendqisi2
 2520 016e 1A70     		strb	r2, [r3]
 2521              		.loc 17 98 0
 2522 0170 079B     		ldr	r3, [sp, #28]
 2523 0172 5A1C     		adds	r2, r3, #1
 2524 0174 0792     		str	r2, [sp, #28]
 2525 0176 009A     		ldr	r2, [sp]
 2526 0178 1344     		add	r3, r3, r2
 2527 017a 0022     		movs	r2, #0
 2528 017c 1A70     		strb	r2, [r3]
 2529              		.loc 17 99 0
 2530 017e 079B     		ldr	r3, [sp, #28]
 2531 0180 5A1C     		adds	r2, r3, #1
 2532 0182 0792     		str	r2, [sp, #28]
 2533 0184 009A     		ldr	r2, [sp]
 2534 0186 1344     		add	r3, r3, r2
 2535 0188 0022     		movs	r2, #0
 2536 018a 1A70     		strb	r2, [r3]
 2537              		.loc 17 100 0
 2538 018c 079B     		ldr	r3, [sp, #28]
 2539 018e 5A1C     		adds	r2, r3, #1
 2540 0190 0792     		str	r2, [sp, #28]
 2541 0192 009A     		ldr	r2, [sp]
 2542 0194 1344     		add	r3, r3, r2
 2543 0196 0022     		movs	r2, #0
 2544 0198 1A70     		strb	r2, [r3]
 2545              	.LBB81:
 2546              		.loc 17 101 0
 2547 019a 0023     		movs	r3, #0
 2548 019c 8DF81930 		strb	r3, [sp, #25]
 2549 01a0 30E0     		b	.L109
 2550              	.L110:
 2551              	.LBB82:
 2552              		.loc 17 102 0 discriminator 2
 2553 01a2 019B     		ldr	r3, [sp, #4]
 2554 01a4 5A6A     		ldr	r2, [r3, #36]
 2555 01a6 9DF81930 		ldrb	r3, [sp, #25]	@ zero_extendqisi2
 2556 01aa 9B00     		lsls	r3, r3, #2
 2557 01ac 1344     		add	r3, r3, r2
 2558 01ae 1B68     		ldr	r3, [r3]
 2559 01b0 1846     		mov	r0, r3
 2560 01b2 FFF7FEFF 		bl	strlen
 2561 01b6 0346     		mov	r3, r0
 2562 01b8 0393     		str	r3, [sp, #12]
 2563              		.loc 17 103 0 discriminator 2
 2564 01ba 079B     		ldr	r3, [sp, #28]
 2565 01bc 009A     		ldr	r2, [sp]
ARM GAS  /tmp/ccg61o9J.s 			page 47


 2566 01be 1A44     		add	r2, r2, r3
 2567 01c0 03AB     		add	r3, sp, #12
 2568 01c2 1046     		mov	r0, r2
 2569 01c4 1946     		mov	r1, r3
 2570 01c6 0422     		movs	r2, #4
 2571 01c8 FFF7FEFF 		bl	memcpy
 2572              		.loc 17 104 0 discriminator 2
 2573 01cc 079B     		ldr	r3, [sp, #28]
 2574 01ce 0433     		adds	r3, r3, #4
 2575 01d0 0793     		str	r3, [sp, #28]
 2576              		.loc 17 105 0 discriminator 2
 2577 01d2 079B     		ldr	r3, [sp, #28]
 2578 01d4 009A     		ldr	r2, [sp]
 2579 01d6 D118     		adds	r1, r2, r3
 2580 01d8 019B     		ldr	r3, [sp, #4]
 2581 01da 5A6A     		ldr	r2, [r3, #36]
 2582 01dc 9DF81930 		ldrb	r3, [sp, #25]	@ zero_extendqisi2
 2583 01e0 9B00     		lsls	r3, r3, #2
 2584 01e2 1344     		add	r3, r3, r2
 2585 01e4 1A68     		ldr	r2, [r3]
 2586 01e6 039B     		ldr	r3, [sp, #12]
 2587 01e8 0846     		mov	r0, r1
 2588 01ea 1146     		mov	r1, r2
 2589 01ec 1A46     		mov	r2, r3
 2590 01ee FFF7FEFF 		bl	memcpy
 2591              		.loc 17 106 0 discriminator 2
 2592 01f2 079A     		ldr	r2, [sp, #28]
 2593 01f4 039B     		ldr	r3, [sp, #12]
 2594 01f6 1344     		add	r3, r3, r2
 2595 01f8 0793     		str	r3, [sp, #28]
 2596              	.LBE82:
 2597              		.loc 17 101 0 discriminator 2
 2598 01fa 9DF81930 		ldrb	r3, [sp, #25]	@ zero_extendqisi2
 2599 01fe 0133     		adds	r3, r3, #1
 2600 0200 8DF81930 		strb	r3, [sp, #25]
 2601              	.L109:
 2602              		.loc 17 101 0 is_stmt 0 discriminator 1
 2603 0204 019B     		ldr	r3, [sp, #4]
 2604 0206 1B7F     		ldrb	r3, [r3, #28]	@ zero_extendqisi2
 2605 0208 9DF81920 		ldrb	r2, [sp, #25]	@ zero_extendqisi2
 2606 020c 9A42     		cmp	r2, r3
 2607 020e C8D3     		bcc	.L110
 2608              	.LBE81:
 2609              		.loc 17 108 0 is_stmt 1
 2610 0210 079B     		ldr	r3, [sp, #28]
 2611              	.LBE76:
 2612              		.loc 17 109 0
 2613 0212 1846     		mov	r0, r3
 2614 0214 09B0     		add	sp, sp, #36
 2615              		@ sp needed
 2616 0216 5DF804FB 		ldr	pc, [sp], #4
 2617              		.cfi_endproc
 2618              	.LFE631:
 2619              		.size	_ZNK14rosserial_msgs20RequestParamResponse9serializeEPh, .-_ZNK14rosserial_msgs20RequestPara
 2620 021a 00BFAFF3 		.section	.text._ZN14rosserial_msgs20RequestParamResponse11deserializeEPh,"axG",%progbits,_ZN14ross
 2620      0080
 2621              		.align	2
ARM GAS  /tmp/ccg61o9J.s 			page 48


 2622              		.p2align 4,,15
 2623              		.weak	_ZN14rosserial_msgs20RequestParamResponse11deserializeEPh
 2624              		.thumb
 2625              		.thumb_func
 2626              		.type	_ZN14rosserial_msgs20RequestParamResponse11deserializeEPh, %function
 2627              	_ZN14rosserial_msgs20RequestParamResponse11deserializeEPh:
 2628              	.LFB632:
 2629              		.loc 17 111 0
 2630              		.cfi_startproc
 2631              		@ args = 0, pretend = 0, frame = 40
 2632              		@ frame_needed = 0, uses_anonymous_args = 0
 2633 0000 00B5     		push	{lr}
 2634              		.cfi_def_cfa_offset 4
 2635              		.cfi_offset 14, -4
 2636 0002 8BB0     		sub	sp, sp, #44
 2637              		.cfi_def_cfa_offset 48
 2638 0004 0190     		str	r0, [sp, #4]
 2639 0006 0091     		str	r1, [sp]
 2640              	.LBB83:
 2641              		.loc 17 113 0
 2642 0008 0023     		movs	r3, #0
 2643 000a 0993     		str	r3, [sp, #36]
 2644              		.loc 17 114 0
 2645 000c 099B     		ldr	r3, [sp, #36]
 2646 000e 5A1C     		adds	r2, r3, #1
 2647 0010 0992     		str	r2, [sp, #36]
 2648 0012 009A     		ldr	r2, [sp]
 2649 0014 1344     		add	r3, r3, r2
 2650 0016 1B78     		ldrb	r3, [r3]
 2651 0018 8DF81B30 		strb	r3, [sp, #27]
 2652              		.loc 17 115 0
 2653 001c 019B     		ldr	r3, [sp, #4]
 2654 001e 1B79     		ldrb	r3, [r3, #4]	@ zero_extendqisi2
 2655 0020 9DF81B20 		ldrb	r2, [sp, #27]	@ zero_extendqisi2
 2656 0024 9A42     		cmp	r2, r3
 2657 0026 0BD9     		bls	.L113
 2658              		.loc 17 116 0
 2659 0028 019B     		ldr	r3, [sp, #4]
 2660 002a DA68     		ldr	r2, [r3, #12]
 2661 002c 9DF81B30 		ldrb	r3, [sp, #27]	@ zero_extendqisi2
 2662 0030 9B00     		lsls	r3, r3, #2
 2663 0032 1046     		mov	r0, r2
 2664 0034 1946     		mov	r1, r3
 2665 0036 FFF7FEFF 		bl	realloc
 2666 003a 0246     		mov	r2, r0
 2667 003c 019B     		ldr	r3, [sp, #4]
 2668 003e DA60     		str	r2, [r3, #12]
 2669              	.L113:
 2670              		.loc 17 117 0
 2671 0040 099B     		ldr	r3, [sp, #36]
 2672 0042 0333     		adds	r3, r3, #3
 2673 0044 0993     		str	r3, [sp, #36]
 2674              		.loc 17 118 0
 2675 0046 019B     		ldr	r3, [sp, #4]
 2676 0048 9DF81B20 		ldrb	r2, [sp, #27]
 2677 004c 1A71     		strb	r2, [r3, #4]
 2678              	.LBB84:
ARM GAS  /tmp/ccg61o9J.s 			page 49


 2679              		.loc 17 119 0
 2680 004e 0023     		movs	r3, #0
 2681 0050 8DF82330 		strb	r3, [sp, #35]
 2682 0054 3BE0     		b	.L114
 2683              	.L115:
 2684              	.LBB85:
 2685              		.loc 17 124 0 discriminator 2
 2686 0056 0023     		movs	r3, #0
 2687 0058 0593     		str	r3, [sp, #20]
 2688              		.loc 17 125 0 discriminator 2
 2689 005a 059A     		ldr	r2, [sp, #20]
 2690 005c 099B     		ldr	r3, [sp, #36]
 2691 005e 0099     		ldr	r1, [sp]
 2692 0060 0B44     		add	r3, r3, r1
 2693 0062 1B78     		ldrb	r3, [r3]	@ zero_extendqisi2
 2694 0064 1343     		orrs	r3, r3, r2
 2695 0066 0593     		str	r3, [sp, #20]
 2696              		.loc 17 126 0 discriminator 2
 2697 0068 059A     		ldr	r2, [sp, #20]
 2698 006a 099B     		ldr	r3, [sp, #36]
 2699 006c 0133     		adds	r3, r3, #1
 2700 006e 0099     		ldr	r1, [sp]
 2701 0070 0B44     		add	r3, r3, r1
 2702 0072 1B78     		ldrb	r3, [r3]	@ zero_extendqisi2
 2703 0074 1B02     		lsls	r3, r3, #8
 2704 0076 1343     		orrs	r3, r3, r2
 2705 0078 0593     		str	r3, [sp, #20]
 2706              		.loc 17 127 0 discriminator 2
 2707 007a 059A     		ldr	r2, [sp, #20]
 2708 007c 099B     		ldr	r3, [sp, #36]
 2709 007e 0233     		adds	r3, r3, #2
 2710 0080 0099     		ldr	r1, [sp]
 2711 0082 0B44     		add	r3, r3, r1
 2712 0084 1B78     		ldrb	r3, [r3]	@ zero_extendqisi2
 2713 0086 1B04     		lsls	r3, r3, #16
 2714 0088 1343     		orrs	r3, r3, r2
 2715 008a 0593     		str	r3, [sp, #20]
 2716              		.loc 17 128 0 discriminator 2
 2717 008c 059A     		ldr	r2, [sp, #20]
 2718 008e 099B     		ldr	r3, [sp, #36]
 2719 0090 0333     		adds	r3, r3, #3
 2720 0092 0099     		ldr	r1, [sp]
 2721 0094 0B44     		add	r3, r3, r1
 2722 0096 1B78     		ldrb	r3, [r3]	@ zero_extendqisi2
 2723 0098 1B06     		lsls	r3, r3, #24
 2724 009a 1343     		orrs	r3, r3, r2
 2725 009c 0593     		str	r3, [sp, #20]
 2726              		.loc 17 129 0 discriminator 2
 2727 009e 059A     		ldr	r2, [sp, #20]
 2728 00a0 019B     		ldr	r3, [sp, #4]
 2729 00a2 9A60     		str	r2, [r3, #8]
 2730              		.loc 17 130 0 discriminator 2
 2731 00a4 099B     		ldr	r3, [sp, #36]
 2732 00a6 0433     		adds	r3, r3, #4
 2733 00a8 0993     		str	r3, [sp, #36]
 2734              		.loc 17 131 0 discriminator 2
 2735 00aa 019B     		ldr	r3, [sp, #4]
ARM GAS  /tmp/ccg61o9J.s 			page 50


 2736 00ac DA68     		ldr	r2, [r3, #12]
 2737 00ae 9DF82330 		ldrb	r3, [sp, #35]	@ zero_extendqisi2
 2738 00b2 9B00     		lsls	r3, r3, #2
 2739 00b4 1A44     		add	r2, r2, r3
 2740 00b6 019B     		ldr	r3, [sp, #4]
 2741 00b8 0833     		adds	r3, r3, #8
 2742 00ba 1046     		mov	r0, r2
 2743 00bc 1946     		mov	r1, r3
 2744 00be 0422     		movs	r2, #4
 2745 00c0 FFF7FEFF 		bl	memcpy
 2746              	.LBE85:
 2747              		.loc 17 119 0 discriminator 2
 2748 00c4 9DF82330 		ldrb	r3, [sp, #35]	@ zero_extendqisi2
 2749 00c8 0133     		adds	r3, r3, #1
 2750 00ca 8DF82330 		strb	r3, [sp, #35]
 2751              	.L114:
 2752              		.loc 17 119 0 is_stmt 0 discriminator 1
 2753 00ce 019B     		ldr	r3, [sp, #4]
 2754 00d0 1B79     		ldrb	r3, [r3, #4]	@ zero_extendqisi2
 2755 00d2 9DF82320 		ldrb	r2, [sp, #35]	@ zero_extendqisi2
 2756 00d6 9A42     		cmp	r2, r3
 2757 00d8 BDD3     		bcc	.L115
 2758              	.LBE84:
 2759              		.loc 17 133 0 is_stmt 1
 2760 00da 099B     		ldr	r3, [sp, #36]
 2761 00dc 5A1C     		adds	r2, r3, #1
 2762 00de 0992     		str	r2, [sp, #36]
 2763 00e0 009A     		ldr	r2, [sp]
 2764 00e2 1344     		add	r3, r3, r2
 2765 00e4 1B78     		ldrb	r3, [r3]
 2766 00e6 8DF81A30 		strb	r3, [sp, #26]
 2767              		.loc 17 134 0
 2768 00ea 019B     		ldr	r3, [sp, #4]
 2769 00ec 1B7C     		ldrb	r3, [r3, #16]	@ zero_extendqisi2
 2770 00ee 9DF81A20 		ldrb	r2, [sp, #26]	@ zero_extendqisi2
 2771 00f2 9A42     		cmp	r2, r3
 2772 00f4 0BD9     		bls	.L116
 2773              		.loc 17 135 0
 2774 00f6 019B     		ldr	r3, [sp, #4]
 2775 00f8 9A69     		ldr	r2, [r3, #24]
 2776 00fa 9DF81A30 		ldrb	r3, [sp, #26]	@ zero_extendqisi2
 2777 00fe 9B00     		lsls	r3, r3, #2
 2778 0100 1046     		mov	r0, r2
 2779 0102 1946     		mov	r1, r3
 2780 0104 FFF7FEFF 		bl	realloc
 2781 0108 0246     		mov	r2, r0
 2782 010a 019B     		ldr	r3, [sp, #4]
 2783 010c 9A61     		str	r2, [r3, #24]
 2784              	.L116:
 2785              		.loc 17 136 0
 2786 010e 099B     		ldr	r3, [sp, #36]
 2787 0110 0333     		adds	r3, r3, #3
 2788 0112 0993     		str	r3, [sp, #36]
 2789              		.loc 17 137 0
 2790 0114 019B     		ldr	r3, [sp, #4]
 2791 0116 9DF81A20 		ldrb	r2, [sp, #26]
 2792 011a 1A74     		strb	r2, [r3, #16]
ARM GAS  /tmp/ccg61o9J.s 			page 51


 2793              	.LBB86:
 2794              		.loc 17 138 0
 2795 011c 0023     		movs	r3, #0
 2796 011e 8DF82230 		strb	r3, [sp, #34]
 2797 0122 3BE0     		b	.L117
 2798              	.L118:
 2799              	.LBB87:
 2800              		.loc 17 143 0 discriminator 2
 2801 0124 0023     		movs	r3, #0
 2802 0126 0493     		str	r3, [sp, #16]
 2803              		.loc 17 144 0 discriminator 2
 2804 0128 049A     		ldr	r2, [sp, #16]
 2805 012a 099B     		ldr	r3, [sp, #36]
 2806 012c 0099     		ldr	r1, [sp]
 2807 012e 0B44     		add	r3, r3, r1
 2808 0130 1B78     		ldrb	r3, [r3]	@ zero_extendqisi2
 2809 0132 1343     		orrs	r3, r3, r2
 2810 0134 0493     		str	r3, [sp, #16]
 2811              		.loc 17 145 0 discriminator 2
 2812 0136 049A     		ldr	r2, [sp, #16]
 2813 0138 099B     		ldr	r3, [sp, #36]
 2814 013a 0133     		adds	r3, r3, #1
 2815 013c 0099     		ldr	r1, [sp]
 2816 013e 0B44     		add	r3, r3, r1
 2817 0140 1B78     		ldrb	r3, [r3]	@ zero_extendqisi2
 2818 0142 1B02     		lsls	r3, r3, #8
 2819 0144 1343     		orrs	r3, r3, r2
 2820 0146 0493     		str	r3, [sp, #16]
 2821              		.loc 17 146 0 discriminator 2
 2822 0148 049A     		ldr	r2, [sp, #16]
 2823 014a 099B     		ldr	r3, [sp, #36]
 2824 014c 0233     		adds	r3, r3, #2
 2825 014e 0099     		ldr	r1, [sp]
 2826 0150 0B44     		add	r3, r3, r1
 2827 0152 1B78     		ldrb	r3, [r3]	@ zero_extendqisi2
 2828 0154 1B04     		lsls	r3, r3, #16
 2829 0156 1343     		orrs	r3, r3, r2
 2830 0158 0493     		str	r3, [sp, #16]
 2831              		.loc 17 147 0 discriminator 2
 2832 015a 049A     		ldr	r2, [sp, #16]
 2833 015c 099B     		ldr	r3, [sp, #36]
 2834 015e 0333     		adds	r3, r3, #3
 2835 0160 0099     		ldr	r1, [sp]
 2836 0162 0B44     		add	r3, r3, r1
 2837 0164 1B78     		ldrb	r3, [r3]	@ zero_extendqisi2
 2838 0166 1B06     		lsls	r3, r3, #24
 2839 0168 1343     		orrs	r3, r3, r2
 2840 016a 0493     		str	r3, [sp, #16]
 2841              		.loc 17 148 0 discriminator 2
 2842 016c 049A     		ldr	r2, [sp, #16]	@ float
 2843 016e 019B     		ldr	r3, [sp, #4]
 2844 0170 5A61     		str	r2, [r3, #20]	@ float
 2845              		.loc 17 149 0 discriminator 2
 2846 0172 099B     		ldr	r3, [sp, #36]
 2847 0174 0433     		adds	r3, r3, #4
 2848 0176 0993     		str	r3, [sp, #36]
 2849              		.loc 17 150 0 discriminator 2
ARM GAS  /tmp/ccg61o9J.s 			page 52


 2850 0178 019B     		ldr	r3, [sp, #4]
 2851 017a 9A69     		ldr	r2, [r3, #24]
 2852 017c 9DF82230 		ldrb	r3, [sp, #34]	@ zero_extendqisi2
 2853 0180 9B00     		lsls	r3, r3, #2
 2854 0182 1A44     		add	r2, r2, r3
 2855 0184 019B     		ldr	r3, [sp, #4]
 2856 0186 1433     		adds	r3, r3, #20
 2857 0188 1046     		mov	r0, r2
 2858 018a 1946     		mov	r1, r3
 2859 018c 0422     		movs	r2, #4
 2860 018e FFF7FEFF 		bl	memcpy
 2861              	.LBE87:
 2862              		.loc 17 138 0 discriminator 2
 2863 0192 9DF82230 		ldrb	r3, [sp, #34]	@ zero_extendqisi2
 2864 0196 0133     		adds	r3, r3, #1
 2865 0198 8DF82230 		strb	r3, [sp, #34]
 2866              	.L117:
 2867              		.loc 17 138 0 is_stmt 0 discriminator 1
 2868 019c 019B     		ldr	r3, [sp, #4]
 2869 019e 1B7C     		ldrb	r3, [r3, #16]	@ zero_extendqisi2
 2870 01a0 9DF82220 		ldrb	r2, [sp, #34]	@ zero_extendqisi2
 2871 01a4 9A42     		cmp	r2, r3
 2872 01a6 BDD3     		bcc	.L118
 2873              	.LBE86:
 2874              		.loc 17 152 0 is_stmt 1
 2875 01a8 099B     		ldr	r3, [sp, #36]
 2876 01aa 5A1C     		adds	r2, r3, #1
 2877 01ac 0992     		str	r2, [sp, #36]
 2878 01ae 009A     		ldr	r2, [sp]
 2879 01b0 1344     		add	r3, r3, r2
 2880 01b2 1B78     		ldrb	r3, [r3]
 2881 01b4 8DF81930 		strb	r3, [sp, #25]
 2882              		.loc 17 153 0
 2883 01b8 019B     		ldr	r3, [sp, #4]
 2884 01ba 1B7F     		ldrb	r3, [r3, #28]	@ zero_extendqisi2
 2885 01bc 9DF81920 		ldrb	r2, [sp, #25]	@ zero_extendqisi2
 2886 01c0 9A42     		cmp	r2, r3
 2887 01c2 0BD9     		bls	.L119
 2888              		.loc 17 154 0
 2889 01c4 019B     		ldr	r3, [sp, #4]
 2890 01c6 5A6A     		ldr	r2, [r3, #36]
 2891 01c8 9DF81930 		ldrb	r3, [sp, #25]	@ zero_extendqisi2
 2892 01cc 9B00     		lsls	r3, r3, #2
 2893 01ce 1046     		mov	r0, r2
 2894 01d0 1946     		mov	r1, r3
 2895 01d2 FFF7FEFF 		bl	realloc
 2896 01d6 0246     		mov	r2, r0
 2897 01d8 019B     		ldr	r3, [sp, #4]
 2898 01da 5A62     		str	r2, [r3, #36]
 2899              	.L119:
 2900              		.loc 17 155 0
 2901 01dc 099B     		ldr	r3, [sp, #36]
 2902 01de 0333     		adds	r3, r3, #3
 2903 01e0 0993     		str	r3, [sp, #36]
 2904              		.loc 17 156 0
 2905 01e2 019B     		ldr	r3, [sp, #4]
 2906 01e4 9DF81920 		ldrb	r2, [sp, #25]
ARM GAS  /tmp/ccg61o9J.s 			page 53


 2907 01e8 1A77     		strb	r2, [r3, #28]
 2908              	.LBB88:
 2909              		.loc 17 157 0
 2910 01ea 0023     		movs	r3, #0
 2911 01ec 8DF82130 		strb	r3, [sp, #33]
 2912 01f0 44E0     		b	.L120
 2913              	.L123:
 2914              	.LBB89:
 2915              		.loc 17 159 0
 2916 01f2 099B     		ldr	r3, [sp, #36]
 2917 01f4 009A     		ldr	r2, [sp]
 2918 01f6 1344     		add	r3, r3, r2
 2919 01f8 03AA     		add	r2, sp, #12
 2920 01fa 1046     		mov	r0, r2
 2921 01fc 1946     		mov	r1, r3
 2922 01fe 0422     		movs	r2, #4
 2923 0200 FFF7FEFF 		bl	memcpy
 2924              		.loc 17 160 0
 2925 0204 099B     		ldr	r3, [sp, #36]
 2926 0206 0433     		adds	r3, r3, #4
 2927 0208 0993     		str	r3, [sp, #36]
 2928              	.LBB90:
 2929              		.loc 17 161 0
 2930 020a 099B     		ldr	r3, [sp, #36]
 2931 020c 0793     		str	r3, [sp, #28]
 2932 020e 0BE0     		b	.L121
 2933              	.L122:
 2934              		.loc 17 162 0 discriminator 2
 2935 0210 079B     		ldr	r3, [sp, #28]
 2936 0212 013B     		subs	r3, r3, #1
 2937 0214 009A     		ldr	r2, [sp]
 2938 0216 1344     		add	r3, r3, r2
 2939 0218 0099     		ldr	r1, [sp]
 2940 021a 079A     		ldr	r2, [sp, #28]
 2941 021c 0A44     		add	r2, r2, r1
 2942 021e 1278     		ldrb	r2, [r2]	@ zero_extendqisi2
 2943 0220 1A70     		strb	r2, [r3]
 2944              		.loc 17 161 0 discriminator 2
 2945 0222 079B     		ldr	r3, [sp, #28]
 2946 0224 0133     		adds	r3, r3, #1
 2947 0226 0793     		str	r3, [sp, #28]
 2948              	.L121:
 2949              		.loc 17 161 0 is_stmt 0 discriminator 1
 2950 0228 099A     		ldr	r2, [sp, #36]
 2951 022a 039B     		ldr	r3, [sp, #12]
 2952 022c 1A44     		add	r2, r2, r3
 2953 022e 079B     		ldr	r3, [sp, #28]
 2954 0230 9A42     		cmp	r2, r3
 2955 0232 EDD8     		bhi	.L122
 2956              	.LBE90:
 2957              		.loc 17 164 0 is_stmt 1
 2958 0234 099A     		ldr	r2, [sp, #36]
 2959 0236 039B     		ldr	r3, [sp, #12]
 2960 0238 1344     		add	r3, r3, r2
 2961 023a 013B     		subs	r3, r3, #1
 2962 023c 009A     		ldr	r2, [sp]
 2963 023e 1344     		add	r3, r3, r2
ARM GAS  /tmp/ccg61o9J.s 			page 54


 2964 0240 0022     		movs	r2, #0
 2965 0242 1A70     		strb	r2, [r3]
 2966              		.loc 17 165 0
 2967 0244 099B     		ldr	r3, [sp, #36]
 2968 0246 013B     		subs	r3, r3, #1
 2969 0248 009A     		ldr	r2, [sp]
 2970 024a 1A44     		add	r2, r2, r3
 2971 024c 019B     		ldr	r3, [sp, #4]
 2972 024e 1A62     		str	r2, [r3, #32]
 2973              		.loc 17 166 0
 2974 0250 099A     		ldr	r2, [sp, #36]
 2975 0252 039B     		ldr	r3, [sp, #12]
 2976 0254 1344     		add	r3, r3, r2
 2977 0256 0993     		str	r3, [sp, #36]
 2978              		.loc 17 167 0
 2979 0258 019B     		ldr	r3, [sp, #4]
 2980 025a 5A6A     		ldr	r2, [r3, #36]
 2981 025c 9DF82130 		ldrb	r3, [sp, #33]	@ zero_extendqisi2
 2982 0260 9B00     		lsls	r3, r3, #2
 2983 0262 1A44     		add	r2, r2, r3
 2984 0264 019B     		ldr	r3, [sp, #4]
 2985 0266 2033     		adds	r3, r3, #32
 2986 0268 1046     		mov	r0, r2
 2987 026a 1946     		mov	r1, r3
 2988 026c 0422     		movs	r2, #4
 2989 026e FFF7FEFF 		bl	memcpy
 2990              	.LBE89:
 2991              		.loc 17 157 0
 2992 0272 9DF82130 		ldrb	r3, [sp, #33]	@ zero_extendqisi2
 2993 0276 0133     		adds	r3, r3, #1
 2994 0278 8DF82130 		strb	r3, [sp, #33]
 2995              	.L120:
 2996              		.loc 17 157 0 is_stmt 0 discriminator 1
 2997 027c 019B     		ldr	r3, [sp, #4]
 2998 027e 1B7F     		ldrb	r3, [r3, #28]	@ zero_extendqisi2
 2999 0280 9DF82120 		ldrb	r2, [sp, #33]	@ zero_extendqisi2
 3000 0284 9A42     		cmp	r2, r3
 3001 0286 B4D3     		bcc	.L123
 3002              	.LBE88:
 3003              		.loc 17 169 0 is_stmt 1
 3004 0288 099B     		ldr	r3, [sp, #36]
 3005              	.LBE83:
 3006              		.loc 17 170 0
 3007 028a 1846     		mov	r0, r3
 3008 028c 0BB0     		add	sp, sp, #44
 3009              		@ sp needed
 3010 028e 5DF804FB 		ldr	pc, [sp], #4
 3011              		.cfi_endproc
 3012              	.LFE632:
 3013              		.size	_ZN14rosserial_msgs20RequestParamResponse11deserializeEPh, .-_ZN14rosserial_msgs20RequestPar
 3014 0292 00BFAFF3 		.section	.text._ZN14rosserial_msgs20RequestParamResponse7getTypeEv,"axG",%progbits,_ZN14rosserial_
 3014      0080AFF3 
 3014      0080AFF3 
 3014      0080
 3015              		.align	2
 3016              		.p2align 4,,15
 3017              		.weak	_ZN14rosserial_msgs20RequestParamResponse7getTypeEv
ARM GAS  /tmp/ccg61o9J.s 			page 55


 3018              		.thumb
 3019              		.thumb_func
 3020              		.type	_ZN14rosserial_msgs20RequestParamResponse7getTypeEv, %function
 3021              	_ZN14rosserial_msgs20RequestParamResponse7getTypeEv:
 3022              	.LFB633:
 3023              		.loc 17 172 0
 3024              		.cfi_startproc
 3025              		@ args = 0, pretend = 0, frame = 8
 3026              		@ frame_needed = 0, uses_anonymous_args = 0
 3027              		@ link register save eliminated.
 3028 0000 82B0     		sub	sp, sp, #8
 3029              		.cfi_def_cfa_offset 8
 3030 0002 0190     		str	r0, [sp, #4]
 3031              		.loc 17 172 0
 3032 0004 014B     		ldr	r3, .L127
 3033 0006 1846     		mov	r0, r3
 3034 0008 02B0     		add	sp, sp, #8
 3035              		@ sp needed
 3036 000a 7047     		bx	lr
 3037              	.L128:
 3038              		.align	2
 3039              	.L127:
 3040 000c 00000000 		.word	_ZN14rosserial_msgsL12REQUESTPARAME
 3041              		.cfi_endproc
 3042              	.LFE633:
 3043              		.size	_ZN14rosserial_msgs20RequestParamResponse7getTypeEv, .-_ZN14rosserial_msgs20RequestParamResp
 3044              		.section	.rodata
 3045 00b9 000000   		.align	2
 3046              	.LC7:
 3047 00bc 39663065 		.ascii	"9f0e98bda65981986ddf53afa7a40e49\000"
 3047      39386264 
 3047      61363539 
 3047      38313938 
 3047      36646466 
 3048              		.section	.text._ZN14rosserial_msgs20RequestParamResponse6getMD5Ev,"axG",%progbits,_ZN14rosserial_m
 3049              		.align	2
 3050              		.p2align 4,,15
 3051              		.weak	_ZN14rosserial_msgs20RequestParamResponse6getMD5Ev
 3052              		.thumb
 3053              		.thumb_func
 3054              		.type	_ZN14rosserial_msgs20RequestParamResponse6getMD5Ev, %function
 3055              	_ZN14rosserial_msgs20RequestParamResponse6getMD5Ev:
 3056              	.LFB634:
 3057              		.loc 17 173 0
 3058              		.cfi_startproc
 3059              		@ args = 0, pretend = 0, frame = 8
 3060              		@ frame_needed = 0, uses_anonymous_args = 0
 3061              		@ link register save eliminated.
 3062 0000 82B0     		sub	sp, sp, #8
 3063              		.cfi_def_cfa_offset 8
 3064 0002 0190     		str	r0, [sp, #4]
 3065              		.loc 17 173 0
 3066 0004 014B     		ldr	r3, .L131
 3067 0006 1846     		mov	r0, r3
 3068 0008 02B0     		add	sp, sp, #8
 3069              		@ sp needed
 3070 000a 7047     		bx	lr
ARM GAS  /tmp/ccg61o9J.s 			page 56


 3071              	.L132:
 3072              		.align	2
 3073              	.L131:
 3074 000c BC000000 		.word	.LC7
 3075              		.cfi_endproc
 3076              	.LFE634:
 3077              		.size	_ZN14rosserial_msgs20RequestParamResponse6getMD5Ev, .-_ZN14rosserial_msgs20RequestParamRespo
 3078              		.section	.text._ZN3ros9PublisherC2EPKcPNS_3MsgEi,"axG",%progbits,_ZN3ros9PublisherC5EPKcPNS_3MsgEi
 3079              		.align	2
 3080              		.p2align 4,,15
 3081              		.weak	_ZN3ros9PublisherC2EPKcPNS_3MsgEi
 3082              		.thumb
 3083              		.thumb_func
 3084              		.type	_ZN3ros9PublisherC2EPKcPNS_3MsgEi, %function
 3085              	_ZN3ros9PublisherC2EPKcPNS_3MsgEi:
 3086              	.LFB636:
 3087              		.file 18 "ros_lib/ros/publisher.h"
 3088              		.loc 18 47 0
 3089              		.cfi_startproc
 3090              		@ args = 0, pretend = 0, frame = 16
 3091              		@ frame_needed = 0, uses_anonymous_args = 0
 3092              		@ link register save eliminated.
 3093 0000 84B0     		sub	sp, sp, #16
 3094              		.cfi_def_cfa_offset 16
 3095 0002 0390     		str	r0, [sp, #12]
 3096 0004 0291     		str	r1, [sp, #8]
 3097 0006 0192     		str	r2, [sp, #4]
 3098 0008 0093     		str	r3, [sp]
 3099              	.LBB91:
 3100              		.loc 18 50 0
 3101 000a 039B     		ldr	r3, [sp, #12]
 3102 000c 029A     		ldr	r2, [sp, #8]
 3103 000e 1A60     		str	r2, [r3]
 3104 0010 039B     		ldr	r3, [sp, #12]
 3105 0012 019A     		ldr	r2, [sp, #4]
 3106 0014 5A60     		str	r2, [r3, #4]
 3107 0016 039B     		ldr	r3, [sp, #12]
 3108 0018 009A     		ldr	r2, [sp]
 3109 001a 1A61     		str	r2, [r3, #16]
 3110              	.LBE91:
 3111 001c 039B     		ldr	r3, [sp, #12]
 3112 001e 1846     		mov	r0, r3
 3113 0020 04B0     		add	sp, sp, #16
 3114              		@ sp needed
 3115 0022 7047     		bx	lr
 3116              		.cfi_endproc
 3117              	.LFE636:
 3118              		.size	_ZN3ros9PublisherC2EPKcPNS_3MsgEi, .-_ZN3ros9PublisherC2EPKcPNS_3MsgEi
 3119              		.weak	_ZN3ros9PublisherC1EPKcPNS_3MsgEi
 3120              		.thumb_set _ZN3ros9PublisherC1EPKcPNS_3MsgEi,_ZN3ros9PublisherC2EPKcPNS_3MsgEi
 3121 0024 AFF30080 		.section	.text._ZN3ros9Publisher7publishEPKNS_3MsgE,"axG",%progbits,_ZN3ros9Publisher7publishEPKNS
 3121      AFF30080 
 3121      AFF30080 
 3122              		.align	2
 3123              		.p2align 4,,15
 3124              		.weak	_ZN3ros9Publisher7publishEPKNS_3MsgE
 3125              		.thumb
ARM GAS  /tmp/ccg61o9J.s 			page 57


 3126              		.thumb_func
 3127              		.type	_ZN3ros9Publisher7publishEPKNS_3MsgE, %function
 3128              	_ZN3ros9Publisher7publishEPKNS_3MsgE:
 3129              	.LFB638:
 3130              		.loc 18 52 0
 3131              		.cfi_startproc
 3132              		@ args = 0, pretend = 0, frame = 8
 3133              		@ frame_needed = 0, uses_anonymous_args = 0
 3134 0000 00B5     		push	{lr}
 3135              		.cfi_def_cfa_offset 4
 3136              		.cfi_offset 14, -4
 3137 0002 83B0     		sub	sp, sp, #12
 3138              		.cfi_def_cfa_offset 16
 3139 0004 0190     		str	r0, [sp, #4]
 3140 0006 0091     		str	r1, [sp]
 3141              		.loc 18 52 0
 3142 0008 019B     		ldr	r3, [sp, #4]
 3143 000a DB68     		ldr	r3, [r3, #12]
 3144 000c 1B68     		ldr	r3, [r3]
 3145 000e 1B68     		ldr	r3, [r3]
 3146 0010 019A     		ldr	r2, [sp, #4]
 3147 0012 D168     		ldr	r1, [r2, #12]
 3148 0014 019A     		ldr	r2, [sp, #4]
 3149 0016 9268     		ldr	r2, [r2, #8]
 3150 0018 0846     		mov	r0, r1
 3151 001a 1146     		mov	r1, r2
 3152 001c 009A     		ldr	r2, [sp]
 3153 001e 9847     		blx	r3
 3154 0020 0346     		mov	r3, r0
 3155 0022 1846     		mov	r0, r3
 3156 0024 03B0     		add	sp, sp, #12
 3157              		@ sp needed
 3158 0026 5DF804FB 		ldr	pc, [sp], #4
 3159              		.cfi_endproc
 3160              	.LFE638:
 3161              		.size	_ZN3ros9Publisher7publishEPKNS_3MsgE, .-_ZN3ros9Publisher7publishEPKNS_3MsgE
 3162 002a 00BFAFF3 		.section	.text._ZN3ros9Publisher15getEndpointTypeEv,"axG",%progbits,_ZN3ros9Publisher15getEndpoint
 3162      0080
 3163              		.align	2
 3164              		.p2align 4,,15
 3165              		.weak	_ZN3ros9Publisher15getEndpointTypeEv
 3166              		.thumb
 3167              		.thumb_func
 3168              		.type	_ZN3ros9Publisher15getEndpointTypeEv, %function
 3169              	_ZN3ros9Publisher15getEndpointTypeEv:
 3170              	.LFB639:
 3171              		.loc 18 53 0
 3172              		.cfi_startproc
 3173              		@ args = 0, pretend = 0, frame = 8
 3174              		@ frame_needed = 0, uses_anonymous_args = 0
 3175              		@ link register save eliminated.
 3176 0000 82B0     		sub	sp, sp, #8
 3177              		.cfi_def_cfa_offset 8
 3178 0002 0190     		str	r0, [sp, #4]
 3179              		.loc 18 53 0
 3180 0004 019B     		ldr	r3, [sp, #4]
 3181 0006 1B69     		ldr	r3, [r3, #16]
ARM GAS  /tmp/ccg61o9J.s 			page 58


 3182 0008 1846     		mov	r0, r3
 3183 000a 02B0     		add	sp, sp, #8
 3184              		@ sp needed
 3185 000c 7047     		bx	lr
 3186              		.cfi_endproc
 3187              	.LFE639:
 3188              		.size	_ZN3ros9Publisher15getEndpointTypeEv, .-_ZN3ros9Publisher15getEndpointTypeEv
 3189 000e 00BF     		.section	.text._ZN11R2PHardwareC2Ev,"axG",%progbits,_ZN11R2PHardwareC5Ev,comdat
 3190              		.align	2
 3191              		.p2align 4,,15
 3192              		.weak	_ZN11R2PHardwareC2Ev
 3193              		.thumb
 3194              		.thumb_func
 3195              		.type	_ZN11R2PHardwareC2Ev, %function
 3196              	_ZN11R2PHardwareC2Ev:
 3197              	.LFB686:
 3198              		.file 19 "ros_lib/r2pHardware.h"
 3199              		.loc 19 53 0
 3200              		.cfi_startproc
 3201              		@ args = 0, pretend = 0, frame = 8
 3202              		@ frame_needed = 0, uses_anonymous_args = 0
 3203              		@ link register save eliminated.
 3204 0000 82B0     		sub	sp, sp, #8
 3205              		.cfi_def_cfa_offset 8
 3206 0002 0190     		str	r0, [sp, #4]
 3207              	.LBB92:
 3208              		.loc 19 56 0
 3209 0004 019B     		ldr	r3, [sp, #4]
 3210 0006 054A     		ldr	r2, .L143
 3211 0008 1A60     		str	r2, [r3]
 3212              		.loc 19 60 0
 3213 000a 019B     		ldr	r3, [sp, #4]
 3214 000c 4FF46142 		mov	r2, #57600
 3215 0010 5A60     		str	r2, [r3, #4]
 3216              	.LBE92:
 3217              		.loc 19 61 0
 3218 0012 019B     		ldr	r3, [sp, #4]
 3219 0014 1846     		mov	r0, r3
 3220 0016 02B0     		add	sp, sp, #8
 3221              		@ sp needed
 3222 0018 7047     		bx	lr
 3223              	.L144:
 3224 001a 00BF     		.align	2
 3225              	.L143:
 3226 001c 00000000 		.word	SDU1
 3227              		.cfi_endproc
 3228              	.LFE686:
 3229              		.size	_ZN11R2PHardwareC2Ev, .-_ZN11R2PHardwareC2Ev
 3230              		.weak	_ZN11R2PHardwareC1Ev
 3231              		.thumb_set _ZN11R2PHardwareC1Ev,_ZN11R2PHardwareC2Ev
 3232              		.section	.text._ZN11R2PHardware4initEv,"axG",%progbits,_ZN11R2PHardware4initEv,comdat
 3233              		.align	2
 3234              		.p2align 4,,15
 3235              		.weak	_ZN11R2PHardware4initEv
 3236              		.thumb
 3237              		.thumb_func
 3238              		.type	_ZN11R2PHardware4initEv, %function
ARM GAS  /tmp/ccg61o9J.s 			page 59


 3239              	_ZN11R2PHardware4initEv:
 3240              	.LFB693:
 3241              		.loc 19 73 0
 3242              		.cfi_startproc
 3243              		@ args = 0, pretend = 0, frame = 8
 3244              		@ frame_needed = 0, uses_anonymous_args = 0
 3245              		@ link register save eliminated.
 3246 0000 82B0     		sub	sp, sp, #8
 3247              		.cfi_def_cfa_offset 8
 3248 0002 0190     		str	r0, [sp, #4]
 3249              		.loc 19 75 0
 3250 0004 02B0     		add	sp, sp, #8
 3251              		@ sp needed
 3252 0006 7047     		bx	lr
 3253              		.cfi_endproc
 3254              	.LFE693:
 3255              		.size	_ZN11R2PHardware4initEv, .-_ZN11R2PHardware4initEv
 3256 0008 AFF30080 		.section	.text._ZN11R2PHardware4readEv,"axG",%progbits,_ZN11R2PHardware4readEv,comdat
 3256      AFF30080 
 3257              		.align	2
 3258              		.p2align 4,,15
 3259              		.weak	_ZN11R2PHardware4readEv
 3260              		.thumb
 3261              		.thumb_func
 3262              		.type	_ZN11R2PHardware4readEv, %function
 3263              	_ZN11R2PHardware4readEv:
 3264              	.LFB694:
 3265              		.loc 19 77 0
 3266              		.cfi_startproc
 3267              		@ args = 0, pretend = 0, frame = 16
 3268              		@ frame_needed = 0, uses_anonymous_args = 0
 3269 0000 00B5     		push	{lr}
 3270              		.cfi_def_cfa_offset 4
 3271              		.cfi_offset 14, -4
 3272 0002 85B0     		sub	sp, sp, #20
 3273              		.cfi_def_cfa_offset 24
 3274 0004 0190     		str	r0, [sp, #4]
 3275              	.LBB93:
 3276              		.loc 19 79 0
 3277 0006 019B     		ldr	r3, [sp, #4]
 3278 0008 1B68     		ldr	r3, [r3]
 3279 000a 03F10C02 		add	r2, r3, #12
 3280 000e 0DF10F03 		add	r3, sp, #15
 3281 0012 1046     		mov	r0, r2
 3282 0014 1946     		mov	r1, r3
 3283 0016 0122     		movs	r2, #1
 3284 0018 0023     		movs	r3, #0
 3285 001a FFF7FEFF 		bl	chIQReadTimeout
 3286 001e 0346     		mov	r3, r0
 3287 0020 002B     		cmp	r3, #0
 3288 0022 0CBF     		ite	eq
 3289 0024 0023     		moveq	r3, #0
 3290 0026 0123     		movne	r3, #1
 3291 0028 DBB2     		uxtb	r3, r3
 3292 002a 002B     		cmp	r3, #0
 3293 002c 02D0     		beq	.L147
 3294              		.loc 19 80 0
ARM GAS  /tmp/ccg61o9J.s 			page 60


 3295 002e 9DF80F30 		ldrb	r3, [sp, #15]	@ zero_extendqisi2
 3296 0032 01E0     		b	.L149
 3297              	.L147:
 3298              		.loc 19 82 0
 3299 0034 4FF0FF33 		mov	r3, #-1
 3300              	.L149:
 3301              	.LBE93:
 3302              		.loc 19 84 0
 3303 0038 1846     		mov	r0, r3
 3304 003a 05B0     		add	sp, sp, #20
 3305              		@ sp needed
 3306 003c 5DF804FB 		ldr	pc, [sp], #4
 3307              		.cfi_endproc
 3308              	.LFE694:
 3309              		.size	_ZN11R2PHardware4readEv, .-_ZN11R2PHardware4readEv
 3310              		.section	.text._ZN11R2PHardware5writeEPhi,"axG",%progbits,_ZN11R2PHardware5writeEPhi,comdat
 3311              		.align	2
 3312              		.p2align 4,,15
 3313              		.weak	_ZN11R2PHardware5writeEPhi
 3314              		.thumb
 3315              		.thumb_func
 3316              		.type	_ZN11R2PHardware5writeEPhi, %function
 3317              	_ZN11R2PHardware5writeEPhi:
 3318              	.LFB695:
 3319              		.loc 19 85 0
 3320              		.cfi_startproc
 3321              		@ args = 0, pretend = 0, frame = 16
 3322              		@ frame_needed = 0, uses_anonymous_args = 0
 3323 0000 00B5     		push	{lr}
 3324              		.cfi_def_cfa_offset 4
 3325              		.cfi_offset 14, -4
 3326 0002 85B0     		sub	sp, sp, #20
 3327              		.cfi_def_cfa_offset 24
 3328 0004 0390     		str	r0, [sp, #12]
 3329 0006 0291     		str	r1, [sp, #8]
 3330 0008 0192     		str	r2, [sp, #4]
 3331              		.loc 19 86 0
 3332 000a 039B     		ldr	r3, [sp, #12]
 3333 000c 1B68     		ldr	r3, [r3]
 3334 000e 03F13002 		add	r2, r3, #48
 3335 0012 019B     		ldr	r3, [sp, #4]
 3336 0014 1046     		mov	r0, r2
 3337 0016 0299     		ldr	r1, [sp, #8]
 3338 0018 1A46     		mov	r2, r3
 3339 001a 4FF0FF33 		mov	r3, #-1
 3340 001e FFF7FEFF 		bl	chOQWriteTimeout
 3341              		.loc 19 87 0
 3342 0022 05B0     		add	sp, sp, #20
 3343              		@ sp needed
 3344 0024 5DF804FB 		ldr	pc, [sp], #4
 3345              		.cfi_endproc
 3346              	.LFE695:
 3347              		.size	_ZN11R2PHardware5writeEPhi, .-_ZN11R2PHardware5writeEPhi
 3348 0028 AFF30080 		.section	.text._ZN11R2PHardware4timeEv,"axG",%progbits,_ZN11R2PHardware4timeEv,comdat
 3348      AFF30080 
 3349              		.align	2
 3350              		.p2align 4,,15
ARM GAS  /tmp/ccg61o9J.s 			page 61


 3351              		.weak	_ZN11R2PHardware4timeEv
 3352              		.thumb
 3353              		.thumb_func
 3354              		.type	_ZN11R2PHardware4timeEv, %function
 3355              	_ZN11R2PHardware4timeEv:
 3356              	.LFB696:
 3357              		.loc 19 89 0
 3358              		.cfi_startproc
 3359              		@ args = 0, pretend = 0, frame = 8
 3360              		@ frame_needed = 0, uses_anonymous_args = 0
 3361              		@ link register save eliminated.
 3362 0000 82B0     		sub	sp, sp, #8
 3363              		.cfi_def_cfa_offset 8
 3364 0002 0190     		str	r0, [sp, #4]
 3365              		.loc 19 89 0
 3366 0004 064B     		ldr	r3, .L153
 3367 0006 DA68     		ldr	r2, [r3, #12]
 3368 0008 064B     		ldr	r3, .L153+4
 3369 000a A3FB0213 		umull	r1, r3, r3, r2
 3370 000e 9B09     		lsrs	r3, r3, #6
 3371 0010 4FF47A72 		mov	r2, #1000
 3372 0014 02FB03F3 		mul	r3, r2, r3
 3373 0018 1846     		mov	r0, r3
 3374 001a 02B0     		add	sp, sp, #8
 3375              		@ sp needed
 3376 001c 7047     		bx	lr
 3377              	.L154:
 3378 001e 00BF     		.align	2
 3379              	.L153:
 3380 0020 00000000 		.word	vtlist
 3381 0024 D34D6210 		.word	274877907
 3382              		.cfi_endproc
 3383              	.LFE696:
 3384              		.size	_ZN11R2PHardware4timeEv, .-_ZN11R2PHardware4timeEv
 3385 0028 AFF30080 		.section	.text._ZNK13geometry_msgs7Vector39serializeEPh,"axG",%progbits,_ZNK13geometry_msgs7Vector
 3385      AFF30080 
 3386              		.align	2
 3387              		.p2align 4,,15
 3388              		.weak	_ZNK13geometry_msgs7Vector39serializeEPh
 3389              		.thumb
 3390              		.thumb_func
 3391              		.type	_ZNK13geometry_msgs7Vector39serializeEPh, %function
 3392              	_ZNK13geometry_msgs7Vector39serializeEPh:
 3393              	.LFB705:
 3394              		.file 20 "ros_lib/geometry_msgs/Vector3.h"
 3395              		.loc 20 19 0
 3396              		.cfi_startproc
 3397              		@ args = 0, pretend = 0, frame = 16
 3398              		@ frame_needed = 0, uses_anonymous_args = 0
 3399 0000 00B5     		push	{lr}
 3400              		.cfi_def_cfa_offset 4
 3401              		.cfi_offset 14, -4
 3402 0002 85B0     		sub	sp, sp, #20
 3403              		.cfi_def_cfa_offset 24
 3404 0004 0190     		str	r0, [sp, #4]
 3405 0006 0091     		str	r1, [sp]
 3406              	.LBB94:
ARM GAS  /tmp/ccg61o9J.s 			page 62


 3407              		.loc 20 21 0
 3408 0008 0023     		movs	r3, #0
 3409 000a 0393     		str	r3, [sp, #12]
 3410              		.loc 20 22 0
 3411 000c 039B     		ldr	r3, [sp, #12]
 3412 000e 009A     		ldr	r2, [sp]
 3413 0010 1344     		add	r3, r3, r2
 3414 0012 019A     		ldr	r2, [sp, #4]
 3415 0014 D2ED017A 		flds	s15, [r2, #4]
 3416 0018 1846     		mov	r0, r3
 3417 001a B0EE670A 		fcpys	s0, s15
 3418 001e FFF7FEFF 		bl	_ZN3ros3Msg19serializeAvrFloat64EPhf
 3419 0022 0346     		mov	r3, r0
 3420 0024 039A     		ldr	r2, [sp, #12]
 3421 0026 1344     		add	r3, r3, r2
 3422 0028 0393     		str	r3, [sp, #12]
 3423              		.loc 20 23 0
 3424 002a 039B     		ldr	r3, [sp, #12]
 3425 002c 009A     		ldr	r2, [sp]
 3426 002e 1344     		add	r3, r3, r2
 3427 0030 019A     		ldr	r2, [sp, #4]
 3428 0032 D2ED027A 		flds	s15, [r2, #8]
 3429 0036 1846     		mov	r0, r3
 3430 0038 B0EE670A 		fcpys	s0, s15
 3431 003c FFF7FEFF 		bl	_ZN3ros3Msg19serializeAvrFloat64EPhf
 3432 0040 0346     		mov	r3, r0
 3433 0042 039A     		ldr	r2, [sp, #12]
 3434 0044 1344     		add	r3, r3, r2
 3435 0046 0393     		str	r3, [sp, #12]
 3436              		.loc 20 24 0
 3437 0048 039B     		ldr	r3, [sp, #12]
 3438 004a 009A     		ldr	r2, [sp]
 3439 004c 1344     		add	r3, r3, r2
 3440 004e 019A     		ldr	r2, [sp, #4]
 3441 0050 D2ED037A 		flds	s15, [r2, #12]
 3442 0054 1846     		mov	r0, r3
 3443 0056 B0EE670A 		fcpys	s0, s15
 3444 005a FFF7FEFF 		bl	_ZN3ros3Msg19serializeAvrFloat64EPhf
 3445 005e 0346     		mov	r3, r0
 3446 0060 039A     		ldr	r2, [sp, #12]
 3447 0062 1344     		add	r3, r3, r2
 3448 0064 0393     		str	r3, [sp, #12]
 3449              		.loc 20 25 0
 3450 0066 039B     		ldr	r3, [sp, #12]
 3451              	.LBE94:
 3452              		.loc 20 26 0
 3453 0068 1846     		mov	r0, r3
 3454 006a 05B0     		add	sp, sp, #20
 3455              		@ sp needed
 3456 006c 5DF804FB 		ldr	pc, [sp], #4
 3457              		.cfi_endproc
 3458              	.LFE705:
 3459              		.size	_ZNK13geometry_msgs7Vector39serializeEPh, .-_ZNK13geometry_msgs7Vector39serializeEPh
 3460              		.section	.text._ZN13geometry_msgs7Vector311deserializeEPh,"axG",%progbits,_ZN13geometry_msgs7Vecto
 3461              		.align	2
 3462              		.p2align 4,,15
 3463              		.weak	_ZN13geometry_msgs7Vector311deserializeEPh
ARM GAS  /tmp/ccg61o9J.s 			page 63


 3464              		.thumb
 3465              		.thumb_func
 3466              		.type	_ZN13geometry_msgs7Vector311deserializeEPh, %function
 3467              	_ZN13geometry_msgs7Vector311deserializeEPh:
 3468              	.LFB706:
 3469              		.loc 20 28 0
 3470              		.cfi_startproc
 3471              		@ args = 0, pretend = 0, frame = 16
 3472              		@ frame_needed = 0, uses_anonymous_args = 0
 3473 0000 00B5     		push	{lr}
 3474              		.cfi_def_cfa_offset 4
 3475              		.cfi_offset 14, -4
 3476 0002 85B0     		sub	sp, sp, #20
 3477              		.cfi_def_cfa_offset 24
 3478 0004 0190     		str	r0, [sp, #4]
 3479 0006 0091     		str	r1, [sp]
 3480              	.LBB95:
 3481              		.loc 20 30 0
 3482 0008 0023     		movs	r3, #0
 3483 000a 0393     		str	r3, [sp, #12]
 3484              		.loc 20 31 0
 3485 000c 039B     		ldr	r3, [sp, #12]
 3486 000e 009A     		ldr	r2, [sp]
 3487 0010 1A44     		add	r2, r2, r3
 3488 0012 019B     		ldr	r3, [sp, #4]
 3489 0014 0433     		adds	r3, r3, #4
 3490 0016 1046     		mov	r0, r2
 3491 0018 1946     		mov	r1, r3
 3492 001a FFF7FEFF 		bl	_ZN3ros3Msg21deserializeAvrFloat64EPKhPf
 3493 001e 0346     		mov	r3, r0
 3494 0020 039A     		ldr	r2, [sp, #12]
 3495 0022 1344     		add	r3, r3, r2
 3496 0024 0393     		str	r3, [sp, #12]
 3497              		.loc 20 32 0
 3498 0026 039B     		ldr	r3, [sp, #12]
 3499 0028 009A     		ldr	r2, [sp]
 3500 002a 1A44     		add	r2, r2, r3
 3501 002c 019B     		ldr	r3, [sp, #4]
 3502 002e 0833     		adds	r3, r3, #8
 3503 0030 1046     		mov	r0, r2
 3504 0032 1946     		mov	r1, r3
 3505 0034 FFF7FEFF 		bl	_ZN3ros3Msg21deserializeAvrFloat64EPKhPf
 3506 0038 0346     		mov	r3, r0
 3507 003a 039A     		ldr	r2, [sp, #12]
 3508 003c 1344     		add	r3, r3, r2
 3509 003e 0393     		str	r3, [sp, #12]
 3510              		.loc 20 33 0
 3511 0040 039B     		ldr	r3, [sp, #12]
 3512 0042 009A     		ldr	r2, [sp]
 3513 0044 1A44     		add	r2, r2, r3
 3514 0046 019B     		ldr	r3, [sp, #4]
 3515 0048 0C33     		adds	r3, r3, #12
 3516 004a 1046     		mov	r0, r2
 3517 004c 1946     		mov	r1, r3
 3518 004e FFF7FEFF 		bl	_ZN3ros3Msg21deserializeAvrFloat64EPKhPf
 3519 0052 0346     		mov	r3, r0
 3520 0054 039A     		ldr	r2, [sp, #12]
ARM GAS  /tmp/ccg61o9J.s 			page 64


 3521 0056 1344     		add	r3, r3, r2
 3522 0058 0393     		str	r3, [sp, #12]
 3523              		.loc 20 34 0
 3524 005a 039B     		ldr	r3, [sp, #12]
 3525              	.LBE95:
 3526              		.loc 20 35 0
 3527 005c 1846     		mov	r0, r3
 3528 005e 05B0     		add	sp, sp, #20
 3529              		@ sp needed
 3530 0060 5DF804FB 		ldr	pc, [sp], #4
 3531              		.cfi_endproc
 3532              	.LFE706:
 3533              		.size	_ZN13geometry_msgs7Vector311deserializeEPh, .-_ZN13geometry_msgs7Vector311deserializeEPh
 3534 0064 AFF30080 		.section	.rodata
 3534      AFF30080 
 3534      AFF30080 
 3535 00dd 000000   		.align	2
 3536              	.LC8:
 3537 00e0 67656F6D 		.ascii	"geometry_msgs/Vector3\000"
 3537      65747279 
 3537      5F6D7367 
 3537      732F5665 
 3537      63746F72 
 3538              		.section	.text._ZN13geometry_msgs7Vector37getTypeEv,"axG",%progbits,_ZN13geometry_msgs7Vector37get
 3539              		.align	2
 3540              		.p2align 4,,15
 3541              		.weak	_ZN13geometry_msgs7Vector37getTypeEv
 3542              		.thumb
 3543              		.thumb_func
 3544              		.type	_ZN13geometry_msgs7Vector37getTypeEv, %function
 3545              	_ZN13geometry_msgs7Vector37getTypeEv:
 3546              	.LFB707:
 3547              		.loc 20 37 0
 3548              		.cfi_startproc
 3549              		@ args = 0, pretend = 0, frame = 8
 3550              		@ frame_needed = 0, uses_anonymous_args = 0
 3551              		@ link register save eliminated.
 3552 0000 82B0     		sub	sp, sp, #8
 3553              		.cfi_def_cfa_offset 8
 3554 0002 0190     		str	r0, [sp, #4]
 3555              		.loc 20 37 0
 3556 0004 014B     		ldr	r3, .L161
 3557 0006 1846     		mov	r0, r3
 3558 0008 02B0     		add	sp, sp, #8
 3559              		@ sp needed
 3560 000a 7047     		bx	lr
 3561              	.L162:
 3562              		.align	2
 3563              	.L161:
 3564 000c E0000000 		.word	.LC8
 3565              		.cfi_endproc
 3566              	.LFE707:
 3567              		.size	_ZN13geometry_msgs7Vector37getTypeEv, .-_ZN13geometry_msgs7Vector37getTypeEv
 3568              		.section	.rodata
 3569 00f6 0000     		.align	2
 3570              	.LC9:
 3571 00f8 34613834 		.ascii	"4a842b65f413084dc2b10fb484ea7f17\000"
ARM GAS  /tmp/ccg61o9J.s 			page 65


 3571      32623635 
 3571      66343133 
 3571      30383464 
 3571      63326231 
 3572              		.section	.text._ZN13geometry_msgs7Vector36getMD5Ev,"axG",%progbits,_ZN13geometry_msgs7Vector36getM
 3573              		.align	2
 3574              		.p2align 4,,15
 3575              		.weak	_ZN13geometry_msgs7Vector36getMD5Ev
 3576              		.thumb
 3577              		.thumb_func
 3578              		.type	_ZN13geometry_msgs7Vector36getMD5Ev, %function
 3579              	_ZN13geometry_msgs7Vector36getMD5Ev:
 3580              	.LFB708:
 3581              		.loc 20 38 0
 3582              		.cfi_startproc
 3583              		@ args = 0, pretend = 0, frame = 8
 3584              		@ frame_needed = 0, uses_anonymous_args = 0
 3585              		@ link register save eliminated.
 3586 0000 82B0     		sub	sp, sp, #8
 3587              		.cfi_def_cfa_offset 8
 3588 0002 0190     		str	r0, [sp, #4]
 3589              		.loc 20 38 0
 3590 0004 014B     		ldr	r3, .L165
 3591 0006 1846     		mov	r0, r3
 3592 0008 02B0     		add	sp, sp, #8
 3593              		@ sp needed
 3594 000a 7047     		bx	lr
 3595              	.L166:
 3596              		.align	2
 3597              	.L165:
 3598 000c F8000000 		.word	.LC9
 3599              		.cfi_endproc
 3600              	.LFE708:
 3601              		.size	_ZN13geometry_msgs7Vector36getMD5Ev, .-_ZN13geometry_msgs7Vector36getMD5Ev
 3602              		.section	.text._ZNK13geometry_msgs5Twist9serializeEPh,"axG",%progbits,_ZNK13geometry_msgs5Twist9se
 3603              		.align	2
 3604              		.p2align 4,,15
 3605              		.weak	_ZNK13geometry_msgs5Twist9serializeEPh
 3606              		.thumb
 3607              		.thumb_func
 3608              		.type	_ZNK13geometry_msgs5Twist9serializeEPh, %function
 3609              	_ZNK13geometry_msgs5Twist9serializeEPh:
 3610              	.LFB709:
 3611              		.file 21 "ros_lib/geometry_msgs/Twist.h"
 3612              		.loc 21 19 0
 3613              		.cfi_startproc
 3614              		@ args = 0, pretend = 0, frame = 16
 3615              		@ frame_needed = 0, uses_anonymous_args = 0
 3616 0000 00B5     		push	{lr}
 3617              		.cfi_def_cfa_offset 4
 3618              		.cfi_offset 14, -4
 3619 0002 85B0     		sub	sp, sp, #20
 3620              		.cfi_def_cfa_offset 24
 3621 0004 0190     		str	r0, [sp, #4]
 3622 0006 0091     		str	r1, [sp]
 3623              	.LBB96:
 3624              		.loc 21 21 0
ARM GAS  /tmp/ccg61o9J.s 			page 66


 3625 0008 0023     		movs	r3, #0
 3626 000a 0393     		str	r3, [sp, #12]
 3627              		.loc 21 22 0
 3628 000c 019B     		ldr	r3, [sp, #4]
 3629 000e 1A1D     		adds	r2, r3, #4
 3630 0010 039B     		ldr	r3, [sp, #12]
 3631 0012 0099     		ldr	r1, [sp]
 3632 0014 0B44     		add	r3, r3, r1
 3633 0016 1046     		mov	r0, r2
 3634 0018 1946     		mov	r1, r3
 3635 001a FFF7FEFF 		bl	_ZNK13geometry_msgs7Vector39serializeEPh
 3636 001e 0346     		mov	r3, r0
 3637 0020 039A     		ldr	r2, [sp, #12]
 3638 0022 1344     		add	r3, r3, r2
 3639 0024 0393     		str	r3, [sp, #12]
 3640              		.loc 21 23 0
 3641 0026 019B     		ldr	r3, [sp, #4]
 3642 0028 03F11402 		add	r2, r3, #20
 3643 002c 039B     		ldr	r3, [sp, #12]
 3644 002e 0099     		ldr	r1, [sp]
 3645 0030 0B44     		add	r3, r3, r1
 3646 0032 1046     		mov	r0, r2
 3647 0034 1946     		mov	r1, r3
 3648 0036 FFF7FEFF 		bl	_ZNK13geometry_msgs7Vector39serializeEPh
 3649 003a 0346     		mov	r3, r0
 3650 003c 039A     		ldr	r2, [sp, #12]
 3651 003e 1344     		add	r3, r3, r2
 3652 0040 0393     		str	r3, [sp, #12]
 3653              		.loc 21 24 0
 3654 0042 039B     		ldr	r3, [sp, #12]
 3655              	.LBE96:
 3656              		.loc 21 25 0
 3657 0044 1846     		mov	r0, r3
 3658 0046 05B0     		add	sp, sp, #20
 3659              		@ sp needed
 3660 0048 5DF804FB 		ldr	pc, [sp], #4
 3661              		.cfi_endproc
 3662              	.LFE709:
 3663              		.size	_ZNK13geometry_msgs5Twist9serializeEPh, .-_ZNK13geometry_msgs5Twist9serializeEPh
 3664 004c AFF30080 		.section	.text._ZN13geometry_msgs5Twist11deserializeEPh,"axG",%progbits,_ZN13geometry_msgs5Twist11
 3665              		.align	2
 3666              		.p2align 4,,15
 3667              		.weak	_ZN13geometry_msgs5Twist11deserializeEPh
 3668              		.thumb
 3669              		.thumb_func
 3670              		.type	_ZN13geometry_msgs5Twist11deserializeEPh, %function
 3671              	_ZN13geometry_msgs5Twist11deserializeEPh:
 3672              	.LFB710:
 3673              		.loc 21 27 0
 3674              		.cfi_startproc
 3675              		@ args = 0, pretend = 0, frame = 16
 3676              		@ frame_needed = 0, uses_anonymous_args = 0
 3677 0000 00B5     		push	{lr}
 3678              		.cfi_def_cfa_offset 4
 3679              		.cfi_offset 14, -4
 3680 0002 85B0     		sub	sp, sp, #20
 3681              		.cfi_def_cfa_offset 24
ARM GAS  /tmp/ccg61o9J.s 			page 67


 3682 0004 0190     		str	r0, [sp, #4]
 3683 0006 0091     		str	r1, [sp]
 3684              	.LBB97:
 3685              		.loc 21 29 0
 3686 0008 0023     		movs	r3, #0
 3687 000a 0393     		str	r3, [sp, #12]
 3688              		.loc 21 30 0
 3689 000c 019B     		ldr	r3, [sp, #4]
 3690 000e 1A1D     		adds	r2, r3, #4
 3691 0010 039B     		ldr	r3, [sp, #12]
 3692 0012 0099     		ldr	r1, [sp]
 3693 0014 0B44     		add	r3, r3, r1
 3694 0016 1046     		mov	r0, r2
 3695 0018 1946     		mov	r1, r3
 3696 001a FFF7FEFF 		bl	_ZN13geometry_msgs7Vector311deserializeEPh
 3697 001e 0346     		mov	r3, r0
 3698 0020 039A     		ldr	r2, [sp, #12]
 3699 0022 1344     		add	r3, r3, r2
 3700 0024 0393     		str	r3, [sp, #12]
 3701              		.loc 21 31 0
 3702 0026 019B     		ldr	r3, [sp, #4]
 3703 0028 03F11402 		add	r2, r3, #20
 3704 002c 039B     		ldr	r3, [sp, #12]
 3705 002e 0099     		ldr	r1, [sp]
 3706 0030 0B44     		add	r3, r3, r1
 3707 0032 1046     		mov	r0, r2
 3708 0034 1946     		mov	r1, r3
 3709 0036 FFF7FEFF 		bl	_ZN13geometry_msgs7Vector311deserializeEPh
 3710 003a 0346     		mov	r3, r0
 3711 003c 039A     		ldr	r2, [sp, #12]
 3712 003e 1344     		add	r3, r3, r2
 3713 0040 0393     		str	r3, [sp, #12]
 3714              		.loc 21 32 0
 3715 0042 039B     		ldr	r3, [sp, #12]
 3716              	.LBE97:
 3717              		.loc 21 33 0
 3718 0044 1846     		mov	r0, r3
 3719 0046 05B0     		add	sp, sp, #20
 3720              		@ sp needed
 3721 0048 5DF804FB 		ldr	pc, [sp], #4
 3722              		.cfi_endproc
 3723              	.LFE710:
 3724              		.size	_ZN13geometry_msgs5Twist11deserializeEPh, .-_ZN13geometry_msgs5Twist11deserializeEPh
 3725 004c AFF30080 		.section	.rodata
 3726 0119 000000   		.align	2
 3727              	.LC10:
 3728 011c 67656F6D 		.ascii	"geometry_msgs/Twist\000"
 3728      65747279 
 3728      5F6D7367 
 3728      732F5477 
 3728      69737400 
 3729              		.section	.text._ZN13geometry_msgs5Twist7getTypeEv,"axG",%progbits,_ZN13geometry_msgs5Twist7getType
 3730              		.align	2
 3731              		.p2align 4,,15
 3732              		.weak	_ZN13geometry_msgs5Twist7getTypeEv
 3733              		.thumb
 3734              		.thumb_func
ARM GAS  /tmp/ccg61o9J.s 			page 68


 3735              		.type	_ZN13geometry_msgs5Twist7getTypeEv, %function
 3736              	_ZN13geometry_msgs5Twist7getTypeEv:
 3737              	.LFB711:
 3738              		.loc 21 35 0
 3739              		.cfi_startproc
 3740              		@ args = 0, pretend = 0, frame = 8
 3741              		@ frame_needed = 0, uses_anonymous_args = 0
 3742              		@ link register save eliminated.
 3743 0000 82B0     		sub	sp, sp, #8
 3744              		.cfi_def_cfa_offset 8
 3745 0002 0190     		str	r0, [sp, #4]
 3746              		.loc 21 35 0
 3747 0004 014B     		ldr	r3, .L173
 3748 0006 1846     		mov	r0, r3
 3749 0008 02B0     		add	sp, sp, #8
 3750              		@ sp needed
 3751 000a 7047     		bx	lr
 3752              	.L174:
 3753              		.align	2
 3754              	.L173:
 3755 000c 1C010000 		.word	.LC10
 3756              		.cfi_endproc
 3757              	.LFE711:
 3758              		.size	_ZN13geometry_msgs5Twist7getTypeEv, .-_ZN13geometry_msgs5Twist7getTypeEv
 3759              		.section	.rodata
 3760              		.align	2
 3761              	.LC11:
 3762 0130 39663139 		.ascii	"9f195f881246fdfa2798d1d3eebca84a\000"
 3762      35663838 
 3762      31323436 
 3762      66646661 
 3762      32373938 
 3763              		.section	.text._ZN13geometry_msgs5Twist6getMD5Ev,"axG",%progbits,_ZN13geometry_msgs5Twist6getMD5Ev
 3764              		.align	2
 3765              		.p2align 4,,15
 3766              		.weak	_ZN13geometry_msgs5Twist6getMD5Ev
 3767              		.thumb
 3768              		.thumb_func
 3769              		.type	_ZN13geometry_msgs5Twist6getMD5Ev, %function
 3770              	_ZN13geometry_msgs5Twist6getMD5Ev:
 3771              	.LFB712:
 3772              		.loc 21 36 0
 3773              		.cfi_startproc
 3774              		@ args = 0, pretend = 0, frame = 8
 3775              		@ frame_needed = 0, uses_anonymous_args = 0
 3776              		@ link register save eliminated.
 3777 0000 82B0     		sub	sp, sp, #8
 3778              		.cfi_def_cfa_offset 8
 3779 0002 0190     		str	r0, [sp, #4]
 3780              		.loc 21 36 0
 3781 0004 014B     		ldr	r3, .L177
 3782 0006 1846     		mov	r0, r3
 3783 0008 02B0     		add	sp, sp, #8
 3784              		@ sp needed
 3785 000a 7047     		bx	lr
 3786              	.L178:
 3787              		.align	2
ARM GAS  /tmp/ccg61o9J.s 			page 69


 3788              	.L177:
 3789 000c 30010000 		.word	.LC11
 3790              		.cfi_endproc
 3791              	.LFE712:
 3792              		.size	_ZN13geometry_msgs5Twist6getMD5Ev, .-_ZN13geometry_msgs5Twist6getMD5Ev
 3793              		.section	.text._ZNK8r2p_msgs10Vector3_329serializeEPh,"axG",%progbits,_ZNK8r2p_msgs10Vector3_329se
 3794              		.align	2
 3795              		.p2align 4,,15
 3796              		.weak	_ZNK8r2p_msgs10Vector3_329serializeEPh
 3797              		.thumb
 3798              		.thumb_func
 3799              		.type	_ZNK8r2p_msgs10Vector3_329serializeEPh, %function
 3800              	_ZNK8r2p_msgs10Vector3_329serializeEPh:
 3801              	.LFB741:
 3802              		.file 22 "ros_lib/r2p_msgs/Vector3_32.h"
 3803              		.loc 22 19 0
 3804              		.cfi_startproc
 3805              		@ args = 0, pretend = 0, frame = 24
 3806              		@ frame_needed = 0, uses_anonymous_args = 0
 3807              		@ link register save eliminated.
 3808 0000 86B0     		sub	sp, sp, #24
 3809              		.cfi_def_cfa_offset 24
 3810 0002 0190     		str	r0, [sp, #4]
 3811 0004 0091     		str	r1, [sp]
 3812              	.LBB98:
 3813              		.loc 22 21 0
 3814 0006 0023     		movs	r3, #0
 3815 0008 0593     		str	r3, [sp, #20]
 3816              		.loc 22 26 0
 3817 000a 019B     		ldr	r3, [sp, #4]
 3818 000c 5B68     		ldr	r3, [r3, #4]	@ float
 3819 000e 0493     		str	r3, [sp, #16]	@ float
 3820              		.loc 22 27 0
 3821 0010 059B     		ldr	r3, [sp, #20]
 3822 0012 009A     		ldr	r2, [sp]
 3823 0014 1344     		add	r3, r3, r2
 3824 0016 049A     		ldr	r2, [sp, #16]
 3825 0018 D2B2     		uxtb	r2, r2
 3826 001a 1A70     		strb	r2, [r3]
 3827              		.loc 22 28 0
 3828 001c 059B     		ldr	r3, [sp, #20]
 3829 001e 0133     		adds	r3, r3, #1
 3830 0020 009A     		ldr	r2, [sp]
 3831 0022 1344     		add	r3, r3, r2
 3832 0024 049A     		ldr	r2, [sp, #16]
 3833 0026 120A     		lsrs	r2, r2, #8
 3834 0028 D2B2     		uxtb	r2, r2
 3835 002a 1A70     		strb	r2, [r3]
 3836              		.loc 22 29 0
 3837 002c 059B     		ldr	r3, [sp, #20]
 3838 002e 0233     		adds	r3, r3, #2
 3839 0030 009A     		ldr	r2, [sp]
 3840 0032 1344     		add	r3, r3, r2
 3841 0034 049A     		ldr	r2, [sp, #16]
 3842 0036 120C     		lsrs	r2, r2, #16
 3843 0038 D2B2     		uxtb	r2, r2
 3844 003a 1A70     		strb	r2, [r3]
ARM GAS  /tmp/ccg61o9J.s 			page 70


 3845              		.loc 22 30 0
 3846 003c 059B     		ldr	r3, [sp, #20]
 3847 003e 0333     		adds	r3, r3, #3
 3848 0040 009A     		ldr	r2, [sp]
 3849 0042 1344     		add	r3, r3, r2
 3850 0044 049A     		ldr	r2, [sp, #16]
 3851 0046 120E     		lsrs	r2, r2, #24
 3852 0048 D2B2     		uxtb	r2, r2
 3853 004a 1A70     		strb	r2, [r3]
 3854              		.loc 22 31 0
 3855 004c 059B     		ldr	r3, [sp, #20]
 3856 004e 0433     		adds	r3, r3, #4
 3857 0050 0593     		str	r3, [sp, #20]
 3858              		.loc 22 36 0
 3859 0052 019B     		ldr	r3, [sp, #4]
 3860 0054 9B68     		ldr	r3, [r3, #8]	@ float
 3861 0056 0393     		str	r3, [sp, #12]	@ float
 3862              		.loc 22 37 0
 3863 0058 059B     		ldr	r3, [sp, #20]
 3864 005a 009A     		ldr	r2, [sp]
 3865 005c 1344     		add	r3, r3, r2
 3866 005e 039A     		ldr	r2, [sp, #12]
 3867 0060 D2B2     		uxtb	r2, r2
 3868 0062 1A70     		strb	r2, [r3]
 3869              		.loc 22 38 0
 3870 0064 059B     		ldr	r3, [sp, #20]
 3871 0066 0133     		adds	r3, r3, #1
 3872 0068 009A     		ldr	r2, [sp]
 3873 006a 1344     		add	r3, r3, r2
 3874 006c 039A     		ldr	r2, [sp, #12]
 3875 006e 120A     		lsrs	r2, r2, #8
 3876 0070 D2B2     		uxtb	r2, r2
 3877 0072 1A70     		strb	r2, [r3]
 3878              		.loc 22 39 0
 3879 0074 059B     		ldr	r3, [sp, #20]
 3880 0076 0233     		adds	r3, r3, #2
 3881 0078 009A     		ldr	r2, [sp]
 3882 007a 1344     		add	r3, r3, r2
 3883 007c 039A     		ldr	r2, [sp, #12]
 3884 007e 120C     		lsrs	r2, r2, #16
 3885 0080 D2B2     		uxtb	r2, r2
 3886 0082 1A70     		strb	r2, [r3]
 3887              		.loc 22 40 0
 3888 0084 059B     		ldr	r3, [sp, #20]
 3889 0086 0333     		adds	r3, r3, #3
 3890 0088 009A     		ldr	r2, [sp]
 3891 008a 1344     		add	r3, r3, r2
 3892 008c 039A     		ldr	r2, [sp, #12]
 3893 008e 120E     		lsrs	r2, r2, #24
 3894 0090 D2B2     		uxtb	r2, r2
 3895 0092 1A70     		strb	r2, [r3]
 3896              		.loc 22 41 0
 3897 0094 059B     		ldr	r3, [sp, #20]
 3898 0096 0433     		adds	r3, r3, #4
 3899 0098 0593     		str	r3, [sp, #20]
 3900              		.loc 22 46 0
 3901 009a 019B     		ldr	r3, [sp, #4]
ARM GAS  /tmp/ccg61o9J.s 			page 71


 3902 009c DB68     		ldr	r3, [r3, #12]	@ float
 3903 009e 0293     		str	r3, [sp, #8]	@ float
 3904              		.loc 22 47 0
 3905 00a0 059B     		ldr	r3, [sp, #20]
 3906 00a2 009A     		ldr	r2, [sp]
 3907 00a4 1344     		add	r3, r3, r2
 3908 00a6 029A     		ldr	r2, [sp, #8]
 3909 00a8 D2B2     		uxtb	r2, r2
 3910 00aa 1A70     		strb	r2, [r3]
 3911              		.loc 22 48 0
 3912 00ac 059B     		ldr	r3, [sp, #20]
 3913 00ae 0133     		adds	r3, r3, #1
 3914 00b0 009A     		ldr	r2, [sp]
 3915 00b2 1344     		add	r3, r3, r2
 3916 00b4 029A     		ldr	r2, [sp, #8]
 3917 00b6 120A     		lsrs	r2, r2, #8
 3918 00b8 D2B2     		uxtb	r2, r2
 3919 00ba 1A70     		strb	r2, [r3]
 3920              		.loc 22 49 0
 3921 00bc 059B     		ldr	r3, [sp, #20]
 3922 00be 0233     		adds	r3, r3, #2
 3923 00c0 009A     		ldr	r2, [sp]
 3924 00c2 1344     		add	r3, r3, r2
 3925 00c4 029A     		ldr	r2, [sp, #8]
 3926 00c6 120C     		lsrs	r2, r2, #16
 3927 00c8 D2B2     		uxtb	r2, r2
 3928 00ca 1A70     		strb	r2, [r3]
 3929              		.loc 22 50 0
 3930 00cc 059B     		ldr	r3, [sp, #20]
 3931 00ce 0333     		adds	r3, r3, #3
 3932 00d0 009A     		ldr	r2, [sp]
 3933 00d2 1344     		add	r3, r3, r2
 3934 00d4 029A     		ldr	r2, [sp, #8]
 3935 00d6 120E     		lsrs	r2, r2, #24
 3936 00d8 D2B2     		uxtb	r2, r2
 3937 00da 1A70     		strb	r2, [r3]
 3938              		.loc 22 51 0
 3939 00dc 059B     		ldr	r3, [sp, #20]
 3940 00de 0433     		adds	r3, r3, #4
 3941 00e0 0593     		str	r3, [sp, #20]
 3942              		.loc 22 52 0
 3943 00e2 059B     		ldr	r3, [sp, #20]
 3944              	.LBE98:
 3945              		.loc 22 53 0
 3946 00e4 1846     		mov	r0, r3
 3947 00e6 06B0     		add	sp, sp, #24
 3948              		@ sp needed
 3949 00e8 7047     		bx	lr
 3950              		.cfi_endproc
 3951              	.LFE741:
 3952              		.size	_ZNK8r2p_msgs10Vector3_329serializeEPh, .-_ZNK8r2p_msgs10Vector3_329serializeEPh
 3953 00ea 00BFAFF3 		.section	.text._ZN8r2p_msgs10Vector3_3211deserializeEPh,"axG",%progbits,_ZN8r2p_msgs10Vector3_3211
 3953      0080
 3954              		.align	2
 3955              		.p2align 4,,15
 3956              		.weak	_ZN8r2p_msgs10Vector3_3211deserializeEPh
 3957              		.thumb
ARM GAS  /tmp/ccg61o9J.s 			page 72


 3958              		.thumb_func
 3959              		.type	_ZN8r2p_msgs10Vector3_3211deserializeEPh, %function
 3960              	_ZN8r2p_msgs10Vector3_3211deserializeEPh:
 3961              	.LFB742:
 3962              		.loc 22 55 0
 3963              		.cfi_startproc
 3964              		@ args = 0, pretend = 0, frame = 24
 3965              		@ frame_needed = 0, uses_anonymous_args = 0
 3966              		@ link register save eliminated.
 3967 0000 86B0     		sub	sp, sp, #24
 3968              		.cfi_def_cfa_offset 24
 3969 0002 0190     		str	r0, [sp, #4]
 3970 0004 0091     		str	r1, [sp]
 3971              	.LBB99:
 3972              		.loc 22 57 0
 3973 0006 0023     		movs	r3, #0
 3974 0008 0593     		str	r3, [sp, #20]
 3975              		.loc 22 62 0
 3976 000a 0023     		movs	r3, #0
 3977 000c 0493     		str	r3, [sp, #16]
 3978              		.loc 22 63 0
 3979 000e 049A     		ldr	r2, [sp, #16]
 3980 0010 059B     		ldr	r3, [sp, #20]
 3981 0012 0099     		ldr	r1, [sp]
 3982 0014 0B44     		add	r3, r3, r1
 3983 0016 1B78     		ldrb	r3, [r3]	@ zero_extendqisi2
 3984 0018 1343     		orrs	r3, r3, r2
 3985 001a 0493     		str	r3, [sp, #16]
 3986              		.loc 22 64 0
 3987 001c 049A     		ldr	r2, [sp, #16]
 3988 001e 059B     		ldr	r3, [sp, #20]
 3989 0020 0133     		adds	r3, r3, #1
 3990 0022 0099     		ldr	r1, [sp]
 3991 0024 0B44     		add	r3, r3, r1
 3992 0026 1B78     		ldrb	r3, [r3]	@ zero_extendqisi2
 3993 0028 1B02     		lsls	r3, r3, #8
 3994 002a 1343     		orrs	r3, r3, r2
 3995 002c 0493     		str	r3, [sp, #16]
 3996              		.loc 22 65 0
 3997 002e 049A     		ldr	r2, [sp, #16]
 3998 0030 059B     		ldr	r3, [sp, #20]
 3999 0032 0233     		adds	r3, r3, #2
 4000 0034 0099     		ldr	r1, [sp]
 4001 0036 0B44     		add	r3, r3, r1
 4002 0038 1B78     		ldrb	r3, [r3]	@ zero_extendqisi2
 4003 003a 1B04     		lsls	r3, r3, #16
 4004 003c 1343     		orrs	r3, r3, r2
 4005 003e 0493     		str	r3, [sp, #16]
 4006              		.loc 22 66 0
 4007 0040 049A     		ldr	r2, [sp, #16]
 4008 0042 059B     		ldr	r3, [sp, #20]
 4009 0044 0333     		adds	r3, r3, #3
 4010 0046 0099     		ldr	r1, [sp]
 4011 0048 0B44     		add	r3, r3, r1
 4012 004a 1B78     		ldrb	r3, [r3]	@ zero_extendqisi2
 4013 004c 1B06     		lsls	r3, r3, #24
 4014 004e 1343     		orrs	r3, r3, r2
ARM GAS  /tmp/ccg61o9J.s 			page 73


 4015 0050 0493     		str	r3, [sp, #16]
 4016              		.loc 22 67 0
 4017 0052 049A     		ldr	r2, [sp, #16]	@ float
 4018 0054 019B     		ldr	r3, [sp, #4]
 4019 0056 5A60     		str	r2, [r3, #4]	@ float
 4020              		.loc 22 68 0
 4021 0058 059B     		ldr	r3, [sp, #20]
 4022 005a 0433     		adds	r3, r3, #4
 4023 005c 0593     		str	r3, [sp, #20]
 4024              		.loc 22 73 0
 4025 005e 0023     		movs	r3, #0
 4026 0060 0393     		str	r3, [sp, #12]
 4027              		.loc 22 74 0
 4028 0062 039A     		ldr	r2, [sp, #12]
 4029 0064 059B     		ldr	r3, [sp, #20]
 4030 0066 0099     		ldr	r1, [sp]
 4031 0068 0B44     		add	r3, r3, r1
 4032 006a 1B78     		ldrb	r3, [r3]	@ zero_extendqisi2
 4033 006c 1343     		orrs	r3, r3, r2
 4034 006e 0393     		str	r3, [sp, #12]
 4035              		.loc 22 75 0
 4036 0070 039A     		ldr	r2, [sp, #12]
 4037 0072 059B     		ldr	r3, [sp, #20]
 4038 0074 0133     		adds	r3, r3, #1
 4039 0076 0099     		ldr	r1, [sp]
 4040 0078 0B44     		add	r3, r3, r1
 4041 007a 1B78     		ldrb	r3, [r3]	@ zero_extendqisi2
 4042 007c 1B02     		lsls	r3, r3, #8
 4043 007e 1343     		orrs	r3, r3, r2
 4044 0080 0393     		str	r3, [sp, #12]
 4045              		.loc 22 76 0
 4046 0082 039A     		ldr	r2, [sp, #12]
 4047 0084 059B     		ldr	r3, [sp, #20]
 4048 0086 0233     		adds	r3, r3, #2
 4049 0088 0099     		ldr	r1, [sp]
 4050 008a 0B44     		add	r3, r3, r1
 4051 008c 1B78     		ldrb	r3, [r3]	@ zero_extendqisi2
 4052 008e 1B04     		lsls	r3, r3, #16
 4053 0090 1343     		orrs	r3, r3, r2
 4054 0092 0393     		str	r3, [sp, #12]
 4055              		.loc 22 77 0
 4056 0094 039A     		ldr	r2, [sp, #12]
 4057 0096 059B     		ldr	r3, [sp, #20]
 4058 0098 0333     		adds	r3, r3, #3
 4059 009a 0099     		ldr	r1, [sp]
 4060 009c 0B44     		add	r3, r3, r1
 4061 009e 1B78     		ldrb	r3, [r3]	@ zero_extendqisi2
 4062 00a0 1B06     		lsls	r3, r3, #24
 4063 00a2 1343     		orrs	r3, r3, r2
 4064 00a4 0393     		str	r3, [sp, #12]
 4065              		.loc 22 78 0
 4066 00a6 039A     		ldr	r2, [sp, #12]	@ float
 4067 00a8 019B     		ldr	r3, [sp, #4]
 4068 00aa 9A60     		str	r2, [r3, #8]	@ float
 4069              		.loc 22 79 0
 4070 00ac 059B     		ldr	r3, [sp, #20]
 4071 00ae 0433     		adds	r3, r3, #4
ARM GAS  /tmp/ccg61o9J.s 			page 74


 4072 00b0 0593     		str	r3, [sp, #20]
 4073              		.loc 22 84 0
 4074 00b2 0023     		movs	r3, #0
 4075 00b4 0293     		str	r3, [sp, #8]
 4076              		.loc 22 85 0
 4077 00b6 029A     		ldr	r2, [sp, #8]
 4078 00b8 059B     		ldr	r3, [sp, #20]
 4079 00ba 0099     		ldr	r1, [sp]
 4080 00bc 0B44     		add	r3, r3, r1
 4081 00be 1B78     		ldrb	r3, [r3]	@ zero_extendqisi2
 4082 00c0 1343     		orrs	r3, r3, r2
 4083 00c2 0293     		str	r3, [sp, #8]
 4084              		.loc 22 86 0
 4085 00c4 029A     		ldr	r2, [sp, #8]
 4086 00c6 059B     		ldr	r3, [sp, #20]
 4087 00c8 0133     		adds	r3, r3, #1
 4088 00ca 0099     		ldr	r1, [sp]
 4089 00cc 0B44     		add	r3, r3, r1
 4090 00ce 1B78     		ldrb	r3, [r3]	@ zero_extendqisi2
 4091 00d0 1B02     		lsls	r3, r3, #8
 4092 00d2 1343     		orrs	r3, r3, r2
 4093 00d4 0293     		str	r3, [sp, #8]
 4094              		.loc 22 87 0
 4095 00d6 029A     		ldr	r2, [sp, #8]
 4096 00d8 059B     		ldr	r3, [sp, #20]
 4097 00da 0233     		adds	r3, r3, #2
 4098 00dc 0099     		ldr	r1, [sp]
 4099 00de 0B44     		add	r3, r3, r1
 4100 00e0 1B78     		ldrb	r3, [r3]	@ zero_extendqisi2
 4101 00e2 1B04     		lsls	r3, r3, #16
 4102 00e4 1343     		orrs	r3, r3, r2
 4103 00e6 0293     		str	r3, [sp, #8]
 4104              		.loc 22 88 0
 4105 00e8 029A     		ldr	r2, [sp, #8]
 4106 00ea 059B     		ldr	r3, [sp, #20]
 4107 00ec 0333     		adds	r3, r3, #3
 4108 00ee 0099     		ldr	r1, [sp]
 4109 00f0 0B44     		add	r3, r3, r1
 4110 00f2 1B78     		ldrb	r3, [r3]	@ zero_extendqisi2
 4111 00f4 1B06     		lsls	r3, r3, #24
 4112 00f6 1343     		orrs	r3, r3, r2
 4113 00f8 0293     		str	r3, [sp, #8]
 4114              		.loc 22 89 0
 4115 00fa 029A     		ldr	r2, [sp, #8]	@ float
 4116 00fc 019B     		ldr	r3, [sp, #4]
 4117 00fe DA60     		str	r2, [r3, #12]	@ float
 4118              		.loc 22 90 0
 4119 0100 059B     		ldr	r3, [sp, #20]
 4120 0102 0433     		adds	r3, r3, #4
 4121 0104 0593     		str	r3, [sp, #20]
 4122              		.loc 22 91 0
 4123 0106 059B     		ldr	r3, [sp, #20]
 4124              	.LBE99:
 4125              		.loc 22 92 0
 4126 0108 1846     		mov	r0, r3
 4127 010a 06B0     		add	sp, sp, #24
 4128              		@ sp needed
ARM GAS  /tmp/ccg61o9J.s 			page 75


 4129 010c 7047     		bx	lr
 4130              		.cfi_endproc
 4131              	.LFE742:
 4132              		.size	_ZN8r2p_msgs10Vector3_3211deserializeEPh, .-_ZN8r2p_msgs10Vector3_3211deserializeEPh
 4133 010e 00BF     		.section	.rodata
 4134 0151 000000   		.align	2
 4135              	.LC12:
 4136 0154 7232705F 		.ascii	"r2p_msgs/Vector3_32\000"
 4136      6D736773 
 4136      2F566563 
 4136      746F7233 
 4136      5F333200 
 4137              		.section	.text._ZN8r2p_msgs10Vector3_327getTypeEv,"axG",%progbits,_ZN8r2p_msgs10Vector3_327getType
 4138              		.align	2
 4139              		.p2align 4,,15
 4140              		.weak	_ZN8r2p_msgs10Vector3_327getTypeEv
 4141              		.thumb
 4142              		.thumb_func
 4143              		.type	_ZN8r2p_msgs10Vector3_327getTypeEv, %function
 4144              	_ZN8r2p_msgs10Vector3_327getTypeEv:
 4145              	.LFB743:
 4146              		.loc 22 94 0
 4147              		.cfi_startproc
 4148              		@ args = 0, pretend = 0, frame = 8
 4149              		@ frame_needed = 0, uses_anonymous_args = 0
 4150              		@ link register save eliminated.
 4151 0000 82B0     		sub	sp, sp, #8
 4152              		.cfi_def_cfa_offset 8
 4153 0002 0190     		str	r0, [sp, #4]
 4154              		.loc 22 94 0
 4155 0004 014B     		ldr	r3, .L185
 4156 0006 1846     		mov	r0, r3
 4157 0008 02B0     		add	sp, sp, #8
 4158              		@ sp needed
 4159 000a 7047     		bx	lr
 4160              	.L186:
 4161              		.align	2
 4162              	.L185:
 4163 000c 54010000 		.word	.LC12
 4164              		.cfi_endproc
 4165              	.LFE743:
 4166              		.size	_ZN8r2p_msgs10Vector3_327getTypeEv, .-_ZN8r2p_msgs10Vector3_327getTypeEv
 4167              		.section	.rodata
 4168              		.align	2
 4169              	.LC13:
 4170 0168 63633135 		.ascii	"cc153912f1453b708d221682bc23d9ac\000"
 4170      33393132 
 4170      66313435 
 4170      33623730 
 4170      38643232 
 4171              		.section	.text._ZN8r2p_msgs10Vector3_326getMD5Ev,"axG",%progbits,_ZN8r2p_msgs10Vector3_326getMD5Ev
 4172              		.align	2
 4173              		.p2align 4,,15
 4174              		.weak	_ZN8r2p_msgs10Vector3_326getMD5Ev
 4175              		.thumb
 4176              		.thumb_func
 4177              		.type	_ZN8r2p_msgs10Vector3_326getMD5Ev, %function
ARM GAS  /tmp/ccg61o9J.s 			page 76


 4178              	_ZN8r2p_msgs10Vector3_326getMD5Ev:
 4179              	.LFB744:
 4180              		.loc 22 95 0
 4181              		.cfi_startproc
 4182              		@ args = 0, pretend = 0, frame = 8
 4183              		@ frame_needed = 0, uses_anonymous_args = 0
 4184              		@ link register save eliminated.
 4185 0000 82B0     		sub	sp, sp, #8
 4186              		.cfi_def_cfa_offset 8
 4187 0002 0190     		str	r0, [sp, #4]
 4188              		.loc 22 95 0
 4189 0004 014B     		ldr	r3, .L189
 4190 0006 1846     		mov	r0, r3
 4191 0008 02B0     		add	sp, sp, #8
 4192              		@ sp needed
 4193 000a 7047     		bx	lr
 4194              	.L190:
 4195              		.align	2
 4196              	.L189:
 4197 000c 68010000 		.word	.LC13
 4198              		.cfi_endproc
 4199              	.LFE744:
 4200              		.size	_ZN8r2p_msgs10Vector3_326getMD5Ev, .-_ZN8r2p_msgs10Vector3_326getMD5Ev
 4201              		.section	.text._ZNK8r2p_msgs6ImuRaw9serializeEPh,"axG",%progbits,_ZNK8r2p_msgs6ImuRaw9serializeEPh
 4202              		.align	2
 4203              		.p2align 4,,15
 4204              		.weak	_ZNK8r2p_msgs6ImuRaw9serializeEPh
 4205              		.thumb
 4206              		.thumb_func
 4207              		.type	_ZNK8r2p_msgs6ImuRaw9serializeEPh, %function
 4208              	_ZNK8r2p_msgs6ImuRaw9serializeEPh:
 4209              	.LFB745:
 4210              		.file 23 "ros_lib/r2p_msgs/ImuRaw.h"
 4211              		.loc 23 20 0
 4212              		.cfi_startproc
 4213              		@ args = 0, pretend = 0, frame = 16
 4214              		@ frame_needed = 0, uses_anonymous_args = 0
 4215 0000 00B5     		push	{lr}
 4216              		.cfi_def_cfa_offset 4
 4217              		.cfi_offset 14, -4
 4218 0002 85B0     		sub	sp, sp, #20
 4219              		.cfi_def_cfa_offset 24
 4220 0004 0190     		str	r0, [sp, #4]
 4221 0006 0091     		str	r1, [sp]
 4222              	.LBB100:
 4223              		.loc 23 22 0
 4224 0008 0023     		movs	r3, #0
 4225 000a 0393     		str	r3, [sp, #12]
 4226              		.loc 23 23 0
 4227 000c 019B     		ldr	r3, [sp, #4]
 4228 000e 1A1D     		adds	r2, r3, #4
 4229 0010 039B     		ldr	r3, [sp, #12]
 4230 0012 0099     		ldr	r1, [sp]
 4231 0014 0B44     		add	r3, r3, r1
 4232 0016 1046     		mov	r0, r2
 4233 0018 1946     		mov	r1, r3
 4234 001a FFF7FEFF 		bl	_ZNK8r2p_msgs10Vector3_329serializeEPh
ARM GAS  /tmp/ccg61o9J.s 			page 77


 4235 001e 0346     		mov	r3, r0
 4236 0020 039A     		ldr	r2, [sp, #12]
 4237 0022 1344     		add	r3, r3, r2
 4238 0024 0393     		str	r3, [sp, #12]
 4239              		.loc 23 24 0
 4240 0026 019B     		ldr	r3, [sp, #4]
 4241 0028 03F11402 		add	r2, r3, #20
 4242 002c 039B     		ldr	r3, [sp, #12]
 4243 002e 0099     		ldr	r1, [sp]
 4244 0030 0B44     		add	r3, r3, r1
 4245 0032 1046     		mov	r0, r2
 4246 0034 1946     		mov	r1, r3
 4247 0036 FFF7FEFF 		bl	_ZNK8r2p_msgs10Vector3_329serializeEPh
 4248 003a 0346     		mov	r3, r0
 4249 003c 039A     		ldr	r2, [sp, #12]
 4250 003e 1344     		add	r3, r3, r2
 4251 0040 0393     		str	r3, [sp, #12]
 4252              		.loc 23 25 0
 4253 0042 019B     		ldr	r3, [sp, #4]
 4254 0044 03F12402 		add	r2, r3, #36
 4255 0048 039B     		ldr	r3, [sp, #12]
 4256 004a 0099     		ldr	r1, [sp]
 4257 004c 0B44     		add	r3, r3, r1
 4258 004e 1046     		mov	r0, r2
 4259 0050 1946     		mov	r1, r3
 4260 0052 FFF7FEFF 		bl	_ZNK8r2p_msgs10Vector3_329serializeEPh
 4261 0056 0346     		mov	r3, r0
 4262 0058 039A     		ldr	r2, [sp, #12]
 4263 005a 1344     		add	r3, r3, r2
 4264 005c 0393     		str	r3, [sp, #12]
 4265              		.loc 23 26 0
 4266 005e 039B     		ldr	r3, [sp, #12]
 4267              	.LBE100:
 4268              		.loc 23 27 0
 4269 0060 1846     		mov	r0, r3
 4270 0062 05B0     		add	sp, sp, #20
 4271              		@ sp needed
 4272 0064 5DF804FB 		ldr	pc, [sp], #4
 4273              		.cfi_endproc
 4274              	.LFE745:
 4275              		.size	_ZNK8r2p_msgs6ImuRaw9serializeEPh, .-_ZNK8r2p_msgs6ImuRaw9serializeEPh
 4276 0068 AFF30080 		.section	.text._ZN8r2p_msgs6ImuRaw11deserializeEPh,"axG",%progbits,_ZN8r2p_msgs6ImuRaw11deserializ
 4276      AFF30080 
 4277              		.align	2
 4278              		.p2align 4,,15
 4279              		.weak	_ZN8r2p_msgs6ImuRaw11deserializeEPh
 4280              		.thumb
 4281              		.thumb_func
 4282              		.type	_ZN8r2p_msgs6ImuRaw11deserializeEPh, %function
 4283              	_ZN8r2p_msgs6ImuRaw11deserializeEPh:
 4284              	.LFB746:
 4285              		.loc 23 29 0
 4286              		.cfi_startproc
 4287              		@ args = 0, pretend = 0, frame = 16
 4288              		@ frame_needed = 0, uses_anonymous_args = 0
 4289 0000 00B5     		push	{lr}
 4290              		.cfi_def_cfa_offset 4
ARM GAS  /tmp/ccg61o9J.s 			page 78


 4291              		.cfi_offset 14, -4
 4292 0002 85B0     		sub	sp, sp, #20
 4293              		.cfi_def_cfa_offset 24
 4294 0004 0190     		str	r0, [sp, #4]
 4295 0006 0091     		str	r1, [sp]
 4296              	.LBB101:
 4297              		.loc 23 31 0
 4298 0008 0023     		movs	r3, #0
 4299 000a 0393     		str	r3, [sp, #12]
 4300              		.loc 23 32 0
 4301 000c 019B     		ldr	r3, [sp, #4]
 4302 000e 1A1D     		adds	r2, r3, #4
 4303 0010 039B     		ldr	r3, [sp, #12]
 4304 0012 0099     		ldr	r1, [sp]
 4305 0014 0B44     		add	r3, r3, r1
 4306 0016 1046     		mov	r0, r2
 4307 0018 1946     		mov	r1, r3
 4308 001a FFF7FEFF 		bl	_ZN8r2p_msgs10Vector3_3211deserializeEPh
 4309 001e 0346     		mov	r3, r0
 4310 0020 039A     		ldr	r2, [sp, #12]
 4311 0022 1344     		add	r3, r3, r2
 4312 0024 0393     		str	r3, [sp, #12]
 4313              		.loc 23 33 0
 4314 0026 019B     		ldr	r3, [sp, #4]
 4315 0028 03F11402 		add	r2, r3, #20
 4316 002c 039B     		ldr	r3, [sp, #12]
 4317 002e 0099     		ldr	r1, [sp]
 4318 0030 0B44     		add	r3, r3, r1
 4319 0032 1046     		mov	r0, r2
 4320 0034 1946     		mov	r1, r3
 4321 0036 FFF7FEFF 		bl	_ZN8r2p_msgs10Vector3_3211deserializeEPh
 4322 003a 0346     		mov	r3, r0
 4323 003c 039A     		ldr	r2, [sp, #12]
 4324 003e 1344     		add	r3, r3, r2
 4325 0040 0393     		str	r3, [sp, #12]
 4326              		.loc 23 34 0
 4327 0042 019B     		ldr	r3, [sp, #4]
 4328 0044 03F12402 		add	r2, r3, #36
 4329 0048 039B     		ldr	r3, [sp, #12]
 4330 004a 0099     		ldr	r1, [sp]
 4331 004c 0B44     		add	r3, r3, r1
 4332 004e 1046     		mov	r0, r2
 4333 0050 1946     		mov	r1, r3
 4334 0052 FFF7FEFF 		bl	_ZN8r2p_msgs10Vector3_3211deserializeEPh
 4335 0056 0346     		mov	r3, r0
 4336 0058 039A     		ldr	r2, [sp, #12]
 4337 005a 1344     		add	r3, r3, r2
 4338 005c 0393     		str	r3, [sp, #12]
 4339              		.loc 23 35 0
 4340 005e 039B     		ldr	r3, [sp, #12]
 4341              	.LBE101:
 4342              		.loc 23 36 0
 4343 0060 1846     		mov	r0, r3
 4344 0062 05B0     		add	sp, sp, #20
 4345              		@ sp needed
 4346 0064 5DF804FB 		ldr	pc, [sp], #4
 4347              		.cfi_endproc
ARM GAS  /tmp/ccg61o9J.s 			page 79


 4348              	.LFE746:
 4349              		.size	_ZN8r2p_msgs6ImuRaw11deserializeEPh, .-_ZN8r2p_msgs6ImuRaw11deserializeEPh
 4350 0068 AFF30080 		.section	.rodata
 4350      AFF30080 
 4351 0189 000000   		.align	2
 4352              	.LC14:
 4353 018c 7232705F 		.ascii	"r2p_msgs/ImuRaw\000"
 4353      6D736773 
 4353      2F496D75 
 4353      52617700 
 4354              		.section	.text._ZN8r2p_msgs6ImuRaw7getTypeEv,"axG",%progbits,_ZN8r2p_msgs6ImuRaw7getTypeEv,comdat
 4355              		.align	2
 4356              		.p2align 4,,15
 4357              		.weak	_ZN8r2p_msgs6ImuRaw7getTypeEv
 4358              		.thumb
 4359              		.thumb_func
 4360              		.type	_ZN8r2p_msgs6ImuRaw7getTypeEv, %function
 4361              	_ZN8r2p_msgs6ImuRaw7getTypeEv:
 4362              	.LFB747:
 4363              		.loc 23 38 0
 4364              		.cfi_startproc
 4365              		@ args = 0, pretend = 0, frame = 8
 4366              		@ frame_needed = 0, uses_anonymous_args = 0
 4367              		@ link register save eliminated.
 4368 0000 82B0     		sub	sp, sp, #8
 4369              		.cfi_def_cfa_offset 8
 4370 0002 0190     		str	r0, [sp, #4]
 4371              		.loc 23 38 0
 4372 0004 014B     		ldr	r3, .L197
 4373 0006 1846     		mov	r0, r3
 4374 0008 02B0     		add	sp, sp, #8
 4375              		@ sp needed
 4376 000a 7047     		bx	lr
 4377              	.L198:
 4378              		.align	2
 4379              	.L197:
 4380 000c 8C010000 		.word	.LC14
 4381              		.cfi_endproc
 4382              	.LFE747:
 4383              		.size	_ZN8r2p_msgs6ImuRaw7getTypeEv, .-_ZN8r2p_msgs6ImuRaw7getTypeEv
 4384              		.section	.rodata
 4385              		.align	2
 4386              	.LC15:
 4387 019c 30333866 		.ascii	"038fa76b07790b50cb414643eae47fb9\000"
 4387      61373662 
 4387      30373739 
 4387      30623530 
 4387      63623431 
 4388              		.section	.text._ZN8r2p_msgs6ImuRaw6getMD5Ev,"axG",%progbits,_ZN8r2p_msgs6ImuRaw6getMD5Ev,comdat
 4389              		.align	2
 4390              		.p2align 4,,15
 4391              		.weak	_ZN8r2p_msgs6ImuRaw6getMD5Ev
 4392              		.thumb
 4393              		.thumb_func
 4394              		.type	_ZN8r2p_msgs6ImuRaw6getMD5Ev, %function
 4395              	_ZN8r2p_msgs6ImuRaw6getMD5Ev:
 4396              	.LFB748:
ARM GAS  /tmp/ccg61o9J.s 			page 80


 4397              		.loc 23 39 0
 4398              		.cfi_startproc
 4399              		@ args = 0, pretend = 0, frame = 8
 4400              		@ frame_needed = 0, uses_anonymous_args = 0
 4401              		@ link register save eliminated.
 4402 0000 82B0     		sub	sp, sp, #8
 4403              		.cfi_def_cfa_offset 8
 4404 0002 0190     		str	r0, [sp, #4]
 4405              		.loc 23 39 0
 4406 0004 014B     		ldr	r3, .L201
 4407 0006 1846     		mov	r0, r3
 4408 0008 02B0     		add	sp, sp, #8
 4409              		@ sp needed
 4410 000a 7047     		bx	lr
 4411              	.L202:
 4412              		.align	2
 4413              	.L201:
 4414 000c 9C010000 		.word	.LC15
 4415              		.cfi_endproc
 4416              	.LFE748:
 4417              		.size	_ZN8r2p_msgs6ImuRaw6getMD5Ev, .-_ZN8r2p_msgs6ImuRaw6getMD5Ev
 4418              		.section	.text._ZNK8r2p_msgs13PidParameters9serializeEPh,"axG",%progbits,_ZNK8r2p_msgs13PidParamet
 4419              		.align	2
 4420              		.p2align 4,,15
 4421              		.weak	_ZNK8r2p_msgs13PidParameters9serializeEPh
 4422              		.thumb
 4423              		.thumb_func
 4424              		.type	_ZNK8r2p_msgs13PidParameters9serializeEPh, %function
 4425              	_ZNK8r2p_msgs13PidParameters9serializeEPh:
 4426              	.LFB749:
 4427              		.file 24 "ros_lib/r2p_msgs/PidParameters.h"
 4428              		.loc 24 19 0
 4429              		.cfi_startproc
 4430              		@ args = 0, pretend = 0, frame = 24
 4431              		@ frame_needed = 0, uses_anonymous_args = 0
 4432              		@ link register save eliminated.
 4433 0000 86B0     		sub	sp, sp, #24
 4434              		.cfi_def_cfa_offset 24
 4435 0002 0190     		str	r0, [sp, #4]
 4436 0004 0091     		str	r1, [sp]
 4437              	.LBB102:
 4438              		.loc 24 21 0
 4439 0006 0023     		movs	r3, #0
 4440 0008 0593     		str	r3, [sp, #20]
 4441              		.loc 24 26 0
 4442 000a 019B     		ldr	r3, [sp, #4]
 4443 000c 5B68     		ldr	r3, [r3, #4]	@ float
 4444 000e 0493     		str	r3, [sp, #16]	@ float
 4445              		.loc 24 27 0
 4446 0010 059B     		ldr	r3, [sp, #20]
 4447 0012 009A     		ldr	r2, [sp]
 4448 0014 1344     		add	r3, r3, r2
 4449 0016 049A     		ldr	r2, [sp, #16]
 4450 0018 D2B2     		uxtb	r2, r2
 4451 001a 1A70     		strb	r2, [r3]
 4452              		.loc 24 28 0
 4453 001c 059B     		ldr	r3, [sp, #20]
ARM GAS  /tmp/ccg61o9J.s 			page 81


 4454 001e 0133     		adds	r3, r3, #1
 4455 0020 009A     		ldr	r2, [sp]
 4456 0022 1344     		add	r3, r3, r2
 4457 0024 049A     		ldr	r2, [sp, #16]
 4458 0026 120A     		lsrs	r2, r2, #8
 4459 0028 D2B2     		uxtb	r2, r2
 4460 002a 1A70     		strb	r2, [r3]
 4461              		.loc 24 29 0
 4462 002c 059B     		ldr	r3, [sp, #20]
 4463 002e 0233     		adds	r3, r3, #2
 4464 0030 009A     		ldr	r2, [sp]
 4465 0032 1344     		add	r3, r3, r2
 4466 0034 049A     		ldr	r2, [sp, #16]
 4467 0036 120C     		lsrs	r2, r2, #16
 4468 0038 D2B2     		uxtb	r2, r2
 4469 003a 1A70     		strb	r2, [r3]
 4470              		.loc 24 30 0
 4471 003c 059B     		ldr	r3, [sp, #20]
 4472 003e 0333     		adds	r3, r3, #3
 4473 0040 009A     		ldr	r2, [sp]
 4474 0042 1344     		add	r3, r3, r2
 4475 0044 049A     		ldr	r2, [sp, #16]
 4476 0046 120E     		lsrs	r2, r2, #24
 4477 0048 D2B2     		uxtb	r2, r2
 4478 004a 1A70     		strb	r2, [r3]
 4479              		.loc 24 31 0
 4480 004c 059B     		ldr	r3, [sp, #20]
 4481 004e 0433     		adds	r3, r3, #4
 4482 0050 0593     		str	r3, [sp, #20]
 4483              		.loc 24 36 0
 4484 0052 019B     		ldr	r3, [sp, #4]
 4485 0054 9B68     		ldr	r3, [r3, #8]	@ float
 4486 0056 0393     		str	r3, [sp, #12]	@ float
 4487              		.loc 24 37 0
 4488 0058 059B     		ldr	r3, [sp, #20]
 4489 005a 009A     		ldr	r2, [sp]
 4490 005c 1344     		add	r3, r3, r2
 4491 005e 039A     		ldr	r2, [sp, #12]
 4492 0060 D2B2     		uxtb	r2, r2
 4493 0062 1A70     		strb	r2, [r3]
 4494              		.loc 24 38 0
 4495 0064 059B     		ldr	r3, [sp, #20]
 4496 0066 0133     		adds	r3, r3, #1
 4497 0068 009A     		ldr	r2, [sp]
 4498 006a 1344     		add	r3, r3, r2
 4499 006c 039A     		ldr	r2, [sp, #12]
 4500 006e 120A     		lsrs	r2, r2, #8
 4501 0070 D2B2     		uxtb	r2, r2
 4502 0072 1A70     		strb	r2, [r3]
 4503              		.loc 24 39 0
 4504 0074 059B     		ldr	r3, [sp, #20]
 4505 0076 0233     		adds	r3, r3, #2
 4506 0078 009A     		ldr	r2, [sp]
 4507 007a 1344     		add	r3, r3, r2
 4508 007c 039A     		ldr	r2, [sp, #12]
 4509 007e 120C     		lsrs	r2, r2, #16
 4510 0080 D2B2     		uxtb	r2, r2
ARM GAS  /tmp/ccg61o9J.s 			page 82


 4511 0082 1A70     		strb	r2, [r3]
 4512              		.loc 24 40 0
 4513 0084 059B     		ldr	r3, [sp, #20]
 4514 0086 0333     		adds	r3, r3, #3
 4515 0088 009A     		ldr	r2, [sp]
 4516 008a 1344     		add	r3, r3, r2
 4517 008c 039A     		ldr	r2, [sp, #12]
 4518 008e 120E     		lsrs	r2, r2, #24
 4519 0090 D2B2     		uxtb	r2, r2
 4520 0092 1A70     		strb	r2, [r3]
 4521              		.loc 24 41 0
 4522 0094 059B     		ldr	r3, [sp, #20]
 4523 0096 0433     		adds	r3, r3, #4
 4524 0098 0593     		str	r3, [sp, #20]
 4525              		.loc 24 46 0
 4526 009a 019B     		ldr	r3, [sp, #4]
 4527 009c DB68     		ldr	r3, [r3, #12]	@ float
 4528 009e 0293     		str	r3, [sp, #8]	@ float
 4529              		.loc 24 47 0
 4530 00a0 059B     		ldr	r3, [sp, #20]
 4531 00a2 009A     		ldr	r2, [sp]
 4532 00a4 1344     		add	r3, r3, r2
 4533 00a6 029A     		ldr	r2, [sp, #8]
 4534 00a8 D2B2     		uxtb	r2, r2
 4535 00aa 1A70     		strb	r2, [r3]
 4536              		.loc 24 48 0
 4537 00ac 059B     		ldr	r3, [sp, #20]
 4538 00ae 0133     		adds	r3, r3, #1
 4539 00b0 009A     		ldr	r2, [sp]
 4540 00b2 1344     		add	r3, r3, r2
 4541 00b4 029A     		ldr	r2, [sp, #8]
 4542 00b6 120A     		lsrs	r2, r2, #8
 4543 00b8 D2B2     		uxtb	r2, r2
 4544 00ba 1A70     		strb	r2, [r3]
 4545              		.loc 24 49 0
 4546 00bc 059B     		ldr	r3, [sp, #20]
 4547 00be 0233     		adds	r3, r3, #2
 4548 00c0 009A     		ldr	r2, [sp]
 4549 00c2 1344     		add	r3, r3, r2
 4550 00c4 029A     		ldr	r2, [sp, #8]
 4551 00c6 120C     		lsrs	r2, r2, #16
 4552 00c8 D2B2     		uxtb	r2, r2
 4553 00ca 1A70     		strb	r2, [r3]
 4554              		.loc 24 50 0
 4555 00cc 059B     		ldr	r3, [sp, #20]
 4556 00ce 0333     		adds	r3, r3, #3
 4557 00d0 009A     		ldr	r2, [sp]
 4558 00d2 1344     		add	r3, r3, r2
 4559 00d4 029A     		ldr	r2, [sp, #8]
 4560 00d6 120E     		lsrs	r2, r2, #24
 4561 00d8 D2B2     		uxtb	r2, r2
 4562 00da 1A70     		strb	r2, [r3]
 4563              		.loc 24 51 0
 4564 00dc 059B     		ldr	r3, [sp, #20]
 4565 00de 0433     		adds	r3, r3, #4
 4566 00e0 0593     		str	r3, [sp, #20]
 4567              		.loc 24 52 0
ARM GAS  /tmp/ccg61o9J.s 			page 83


 4568 00e2 059B     		ldr	r3, [sp, #20]
 4569              	.LBE102:
 4570              		.loc 24 53 0
 4571 00e4 1846     		mov	r0, r3
 4572 00e6 06B0     		add	sp, sp, #24
 4573              		@ sp needed
 4574 00e8 7047     		bx	lr
 4575              		.cfi_endproc
 4576              	.LFE749:
 4577              		.size	_ZNK8r2p_msgs13PidParameters9serializeEPh, .-_ZNK8r2p_msgs13PidParameters9serializeEPh
 4578 00ea 00BFAFF3 		.section	.text._ZN8r2p_msgs13PidParameters11deserializeEPh,"axG",%progbits,_ZN8r2p_msgs13PidParame
 4578      0080
 4579              		.align	2
 4580              		.p2align 4,,15
 4581              		.weak	_ZN8r2p_msgs13PidParameters11deserializeEPh
 4582              		.thumb
 4583              		.thumb_func
 4584              		.type	_ZN8r2p_msgs13PidParameters11deserializeEPh, %function
 4585              	_ZN8r2p_msgs13PidParameters11deserializeEPh:
 4586              	.LFB750:
 4587              		.loc 24 55 0
 4588              		.cfi_startproc
 4589              		@ args = 0, pretend = 0, frame = 24
 4590              		@ frame_needed = 0, uses_anonymous_args = 0
 4591              		@ link register save eliminated.
 4592 0000 86B0     		sub	sp, sp, #24
 4593              		.cfi_def_cfa_offset 24
 4594 0002 0190     		str	r0, [sp, #4]
 4595 0004 0091     		str	r1, [sp]
 4596              	.LBB103:
 4597              		.loc 24 57 0
 4598 0006 0023     		movs	r3, #0
 4599 0008 0593     		str	r3, [sp, #20]
 4600              		.loc 24 62 0
 4601 000a 0023     		movs	r3, #0
 4602 000c 0493     		str	r3, [sp, #16]
 4603              		.loc 24 63 0
 4604 000e 049A     		ldr	r2, [sp, #16]
 4605 0010 059B     		ldr	r3, [sp, #20]
 4606 0012 0099     		ldr	r1, [sp]
 4607 0014 0B44     		add	r3, r3, r1
 4608 0016 1B78     		ldrb	r3, [r3]	@ zero_extendqisi2
 4609 0018 1343     		orrs	r3, r3, r2
 4610 001a 0493     		str	r3, [sp, #16]
 4611              		.loc 24 64 0
 4612 001c 049A     		ldr	r2, [sp, #16]
 4613 001e 059B     		ldr	r3, [sp, #20]
 4614 0020 0133     		adds	r3, r3, #1
 4615 0022 0099     		ldr	r1, [sp]
 4616 0024 0B44     		add	r3, r3, r1
 4617 0026 1B78     		ldrb	r3, [r3]	@ zero_extendqisi2
 4618 0028 1B02     		lsls	r3, r3, #8
 4619 002a 1343     		orrs	r3, r3, r2
 4620 002c 0493     		str	r3, [sp, #16]
 4621              		.loc 24 65 0
 4622 002e 049A     		ldr	r2, [sp, #16]
 4623 0030 059B     		ldr	r3, [sp, #20]
ARM GAS  /tmp/ccg61o9J.s 			page 84


 4624 0032 0233     		adds	r3, r3, #2
 4625 0034 0099     		ldr	r1, [sp]
 4626 0036 0B44     		add	r3, r3, r1
 4627 0038 1B78     		ldrb	r3, [r3]	@ zero_extendqisi2
 4628 003a 1B04     		lsls	r3, r3, #16
 4629 003c 1343     		orrs	r3, r3, r2
 4630 003e 0493     		str	r3, [sp, #16]
 4631              		.loc 24 66 0
 4632 0040 049A     		ldr	r2, [sp, #16]
 4633 0042 059B     		ldr	r3, [sp, #20]
 4634 0044 0333     		adds	r3, r3, #3
 4635 0046 0099     		ldr	r1, [sp]
 4636 0048 0B44     		add	r3, r3, r1
 4637 004a 1B78     		ldrb	r3, [r3]	@ zero_extendqisi2
 4638 004c 1B06     		lsls	r3, r3, #24
 4639 004e 1343     		orrs	r3, r3, r2
 4640 0050 0493     		str	r3, [sp, #16]
 4641              		.loc 24 67 0
 4642 0052 049A     		ldr	r2, [sp, #16]	@ float
 4643 0054 019B     		ldr	r3, [sp, #4]
 4644 0056 5A60     		str	r2, [r3, #4]	@ float
 4645              		.loc 24 68 0
 4646 0058 059B     		ldr	r3, [sp, #20]
 4647 005a 0433     		adds	r3, r3, #4
 4648 005c 0593     		str	r3, [sp, #20]
 4649              		.loc 24 73 0
 4650 005e 0023     		movs	r3, #0
 4651 0060 0393     		str	r3, [sp, #12]
 4652              		.loc 24 74 0
 4653 0062 039A     		ldr	r2, [sp, #12]
 4654 0064 059B     		ldr	r3, [sp, #20]
 4655 0066 0099     		ldr	r1, [sp]
 4656 0068 0B44     		add	r3, r3, r1
 4657 006a 1B78     		ldrb	r3, [r3]	@ zero_extendqisi2
 4658 006c 1343     		orrs	r3, r3, r2
 4659 006e 0393     		str	r3, [sp, #12]
 4660              		.loc 24 75 0
 4661 0070 039A     		ldr	r2, [sp, #12]
 4662 0072 059B     		ldr	r3, [sp, #20]
 4663 0074 0133     		adds	r3, r3, #1
 4664 0076 0099     		ldr	r1, [sp]
 4665 0078 0B44     		add	r3, r3, r1
 4666 007a 1B78     		ldrb	r3, [r3]	@ zero_extendqisi2
 4667 007c 1B02     		lsls	r3, r3, #8
 4668 007e 1343     		orrs	r3, r3, r2
 4669 0080 0393     		str	r3, [sp, #12]
 4670              		.loc 24 76 0
 4671 0082 039A     		ldr	r2, [sp, #12]
 4672 0084 059B     		ldr	r3, [sp, #20]
 4673 0086 0233     		adds	r3, r3, #2
 4674 0088 0099     		ldr	r1, [sp]
 4675 008a 0B44     		add	r3, r3, r1
 4676 008c 1B78     		ldrb	r3, [r3]	@ zero_extendqisi2
 4677 008e 1B04     		lsls	r3, r3, #16
 4678 0090 1343     		orrs	r3, r3, r2
 4679 0092 0393     		str	r3, [sp, #12]
 4680              		.loc 24 77 0
ARM GAS  /tmp/ccg61o9J.s 			page 85


 4681 0094 039A     		ldr	r2, [sp, #12]
 4682 0096 059B     		ldr	r3, [sp, #20]
 4683 0098 0333     		adds	r3, r3, #3
 4684 009a 0099     		ldr	r1, [sp]
 4685 009c 0B44     		add	r3, r3, r1
 4686 009e 1B78     		ldrb	r3, [r3]	@ zero_extendqisi2
 4687 00a0 1B06     		lsls	r3, r3, #24
 4688 00a2 1343     		orrs	r3, r3, r2
 4689 00a4 0393     		str	r3, [sp, #12]
 4690              		.loc 24 78 0
 4691 00a6 039A     		ldr	r2, [sp, #12]	@ float
 4692 00a8 019B     		ldr	r3, [sp, #4]
 4693 00aa 9A60     		str	r2, [r3, #8]	@ float
 4694              		.loc 24 79 0
 4695 00ac 059B     		ldr	r3, [sp, #20]
 4696 00ae 0433     		adds	r3, r3, #4
 4697 00b0 0593     		str	r3, [sp, #20]
 4698              		.loc 24 84 0
 4699 00b2 0023     		movs	r3, #0
 4700 00b4 0293     		str	r3, [sp, #8]
 4701              		.loc 24 85 0
 4702 00b6 029A     		ldr	r2, [sp, #8]
 4703 00b8 059B     		ldr	r3, [sp, #20]
 4704 00ba 0099     		ldr	r1, [sp]
 4705 00bc 0B44     		add	r3, r3, r1
 4706 00be 1B78     		ldrb	r3, [r3]	@ zero_extendqisi2
 4707 00c0 1343     		orrs	r3, r3, r2
 4708 00c2 0293     		str	r3, [sp, #8]
 4709              		.loc 24 86 0
 4710 00c4 029A     		ldr	r2, [sp, #8]
 4711 00c6 059B     		ldr	r3, [sp, #20]
 4712 00c8 0133     		adds	r3, r3, #1
 4713 00ca 0099     		ldr	r1, [sp]
 4714 00cc 0B44     		add	r3, r3, r1
 4715 00ce 1B78     		ldrb	r3, [r3]	@ zero_extendqisi2
 4716 00d0 1B02     		lsls	r3, r3, #8
 4717 00d2 1343     		orrs	r3, r3, r2
 4718 00d4 0293     		str	r3, [sp, #8]
 4719              		.loc 24 87 0
 4720 00d6 029A     		ldr	r2, [sp, #8]
 4721 00d8 059B     		ldr	r3, [sp, #20]
 4722 00da 0233     		adds	r3, r3, #2
 4723 00dc 0099     		ldr	r1, [sp]
 4724 00de 0B44     		add	r3, r3, r1
 4725 00e0 1B78     		ldrb	r3, [r3]	@ zero_extendqisi2
 4726 00e2 1B04     		lsls	r3, r3, #16
 4727 00e4 1343     		orrs	r3, r3, r2
 4728 00e6 0293     		str	r3, [sp, #8]
 4729              		.loc 24 88 0
 4730 00e8 029A     		ldr	r2, [sp, #8]
 4731 00ea 059B     		ldr	r3, [sp, #20]
 4732 00ec 0333     		adds	r3, r3, #3
 4733 00ee 0099     		ldr	r1, [sp]
 4734 00f0 0B44     		add	r3, r3, r1
 4735 00f2 1B78     		ldrb	r3, [r3]	@ zero_extendqisi2
 4736 00f4 1B06     		lsls	r3, r3, #24
 4737 00f6 1343     		orrs	r3, r3, r2
ARM GAS  /tmp/ccg61o9J.s 			page 86


 4738 00f8 0293     		str	r3, [sp, #8]
 4739              		.loc 24 89 0
 4740 00fa 029A     		ldr	r2, [sp, #8]	@ float
 4741 00fc 019B     		ldr	r3, [sp, #4]
 4742 00fe DA60     		str	r2, [r3, #12]	@ float
 4743              		.loc 24 90 0
 4744 0100 059B     		ldr	r3, [sp, #20]
 4745 0102 0433     		adds	r3, r3, #4
 4746 0104 0593     		str	r3, [sp, #20]
 4747              		.loc 24 91 0
 4748 0106 059B     		ldr	r3, [sp, #20]
 4749              	.LBE103:
 4750              		.loc 24 92 0
 4751 0108 1846     		mov	r0, r3
 4752 010a 06B0     		add	sp, sp, #24
 4753              		@ sp needed
 4754 010c 7047     		bx	lr
 4755              		.cfi_endproc
 4756              	.LFE750:
 4757              		.size	_ZN8r2p_msgs13PidParameters11deserializeEPh, .-_ZN8r2p_msgs13PidParameters11deserializeEPh
 4758 010e 00BF     		.section	.rodata
 4759 01bd 000000   		.align	2
 4760              	.LC16:
 4761 01c0 7232705F 		.ascii	"r2p_msgs/PidParameters\000"
 4761      6D736773 
 4761      2F506964 
 4761      50617261 
 4761      6D657465 
 4762              		.section	.text._ZN8r2p_msgs13PidParameters7getTypeEv,"axG",%progbits,_ZN8r2p_msgs13PidParameters7g
 4763              		.align	2
 4764              		.p2align 4,,15
 4765              		.weak	_ZN8r2p_msgs13PidParameters7getTypeEv
 4766              		.thumb
 4767              		.thumb_func
 4768              		.type	_ZN8r2p_msgs13PidParameters7getTypeEv, %function
 4769              	_ZN8r2p_msgs13PidParameters7getTypeEv:
 4770              	.LFB751:
 4771              		.loc 24 94 0
 4772              		.cfi_startproc
 4773              		@ args = 0, pretend = 0, frame = 8
 4774              		@ frame_needed = 0, uses_anonymous_args = 0
 4775              		@ link register save eliminated.
 4776 0000 82B0     		sub	sp, sp, #8
 4777              		.cfi_def_cfa_offset 8
 4778 0002 0190     		str	r0, [sp, #4]
 4779              		.loc 24 94 0
 4780 0004 014B     		ldr	r3, .L209
 4781 0006 1846     		mov	r0, r3
 4782 0008 02B0     		add	sp, sp, #8
 4783              		@ sp needed
 4784 000a 7047     		bx	lr
 4785              	.L210:
 4786              		.align	2
 4787              	.L209:
 4788 000c C0010000 		.word	.LC16
 4789              		.cfi_endproc
 4790              	.LFE751:
ARM GAS  /tmp/ccg61o9J.s 			page 87


 4791              		.size	_ZN8r2p_msgs13PidParameters7getTypeEv, .-_ZN8r2p_msgs13PidParameters7getTypeEv
 4792              		.section	.rodata
 4793 01d7 00       		.align	2
 4794              	.LC17:
 4795 01d8 35383435 		.ascii	"5845946b7961ba4a5b9b996ece05c35b\000"
 4795      39343662 
 4795      37393631 
 4795      62613461 
 4795      35623962 
 4796              		.section	.text._ZN8r2p_msgs13PidParameters6getMD5Ev,"axG",%progbits,_ZN8r2p_msgs13PidParameters6ge
 4797              		.align	2
 4798              		.p2align 4,,15
 4799              		.weak	_ZN8r2p_msgs13PidParameters6getMD5Ev
 4800              		.thumb
 4801              		.thumb_func
 4802              		.type	_ZN8r2p_msgs13PidParameters6getMD5Ev, %function
 4803              	_ZN8r2p_msgs13PidParameters6getMD5Ev:
 4804              	.LFB752:
 4805              		.loc 24 95 0
 4806              		.cfi_startproc
 4807              		@ args = 0, pretend = 0, frame = 8
 4808              		@ frame_needed = 0, uses_anonymous_args = 0
 4809              		@ link register save eliminated.
 4810 0000 82B0     		sub	sp, sp, #8
 4811              		.cfi_def_cfa_offset 8
 4812 0002 0190     		str	r0, [sp, #4]
 4813              		.loc 24 95 0
 4814 0004 014B     		ldr	r3, .L213
 4815 0006 1846     		mov	r0, r3
 4816 0008 02B0     		add	sp, sp, #8
 4817              		@ sp needed
 4818 000a 7047     		bx	lr
 4819              	.L214:
 4820              		.align	2
 4821              	.L213:
 4822 000c D8010000 		.word	.LC17
 4823              		.cfi_endproc
 4824              	.LFE752:
 4825              		.size	_ZN8r2p_msgs13PidParameters6getMD5Ev, .-_ZN8r2p_msgs13PidParameters6getMD5Ev
 4826              		.global	imu_data
 4827              		.section	.bss.imu_data,"aw",%nobits
 4828              		.align	2
 4829              		.type	imu_data, %object
 4830              		.size	imu_data, 12
 4831              	imu_data:
 4832 0000 00000000 		.space	12
 4832      00000000 
 4832      00000000 
 4833              		.global	imu_raw_data
 4834              		.section	.bss.imu_raw_data,"aw",%nobits
 4835              		.align	2
 4836              		.type	imu_raw_data, %object
 4837              		.size	imu_raw_data, 18
 4838              	imu_raw_data:
 4839 0000 00000000 		.space	18
 4839      00000000 
 4839      00000000 
ARM GAS  /tmp/ccg61o9J.s 			page 88


 4839      00000000 
 4839      0000
 4840              		.global	odometry_data
 4841 0012 0000     		.section	.bss.odometry_data,"aw",%nobits
 4842              		.align	2
 4843              		.type	odometry_data, %object
 4844              		.size	odometry_data, 12
 4845              	odometry_data:
 4846 0000 00000000 		.space	12
 4846      00000000 
 4846      00000000 
 4847              		.section	.text._Z6imu_cbRKN3r2p6IMUMsgE,"ax",%progbits
 4848              		.align	2
 4849              		.p2align 4,,15
 4850              		.global	_Z6imu_cbRKN3r2p6IMUMsgE
 4851              		.thumb
 4852              		.thumb_func
 4853              		.type	_Z6imu_cbRKN3r2p6IMUMsgE, %function
 4854              	_Z6imu_cbRKN3r2p6IMUMsgE:
 4855              	.LFB753:
 4856              		.file 25 "nodes/rosserial.cpp"
 4857              		.loc 25 48 0
 4858              		.cfi_startproc
 4859              		@ args = 0, pretend = 0, frame = 8
 4860              		@ frame_needed = 0, uses_anonymous_args = 0
 4861              		@ link register save eliminated.
 4862 0000 82B0     		sub	sp, sp, #8
 4863              		.cfi_def_cfa_offset 8
 4864 0002 0190     		str	r0, [sp, #4]
 4865              		.loc 25 50 0
 4866 0004 019B     		ldr	r3, [sp, #4]
 4867 0006 D3F80230 		ldr	r3, [r3, #2]	@ unaligned
 4868 000a 084A     		ldr	r2, .L217
 4869 000c 1360     		str	r3, [r2]	@ float
 4870              		.loc 25 51 0
 4871 000e 019B     		ldr	r3, [sp, #4]
 4872 0010 D3F80630 		ldr	r3, [r3, #6]	@ unaligned
 4873 0014 054A     		ldr	r2, .L217
 4874 0016 5360     		str	r3, [r2, #4]	@ float
 4875              		.loc 25 52 0
 4876 0018 019B     		ldr	r3, [sp, #4]
 4877 001a D3F80A30 		ldr	r3, [r3, #10]	@ unaligned
 4878 001e 034A     		ldr	r2, .L217
 4879 0020 9360     		str	r3, [r2, #8]	@ float
 4880              		.loc 25 54 0
 4881 0022 0123     		movs	r3, #1
 4882              		.loc 25 55 0
 4883 0024 1846     		mov	r0, r3
 4884 0026 02B0     		add	sp, sp, #8
 4885              		@ sp needed
 4886 0028 7047     		bx	lr
 4887              	.L218:
 4888 002a 00BF     		.align	2
 4889              	.L217:
 4890 002c 00000000 		.word	imu_data
 4891              		.cfi_endproc
 4892              	.LFE753:
ARM GAS  /tmp/ccg61o9J.s 			page 89


 4893              		.size	_Z6imu_cbRKN3r2p6IMUMsgE, .-_Z6imu_cbRKN3r2p6IMUMsgE
 4894              		.section	.text._Z10imu_raw_cbRKN3r2p7IMURaw9E,"ax",%progbits
 4895              		.align	2
 4896              		.p2align 4,,15
 4897              		.global	_Z10imu_raw_cbRKN3r2p7IMURaw9E
 4898              		.thumb
 4899              		.thumb_func
 4900              		.type	_Z10imu_raw_cbRKN3r2p7IMURaw9E, %function
 4901              	_Z10imu_raw_cbRKN3r2p7IMURaw9E:
 4902              	.LFB754:
 4903              		.loc 25 57 0
 4904              		.cfi_startproc
 4905              		@ args = 0, pretend = 0, frame = 8
 4906              		@ frame_needed = 0, uses_anonymous_args = 0
 4907              		@ link register save eliminated.
 4908 0000 82B0     		sub	sp, sp, #8
 4909              		.cfi_def_cfa_offset 8
 4910 0002 0190     		str	r0, [sp, #4]
 4911              		.loc 25 59 0
 4912 0004 019B     		ldr	r3, [sp, #4]
 4913 0006 B3F90230 		ldrsh	r3, [r3, #2]	@ unaligned
 4914 000a 9AB2     		uxth	r2, r3
 4915 000c 1A4B     		ldr	r3, .L221
 4916 000e 1A80     		strh	r2, [r3]	@ movhi
 4917              		.loc 25 60 0
 4918 0010 019B     		ldr	r3, [sp, #4]
 4919 0012 B3F90430 		ldrsh	r3, [r3, #4]	@ unaligned
 4920 0016 9AB2     		uxth	r2, r3
 4921 0018 174B     		ldr	r3, .L221
 4922 001a 5A80     		strh	r2, [r3, #2]	@ movhi
 4923              		.loc 25 61 0
 4924 001c 019B     		ldr	r3, [sp, #4]
 4925 001e B3F90630 		ldrsh	r3, [r3, #6]	@ unaligned
 4926 0022 9AB2     		uxth	r2, r3
 4927 0024 144B     		ldr	r3, .L221
 4928 0026 9A80     		strh	r2, [r3, #4]	@ movhi
 4929              		.loc 25 62 0
 4930 0028 019B     		ldr	r3, [sp, #4]
 4931 002a B3F90830 		ldrsh	r3, [r3, #8]	@ unaligned
 4932 002e 9AB2     		uxth	r2, r3
 4933 0030 114B     		ldr	r3, .L221
 4934 0032 DA80     		strh	r2, [r3, #6]	@ movhi
 4935              		.loc 25 63 0
 4936 0034 019B     		ldr	r3, [sp, #4]
 4937 0036 B3F90A30 		ldrsh	r3, [r3, #10]	@ unaligned
 4938 003a 9AB2     		uxth	r2, r3
 4939 003c 0E4B     		ldr	r3, .L221
 4940 003e 1A81     		strh	r2, [r3, #8]	@ movhi
 4941              		.loc 25 64 0
 4942 0040 019B     		ldr	r3, [sp, #4]
 4943 0042 B3F90C30 		ldrsh	r3, [r3, #12]	@ unaligned
 4944 0046 9AB2     		uxth	r2, r3
 4945 0048 0B4B     		ldr	r3, .L221
 4946 004a 5A81     		strh	r2, [r3, #10]	@ movhi
 4947              		.loc 25 65 0
 4948 004c 019B     		ldr	r3, [sp, #4]
 4949 004e B3F90E30 		ldrsh	r3, [r3, #14]	@ unaligned
ARM GAS  /tmp/ccg61o9J.s 			page 90


 4950 0052 9AB2     		uxth	r2, r3
 4951 0054 084B     		ldr	r3, .L221
 4952 0056 9A81     		strh	r2, [r3, #12]	@ movhi
 4953              		.loc 25 66 0
 4954 0058 019B     		ldr	r3, [sp, #4]
 4955 005a B3F91030 		ldrsh	r3, [r3, #16]	@ unaligned
 4956 005e 9AB2     		uxth	r2, r3
 4957 0060 054B     		ldr	r3, .L221
 4958 0062 DA81     		strh	r2, [r3, #14]	@ movhi
 4959              		.loc 25 67 0
 4960 0064 019B     		ldr	r3, [sp, #4]
 4961 0066 B3F91230 		ldrsh	r3, [r3, #18]	@ unaligned
 4962 006a 9AB2     		uxth	r2, r3
 4963 006c 024B     		ldr	r3, .L221
 4964 006e 1A82     		strh	r2, [r3, #16]	@ movhi
 4965              		.loc 25 69 0
 4966 0070 0123     		movs	r3, #1
 4967              		.loc 25 70 0
 4968 0072 1846     		mov	r0, r3
 4969 0074 02B0     		add	sp, sp, #8
 4970              		@ sp needed
 4971 0076 7047     		bx	lr
 4972              	.L222:
 4973              		.align	2
 4974              	.L221:
 4975 0078 00000000 		.word	imu_raw_data
 4976              		.cfi_endproc
 4977              	.LFE754:
 4978              		.size	_Z10imu_raw_cbRKN3r2p7IMURaw9E, .-_Z10imu_raw_cbRKN3r2p7IMURaw9E
 4979 007c AFF30080 		.section	.text._Z11odometry_cbRKN3r2p12Velocity3MsgE,"ax",%progbits
 4980              		.align	2
 4981              		.p2align 4,,15
 4982              		.global	_Z11odometry_cbRKN3r2p12Velocity3MsgE
 4983              		.thumb
 4984              		.thumb_func
 4985              		.type	_Z11odometry_cbRKN3r2p12Velocity3MsgE, %function
 4986              	_Z11odometry_cbRKN3r2p12Velocity3MsgE:
 4987              	.LFB755:
 4988              		.loc 25 72 0
 4989              		.cfi_startproc
 4990              		@ args = 0, pretend = 0, frame = 8
 4991              		@ frame_needed = 0, uses_anonymous_args = 0
 4992              		@ link register save eliminated.
 4993 0000 82B0     		sub	sp, sp, #8
 4994              		.cfi_def_cfa_offset 8
 4995 0002 0190     		str	r0, [sp, #4]
 4996              		.loc 25 74 0
 4997 0004 019B     		ldr	r3, [sp, #4]
 4998 0006 D3F80230 		ldr	r3, [r3, #2]	@ unaligned
 4999 000a 084A     		ldr	r2, .L225
 5000 000c 1360     		str	r3, [r2]	@ float
 5001              		.loc 25 75 0
 5002 000e 019B     		ldr	r3, [sp, #4]
 5003 0010 D3F80630 		ldr	r3, [r3, #6]	@ unaligned
 5004 0014 054A     		ldr	r2, .L225
 5005 0016 5360     		str	r3, [r2, #4]	@ float
 5006              		.loc 25 76 0
ARM GAS  /tmp/ccg61o9J.s 			page 91


 5007 0018 019B     		ldr	r3, [sp, #4]
 5008 001a D3F80A30 		ldr	r3, [r3, #10]	@ unaligned
 5009 001e 034A     		ldr	r2, .L225
 5010 0020 9360     		str	r3, [r2, #8]	@ float
 5011              		.loc 25 78 0
 5012 0022 0123     		movs	r3, #1
 5013              		.loc 25 79 0
 5014 0024 1846     		mov	r0, r3
 5015 0026 02B0     		add	sp, sp, #8
 5016              		@ sp needed
 5017 0028 7047     		bx	lr
 5018              	.L226:
 5019 002a 00BF     		.align	2
 5020              	.L225:
 5021 002c 00000000 		.word	odometry_data
 5022              		.cfi_endproc
 5023              	.LFE755:
 5024              		.size	_Z11odometry_cbRKN3r2p12Velocity3MsgE, .-_Z11odometry_cbRKN3r2p12Velocity3MsgE
 5025              		.section	.rodata
 5026 01f9 000000   		.align	2
 5027              	.LC18:
 5028 01fc 7232705F 		.ascii	"r2p_sub\000"
 5028      73756200 
 5029              		.align	2
 5030              	.LC19:
 5031 0204 696D7500 		.ascii	"imu\000"
 5032              		.align	2
 5033              	.LC20:
 5034 0208 696D755F 		.ascii	"imu_raw\000"
 5034      72617700 
 5035              		.align	2
 5036              	.LC21:
 5037 0210 6F646F6D 		.ascii	"odometry\000"
 5037      65747279 
 5037      00
 5038              		.section	.text._Z12r2p_sub_nodePv,"ax",%progbits
 5039              		.align	2
 5040              		.p2align 4,,15
 5041              		.global	_Z12r2p_sub_nodePv
 5042              		.thumb
 5043              		.thumb_func
 5044              		.type	_Z12r2p_sub_nodePv, %function
 5045              	_Z12r2p_sub_nodePv:
 5046              	.LFB756:
 5047              		.loc 25 81 0
 5048              		.cfi_startproc
 5049              		@ args = 0, pretend = 0, frame = 512
 5050              		@ frame_needed = 0, uses_anonymous_args = 0
 5051 0000 00B5     		push	{lr}
 5052              		.cfi_def_cfa_offset 4
 5053              		.cfi_offset 14, -4
 5054 0002 ADF5017D 		sub	sp, sp, #516
 5055              		.cfi_def_cfa_offset 520
 5056 0006 01AB     		add	r3, sp, #4
 5057 0008 1860     		str	r0, [r3]
 5058              	.LBB104:
 5059              		.loc 25 82 0
ARM GAS  /tmp/ccg61o9J.s 			page 92


 5060 000a 78AB     		add	r3, sp, #480
 5061 000c 1846     		mov	r0, r3
 5062 000e 1C49     		ldr	r1, .L229
 5063 0010 0122     		movs	r2, #1
 5064 0012 FFF7FEFF 		bl	_ZN3r2p4NodeC1EPKcb
 5065              		.loc 25 83 0
 5066 0016 02AB     		add	r3, sp, #8
 5067 0018 1846     		mov	r0, r3
 5068 001a 1A49     		ldr	r1, .L229+4
 5069 001c FFF7FEFF 		bl	_ZN3r2p10SubscriberINS_6IMUMsgELj5EEC1EPFbRKS1_E
 5070              		.loc 25 84 0
 5071 0020 4CAB     		add	r3, sp, #304
 5072 0022 1846     		mov	r0, r3
 5073 0024 1849     		ldr	r1, .L229+8
 5074 0026 FFF7FEFF 		bl	_ZN3r2p10SubscriberINS_7IMURaw9ELj5EEC1EPFbRKS1_E
 5075              		.loc 25 85 0
 5076 002a 27AB     		add	r3, sp, #156
 5077 002c 1846     		mov	r0, r3
 5078 002e 1749     		ldr	r1, .L229+12
 5079 0030 FFF7FEFF 		bl	_ZN3r2p10SubscriberINS_12Velocity3MsgELj5EEC1EPFbRKS1_E
 5080              		.loc 25 88 0
 5081 0034 164B     		ldr	r3, .L229+16
 5082 0036 9B69     		ldr	r3, [r3, #24]
 5083 0038 114A     		ldr	r2, .L229
 5084 003a 9A61     		str	r2, [r3, #24]
 5085              		.loc 25 90 0
 5086 003c 78AA     		add	r2, sp, #480
 5087 003e 02AB     		add	r3, sp, #8
 5088 0040 1046     		mov	r0, r2
 5089 0042 1946     		mov	r1, r3
 5090 0044 134A     		ldr	r2, .L229+20
 5091 0046 FFF7FEFF 		bl	_ZN3r2p4Node9subscribeINS_6IMUMsgELj5EEEbRNS_10SubscriberIT_XT0_EEEPKc
 5092              		.loc 25 91 0
 5093 004a 78AA     		add	r2, sp, #480
 5094 004c 4CAB     		add	r3, sp, #304
 5095 004e 1046     		mov	r0, r2
 5096 0050 1946     		mov	r1, r3
 5097 0052 114A     		ldr	r2, .L229+24
 5098 0054 FFF7FEFF 		bl	_ZN3r2p4Node9subscribeINS_7IMURaw9ELj5EEEbRNS_10SubscriberIT_XT0_EEEPKc
 5099              		.loc 25 92 0
 5100 0058 78AA     		add	r2, sp, #480
 5101 005a 27AB     		add	r3, sp, #156
 5102 005c 1046     		mov	r0, r2
 5103 005e 1946     		mov	r1, r3
 5104 0060 0E4A     		ldr	r2, .L229+28
 5105 0062 FFF7FEFF 		bl	_ZN3r2p4Node9subscribeINS_12Velocity3MsgELj5EEEbRNS_10SubscriberIT_XT0_EEEPKc
 5106              	.L228:
 5107              		.loc 25 95 0 discriminator 1
 5108 0066 7FAB     		add	r3, sp, #508
 5109 0068 1846     		mov	r0, r3
 5110 006a 4FF47A71 		mov	r1, #1000
 5111 006e FFF7FEFF 		bl	_ZN3r2p4Time2msEl
 5112 0072 78AA     		add	r2, sp, #480
 5113 0074 7FAB     		add	r3, sp, #508
 5114 0076 1046     		mov	r0, r2
 5115 0078 1946     		mov	r1, r3
 5116 007a FFF7FEFF 		bl	_ZN3r2p4Node4spinERKNS_4TimeE
ARM GAS  /tmp/ccg61o9J.s 			page 93


 5117 007e F2E7     		b	.L228
 5118              	.L230:
 5119              		.align	2
 5120              	.L229:
 5121 0080 FC010000 		.word	.LC18
 5122 0084 00000000 		.word	_Z6imu_cbRKN3r2p6IMUMsgE
 5123 0088 00000000 		.word	_Z10imu_raw_cbRKN3r2p7IMURaw9E
 5124 008c 00000000 		.word	_Z11odometry_cbRKN3r2p12Velocity3MsgE
 5125 0090 00000000 		.word	rlist
 5126 0094 04020000 		.word	.LC19
 5127 0098 08020000 		.word	.LC20
 5128 009c 10020000 		.word	.LC21
 5129              	.LBE104:
 5130              		.cfi_endproc
 5131              	.LFE756:
 5132              		.size	_Z12r2p_sub_nodePv, .-_Z12r2p_sub_nodePv
 5133              		.global	nh
 5134              		.section	.bss.nh,"aw",%nobits
 5135              		.align	2
 5136              		.type	nh, %object
 5137              		.size	nh, 1328
 5138              	nh:
 5139 0000 00000000 		.space	1328
 5139      00000000 
 5139      00000000 
 5139      00000000 
 5139      00000000 
 5140              		.global	yaw
 5141              		.section	.bss.yaw,"aw",%nobits
 5142              		.align	2
 5143              		.type	yaw, %object
 5144              		.size	yaw, 4
 5145              	yaw:
 5146 0000 00000000 		.space	4
 5147              		.section	.text._ZN3ros3MsgC2Ev,"axG",%progbits,_ZN3ros3MsgC5Ev,comdat
 5148              		.align	2
 5149              		.p2align 4,,15
 5150              		.weak	_ZN3ros3MsgC2Ev
 5151              		.thumb
 5152              		.thumb_func
 5153              		.type	_ZN3ros3MsgC2Ev, %function
 5154              	_ZN3ros3MsgC2Ev:
 5155              	.LFB759:
 5156              		.loc 12 43 0
 5157              		.cfi_startproc
 5158              		@ args = 0, pretend = 0, frame = 8
 5159              		@ frame_needed = 0, uses_anonymous_args = 0
 5160              		@ link register save eliminated.
 5161 0000 82B0     		sub	sp, sp, #8
 5162              		.cfi_def_cfa_offset 8
 5163 0002 0190     		str	r0, [sp, #4]
 5164              	.LBB105:
 5165              		.loc 12 43 0
 5166 0004 019B     		ldr	r3, [sp, #4]
 5167 0006 034A     		ldr	r2, .L234
 5168 0008 1A60     		str	r2, [r3]
 5169              	.LBE105:
ARM GAS  /tmp/ccg61o9J.s 			page 94


 5170 000a 019B     		ldr	r3, [sp, #4]
 5171 000c 1846     		mov	r0, r3
 5172 000e 02B0     		add	sp, sp, #8
 5173              		@ sp needed
 5174 0010 7047     		bx	lr
 5175              	.L235:
 5176 0012 00BF     		.align	2
 5177              	.L234:
 5178 0014 08000000 		.word	_ZTVN3ros3MsgE+8
 5179              		.cfi_endproc
 5180              	.LFE759:
 5181              		.size	_ZN3ros3MsgC2Ev, .-_ZN3ros3MsgC2Ev
 5182              		.weak	_ZN3ros3MsgC1Ev
 5183              		.thumb_set _ZN3ros3MsgC1Ev,_ZN3ros3MsgC2Ev
 5184 0018 AFF30080 		.section	.text._ZN13geometry_msgs7Vector3C2Ev,"axG",%progbits,_ZN13geometry_msgs7Vector3C5Ev,comda
 5184      AFF30080 
 5185              		.align	2
 5186              		.p2align 4,,15
 5187              		.weak	_ZN13geometry_msgs7Vector3C2Ev
 5188              		.thumb
 5189              		.thumb_func
 5190              		.type	_ZN13geometry_msgs7Vector3C2Ev, %function
 5191              	_ZN13geometry_msgs7Vector3C2Ev:
 5192              	.LFB761:
 5193              		.loc 20 12 0
 5194              		.cfi_startproc
 5195              		@ args = 0, pretend = 0, frame = 8
 5196              		@ frame_needed = 0, uses_anonymous_args = 0
 5197 0000 00B5     		push	{lr}
 5198              		.cfi_def_cfa_offset 4
 5199              		.cfi_offset 14, -4
 5200 0002 83B0     		sub	sp, sp, #12
 5201              		.cfi_def_cfa_offset 16
 5202 0004 0190     		str	r0, [sp, #4]
 5203              	.LBB106:
 5204              		.loc 20 12 0
 5205 0006 019B     		ldr	r3, [sp, #4]
 5206 0008 1846     		mov	r0, r3
 5207 000a FFF7FEFF 		bl	_ZN3ros3MsgC2Ev
 5208 000e 019B     		ldr	r3, [sp, #4]
 5209 0010 034A     		ldr	r2, .L239
 5210 0012 1A60     		str	r2, [r3]
 5211              	.LBE106:
 5212 0014 019B     		ldr	r3, [sp, #4]
 5213 0016 1846     		mov	r0, r3
 5214 0018 03B0     		add	sp, sp, #12
 5215              		@ sp needed
 5216 001a 5DF804FB 		ldr	pc, [sp], #4
 5217              	.L240:
 5218 001e 00BF     		.align	2
 5219              	.L239:
 5220 0020 08000000 		.word	_ZTVN13geometry_msgs7Vector3E+8
 5221              		.cfi_endproc
 5222              	.LFE761:
 5223              		.size	_ZN13geometry_msgs7Vector3C2Ev, .-_ZN13geometry_msgs7Vector3C2Ev
 5224              		.weak	_ZN13geometry_msgs7Vector3C1Ev
 5225              		.thumb_set _ZN13geometry_msgs7Vector3C1Ev,_ZN13geometry_msgs7Vector3C2Ev
ARM GAS  /tmp/ccg61o9J.s 			page 95


 5226              		.global	odom_msg
 5227 0024 AFF30080 		.section	.bss.odom_msg,"aw",%nobits
 5227      AFF30080 
 5227      AFF30080 
 5228              		.align	2
 5229              		.type	odom_msg, %object
 5230              		.size	odom_msg, 16
 5231              	odom_msg:
 5232 0000 00000000 		.space	16
 5232      00000000 
 5232      00000000 
 5232      00000000 
 5233              		.section	.text._ZN8r2p_msgs10Vector3_32C2Ev,"axG",%progbits,_ZN8r2p_msgs10Vector3_32C5Ev,comdat
 5234              		.align	2
 5235              		.p2align 4,,15
 5236              		.weak	_ZN8r2p_msgs10Vector3_32C2Ev
 5237              		.thumb
 5238              		.thumb_func
 5239              		.type	_ZN8r2p_msgs10Vector3_32C2Ev, %function
 5240              	_ZN8r2p_msgs10Vector3_32C2Ev:
 5241              	.LFB765:
 5242              		.loc 22 12 0
 5243              		.cfi_startproc
 5244              		@ args = 0, pretend = 0, frame = 8
 5245              		@ frame_needed = 0, uses_anonymous_args = 0
 5246 0000 00B5     		push	{lr}
 5247              		.cfi_def_cfa_offset 4
 5248              		.cfi_offset 14, -4
 5249 0002 83B0     		sub	sp, sp, #12
 5250              		.cfi_def_cfa_offset 16
 5251 0004 0190     		str	r0, [sp, #4]
 5252              	.LBB107:
 5253              		.loc 22 12 0
 5254 0006 019B     		ldr	r3, [sp, #4]
 5255 0008 1846     		mov	r0, r3
 5256 000a FFF7FEFF 		bl	_ZN3ros3MsgC2Ev
 5257 000e 019B     		ldr	r3, [sp, #4]
 5258 0010 034A     		ldr	r2, .L244
 5259 0012 1A60     		str	r2, [r3]
 5260              	.LBE107:
 5261 0014 019B     		ldr	r3, [sp, #4]
 5262 0016 1846     		mov	r0, r3
 5263 0018 03B0     		add	sp, sp, #12
 5264              		@ sp needed
 5265 001a 5DF804FB 		ldr	pc, [sp], #4
 5266              	.L245:
 5267 001e 00BF     		.align	2
 5268              	.L244:
 5269 0020 08000000 		.word	_ZTVN8r2p_msgs10Vector3_32E+8
 5270              		.cfi_endproc
 5271              	.LFE765:
 5272              		.size	_ZN8r2p_msgs10Vector3_32C2Ev, .-_ZN8r2p_msgs10Vector3_32C2Ev
 5273              		.weak	_ZN8r2p_msgs10Vector3_32C1Ev
 5274              		.thumb_set _ZN8r2p_msgs10Vector3_32C1Ev,_ZN8r2p_msgs10Vector3_32C2Ev
 5275 0024 AFF30080 		.section	.text._ZN8r2p_msgs6ImuRawC2Ev,"axG",%progbits,_ZN8r2p_msgs6ImuRawC5Ev,comdat
 5275      AFF30080 
 5275      AFF30080 
ARM GAS  /tmp/ccg61o9J.s 			page 96


 5276              		.align	2
 5277              		.p2align 4,,15
 5278              		.weak	_ZN8r2p_msgs6ImuRawC2Ev
 5279              		.thumb
 5280              		.thumb_func
 5281              		.type	_ZN8r2p_msgs6ImuRawC2Ev, %function
 5282              	_ZN8r2p_msgs6ImuRawC2Ev:
 5283              	.LFB768:
 5284              		.loc 23 13 0
 5285              		.cfi_startproc
 5286              		@ args = 0, pretend = 0, frame = 8
 5287              		@ frame_needed = 0, uses_anonymous_args = 0
 5288 0000 00B5     		push	{lr}
 5289              		.cfi_def_cfa_offset 4
 5290              		.cfi_offset 14, -4
 5291 0002 83B0     		sub	sp, sp, #12
 5292              		.cfi_def_cfa_offset 16
 5293 0004 0190     		str	r0, [sp, #4]
 5294              	.LBB108:
 5295              		.loc 23 13 0
 5296 0006 019B     		ldr	r3, [sp, #4]
 5297 0008 1846     		mov	r0, r3
 5298 000a FFF7FEFF 		bl	_ZN3ros3MsgC2Ev
 5299 000e 019B     		ldr	r3, [sp, #4]
 5300 0010 0A4A     		ldr	r2, .L249
 5301 0012 1A60     		str	r2, [r3]
 5302 0014 019B     		ldr	r3, [sp, #4]
 5303 0016 0433     		adds	r3, r3, #4
 5304 0018 1846     		mov	r0, r3
 5305 001a FFF7FEFF 		bl	_ZN8r2p_msgs10Vector3_32C1Ev
 5306 001e 019B     		ldr	r3, [sp, #4]
 5307 0020 1433     		adds	r3, r3, #20
 5308 0022 1846     		mov	r0, r3
 5309 0024 FFF7FEFF 		bl	_ZN8r2p_msgs10Vector3_32C1Ev
 5310 0028 019B     		ldr	r3, [sp, #4]
 5311 002a 2433     		adds	r3, r3, #36
 5312 002c 1846     		mov	r0, r3
 5313 002e FFF7FEFF 		bl	_ZN8r2p_msgs10Vector3_32C1Ev
 5314              	.LBE108:
 5315 0032 019B     		ldr	r3, [sp, #4]
 5316 0034 1846     		mov	r0, r3
 5317 0036 03B0     		add	sp, sp, #12
 5318              		@ sp needed
 5319 0038 5DF804FB 		ldr	pc, [sp], #4
 5320              	.L250:
 5321              		.align	2
 5322              	.L249:
 5323 003c 08000000 		.word	_ZTVN8r2p_msgs6ImuRawE+8
 5324              		.cfi_endproc
 5325              	.LFE768:
 5326              		.size	_ZN8r2p_msgs6ImuRawC2Ev, .-_ZN8r2p_msgs6ImuRawC2Ev
 5327              		.weak	_ZN8r2p_msgs6ImuRawC1Ev
 5328              		.thumb_set _ZN8r2p_msgs6ImuRawC1Ev,_ZN8r2p_msgs6ImuRawC2Ev
 5329              		.section	.rodata
 5330 0219 000000   		.align	2
 5331              	.LC22:
 5332 021c 6F646F6D 		.ascii	"odom\000"
ARM GAS  /tmp/ccg61o9J.s 			page 97


 5332      00
 5333 0221 000000   		.align	2
 5334              	.LC23:
 5335 0224 726F7373 		.ascii	"rosserial_pub\000"
 5335      65726961 
 5335      6C5F7075 
 5335      6200
 5336              		.section	.text._Z20rosserial_pub_threadPv,"ax",%progbits
 5337              		.align	2
 5338              		.p2align 4,,15
 5339              		.global	_Z20rosserial_pub_threadPv
 5340              		.thumb
 5341              		.thumb_func
 5342              		.type	_Z20rosserial_pub_threadPv, %function
 5343              	_Z20rosserial_pub_threadPv:
 5344              	.LFB763:
 5345              		.loc 25 110 0
 5346              		.cfi_startproc
 5347              		@ args = 0, pretend = 0, frame = 160
 5348              		@ frame_needed = 0, uses_anonymous_args = 0
 5349 0000 00B5     		push	{lr}
 5350              		.cfi_def_cfa_offset 4
 5351              		.cfi_offset 14, -4
 5352 0002 A9B0     		sub	sp, sp, #164
 5353              		.cfi_def_cfa_offset 168
 5354 0004 0190     		str	r0, [sp, #4]
 5355              	.LBB109:
 5356              		.loc 25 111 0
 5357 0006 23AB     		add	r3, sp, #140
 5358 0008 1846     		mov	r0, r3
 5359 000a FFF7FEFF 		bl	_ZN8r2p_msgs10Vector3_32C1Ev
 5360              		.loc 25 112 0
 5361 000e 1FAB     		add	r3, sp, #124
 5362 0010 1846     		mov	r0, r3
 5363 0012 FFF7FEFF 		bl	_ZN8r2p_msgs10Vector3_32C1Ev
 5364              		.loc 25 113 0
 5365 0016 03AB     		add	r3, sp, #12
 5366 0018 1846     		mov	r0, r3
 5367 001a FFF7FEFF 		bl	_ZN8r2p_msgs6ImuRawC1Ev
 5368              		.loc 25 114 0
 5369 001e 1AAA     		add	r2, sp, #104
 5370 0020 23AB     		add	r3, sp, #140
 5371 0022 1046     		mov	r0, r2
 5372 0024 5B49     		ldr	r1, .L253
 5373 0026 1A46     		mov	r2, r3
 5374 0028 0023     		movs	r3, #0
 5375 002a FFF7FEFF 		bl	_ZN3ros9PublisherC1EPKcPNS_3MsgEi
 5376              		.loc 25 115 0
 5377 002e 15AA     		add	r2, sp, #84
 5378 0030 1FAB     		add	r3, sp, #124
 5379 0032 1046     		mov	r0, r2
 5380 0034 5849     		ldr	r1, .L253+4
 5381 0036 1A46     		mov	r2, r3
 5382 0038 0023     		movs	r3, #0
 5383 003a FFF7FEFF 		bl	_ZN3ros9PublisherC1EPKcPNS_3MsgEi
 5384              		.loc 25 116 0
 5385 003e 10AA     		add	r2, sp, #64
ARM GAS  /tmp/ccg61o9J.s 			page 98


 5386 0040 03AB     		add	r3, sp, #12
 5387 0042 1046     		mov	r0, r2
 5388 0044 5549     		ldr	r1, .L253+8
 5389 0046 1A46     		mov	r2, r3
 5390 0048 0023     		movs	r3, #0
 5391 004a FFF7FEFF 		bl	_ZN3ros9PublisherC1EPKcPNS_3MsgEi
 5392              		.loc 25 119 0
 5393 004e 544B     		ldr	r3, .L253+12
 5394 0050 4FF00002 		mov	r2, #0
 5395 0054 5A60     		str	r2, [r3, #4]	@ float
 5396              		.loc 25 120 0
 5397 0056 524B     		ldr	r3, .L253+12
 5398 0058 4FF00002 		mov	r2, #0
 5399 005c 9A60     		str	r2, [r3, #8]	@ float
 5400              		.loc 25 121 0
 5401 005e 504B     		ldr	r3, .L253+12
 5402 0060 4FF00002 		mov	r2, #0
 5403 0064 DA60     		str	r2, [r3, #12]	@ float
 5404              		.loc 25 124 0
 5405 0066 4F4B     		ldr	r3, .L253+16
 5406 0068 9B69     		ldr	r3, [r3, #24]
 5407 006a 4F4A     		ldr	r2, .L253+20
 5408 006c 9A61     		str	r2, [r3, #24]
 5409              		.loc 25 126 0
 5410 006e 4F48     		ldr	r0, .L253+24
 5411 0070 FFF7FEFF 		bl	_ZN3ros11NodeHandle_I11R2PHardwareLi25ELi25ELi512ELi512EE8initNodeEv
 5412              		.loc 25 127 0
 5413 0074 1AAB     		add	r3, sp, #104
 5414 0076 4D48     		ldr	r0, .L253+24
 5415 0078 1946     		mov	r1, r3
 5416 007a FFF7FEFF 		bl	_ZN3ros11NodeHandle_I11R2PHardwareLi25ELi25ELi512ELi512EE9advertiseERNS_9PublisherE
 5417              		.loc 25 128 0
 5418 007e 15AB     		add	r3, sp, #84
 5419 0080 4A48     		ldr	r0, .L253+24
 5420 0082 1946     		mov	r1, r3
 5421 0084 FFF7FEFF 		bl	_ZN3ros11NodeHandle_I11R2PHardwareLi25ELi25ELi512ELi512EE9advertiseERNS_9PublisherE
 5422              		.loc 25 129 0
 5423 0088 10AB     		add	r3, sp, #64
 5424 008a 4848     		ldr	r0, .L253+24
 5425 008c 1946     		mov	r1, r3
 5426 008e FFF7FEFF 		bl	_ZN3ros11NodeHandle_I11R2PHardwareLi25ELi25ELi512ELi512EE9advertiseERNS_9PublisherE
 5427              	.L252:
 5428              		.loc 25 132 0 discriminator 1
 5429 0092 474B     		ldr	r3, .L253+28
 5430 0094 DB68     		ldr	r3, [r3, #12]
 5431 0096 2793     		str	r3, [sp, #156]
 5432              		.loc 25 134 0 discriminator 1
 5433 0098 464B     		ldr	r3, .L253+32
 5434 009a 1B68     		ldr	r3, [r3]	@ float
 5435 009c 2493     		str	r3, [sp, #144]	@ float
 5436              		.loc 25 135 0 discriminator 1
 5437 009e 454B     		ldr	r3, .L253+32
 5438 00a0 5B68     		ldr	r3, [r3, #4]	@ float
 5439 00a2 2593     		str	r3, [sp, #148]	@ float
 5440              		.loc 25 136 0 discriminator 1
 5441 00a4 434B     		ldr	r3, .L253+32
 5442 00a6 9B68     		ldr	r3, [r3, #8]	@ float
ARM GAS  /tmp/ccg61o9J.s 			page 99


 5443 00a8 2693     		str	r3, [sp, #152]	@ float
 5444              		.loc 25 137 0 discriminator 1
 5445 00aa 1AAA     		add	r2, sp, #104
 5446 00ac 23AB     		add	r3, sp, #140
 5447 00ae 1046     		mov	r0, r2
 5448 00b0 1946     		mov	r1, r3
 5449 00b2 FFF7FEFF 		bl	_ZN3ros9Publisher7publishEPKNS_3MsgE
 5450              		.loc 25 139 0 discriminator 1
 5451 00b6 404B     		ldr	r3, .L253+36
 5452 00b8 1B68     		ldr	r3, [r3]	@ float
 5453 00ba 2093     		str	r3, [sp, #128]	@ float
 5454              		.loc 25 140 0 discriminator 1
 5455 00bc 3E4B     		ldr	r3, .L253+36
 5456 00be 5B68     		ldr	r3, [r3, #4]	@ float
 5457 00c0 2193     		str	r3, [sp, #132]	@ float
 5458              		.loc 25 141 0 discriminator 1
 5459 00c2 3D4B     		ldr	r3, .L253+36
 5460 00c4 9B68     		ldr	r3, [r3, #8]	@ float
 5461 00c6 2293     		str	r3, [sp, #136]	@ float
 5462              		.loc 25 142 0 discriminator 1
 5463 00c8 15AA     		add	r2, sp, #84
 5464 00ca 1FAB     		add	r3, sp, #124
 5465 00cc 1046     		mov	r0, r2
 5466 00ce 1946     		mov	r1, r3
 5467 00d0 FFF7FEFF 		bl	_ZN3ros9Publisher7publishEPKNS_3MsgE
 5468              		.loc 25 144 0 discriminator 1
 5469 00d4 394B     		ldr	r3, .L253+40
 5470 00d6 1B88     		ldrh	r3, [r3]
 5471 00d8 1BB2     		sxth	r3, r3
 5472 00da 07EE103A 		fmsr	s14, r3	@ int
 5473 00de F8EEC77A 		fsitos	s15, s14
 5474 00e2 CDED097A 		fsts	s15, [sp, #36]
 5475              		.loc 25 145 0 discriminator 1
 5476 00e6 354B     		ldr	r3, .L253+40
 5477 00e8 5B88     		ldrh	r3, [r3, #2]
 5478 00ea 1BB2     		sxth	r3, r3
 5479 00ec 07EE103A 		fmsr	s14, r3	@ int
 5480 00f0 F8EEC77A 		fsitos	s15, s14
 5481 00f4 CDED0A7A 		fsts	s15, [sp, #40]
 5482              		.loc 25 146 0 discriminator 1
 5483 00f8 304B     		ldr	r3, .L253+40
 5484 00fa 9B88     		ldrh	r3, [r3, #4]
 5485 00fc 1BB2     		sxth	r3, r3
 5486 00fe 07EE103A 		fmsr	s14, r3	@ int
 5487 0102 F8EEC77A 		fsitos	s15, s14
 5488 0106 CDED0B7A 		fsts	s15, [sp, #44]
 5489              		.loc 25 147 0 discriminator 1
 5490 010a 2C4B     		ldr	r3, .L253+40
 5491 010c DB88     		ldrh	r3, [r3, #6]
 5492 010e 1BB2     		sxth	r3, r3
 5493 0110 07EE103A 		fmsr	s14, r3	@ int
 5494 0114 F8EEC77A 		fsitos	s15, s14
 5495 0118 CDED057A 		fsts	s15, [sp, #20]
 5496              		.loc 25 148 0 discriminator 1
 5497 011c 274B     		ldr	r3, .L253+40
 5498 011e 1B89     		ldrh	r3, [r3, #8]
 5499 0120 1BB2     		sxth	r3, r3
ARM GAS  /tmp/ccg61o9J.s 			page 100


 5500 0122 07EE103A 		fmsr	s14, r3	@ int
 5501 0126 F8EEC77A 		fsitos	s15, s14
 5502 012a CDED067A 		fsts	s15, [sp, #24]
 5503              		.loc 25 149 0 discriminator 1
 5504 012e 234B     		ldr	r3, .L253+40
 5505 0130 5B89     		ldrh	r3, [r3, #10]
 5506 0132 1BB2     		sxth	r3, r3
 5507 0134 07EE103A 		fmsr	s14, r3	@ int
 5508 0138 F8EEC77A 		fsitos	s15, s14
 5509 013c CDED077A 		fsts	s15, [sp, #28]
 5510              		.loc 25 150 0 discriminator 1
 5511 0140 1E4B     		ldr	r3, .L253+40
 5512 0142 9B89     		ldrh	r3, [r3, #12]
 5513 0144 1BB2     		sxth	r3, r3
 5514 0146 07EE103A 		fmsr	s14, r3	@ int
 5515 014a F8EEC77A 		fsitos	s15, s14
 5516 014e CDED0D7A 		fsts	s15, [sp, #52]
 5517              		.loc 25 151 0 discriminator 1
 5518 0152 1A4B     		ldr	r3, .L253+40
 5519 0154 DB89     		ldrh	r3, [r3, #14]
 5520 0156 1BB2     		sxth	r3, r3
 5521 0158 07EE103A 		fmsr	s14, r3	@ int
 5522 015c F8EEC77A 		fsitos	s15, s14
 5523 0160 CDED0E7A 		fsts	s15, [sp, #56]
 5524              		.loc 25 152 0 discriminator 1
 5525 0164 154B     		ldr	r3, .L253+40
 5526 0166 1B8A     		ldrh	r3, [r3, #16]
 5527 0168 1BB2     		sxth	r3, r3
 5528 016a 07EE103A 		fmsr	s14, r3	@ int
 5529 016e F8EEC77A 		fsitos	s15, s14
 5530 0172 CDED0F7A 		fsts	s15, [sp, #60]
 5531              		.loc 25 153 0 discriminator 1
 5532 0176 10AA     		add	r2, sp, #64
 5533 0178 03AB     		add	r3, sp, #12
 5534 017a 1046     		mov	r0, r2
 5535 017c 1946     		mov	r1, r3
 5536 017e FFF7FEFF 		bl	_ZN3ros9Publisher7publishEPKNS_3MsgE
 5537              		.loc 25 155 0 discriminator 1
 5538 0182 0A48     		ldr	r0, .L253+24
 5539 0184 FFF7FEFF 		bl	_ZN3ros11NodeHandle_I11R2PHardwareLi25ELi25ELi512ELi512EE8spinOnceEv
 5540              		.loc 25 158 0 discriminator 1
 5541 0188 279B     		ldr	r3, [sp, #156]
 5542 018a 3233     		adds	r3, r3, #50
 5543 018c 1846     		mov	r0, r3
 5544 018e FFF7FEFF 		bl	chThdSleepUntil
 5545              		.loc 25 161 0 discriminator 1
 5546 0192 7EE7     		b	.L252
 5547              	.L254:
 5548              		.align	2
 5549              	.L253:
 5550 0194 1C020000 		.word	.LC22
 5551 0198 04020000 		.word	.LC19
 5552 019c 08020000 		.word	.LC20
 5553 01a0 00000000 		.word	odom_msg
 5554 01a4 00000000 		.word	rlist
 5555 01a8 24020000 		.word	.LC23
 5556 01ac 00000000 		.word	nh
ARM GAS  /tmp/ccg61o9J.s 			page 101


 5557 01b0 00000000 		.word	vtlist
 5558 01b4 00000000 		.word	odometry_data
 5559 01b8 00000000 		.word	imu_data
 5560 01bc 00000000 		.word	imu_raw_data
 5561              	.LBE109:
 5562              		.cfi_endproc
 5563              	.LFE763:
 5564              		.size	_Z20rosserial_pub_threadPv, .-_Z20rosserial_pub_threadPv
 5565              		.global	vel_pub
 5566              		.section	.bss.vel_pub,"aw",%nobits
 5567              		.align	2
 5568              		.type	vel_pub, %object
 5569              		.size	vel_pub, 16
 5570              	vel_pub:
 5571 0000 00000000 		.space	16
 5571      00000000 
 5571      00000000 
 5571      00000000 
 5572              		.global	balcfg_pub
 5573              		.section	.bss.balcfg_pub,"aw",%nobits
 5574              		.align	2
 5575              		.type	balcfg_pub, %object
 5576              		.size	balcfg_pub, 16
 5577              	balcfg_pub:
 5578 0000 00000000 		.space	16
 5578      00000000 
 5578      00000000 
 5578      00000000 
 5579              		.global	velcfg_pub
 5580              		.section	.bss.velcfg_pub,"aw",%nobits
 5581              		.align	2
 5582              		.type	velcfg_pub, %object
 5583              		.size	velcfg_pub, 16
 5584              	velcfg_pub:
 5585 0000 00000000 		.space	16
 5585      00000000 
 5585      00000000 
 5585      00000000 
 5586              		.section	.text._Z10cmd_vel_cbRKN13geometry_msgs5TwistE,"ax",%progbits
 5587              		.align	2
 5588              		.p2align 4,,15
 5589              		.global	_Z10cmd_vel_cbRKN13geometry_msgs5TwistE
 5590              		.thumb
 5591              		.thumb_func
 5592              		.type	_Z10cmd_vel_cbRKN13geometry_msgs5TwistE, %function
 5593              	_Z10cmd_vel_cbRKN13geometry_msgs5TwistE:
 5594              	.LFB770:
 5595              		.loc 25 172 0
 5596              		.cfi_startproc
 5597              		@ args = 0, pretend = 0, frame = 16
 5598              		@ frame_needed = 0, uses_anonymous_args = 0
 5599 0000 00B5     		push	{lr}
 5600              		.cfi_def_cfa_offset 4
 5601              		.cfi_offset 14, -4
 5602 0002 85B0     		sub	sp, sp, #20
 5603              		.cfi_def_cfa_offset 24
 5604 0004 0190     		str	r0, [sp, #4]
ARM GAS  /tmp/ccg61o9J.s 			page 102


 5605              	.LBB110:
 5606              		.loc 25 175 0
 5607 0006 03AB     		add	r3, sp, #12
 5608 0008 0E48     		ldr	r0, .L257
 5609 000a 1946     		mov	r1, r3
 5610 000c FFF7FEFF 		bl	_ZN3r2p9PublisherINS_12Velocity3MsgEE5allocERPS1_
 5611 0010 0346     		mov	r3, r0
 5612 0012 002B     		cmp	r3, #0
 5613 0014 13D0     		beq	.L255
 5614              		.loc 25 176 0
 5615 0016 039B     		ldr	r3, [sp, #12]
 5616 0018 019A     		ldr	r2, [sp, #4]
 5617 001a 9268     		ldr	r2, [r2, #8]	@ float
 5618 001c C3F80220 		str	r2, [r3, #2]	@ unaligned
 5619              		.loc 25 177 0
 5620 0020 039B     		ldr	r3, [sp, #12]
 5621 0022 019A     		ldr	r2, [sp, #4]
 5622 0024 D268     		ldr	r2, [r2, #12]	@ float
 5623 0026 C3F80620 		str	r2, [r3, #6]	@ unaligned
 5624              		.loc 25 178 0
 5625 002a 039B     		ldr	r3, [sp, #12]
 5626 002c 019A     		ldr	r2, [sp, #4]
 5627 002e 126A     		ldr	r2, [r2, #32]	@ float
 5628 0030 C3F80A20 		str	r2, [r3, #10]	@ unaligned
 5629              		.loc 25 179 0
 5630 0034 039B     		ldr	r3, [sp, #12]
 5631 0036 0348     		ldr	r0, .L257
 5632 0038 1946     		mov	r1, r3
 5633 003a FFF7FEFF 		bl	_ZN3r2p9PublisherINS_12Velocity3MsgEE7publishERS1_
 5634              	.L255:
 5635              	.LBE110:
 5636              		.loc 25 181 0
 5637 003e 05B0     		add	sp, sp, #20
 5638              		@ sp needed
 5639 0040 5DF804FB 		ldr	pc, [sp], #4
 5640              	.L258:
 5641              		.align	2
 5642              	.L257:
 5643 0044 00000000 		.word	vel_pub
 5644              		.cfi_endproc
 5645              	.LFE770:
 5646              		.size	_Z10cmd_vel_cbRKN13geometry_msgs5TwistE, .-_Z10cmd_vel_cbRKN13geometry_msgs5TwistE
 5647 0048 AFF30080 		.section	.text._Z9balcfg_cbRKN8r2p_msgs13PidParametersE,"ax",%progbits
 5647      AFF30080 
 5648              		.align	2
 5649              		.p2align 4,,15
 5650              		.global	_Z9balcfg_cbRKN8r2p_msgs13PidParametersE
 5651              		.thumb
 5652              		.thumb_func
 5653              		.type	_Z9balcfg_cbRKN8r2p_msgs13PidParametersE, %function
 5654              	_Z9balcfg_cbRKN8r2p_msgs13PidParametersE:
 5655              	.LFB771:
 5656              		.loc 25 183 0
 5657              		.cfi_startproc
 5658              		@ args = 0, pretend = 0, frame = 16
 5659              		@ frame_needed = 0, uses_anonymous_args = 0
 5660 0000 00B5     		push	{lr}
ARM GAS  /tmp/ccg61o9J.s 			page 103


 5661              		.cfi_def_cfa_offset 4
 5662              		.cfi_offset 14, -4
 5663 0002 85B0     		sub	sp, sp, #20
 5664              		.cfi_def_cfa_offset 24
 5665 0004 0190     		str	r0, [sp, #4]
 5666              	.LBB111:
 5667              		.loc 25 186 0
 5668 0006 03AB     		add	r3, sp, #12
 5669 0008 0E48     		ldr	r0, .L261
 5670 000a 1946     		mov	r1, r3
 5671 000c FFF7FEFF 		bl	_ZN3r2p9PublisherINS_9PIDCfgMsgEE5allocERPS1_
 5672 0010 0346     		mov	r3, r0
 5673 0012 002B     		cmp	r3, #0
 5674 0014 13D0     		beq	.L259
 5675              		.loc 25 187 0
 5676 0016 039B     		ldr	r3, [sp, #12]
 5677 0018 019A     		ldr	r2, [sp, #4]
 5678 001a 5268     		ldr	r2, [r2, #4]	@ float
 5679 001c C3F80220 		str	r2, [r3, #2]	@ unaligned
 5680              		.loc 25 188 0
 5681 0020 039B     		ldr	r3, [sp, #12]
 5682 0022 019A     		ldr	r2, [sp, #4]
 5683 0024 9268     		ldr	r2, [r2, #8]	@ float
 5684 0026 C3F80620 		str	r2, [r3, #6]	@ unaligned
 5685              		.loc 25 189 0
 5686 002a 039B     		ldr	r3, [sp, #12]
 5687 002c 019A     		ldr	r2, [sp, #4]
 5688 002e D268     		ldr	r2, [r2, #12]	@ float
 5689 0030 C3F80A20 		str	r2, [r3, #10]	@ unaligned
 5690              		.loc 25 190 0
 5691 0034 039B     		ldr	r3, [sp, #12]
 5692 0036 0348     		ldr	r0, .L261
 5693 0038 1946     		mov	r1, r3
 5694 003a FFF7FEFF 		bl	_ZN3r2p9PublisherINS_9PIDCfgMsgEE7publishERS1_
 5695              	.L259:
 5696              	.LBE111:
 5697              		.loc 25 192 0
 5698 003e 05B0     		add	sp, sp, #20
 5699              		@ sp needed
 5700 0040 5DF804FB 		ldr	pc, [sp], #4
 5701              	.L262:
 5702              		.align	2
 5703              	.L261:
 5704 0044 00000000 		.word	balcfg_pub
 5705              		.cfi_endproc
 5706              	.LFE771:
 5707              		.size	_Z9balcfg_cbRKN8r2p_msgs13PidParametersE, .-_Z9balcfg_cbRKN8r2p_msgs13PidParametersE
 5708 0048 AFF30080 		.section	.text._Z9velcfg_cbRKN8r2p_msgs13PidParametersE,"ax",%progbits
 5708      AFF30080 
 5709              		.align	2
 5710              		.p2align 4,,15
 5711              		.global	_Z9velcfg_cbRKN8r2p_msgs13PidParametersE
 5712              		.thumb
 5713              		.thumb_func
 5714              		.type	_Z9velcfg_cbRKN8r2p_msgs13PidParametersE, %function
 5715              	_Z9velcfg_cbRKN8r2p_msgs13PidParametersE:
 5716              	.LFB772:
ARM GAS  /tmp/ccg61o9J.s 			page 104


 5717              		.loc 25 194 0
 5718              		.cfi_startproc
 5719              		@ args = 0, pretend = 0, frame = 16
 5720              		@ frame_needed = 0, uses_anonymous_args = 0
 5721 0000 00B5     		push	{lr}
 5722              		.cfi_def_cfa_offset 4
 5723              		.cfi_offset 14, -4
 5724 0002 85B0     		sub	sp, sp, #20
 5725              		.cfi_def_cfa_offset 24
 5726 0004 0190     		str	r0, [sp, #4]
 5727              	.LBB112:
 5728              		.loc 25 197 0
 5729 0006 03AB     		add	r3, sp, #12
 5730 0008 0E48     		ldr	r0, .L265
 5731 000a 1946     		mov	r1, r3
 5732 000c FFF7FEFF 		bl	_ZN3r2p9PublisherINS_9PIDCfgMsgEE5allocERPS1_
 5733 0010 0346     		mov	r3, r0
 5734 0012 002B     		cmp	r3, #0
 5735 0014 13D0     		beq	.L263
 5736              		.loc 25 198 0
 5737 0016 039B     		ldr	r3, [sp, #12]
 5738 0018 019A     		ldr	r2, [sp, #4]
 5739 001a 5268     		ldr	r2, [r2, #4]	@ float
 5740 001c C3F80220 		str	r2, [r3, #2]	@ unaligned
 5741              		.loc 25 199 0
 5742 0020 039B     		ldr	r3, [sp, #12]
 5743 0022 019A     		ldr	r2, [sp, #4]
 5744 0024 9268     		ldr	r2, [r2, #8]	@ float
 5745 0026 C3F80620 		str	r2, [r3, #6]	@ unaligned
 5746              		.loc 25 200 0
 5747 002a 039B     		ldr	r3, [sp, #12]
 5748 002c 019A     		ldr	r2, [sp, #4]
 5749 002e D268     		ldr	r2, [r2, #12]	@ float
 5750 0030 C3F80A20 		str	r2, [r3, #10]	@ unaligned
 5751              		.loc 25 201 0
 5752 0034 039B     		ldr	r3, [sp, #12]
 5753 0036 0348     		ldr	r0, .L265
 5754 0038 1946     		mov	r1, r3
 5755 003a FFF7FEFF 		bl	_ZN3r2p9PublisherINS_9PIDCfgMsgEE7publishERS1_
 5756              	.L263:
 5757              	.LBE112:
 5758              		.loc 25 203 0
 5759 003e 05B0     		add	sp, sp, #20
 5760              		@ sp needed
 5761 0040 5DF804FB 		ldr	pc, [sp], #4
 5762              	.L266:
 5763              		.align	2
 5764              	.L265:
 5765 0044 00000000 		.word	velcfg_pub
 5766              		.cfi_endproc
 5767              	.LFE772:
 5768              		.size	_Z9velcfg_cbRKN8r2p_msgs13PidParametersE, .-_Z9velcfg_cbRKN8r2p_msgs13PidParametersE
 5769 0048 AFF30080 		.section	.rodata
 5769      AFF30080 
 5770 0232 0000     		.align	2
 5771              	.LC24:
 5772 0234 7232705F 		.ascii	"r2p_pub\000"
ARM GAS  /tmp/ccg61o9J.s 			page 105


 5772      70756200 
 5773              		.align	2
 5774              	.LC25:
 5775 023c 636D645F 		.ascii	"cmd_vel\000"
 5775      76656C00 
 5776              		.align	2
 5777              	.LC26:
 5778 0244 62616C63 		.ascii	"balcfg\000"
 5778      666700
 5779 024b 00       		.align	2
 5780              	.LC27:
 5781 024c 76656C63 		.ascii	"velcfg\000"
 5781      666700
 5782 0253 00       		.align	2
 5783              	.LC28:
 5784 0254 636D645F 		.ascii	"cmd_vel_sub\000"
 5784      76656C5F 
 5784      73756200 
 5785              		.align	2
 5786              	.LC29:
 5787 0260 76656C6F 		.ascii	"velocity\000"
 5787      63697479 
 5787      00
 5788              		.section	.text._Z20rosserial_sub_threadPv,"ax",%progbits
 5789              		.align	2
 5790              		.p2align 4,,15
 5791              		.global	_Z20rosserial_sub_threadPv
 5792              		.thumb
 5793              		.thumb_func
 5794              		.type	_Z20rosserial_sub_threadPv, %function
 5795              	_Z20rosserial_sub_threadPv:
 5796              	.LFB773:
 5797              		.loc 25 205 0
 5798              		.cfi_startproc
 5799              		@ args = 0, pretend = 0, frame = 168
 5800              		@ frame_needed = 0, uses_anonymous_args = 0
 5801 0000 00B5     		push	{lr}
 5802              		.cfi_def_cfa_offset 4
 5803              		.cfi_offset 14, -4
 5804 0002 ABB0     		sub	sp, sp, #172
 5805              		.cfi_def_cfa_offset 176
 5806 0004 0190     		str	r0, [sp, #4]
 5807              	.LBB113:
 5808              		.loc 25 206 0
 5809 0006 23AB     		add	r3, sp, #140
 5810 0008 1846     		mov	r0, r3
 5811 000a 2549     		ldr	r1, .L269
 5812 000c 0022     		movs	r2, #0
 5813 000e FFF7FEFF 		bl	_ZN3r2p4NodeC1EPKcb
 5814              		.loc 25 208 0
 5815 0012 15AB     		add	r3, sp, #84
 5816 0014 1846     		mov	r0, r3
 5817 0016 2349     		ldr	r1, .L269+4
 5818 0018 234A     		ldr	r2, .L269+8
 5819 001a 0123     		movs	r3, #1
 5820 001c FFF7FEFF 		bl	_ZN3ros10SubscriberIN13geometry_msgs5TwistEEC1EPKcPFvRKS2_Ei
 5821              		.loc 25 209 0
ARM GAS  /tmp/ccg61o9J.s 			page 106


 5822 0020 03AB     		add	r3, sp, #12
 5823 0022 1846     		mov	r0, r3
 5824 0024 2149     		ldr	r1, .L269+12
 5825 0026 224A     		ldr	r2, .L269+16
 5826 0028 0123     		movs	r3, #1
 5827 002a FFF7FEFF 		bl	_ZN3ros10SubscriberIN8r2p_msgs13PidParametersEEC1EPKcPFvRKS2_Ei
 5828              		.loc 25 210 0
 5829 002e 0CAB     		add	r3, sp, #48
 5830 0030 1846     		mov	r0, r3
 5831 0032 2049     		ldr	r1, .L269+20
 5832 0034 204A     		ldr	r2, .L269+24
 5833 0036 0123     		movs	r3, #1
 5834 0038 FFF7FEFF 		bl	_ZN3ros10SubscriberIN8r2p_msgs13PidParametersEEC1EPKcPFvRKS2_Ei
 5835              		.loc 25 212 0
 5836 003c 1F4B     		ldr	r3, .L269+28
 5837 003e 9B69     		ldr	r3, [r3, #24]
 5838 0040 1F4A     		ldr	r2, .L269+32
 5839 0042 9A61     		str	r2, [r3, #24]
 5840              		.loc 25 214 0
 5841 0044 23AB     		add	r3, sp, #140
 5842 0046 1846     		mov	r0, r3
 5843 0048 1E49     		ldr	r1, .L269+36
 5844 004a 184A     		ldr	r2, .L269+12
 5845 004c 1E4B     		ldr	r3, .L269+40
 5846 004e FFF7FEFF 		bl	_ZN3r2p4Node9advertiseINS_9PIDCfgMsgEEEbRNS_9PublisherIT_EEPKcRKNS_4TimeE
 5847              		.loc 25 215 0
 5848 0052 23AB     		add	r3, sp, #140
 5849 0054 1846     		mov	r0, r3
 5850 0056 1D49     		ldr	r1, .L269+44
 5851 0058 164A     		ldr	r2, .L269+20
 5852 005a 1B4B     		ldr	r3, .L269+40
 5853 005c FFF7FEFF 		bl	_ZN3r2p4Node9advertiseINS_9PIDCfgMsgEEEbRNS_9PublisherIT_EEPKcRKNS_4TimeE
 5854              		.loc 25 216 0
 5855 0060 23AB     		add	r3, sp, #140
 5856 0062 1846     		mov	r0, r3
 5857 0064 1A49     		ldr	r1, .L269+48
 5858 0066 1B4A     		ldr	r2, .L269+52
 5859 0068 174B     		ldr	r3, .L269+40
 5860 006a FFF7FEFF 		bl	_ZN3r2p4Node9advertiseINS_12Velocity3MsgEEEbRNS_9PublisherIT_EEPKcRKNS_4TimeE
 5861              		.loc 25 218 0
 5862 006e 1A48     		ldr	r0, .L269+56
 5863 0070 FFF7FEFF 		bl	_ZN3ros11NodeHandle_I11R2PHardwareLi25ELi25ELi512ELi512EE8initNodeEv
 5864              		.loc 25 219 0
 5865 0074 15AB     		add	r3, sp, #84
 5866 0076 1848     		ldr	r0, .L269+56
 5867 0078 1946     		mov	r1, r3
 5868 007a FFF7FEFF 		bl	_ZN3ros11NodeHandle_I11R2PHardwareLi25ELi25ELi512ELi512EE9subscribeIN13geometry_msgs5TwistEEEbR
 5869              		.loc 25 220 0
 5870 007e 03AB     		add	r3, sp, #12
 5871 0080 1548     		ldr	r0, .L269+56
 5872 0082 1946     		mov	r1, r3
 5873 0084 FFF7FEFF 		bl	_ZN3ros11NodeHandle_I11R2PHardwareLi25ELi25ELi512ELi512EE9subscribeIN8r2p_msgs13PidParametersEE
 5874              		.loc 25 221 0
 5875 0088 0CAB     		add	r3, sp, #48
 5876 008a 1348     		ldr	r0, .L269+56
 5877 008c 1946     		mov	r1, r3
 5878 008e FFF7FEFF 		bl	_ZN3ros11NodeHandle_I11R2PHardwareLi25ELi25ELi512ELi512EE9subscribeIN8r2p_msgs13PidParametersEE
ARM GAS  /tmp/ccg61o9J.s 			page 107


 5879              	.L268:
 5880              		.loc 25 224 0 discriminator 1
 5881 0092 1148     		ldr	r0, .L269+56
 5882 0094 FFF7FEFF 		bl	_ZN3ros11NodeHandle_I11R2PHardwareLi25ELi25ELi512ELi512EE8spinOnceEv
 5883              		.loc 25 225 0 discriminator 1
 5884 0098 0520     		movs	r0, #5
 5885 009a FFF7FEFF 		bl	chThdSleep
 5886 009e F8E7     		b	.L268
 5887              	.L270:
 5888              		.align	2
 5889              	.L269:
 5890 00a0 34020000 		.word	.LC24
 5891 00a4 3C020000 		.word	.LC25
 5892 00a8 00000000 		.word	_Z10cmd_vel_cbRKN13geometry_msgs5TwistE
 5893 00ac 44020000 		.word	.LC26
 5894 00b0 00000000 		.word	_Z9balcfg_cbRKN8r2p_msgs13PidParametersE
 5895 00b4 4C020000 		.word	.LC27
 5896 00b8 00000000 		.word	_Z9velcfg_cbRKN8r2p_msgs13PidParametersE
 5897 00bc 00000000 		.word	rlist
 5898 00c0 54020000 		.word	.LC28
 5899 00c4 00000000 		.word	balcfg_pub
 5900 00c8 00000000 		.word	_ZN3r2p4Time8INFINITEE
 5901 00cc 00000000 		.word	velcfg_pub
 5902 00d0 00000000 		.word	vel_pub
 5903 00d4 60020000 		.word	.LC29
 5904 00d8 00000000 		.word	nh
 5905              	.LBE113:
 5906              		.cfi_endproc
 5907              	.LFE773:
 5908              		.size	_Z20rosserial_sub_threadPv, .-_Z20rosserial_sub_threadPv
 5909 00dc AFF30080 		.section	.text._ZN3r2p4TimeC2IlEET_,"axG",%progbits,_ZN3r2p4TimeC5IlEET_,comdat
 5910              		.align	2
 5911              		.p2align 4,,15
 5912              		.weak	_ZN3r2p4TimeC2IlEET_
 5913              		.thumb
