ARM GAS  /tmp/ccEA7YA6.s 			page 1


   1              		.syntax unified
   2              		.cpu cortex-m4
   3              		.eabi_attribute 27, 3
   4              		.eabi_attribute 28, 1
   5              		.fpu fpv4-sp-d16
   6              		.eabi_attribute 20, 1
   7              		.eabi_attribute 21, 1
   8              		.eabi_attribute 23, 3
   9              		.eabi_attribute 24, 1
  10              		.eabi_attribute 25, 1
  11              		.eabi_attribute 26, 1
  12              		.eabi_attribute 30, 6
  13              		.eabi_attribute 34, 1
  14              		.eabi_attribute 18, 4
  15              		.thumb
  16              		.file	"rtcan_lld_can.c"
  17              		.text
  18              	.Ltext0:
  19              		.cfi_sections	.debug_frame
  20              		.global	RTCAND1
  21              		.section	.bss.RTCAND1,"aw",%nobits
  22              		.align	2
  23              		.type	RTCAND1, %object
  24              		.size	RTCAND1, 96
  25              	RTCAND1:
  26 0000 00000000 		.space	96
  26      00000000 
  26      00000000 
  26      00000000 
  26      00000000 
  27              		.section	.text.rtcan_lld_can_tx_handler,"ax",%progbits
  28              		.align	2
  29              		.p2align 4,,15
  30              		.thumb
  31              		.thumb_func
  32              		.type	rtcan_lld_can_tx_handler, %function
  33              	rtcan_lld_can_tx_handler:
  34              	.LFB118:
  35              		.file 1 "/home/dave/r2p-sdk/core/RTCAN/platforms/STM32/rtcan_lld_can.c"
  36              		.loc 1 40 0
  37              		.cfi_startproc
  38              		@ args = 0, pretend = 0, frame = 16
  39              		@ frame_needed = 0, uses_anonymous_args = 0
  40 0000 00B5     		push	{lr}
  41              		.cfi_def_cfa_offset 4
  42              		.cfi_offset 14, -4
  43 0002 85B0     		sub	sp, sp, #20
  44              		.cfi_def_cfa_offset 24
  45 0004 0190     		str	r0, [sp, #4]
  46              		.loc 1 41 0
  47 0006 019B     		ldr	r3, [sp, #4]
  48 0008 DB6D     		ldr	r3, [r3, #92]
  49 000a 0393     		str	r3, [sp, #12]
  50              		.loc 1 44 0
  51 000c 039B     		ldr	r3, [sp, #12]
  52 000e 9B68     		ldr	r3, [r3, #8]
  53 0010 0293     		str	r3, [sp, #8]
ARM GAS  /tmp/ccEA7YA6.s 			page 2


  54              		.loc 1 47 0
  55 0012 039B     		ldr	r3, [sp, #12]
  56 0014 2A4A     		ldr	r2, .L11
  57 0016 9A60     		str	r2, [r3, #8]
  58              		.loc 1 49 0
  59 0018 029B     		ldr	r3, [sp, #8]
  60 001a 03F00203 		and	r3, r3, #2
  61 001e 002B     		cmp	r3, #0
  62 0020 03D0     		beq	.L2
  63              		.loc 1 50 0
  64 0022 0198     		ldr	r0, [sp, #4]
  65 0024 0021     		movs	r1, #0
  66 0026 FFF7FEFF 		bl	rtcan_txok_isr_code
  67              	.L2:
  68              		.loc 1 53 0
  69 002a 029B     		ldr	r3, [sp, #8]
  70 002c 03F40073 		and	r3, r3, #512
  71 0030 002B     		cmp	r3, #0
  72 0032 03D0     		beq	.L3
  73              		.loc 1 54 0
  74 0034 0198     		ldr	r0, [sp, #4]
  75 0036 0121     		movs	r1, #1
  76 0038 FFF7FEFF 		bl	rtcan_txok_isr_code
  77              	.L3:
  78              		.loc 1 57 0
  79 003c 029B     		ldr	r3, [sp, #8]
  80 003e 03F40033 		and	r3, r3, #131072
  81 0042 002B     		cmp	r3, #0
  82 0044 03D0     		beq	.L4
  83              		.loc 1 58 0
  84 0046 0198     		ldr	r0, [sp, #4]
  85 0048 0221     		movs	r1, #2
  86 004a FFF7FEFF 		bl	rtcan_txok_isr_code
  87              	.L4:
  88              		.loc 1 61 0
  89 004e 029B     		ldr	r3, [sp, #8]
  90 0050 03F00403 		and	r3, r3, #4
  91 0054 002B     		cmp	r3, #0
  92 0056 03D0     		beq	.L5
  93              		.loc 1 62 0
  94 0058 0198     		ldr	r0, [sp, #4]
  95 005a 0021     		movs	r1, #0
  96 005c FFF7FEFF 		bl	rtcan_alst_isr_code
  97              	.L5:
  98              		.loc 1 65 0
  99 0060 029B     		ldr	r3, [sp, #8]
 100 0062 03F48063 		and	r3, r3, #1024
 101 0066 002B     		cmp	r3, #0
 102 0068 03D0     		beq	.L6
 103              		.loc 1 66 0
 104 006a 0198     		ldr	r0, [sp, #4]
 105 006c 0121     		movs	r1, #1
 106 006e FFF7FEFF 		bl	rtcan_alst_isr_code
 107              	.L6:
 108              		.loc 1 69 0
 109 0072 029B     		ldr	r3, [sp, #8]
 110 0074 03F48023 		and	r3, r3, #262144
ARM GAS  /tmp/ccEA7YA6.s 			page 3


 111 0078 002B     		cmp	r3, #0
 112 007a 03D0     		beq	.L7
 113              		.loc 1 70 0
 114 007c 0198     		ldr	r0, [sp, #4]
 115 007e 0221     		movs	r1, #2
 116 0080 FFF7FEFF 		bl	rtcan_alst_isr_code
 117              	.L7:
 118              		.loc 1 73 0
 119 0084 029B     		ldr	r3, [sp, #8]
 120 0086 03F00803 		and	r3, r3, #8
 121 008a 002B     		cmp	r3, #0
 122 008c 03D0     		beq	.L8
 123              		.loc 1 74 0
 124 008e 0198     		ldr	r0, [sp, #4]
 125 0090 0021     		movs	r1, #0
 126 0092 FFF7FEFF 		bl	rtcan_terr_isr_code
 127              	.L8:
 128              		.loc 1 77 0
 129 0096 029B     		ldr	r3, [sp, #8]
 130 0098 03F40063 		and	r3, r3, #2048
 131 009c 002B     		cmp	r3, #0
 132 009e 03D0     		beq	.L9
 133              		.loc 1 78 0
 134 00a0 0198     		ldr	r0, [sp, #4]
 135 00a2 0121     		movs	r1, #1
 136 00a4 FFF7FEFF 		bl	rtcan_terr_isr_code
 137              	.L9:
 138              		.loc 1 81 0
 139 00a8 029B     		ldr	r3, [sp, #8]
 140 00aa 03F40023 		and	r3, r3, #524288
 141 00ae 002B     		cmp	r3, #0
 142 00b0 03D0     		beq	.L1
 143              		.loc 1 82 0
 144 00b2 0198     		ldr	r0, [sp, #4]
 145 00b4 0221     		movs	r1, #2
 146 00b6 FFF7FEFF 		bl	rtcan_terr_isr_code
 147              	.L1:
 148              		.loc 1 84 0
 149 00ba 05B0     		add	sp, sp, #20
 150              		@ sp needed
 151 00bc 5DF804FB 		ldr	pc, [sp], #4
 152              	.L12:
 153              		.align	2
 154              	.L11:
 155 00c0 01010100 		.word	65793
 156              		.cfi_endproc
 157              	.LFE118:
 158              		.size	rtcan_lld_can_tx_handler, .-rtcan_lld_can_tx_handler
 159 00c4 AFF30080 		.section	.text.rtcan_lld_can_rx0_handler,"ax",%progbits
 159      AFF30080 
 159      AFF30080 
 160              		.align	2
 161              		.p2align 4,,15
 162              		.thumb
 163              		.thumb_func
 164              		.type	rtcan_lld_can_rx0_handler, %function
 165              	rtcan_lld_can_rx0_handler:
ARM GAS  /tmp/ccEA7YA6.s 			page 4


 166              	.LFB119:
 167              		.loc 1 93 0
 168              		.cfi_startproc
 169              		@ args = 0, pretend = 0, frame = 16
 170              		@ frame_needed = 0, uses_anonymous_args = 0
 171 0000 00B5     		push	{lr}
 172              		.cfi_def_cfa_offset 4
 173              		.cfi_offset 14, -4
 174 0002 85B0     		sub	sp, sp, #20
 175              		.cfi_def_cfa_offset 24
 176 0004 0190     		str	r0, [sp, #4]
 177              		.loc 1 96 0
 178 0006 019B     		ldr	r3, [sp, #4]
 179 0008 DB6D     		ldr	r3, [r3, #92]
 180 000a DB68     		ldr	r3, [r3, #12]
 181 000c 0393     		str	r3, [sp, #12]
 182              		.loc 1 97 0
 183 000e 039B     		ldr	r3, [sp, #12]
 184 0010 03F00303 		and	r3, r3, #3
 185 0014 002B     		cmp	r3, #0
 186 0016 0AD0     		beq	.L14
 187              		.loc 1 99 0
 188 0018 019B     		ldr	r3, [sp, #4]
 189 001a DB6D     		ldr	r3, [r3, #92]
 190 001c 019A     		ldr	r2, [sp, #4]
 191 001e D26D     		ldr	r2, [r2, #92]
 192 0020 5269     		ldr	r2, [r2, #20]
 193 0022 22F00202 		bic	r2, r2, #2
 194 0026 5A61     		str	r2, [r3, #20]
 195              		.loc 1 102 0
 196 0028 0198     		ldr	r0, [sp, #4]
 197 002a FFF7FEFF 		bl	rtcan_rx_isr_code
 198              	.L14:
 199              		.loc 1 104 0
 200 002e 039B     		ldr	r3, [sp, #12]
 201 0030 03F01003 		and	r3, r3, #16
 202 0034 002B     		cmp	r3, #0
 203 0036 03D0     		beq	.L13
 204              		.loc 1 106 0
 205 0038 019B     		ldr	r3, [sp, #4]
 206 003a DB6D     		ldr	r3, [r3, #92]
 207 003c 1022     		movs	r2, #16
 208 003e DA60     		str	r2, [r3, #12]
 209              	.L13:
 210              		.loc 1 110 0
 211 0040 05B0     		add	sp, sp, #20
 212              		@ sp needed
 213 0042 5DF804FB 		ldr	pc, [sp], #4
 214              		.cfi_endproc
 215              	.LFE119:
 216              		.size	rtcan_lld_can_rx0_handler, .-rtcan_lld_can_rx0_handler
 217 0046 00BFAFF3 		.section	.text.rtcan_lld_can_rx1_handler,"ax",%progbits
 217      0080AFF3 
 217      0080
 218              		.align	2
 219              		.p2align 4,,15
 220              		.thumb
ARM GAS  /tmp/ccEA7YA6.s 			page 5


 221              		.thumb_func
 222              		.type	rtcan_lld_can_rx1_handler, %function
 223              	rtcan_lld_can_rx1_handler:
 224              	.LFB120:
 225              		.loc 1 119 0
 226              		.cfi_startproc
 227              		@ args = 0, pretend = 0, frame = 16
 228              		@ frame_needed = 0, uses_anonymous_args = 0
 229              		@ link register save eliminated.
 230 0000 84B0     		sub	sp, sp, #16
 231              		.cfi_def_cfa_offset 16
 232 0002 0190     		str	r0, [sp, #4]
 233              		.loc 1 122 0
 234 0004 019B     		ldr	r3, [sp, #4]
 235 0006 DB6D     		ldr	r3, [r3, #92]
 236 0008 1B69     		ldr	r3, [r3, #16]
 237 000a 0393     		str	r3, [sp, #12]
 238              		.loc 1 123 0
 239 000c 039B     		ldr	r3, [sp, #12]
 240 000e 03F00303 		and	r3, r3, #3
 241 0012 002B     		cmp	r3, #0
 242 0014 07D0     		beq	.L17
 243              		.loc 1 125 0
 244 0016 019B     		ldr	r3, [sp, #4]
 245 0018 DB6D     		ldr	r3, [r3, #92]
 246 001a 019A     		ldr	r2, [sp, #4]
 247 001c D26D     		ldr	r2, [r2, #92]
 248 001e 5269     		ldr	r2, [r2, #20]
 249 0020 22F01002 		bic	r2, r2, #16
 250 0024 5A61     		str	r2, [r3, #20]
 251              	.L17:
 252              		.loc 1 129 0
 253 0026 039B     		ldr	r3, [sp, #12]
 254 0028 03F01003 		and	r3, r3, #16
 255 002c 002B     		cmp	r3, #0
 256 002e 03D0     		beq	.L16
 257              		.loc 1 131 0
 258 0030 019B     		ldr	r3, [sp, #4]
 259 0032 DB6D     		ldr	r3, [r3, #92]
 260 0034 1022     		movs	r2, #16
 261 0036 1A61     		str	r2, [r3, #16]
 262              	.L16:
 263              		.loc 1 135 0
 264 0038 04B0     		add	sp, sp, #16
 265              		@ sp needed
 266 003a 7047     		bx	lr
 267              		.cfi_endproc
 268              	.LFE120:
 269              		.size	rtcan_lld_can_rx1_handler, .-rtcan_lld_can_rx1_handler
 270 003c AFF30080 		.section	.text.rtcan_lld_can_sce_handler,"ax",%progbits
 271              		.align	2
 272              		.p2align 4,,15
 273              		.thumb
 274              		.thumb_func
 275              		.type	rtcan_lld_can_sce_handler, %function
 276              	rtcan_lld_can_sce_handler:
 277              	.LFB121:
ARM GAS  /tmp/ccEA7YA6.s 			page 6


 278              		.loc 1 144 0
 279              		.cfi_startproc
 280              		@ args = 0, pretend = 0, frame = 24
 281              		@ frame_needed = 0, uses_anonymous_args = 0
 282              		@ link register save eliminated.
 283 0000 86B0     		sub	sp, sp, #24
 284              		.cfi_def_cfa_offset 24
 285 0002 0190     		str	r0, [sp, #4]
 286              		.loc 1 147 0
 287 0004 019B     		ldr	r3, [sp, #4]
 288 0006 DB6D     		ldr	r3, [r3, #92]
 289 0008 5B68     		ldr	r3, [r3, #4]
 290 000a 0593     		str	r3, [sp, #20]
 291              		.loc 1 148 0
 292 000c 019B     		ldr	r3, [sp, #4]
 293 000e DB6D     		ldr	r3, [r3, #92]
 294 0010 1C22     		movs	r2, #28
 295 0012 5A60     		str	r2, [r3, #4]
 296              		.loc 1 151 0
 297 0014 059B     		ldr	r3, [sp, #20]
 298 0016 03F00403 		and	r3, r3, #4
 299 001a 002B     		cmp	r3, #0
 300 001c 18D0     		beq	.L19
 301              	.LBB2:
 302              		.loc 1 153 0
 303 001e 019B     		ldr	r3, [sp, #4]
 304 0020 DB6D     		ldr	r3, [r3, #92]
 305 0022 9B69     		ldr	r3, [r3, #24]
 306 0024 0493     		str	r3, [sp, #16]
 307              		.loc 1 155 0
 308 0026 019B     		ldr	r3, [sp, #4]
 309 0028 DB6D     		ldr	r3, [r3, #92]
 310 002a 019A     		ldr	r2, [sp, #4]
 311 002c D26D     		ldr	r2, [r2, #92]
 312 002e 9269     		ldr	r2, [r2, #24]
 313 0030 22F07002 		bic	r2, r2, #112
 314 0034 9A61     		str	r2, [r3, #24]
 315              		.loc 1 156 0
 316 0036 049B     		ldr	r3, [sp, #16]
 317 0038 03F00703 		and	r3, r3, #7
 318 003c 0393     		str	r3, [sp, #12]
 319              		.loc 1 157 0
 320 003e 049B     		ldr	r3, [sp, #16]
 321 0040 03F07003 		and	r3, r3, #112
 322 0044 002B     		cmp	r3, #0
 323 0046 03D0     		beq	.L19
 324              		.loc 1 158 0
 325 0048 039B     		ldr	r3, [sp, #12]
 326 004a 43F00803 		orr	r3, r3, #8
 327 004e 0393     		str	r3, [sp, #12]
 328              	.L19:
 329              	.LBE2:
 330              		.loc 1 162 0
 331 0050 06B0     		add	sp, sp, #24
 332              		@ sp needed
 333 0052 7047     		bx	lr
 334              		.cfi_endproc
ARM GAS  /tmp/ccEA7YA6.s 			page 7


 335              	.LFE121:
 336              		.size	rtcan_lld_can_sce_handler, .-rtcan_lld_can_sce_handler
 337 0054 AFF30080 		.section	.text.Vector8C,"ax",%progbits
 337      AFF30080 
 337      AFF30080 
 338              		.align	2
 339              		.p2align 4,,15
 340              		.global	Vector8C
 341              		.thumb
 342              		.thumb_func
 343              		.type	Vector8C, %function
 344              	Vector8C:
 345              	.LFB122:
 346              		.loc 1 174 0
 347              		.cfi_startproc
 348              		@ args = 0, pretend = 0, frame = 0
 349              		@ frame_needed = 0, uses_anonymous_args = 0
 350 0000 08B5     		push	{r3, lr}
 351              		.cfi_def_cfa_offset 8
 352              		.cfi_offset 3, -8
 353              		.cfi_offset 14, -4
 354              		.loc 1 176 0
 355 0002 FFF7FEFF 		bl	dbg_check_enter_isr
 356              		.loc 1 178 0
 357 0006 0448     		ldr	r0, .L22
 358 0008 FFF7FEFF 		bl	rtcan_lld_can_tx_handler
 359              		.loc 1 180 0
 360 000c FFF7FEFF 		bl	dbg_check_leave_isr
 361 0010 FFF7FEFF 		bl	_port_irq_epilogue
 362              		.loc 1 181 0
 363 0014 08BD     		pop	{r3, pc}
 364              	.L23:
 365 0016 00BF     		.align	2
 366              	.L22:
 367 0018 00000000 		.word	RTCAND1
 368              		.cfi_endproc
 369              	.LFE122:
 370              		.size	Vector8C, .-Vector8C
 371 001c AFF30080 		.section	.text.Vector90,"ax",%progbits
 372              		.align	2
 373              		.p2align 4,,15
 374              		.global	Vector90
 375              		.thumb
 376              		.thumb_func
 377              		.type	Vector90, %function
 378              	Vector90:
 379              	.LFB123:
 380              		.loc 1 188 0
 381              		.cfi_startproc
 382              		@ args = 0, pretend = 0, frame = 0
 383              		@ frame_needed = 0, uses_anonymous_args = 0
 384 0000 08B5     		push	{r3, lr}
 385              		.cfi_def_cfa_offset 8
 386              		.cfi_offset 3, -8
 387              		.cfi_offset 14, -4
 388              		.loc 1 190 0
 389 0002 FFF7FEFF 		bl	dbg_check_enter_isr
ARM GAS  /tmp/ccEA7YA6.s 			page 8


 390              		.loc 1 192 0
 391 0006 0448     		ldr	r0, .L25
 392 0008 FFF7FEFF 		bl	rtcan_lld_can_rx0_handler
 393              		.loc 1 194 0
 394 000c FFF7FEFF 		bl	dbg_check_leave_isr
 395 0010 FFF7FEFF 		bl	_port_irq_epilogue
 396              		.loc 1 195 0
 397 0014 08BD     		pop	{r3, pc}
 398              	.L26:
 399 0016 00BF     		.align	2
 400              	.L25:
 401 0018 00000000 		.word	RTCAND1
 402              		.cfi_endproc
 403              	.LFE123:
 404              		.size	Vector90, .-Vector90
 405 001c AFF30080 		.section	.text.Vector94,"ax",%progbits
 406              		.align	2
 407              		.p2align 4,,15
 408              		.global	Vector94
 409              		.thumb
 410              		.thumb_func
 411              		.type	Vector94, %function
 412              	Vector94:
 413              	.LFB124:
 414              		.loc 1 202 0
 415              		.cfi_startproc
 416              		@ args = 0, pretend = 0, frame = 0
 417              		@ frame_needed = 0, uses_anonymous_args = 0
 418 0000 08B5     		push	{r3, lr}
 419              		.cfi_def_cfa_offset 8
 420              		.cfi_offset 3, -8
 421              		.cfi_offset 14, -4
 422              		.loc 1 204 0
 423 0002 FFF7FEFF 		bl	dbg_check_enter_isr
 424              		.loc 1 206 0
 425 0006 0448     		ldr	r0, .L28
 426 0008 FFF7FEFF 		bl	rtcan_lld_can_rx1_handler
 427              		.loc 1 208 0
 428 000c FFF7FEFF 		bl	dbg_check_leave_isr
 429 0010 FFF7FEFF 		bl	_port_irq_epilogue
 430              		.loc 1 209 0
 431 0014 08BD     		pop	{r3, pc}
 432              	.L29:
 433 0016 00BF     		.align	2
 434              	.L28:
 435 0018 00000000 		.word	RTCAND1
 436              		.cfi_endproc
 437              	.LFE124:
 438              		.size	Vector94, .-Vector94
 439 001c AFF30080 		.section	.text.Vector98,"ax",%progbits
 440              		.align	2
 441              		.p2align 4,,15
 442              		.global	Vector98
 443              		.thumb
 444              		.thumb_func
 445              		.type	Vector98, %function
 446              	Vector98:
ARM GAS  /tmp/ccEA7YA6.s 			page 9


 447              	.LFB125:
 448              		.loc 1 216 0
 449              		.cfi_startproc
 450              		@ args = 0, pretend = 0, frame = 0
 451              		@ frame_needed = 0, uses_anonymous_args = 0
 452 0000 08B5     		push	{r3, lr}
 453              		.cfi_def_cfa_offset 8
 454              		.cfi_offset 3, -8
 455              		.cfi_offset 14, -4
 456              		.loc 1 218 0
 457 0002 FFF7FEFF 		bl	dbg_check_enter_isr
 458              		.loc 1 220 0
 459 0006 0448     		ldr	r0, .L31
 460 0008 FFF7FEFF 		bl	rtcan_lld_can_sce_handler
 461              		.loc 1 222 0
 462 000c FFF7FEFF 		bl	dbg_check_leave_isr
 463 0010 FFF7FEFF 		bl	_port_irq_epilogue
 464              		.loc 1 223 0
 465 0014 08BD     		pop	{r3, pc}
 466              	.L32:
 467 0016 00BF     		.align	2
 468              	.L31:
 469 0018 00000000 		.word	RTCAND1
 470              		.cfi_endproc
 471              	.LFE125:
 472              		.size	Vector98, .-Vector98
 473 001c AFF30080 		.section	.text.rtcan_lld_can_init,"ax",%progbits
 474              		.align	2
 475              		.p2align 4,,15
 476              		.global	rtcan_lld_can_init
 477              		.thumb
 478              		.thumb_func
 479              		.type	rtcan_lld_can_init, %function
 480              	rtcan_lld_can_init:
 481              	.LFB126:
 482              		.loc 1 293 0
 483              		.cfi_startproc
 484              		@ args = 0, pretend = 0, frame = 0
 485              		@ frame_needed = 0, uses_anonymous_args = 0
 486 0000 08B5     		push	{r3, lr}
 487              		.cfi_def_cfa_offset 8
 488              		.cfi_offset 3, -8
 489              		.cfi_offset 14, -4
 490              		.loc 1 296 0
 491 0002 034B     		ldr	r3, .L34
 492 0004 034A     		ldr	r2, .L34+4
 493 0006 DA65     		str	r2, [r3, #92]
 494              		.loc 1 297 0
 495 0008 0148     		ldr	r0, .L34
 496 000a FFF7FEFF 		bl	rtcanReset
 497              		.loc 1 304 0
 498 000e 08BD     		pop	{r3, pc}
 499              	.L35:
 500              		.align	2
 501              	.L34:
 502 0010 00000000 		.word	RTCAND1
 503 0014 00640040 		.word	1073767424
ARM GAS  /tmp/ccEA7YA6.s 			page 10


 504              		.cfi_endproc
 505              	.LFE126:
 506              		.size	rtcan_lld_can_init, .-rtcan_lld_can_init
 507 0018 AFF30080 		.section	.text.rtcan_lld_can_start,"ax",%progbits
 507      AFF30080 
 508              		.align	2
 509              		.p2align 4,,15
 510              		.global	rtcan_lld_can_start
 511              		.thumb
 512              		.thumb_func
 513              		.type	rtcan_lld_can_start, %function
 514              	rtcan_lld_can_start:
 515              	.LFB127:
 516              		.loc 1 313 0
 517              		.cfi_startproc
 518              		@ args = 0, pretend = 0, frame = 8
 519              		@ frame_needed = 0, uses_anonymous_args = 0
 520 0000 00B5     		push	{lr}
 521              		.cfi_def_cfa_offset 4
 522              		.cfi_offset 14, -4
 523 0002 83B0     		sub	sp, sp, #12
 524              		.cfi_def_cfa_offset 16
 525 0004 0190     		str	r0, [sp, #4]
 526              		.loc 1 316 0
 527 0006 1320     		movs	r0, #19
 528 0008 B021     		movs	r1, #176
 529 000a FFF7FEFF 		bl	nvicEnableVector
 530              		.loc 1 318 0
 531 000e 1420     		movs	r0, #20
 532 0010 B021     		movs	r1, #176
 533 0012 FFF7FEFF 		bl	nvicEnableVector
 534              		.loc 1 320 0
 535 0016 1520     		movs	r0, #21
 536 0018 B021     		movs	r1, #176
 537 001a FFF7FEFF 		bl	nvicEnableVector
 538              		.loc 1 322 0
 539 001e 1620     		movs	r0, #22
 540 0020 B021     		movs	r1, #176
 541 0022 FFF7FEFF 		bl	nvicEnableVector
 542              		.loc 1 325 0
 543 0026 124B     		ldr	r3, .L38
 544 0028 114A     		ldr	r2, .L38
 545 002a D269     		ldr	r2, [r2, #28]
 546 002c 42F00072 		orr	r2, r2, #33554432
 547 0030 DA61     		str	r2, [r3, #28]
 548              		.loc 1 328 0
 549 0032 019B     		ldr	r3, [sp, #4]
 550 0034 0222     		movs	r2, #2
 551 0036 1A70     		strb	r2, [r3]
 552              		.loc 1 329 0
 553 0038 019B     		ldr	r3, [sp, #4]
 554 003a DB6D     		ldr	r3, [r3, #92]
 555 003c 0122     		movs	r2, #1
 556 003e 1A60     		str	r2, [r3]
 557              		.loc 1 330 0
 558 0040 00BF     		nop
 559              	.L37:
ARM GAS  /tmp/ccEA7YA6.s 			page 11


 560              		.loc 1 330 0 is_stmt 0 discriminator 1
 561 0042 019B     		ldr	r3, [sp, #4]
 562 0044 DB6D     		ldr	r3, [r3, #92]
 563 0046 5B68     		ldr	r3, [r3, #4]
 564 0048 03F00103 		and	r3, r3, #1
 565 004c 002B     		cmp	r3, #0
 566 004e F8D0     		beq	.L37
 567              		.loc 1 340 0 is_stmt 1
 568 0050 019B     		ldr	r3, [sp, #4]
 569 0052 DB6D     		ldr	r3, [r3, #92]
 570 0054 074A     		ldr	r2, .L38+4
 571 0056 DA61     		str	r2, [r3, #28]
 572              		.loc 1 350 0
 573 0058 019B     		ldr	r3, [sp, #4]
 574 005a DB6D     		ldr	r3, [r3, #92]
 575 005c 9022     		movs	r2, #144
 576 005e 1A60     		str	r2, [r3]
 577              		.loc 1 353 0
 578 0060 019B     		ldr	r3, [sp, #4]
 579 0062 DB6D     		ldr	r3, [r3, #92]
 580 0064 044A     		ldr	r2, .L38+8
 581 0066 5A61     		str	r2, [r3, #20]
 582              		.loc 1 356 0
 583 0068 03B0     		add	sp, sp, #12
 584              		@ sp needed
 585 006a 5DF804FB 		ldr	pc, [sp], #4
 586              	.L39:
 587 006e 00BF     		.align	2
 588              	.L38:
 589 0070 00100240 		.word	1073876992
 590 0074 03002400 		.word	2359299
 591 0078 5B8F0100 		.word	102235
 592              		.cfi_endproc
 593              	.LFE127:
 594              		.size	rtcan_lld_can_start, .-rtcan_lld_can_start
 595 007c AFF30080 		.section	.text.rtcan_lld_can_stop,"ax",%progbits
 596              		.align	2
 597              		.p2align 4,,15
 598              		.global	rtcan_lld_can_stop
 599              		.thumb
 600              		.thumb_func
 601              		.type	rtcan_lld_can_stop, %function
 602              	rtcan_lld_can_stop:
 603              	.LFB128:
 604              		.loc 1 365 0
 605              		.cfi_startproc
 606              		@ args = 0, pretend = 0, frame = 8
 607              		@ frame_needed = 0, uses_anonymous_args = 0
 608 0000 00B5     		push	{lr}
 609              		.cfi_def_cfa_offset 4
 610              		.cfi_offset 14, -4
 611 0002 83B0     		sub	sp, sp, #12
 612              		.cfi_def_cfa_offset 16
 613 0004 0190     		str	r0, [sp, #4]
 614              		.loc 1 368 0
 615 0006 019B     		ldr	r3, [sp, #4]
 616 0008 1B78     		ldrb	r3, [r3]	@ zero_extendqisi2
ARM GAS  /tmp/ccEA7YA6.s 			page 12


 617 000a 062B     		cmp	r3, #6
 618 000c 03D0     		beq	.L41
 619              		.loc 1 368 0 is_stmt 0 discriminator 1
 620 000e 019B     		ldr	r3, [sp, #4]
 621 0010 1B78     		ldrb	r3, [r3]	@ zero_extendqisi2
 622 0012 052B     		cmp	r3, #5
 623 0014 1BD1     		bne	.L40
 624              	.L41:
 625              		.loc 1 370 0 is_stmt 1
 626 0016 019A     		ldr	r2, [sp, #4]
 627 0018 0E4B     		ldr	r3, .L43
 628 001a 9A42     		cmp	r2, r3
 629 001c 17D1     		bne	.L40
 630              		.loc 1 377 0
 631 001e 0E4B     		ldr	r3, .L43+4
 632 0020 0E4A     		ldr	r2, .L43+8
 633 0022 1A60     		str	r2, [r3]
 634              		.loc 1 378 0
 635 0024 0C4B     		ldr	r3, .L43+4
 636 0026 0022     		movs	r2, #0
 637 0028 5A61     		str	r2, [r3, #20]
 638              		.loc 1 379 0
 639 002a 1320     		movs	r0, #19
 640 002c FFF7FEFF 		bl	nvicDisableVector
 641              		.loc 1 380 0
 642 0030 1420     		movs	r0, #20
 643 0032 FFF7FEFF 		bl	nvicDisableVector
 644              		.loc 1 381 0
 645 0036 1520     		movs	r0, #21
 646 0038 FFF7FEFF 		bl	nvicDisableVector
 647              		.loc 1 382 0
 648 003c 1620     		movs	r0, #22
 649 003e FFF7FEFF 		bl	nvicDisableVector
 650              		.loc 1 383 0
 651 0042 074B     		ldr	r3, .L43+12
 652 0044 064A     		ldr	r2, .L43+12
 653 0046 D269     		ldr	r2, [r2, #28]
 654 0048 22F00072 		bic	r2, r2, #33554432
 655 004c DA61     		str	r2, [r3, #28]
 656              	.L40:
 657              		.loc 1 398 0
 658 004e 03B0     		add	sp, sp, #12
 659              		@ sp needed
 660 0050 5DF804FB 		ldr	pc, [sp], #4
 661              	.L44:
 662              		.align	2
 663              	.L43:
 664 0054 00000000 		.word	RTCAND1
 665 0058 00640040 		.word	1073767424
 666 005c 02000100 		.word	65538
 667 0060 00100240 		.word	1073876992
 668              		.cfi_endproc
 669              	.LFE128:
 670              		.size	rtcan_lld_can_stop, .-rtcan_lld_can_stop
 671 0064 AFF30080 		.section	.text.rtcan_lld_can_txe,"ax",%progbits
 671      AFF30080 
 671      AFF30080 
ARM GAS  /tmp/ccEA7YA6.s 			page 13


 672              		.align	2
 673              		.p2align 4,,15
 674              		.global	rtcan_lld_can_txe
 675              		.thumb
 676              		.thumb_func
 677              		.type	rtcan_lld_can_txe, %function
 678              	rtcan_lld_can_txe:
 679              	.LFB129:
 680              		.loc 1 411 0
 681              		.cfi_startproc
 682              		@ args = 0, pretend = 0, frame = 8
 683              		@ frame_needed = 0, uses_anonymous_args = 0
 684              		@ link register save eliminated.
 685 0000 82B0     		sub	sp, sp, #8
 686              		.cfi_def_cfa_offset 8
 687 0002 0190     		str	r0, [sp, #4]
 688              		.loc 1 414 0
 689 0004 019B     		ldr	r3, [sp, #4]
 690 0006 DB6D     		ldr	r3, [r3, #92]
 691 0008 9B68     		ldr	r3, [r3, #8]
 692 000a 03F0E053 		and	r3, r3, #469762048
 693 000e B3F1E05F 		cmp	r3, #469762048
 694 0012 14BF     		ite	ne
 695 0014 0023     		movne	r3, #0
 696 0016 0123     		moveq	r3, #1
 697 0018 DBB2     		uxtb	r3, r3
 698              		.loc 1 415 0
 699 001a 1846     		mov	r0, r3
 700 001c 02B0     		add	sp, sp, #8
 701              		@ sp needed
 702 001e 7047     		bx	lr
 703              		.cfi_endproc
 704              	.LFE129:
 705              		.size	rtcan_lld_can_txe, .-rtcan_lld_can_txe
 706              		.section	.text.rtcan_lld_can_transmit,"ax",%progbits
 707              		.align	2
 708              		.p2align 4,,15
 709              		.global	rtcan_lld_can_transmit
 710              		.thumb
 711              		.thumb_func
 712              		.type	rtcan_lld_can_transmit, %function
 713              	rtcan_lld_can_transmit:
 714              	.LFB130:
 715              		.loc 1 425 0
 716              		.cfi_startproc
 717              		@ args = 0, pretend = 0, frame = 16
 718              		@ frame_needed = 0, uses_anonymous_args = 0
 719              		@ link register save eliminated.
 720 0000 84B0     		sub	sp, sp, #16
 721              		.cfi_def_cfa_offset 16
 722 0002 0190     		str	r0, [sp, #4]
 723 0004 0091     		str	r1, [sp]
 724              		.loc 1 426 0
 725 0006 019B     		ldr	r3, [sp, #4]
 726 0008 DB6D     		ldr	r3, [r3, #92]
 727 000a 0393     		str	r3, [sp, #12]
 728              		.loc 1 430 0
ARM GAS  /tmp/ccEA7YA6.s 			page 14


 729 000c 009B     		ldr	r3, [sp]
 730 000e 0022     		movs	r2, #0
 731 0010 5A71     		strb	r2, [r3, #5]
 732              		.loc 1 431 0
 733 0012 009B     		ldr	r3, [sp]
 734 0014 5B79     		ldrb	r3, [r3, #5]	@ zero_extendqisi2
 735 0016 1833     		adds	r3, r3, #24
 736 0018 1B01     		lsls	r3, r3, #4
 737 001a 039A     		ldr	r2, [sp, #12]
 738 001c 1344     		add	r3, r3, r2
 739 001e 0293     		str	r3, [sp, #8]
 740              		.loc 1 433 0
 741 0020 009B     		ldr	r3, [sp]
 742 0022 1B68     		ldr	r3, [r3]
 743 0024 C3F31C03 		ubfx	r3, r3, #0, #29
 744 0028 DB00     		lsls	r3, r3, #3
 745 002a 43F00402 		orr	r2, r3, #4
 746 002e 029B     		ldr	r3, [sp, #8]
 747 0030 1A60     		str	r2, [r3]
 748              		.loc 1 434 0
 749 0032 009B     		ldr	r3, [sp]
 750 0034 1B79     		ldrb	r3, [r3, #4]
 751 0036 C3F30303 		ubfx	r3, r3, #0, #4
 752 003a DBB2     		uxtb	r3, r3
 753 003c 1A46     		mov	r2, r3
 754 003e 029B     		ldr	r3, [sp, #8]
 755 0040 5A60     		str	r2, [r3, #4]
 756              		.loc 1 436 0
 757 0042 009B     		ldr	r3, [sp]
 758 0044 9A68     		ldr	r2, [r3, #8]
 759 0046 029B     		ldr	r3, [sp, #8]
 760 0048 9A60     		str	r2, [r3, #8]
 761              		.loc 1 437 0
 762 004a 009B     		ldr	r3, [sp]
 763 004c DA68     		ldr	r2, [r3, #12]
 764 004e 029B     		ldr	r3, [sp, #8]
 765 0050 DA60     		str	r2, [r3, #12]
 766              		.loc 1 438 0
 767 0052 029B     		ldr	r3, [sp, #8]
 768 0054 1B68     		ldr	r3, [r3]
 769 0056 43F00102 		orr	r2, r3, #1
 770 005a 029B     		ldr	r3, [sp, #8]
 771 005c 1A60     		str	r2, [r3]
 772              		.loc 1 439 0
 773 005e 04B0     		add	sp, sp, #16
 774              		@ sp needed
 775 0060 7047     		bx	lr
 776              		.cfi_endproc
 777              	.LFE130:
 778              		.size	rtcan_lld_can_transmit, .-rtcan_lld_can_transmit
 779 0062 00BFAFF3 		.section	.text.rtcan_lld_can_rxne,"ax",%progbits
 779      0080AFF3 
 779      0080AFF3 
 779      0080
 780              		.align	2
 781              		.p2align 4,,15
 782              		.global	rtcan_lld_can_rxne
ARM GAS  /tmp/ccEA7YA6.s 			page 15


 783              		.thumb
 784              		.thumb_func
 785              		.type	rtcan_lld_can_rxne, %function
 786              	rtcan_lld_can_rxne:
 787              	.LFB131:
 788              		.loc 1 452 0
 789              		.cfi_startproc
 790              		@ args = 0, pretend = 0, frame = 8
 791              		@ frame_needed = 0, uses_anonymous_args = 0
 792              		@ link register save eliminated.
 793 0000 82B0     		sub	sp, sp, #8
 794              		.cfi_def_cfa_offset 8
 795 0002 0190     		str	r0, [sp, #4]
 796              		.loc 1 454 0
 797 0004 019B     		ldr	r3, [sp, #4]
 798 0006 DB6D     		ldr	r3, [r3, #92]
 799 0008 DB68     		ldr	r3, [r3, #12]
 800 000a 03F00303 		and	r3, r3, #3
 801 000e 002B     		cmp	r3, #0
 802 0010 06D1     		bne	.L49
 803              		.loc 1 454 0 is_stmt 0 discriminator 2
 804 0012 019B     		ldr	r3, [sp, #4]
 805 0014 DB6D     		ldr	r3, [r3, #92]
 806 0016 1B69     		ldr	r3, [r3, #16]
 807 0018 03F00303 		and	r3, r3, #3
 808 001c 002B     		cmp	r3, #0
 809 001e 01D0     		beq	.L50
 810              	.L49:
 811              		.loc 1 454 0 discriminator 1
 812 0020 0123     		movs	r3, #1
 813 0022 00E0     		b	.L51
 814              	.L50:
 815              		.loc 1 454 0 discriminator 3
 816 0024 0023     		movs	r3, #0
 817              	.L51:
 818              		.loc 1 454 0 discriminator 4
 819 0026 03F00103 		and	r3, r3, #1
 820 002a DBB2     		uxtb	r3, r3
 821              		.loc 1 455 0 is_stmt 1 discriminator 4
 822 002c 1846     		mov	r0, r3
 823 002e 02B0     		add	sp, sp, #8
 824              		@ sp needed
 825 0030 7047     		bx	lr
 826              		.cfi_endproc
 827              	.LFE131:
 828              		.size	rtcan_lld_can_rxne, .-rtcan_lld_can_rxne
 829 0032 00BFAFF3 		.section	.text.rtcan_lld_can_receive,"ax",%progbits
 829      0080AFF3 
 829      0080AFF3 
 829      0080
 830              		.align	2
 831              		.p2align 4,,15
 832              		.global	rtcan_lld_can_receive
 833              		.thumb
 834              		.thumb_func
 835              		.type	rtcan_lld_can_receive, %function
 836              	rtcan_lld_can_receive:
ARM GAS  /tmp/ccEA7YA6.s 			page 16


 837              	.LFB132:
 838              		.loc 1 465 0
 839              		.cfi_startproc
 840              		@ args = 0, pretend = 0, frame = 16
 841              		@ frame_needed = 0, uses_anonymous_args = 0
 842              		@ link register save eliminated.
 843 0000 84B0     		sub	sp, sp, #16
 844              		.cfi_def_cfa_offset 16
 845 0002 0190     		str	r0, [sp, #4]
 846 0004 0091     		str	r1, [sp]
 847              		.loc 1 466 0
 848 0006 019B     		ldr	r3, [sp, #4]
 849 0008 DB6D     		ldr	r3, [r3, #92]
 850 000a 0393     		str	r3, [sp, #12]
 851              		.loc 1 468 0
 852 000c 039B     		ldr	r3, [sp, #12]
 853 000e DB68     		ldr	r3, [r3, #12]
 854 0010 03F00303 		and	r3, r3, #3
 855 0014 002B     		cmp	r3, #0
 856 0016 37D0     		beq	.L54
 857              		.loc 1 470 0
 858 0018 039B     		ldr	r3, [sp, #12]
 859 001a D3F8B031 		ldr	r3, [r3, #432]
 860 001e DB08     		lsrs	r3, r3, #3
 861 0020 23F06041 		bic	r1, r3, #-536870912
 862 0024 009A     		ldr	r2, [sp]
 863 0026 1368     		ldr	r3, [r2]
 864 0028 61F31C03 		bfi	r3, r1, #0, #29
 865 002c 1360     		str	r3, [r2]
 866              		.loc 1 471 0
 867 002e 039B     		ldr	r3, [sp, #12]
 868 0030 D3F8B431 		ldr	r3, [r3, #436]
 869 0034 DBB2     		uxtb	r3, r3
 870 0036 03F00F03 		and	r3, r3, #15
 871 003a D9B2     		uxtb	r1, r3
 872 003c 009A     		ldr	r2, [sp]
 873 003e 1379     		ldrb	r3, [r2, #4]
 874 0040 61F30303 		bfi	r3, r1, #0, #4
 875 0044 1371     		strb	r3, [r2, #4]
 876              		.loc 1 472 0
 877 0046 039B     		ldr	r3, [sp, #12]
 878 0048 D3F8B821 		ldr	r2, [r3, #440]
 879 004c 009B     		ldr	r3, [sp]
 880 004e 9A60     		str	r2, [r3, #8]
 881              		.loc 1 473 0
 882 0050 039B     		ldr	r3, [sp, #12]
 883 0052 D3F8BC21 		ldr	r2, [r3, #444]
 884 0056 009B     		ldr	r3, [sp]
 885 0058 DA60     		str	r2, [r3, #12]
 886              		.loc 1 474 0
 887 005a 039B     		ldr	r3, [sp, #12]
 888 005c D3F8B431 		ldr	r3, [r3, #436]
 889 0060 1B0A     		lsrs	r3, r3, #8
 890 0062 DAB2     		uxtb	r2, r3
 891 0064 009B     		ldr	r3, [sp]
 892 0066 5A71     		strb	r2, [r3, #5]
 893              		.loc 1 477 0
ARM GAS  /tmp/ccEA7YA6.s 			page 17


 894 0068 039B     		ldr	r3, [sp, #12]
 895 006a 2022     		movs	r2, #32
 896 006c DA60     		str	r2, [r3, #12]
 897              		.loc 1 481 0
 898 006e 039B     		ldr	r3, [sp, #12]
 899 0070 DB68     		ldr	r3, [r3, #12]
 900 0072 03F00303 		and	r3, r3, #3
 901 0076 002B     		cmp	r3, #0
 902 0078 43D1     		bne	.L53
 903              		.loc 1 482 0
 904 007a 039B     		ldr	r3, [sp, #12]
 905 007c 5B69     		ldr	r3, [r3, #20]
 906 007e 43F00202 		orr	r2, r3, #2
 907 0082 039B     		ldr	r3, [sp, #12]
 908 0084 5A61     		str	r2, [r3, #20]
 909 0086 3CE0     		b	.L53
 910              	.L54:
 911              		.loc 1 484 0
 912 0088 039B     		ldr	r3, [sp, #12]
 913 008a 1B69     		ldr	r3, [r3, #16]
 914 008c 03F00303 		and	r3, r3, #3
 915 0090 002B     		cmp	r3, #0
 916 0092 36D0     		beq	.L53
 917              		.loc 1 486 0
 918 0094 039B     		ldr	r3, [sp, #12]
 919 0096 D3F8C031 		ldr	r3, [r3, #448]
 920 009a DB08     		lsrs	r3, r3, #3
 921 009c 23F06041 		bic	r1, r3, #-536870912
 922 00a0 009A     		ldr	r2, [sp]
 923 00a2 1368     		ldr	r3, [r2]
 924 00a4 61F31C03 		bfi	r3, r1, #0, #29
 925 00a8 1360     		str	r3, [r2]
 926              		.loc 1 487 0
 927 00aa 039B     		ldr	r3, [sp, #12]
 928 00ac D3F8C431 		ldr	r3, [r3, #452]
 929 00b0 DBB2     		uxtb	r3, r3
 930 00b2 03F00F03 		and	r3, r3, #15
 931 00b6 D9B2     		uxtb	r1, r3
 932 00b8 009A     		ldr	r2, [sp]
 933 00ba 1379     		ldrb	r3, [r2, #4]
 934 00bc 61F30303 		bfi	r3, r1, #0, #4
 935 00c0 1371     		strb	r3, [r2, #4]
 936              		.loc 1 488 0
 937 00c2 039B     		ldr	r3, [sp, #12]
 938 00c4 D3F8C821 		ldr	r2, [r3, #456]
 939 00c8 009B     		ldr	r3, [sp]
 940 00ca 9A60     		str	r2, [r3, #8]
 941              		.loc 1 489 0
 942 00cc 039B     		ldr	r3, [sp, #12]
 943 00ce D3F8CC21 		ldr	r2, [r3, #460]
 944 00d2 009B     		ldr	r3, [sp]
 945 00d4 DA60     		str	r2, [r3, #12]
 946              		.loc 1 490 0
 947 00d6 039B     		ldr	r3, [sp, #12]
 948 00d8 D3F8C431 		ldr	r3, [r3, #452]
 949 00dc 1B0A     		lsrs	r3, r3, #8
 950 00de DAB2     		uxtb	r2, r3
ARM GAS  /tmp/ccEA7YA6.s 			page 18


 951 00e0 009B     		ldr	r3, [sp]
 952 00e2 5A71     		strb	r2, [r3, #5]
 953              		.loc 1 493 0
 954 00e4 039B     		ldr	r3, [sp, #12]
 955 00e6 2022     		movs	r2, #32
 956 00e8 1A61     		str	r2, [r3, #16]
 957              		.loc 1 497 0
 958 00ea 039B     		ldr	r3, [sp, #12]
 959 00ec 1B69     		ldr	r3, [r3, #16]
 960 00ee 03F00303 		and	r3, r3, #3
 961 00f2 002B     		cmp	r3, #0
 962 00f4 05D1     		bne	.L53
 963              		.loc 1 498 0
 964 00f6 039B     		ldr	r3, [sp, #12]
 965 00f8 5B69     		ldr	r3, [r3, #20]
 966 00fa 43F01002 		orr	r2, r3, #16
 967 00fe 039B     		ldr	r3, [sp, #12]
 968 0100 5A61     		str	r2, [r3, #20]
 969              	.L53:
 970              		.loc 1 501 0
 971 0102 04B0     		add	sp, sp, #16
 972              		@ sp needed
 973 0104 7047     		bx	lr
 974              		.cfi_endproc
 975              	.LFE132:
 976              		.size	rtcan_lld_can_receive, .-rtcan_lld_can_receive
 977 0106 00BFAFF3 		.section	.text.rtcan_lld_can_addfilter,"ax",%progbits
 977      0080AFF3 
 977      0080
 978              		.align	2
 979              		.p2align 4,,15
 980              		.global	rtcan_lld_can_addfilter
 981              		.thumb
 982              		.thumb_func
 983              		.type	rtcan_lld_can_addfilter, %function
 984              	rtcan_lld_can_addfilter:
 985              	.LFB133:
 986              		.loc 1 517 0
 987              		.cfi_startproc
 988              		@ args = 0, pretend = 0, frame = 32
 989              		@ frame_needed = 0, uses_anonymous_args = 0
 990              		@ link register save eliminated.
 991 0000 88B0     		sub	sp, sp, #32
 992              		.cfi_def_cfa_offset 32
 993 0002 0390     		str	r0, [sp, #12]
 994 0004 0291     		str	r1, [sp, #8]
 995 0006 0192     		str	r2, [sp, #4]
 996 0008 0093     		str	r3, [sp]
 997              		.loc 1 518 0
 998 000a 039B     		ldr	r3, [sp, #12]
 999 000c DB6D     		ldr	r3, [r3, #92]
 1000 000e 0793     		str	r3, [sp, #28]
 1001              		.loc 1 523 0
 1002 0010 304B     		ldr	r3, .L60
 1003 0012 1B68     		ldr	r3, [r3]
 1004 0014 1B2B     		cmp	r3, #27
 1005 0016 59D8     		bhi	.L58
ARM GAS  /tmp/ccEA7YA6.s 			page 19


 1006              		.loc 1 525 0
 1007 0018 2E4B     		ldr	r3, .L60
 1008 001a 1B68     		ldr	r3, [r3]
 1009              		.loc 1 524 0
 1010 001c 4833     		adds	r3, r3, #72
 1011 001e DB00     		lsls	r3, r3, #3
 1012 0020 079A     		ldr	r2, [sp, #28]
 1013 0022 1344     		add	r3, r3, r2
 1014 0024 0693     		str	r3, [sp, #24]
 1015              		.loc 1 526 0
 1016 0026 2B4B     		ldr	r3, .L60
 1017 0028 1B68     		ldr	r3, [r3]
 1018 002a 0122     		movs	r2, #1
 1019 002c 02FA03F3 		lsl	r3, r2, r3
 1020 0030 0593     		str	r3, [sp, #20]
 1021              		.loc 1 527 0
 1022 0032 079B     		ldr	r3, [sp, #28]
 1023 0034 D3F80032 		ldr	r3, [r3, #512]
 1024 0038 43F00102 		orr	r2, r3, #1
 1025 003c 079B     		ldr	r3, [sp, #28]
 1026 003e C3F80022 		str	r2, [r3, #512]
 1027              		.loc 1 528 0
 1028 0042 079B     		ldr	r3, [sp, #28]
 1029 0044 D3F81C22 		ldr	r2, [r3, #540]
 1030 0048 059B     		ldr	r3, [sp, #20]
 1031 004a DB43     		mvns	r3, r3
 1032 004c 1A40     		ands	r2, r2, r3
 1033 004e 079B     		ldr	r3, [sp, #28]
 1034 0050 C3F81C22 		str	r2, [r3, #540]
 1035              		.loc 1 532 0
 1036 0054 079B     		ldr	r3, [sp, #28]
 1037 0056 D3F80422 		ldr	r2, [r3, #516]
 1038 005a 059B     		ldr	r3, [sp, #20]
 1039 005c DB43     		mvns	r3, r3
 1040 005e 1A40     		ands	r2, r2, r3
 1041 0060 079B     		ldr	r3, [sp, #28]
 1042 0062 C3F80422 		str	r2, [r3, #516]
 1043              		.loc 1 542 0
 1044 0066 079B     		ldr	r3, [sp, #28]
 1045 0068 D3F80C22 		ldr	r2, [r3, #524]
 1046 006c 059B     		ldr	r3, [sp, #20]
 1047 006e 1A43     		orrs	r2, r2, r3
 1048 0070 079B     		ldr	r3, [sp, #28]
 1049 0072 C3F80C22 		str	r2, [r3, #524]
 1050              		.loc 1 543 0
 1051 0076 079B     		ldr	r3, [sp, #28]
 1052 0078 D3F80422 		ldr	r2, [r3, #516]
 1053 007c 059B     		ldr	r3, [sp, #20]
 1054 007e DB43     		mvns	r3, r3
 1055 0080 1A40     		ands	r2, r2, r3
 1056 0082 079B     		ldr	r3, [sp, #28]
 1057 0084 C3F80422 		str	r2, [r3, #516]
 1058              		.loc 1 544 0
 1059 0088 029B     		ldr	r3, [sp, #8]
 1060 008a DA00     		lsls	r2, r3, #3
 1061 008c 069B     		ldr	r3, [sp, #24]
 1062 008e 1A60     		str	r2, [r3]
ARM GAS  /tmp/ccEA7YA6.s 			page 20


 1063              		.loc 1 545 0
 1064 0090 019B     		ldr	r3, [sp, #4]
 1065 0092 DA00     		lsls	r2, r3, #3
 1066 0094 069B     		ldr	r3, [sp, #24]
 1067 0096 5A60     		str	r2, [r3, #4]
 1068              		.loc 1 563 0
 1069 0098 079B     		ldr	r3, [sp, #28]
 1070 009a D3F81C22 		ldr	r2, [r3, #540]
 1071 009e 059B     		ldr	r3, [sp, #20]
 1072 00a0 1A43     		orrs	r2, r2, r3
 1073 00a2 079B     		ldr	r3, [sp, #28]
 1074 00a4 C3F81C22 		str	r2, [r3, #540]
 1075              		.loc 1 564 0
 1076 00a8 079B     		ldr	r3, [sp, #28]
 1077 00aa D3F80032 		ldr	r3, [r3, #512]
 1078 00ae 23F00102 		bic	r2, r3, #1
 1079 00b2 079B     		ldr	r3, [sp, #28]
 1080 00b4 C3F80022 		str	r2, [r3, #512]
 1081              		.loc 1 566 0
 1082 00b8 064B     		ldr	r3, .L60
 1083 00ba 1B68     		ldr	r3, [r3]
 1084 00bc 591C     		adds	r1, r3, #1
 1085 00be 054A     		ldr	r2, .L60
 1086 00c0 1160     		str	r1, [r2]
 1087 00c2 DAB2     		uxtb	r2, r3
 1088 00c4 009B     		ldr	r3, [sp]
 1089 00c6 1A70     		strb	r2, [r3]
 1090              		.loc 1 567 0
 1091 00c8 0123     		movs	r3, #1
 1092 00ca 00E0     		b	.L59
 1093              	.L58:
 1094              		.loc 1 569 0
 1095 00cc 0023     		movs	r3, #0
 1096              	.L59:
 1097              		.loc 1 571 0
 1098 00ce 1846     		mov	r0, r3
 1099 00d0 08B0     		add	sp, sp, #32
 1100              		@ sp needed
 1101 00d2 7047     		bx	lr
 1102              	.L61:
 1103              		.align	2
 1104              	.L60:
 1105 00d4 00000000 		.word	next_fid.7257
 1106              		.cfi_endproc
 1107              	.LFE133:
 1108              		.size	rtcan_lld_can_addfilter, .-rtcan_lld_can_addfilter
 1109 00d8 AFF30080 		.section	.bss.next_fid.7257,"aw",%nobits
 1109      AFF30080 
 1110              		.align	2
 1111              		.type	next_fid.7257, %object
 1112              		.size	next_fid.7257, 4
 1113              	next_fid.7257:
 1114 0000 00000000 		.space	4
 1115              		.text
 1116              	.Letext0:
 1117              		.file 2 "/usr/include/newlib/machine/_default_types.h"
 1118              		.file 3 "/usr/include/newlib/stdint.h"
ARM GAS  /tmp/ccEA7YA6.s 			page 21


 1119              		.file 4 "/home/dave/r2p-sdk/core/ChibiOS/os/ports/GCC/ARMCMx/chtypes.h"
 1120              		.file 5 "/home/dave/r2p-sdk/core/ChibiOS/os/hal/platforms/STM32F30x/stm32f30x.h"
 1121              		.file 6 "/home/dave/r2p-sdk/core/RTCAN/include/rtcan.h"
 1122              		.file 7 "/home/dave/r2p-sdk/core/RTCAN/include/msgqueue.h"
 1123              		.file 8 "/home/dave/r2p-sdk/core/ChibiOS/os/ports/common/ARMCMx/CMSIS/include/core_cm4.h"