ARM GAS  /tmp/ccEA7YA6.s 			page 1


   1              		.syntax unified
   2              		.cpu cortex-m4
   3              		.eabi_attribute 27, 3
   4              		.eabi_attribute 28, 1
   5              		.fpu fpv4-sp-d16
   6              		.eabi_attribute 20, 1
   7              		.eabi_attribute 21, 1
   8              		.eabi_attribute 23, 3
   9              		.eabi_attribute 24, 1
  10              		.eabi_attribute 25, 1
  11              		.eabi_attribute 26, 1
  12              		.eabi_attribute 30, 6
  13              		.eabi_attribute 34, 1
  14              		.eabi_attribute 18, 4
  15              		.thumb
  16              		.file	"rtcan_lld_can.c"
  17              		.text
  18              	.Ltext0:
  19              		.cfi_sections	.debug_frame
  20              		.global	RTCAND1
  21              		.section	.bss.RTCAND1,"aw",%nobits
  22              		.align	2
  23              		.type	RTCAND1, %object
  24              		.size	RTCAND1, 96
  25              	RTCAND1:
  26 0000 00000000 		.space	96
  26      00000000 
  26      00000000 
  26      00000000 
  26      00000000 
  27              		.section	.text.rtcan_lld_can_tx_handler,"ax",%progbits
  28              		.align	2
  29              		.p2align 4,,15
  30              		.thumb
  31              		.thumb_func
  32              		.type	rtcan_lld_can_tx_handler, %function
  33              	rtcan_lld_can_tx_handler:
  34              	.LFB118:
  35              		.file 1 "/home/dave/r2p-sdk/core/RTCAN/platforms/STM32/rtcan_lld_can.c"
  36              		.loc 1 40 0
  37              		.cfi_startproc
  38              		@ args = 0, pretend = 0, frame = 16
  39              		@ frame_needed = 0, uses_anonymous_args = 0
  40 0000 00B5     		push	{lr}
  41              		.cfi_def_cfa_offset 4
  42              		.cfi_offset 14, -4
  43 0002 85B0     		sub	sp, sp, #20
  44              		.cfi_def_cfa_offset 24
  45 0004 0190     		str	r0, [sp, #4]
  46              		.loc 1 41 0
  47 0006 019B     		ldr	r3, [sp, #4]
  48 0008 DB6D     		ldr	r3, [r3, #92]
  49 000a 0393     		str	r3, [sp, #12]
  50              		.loc 1 44 0
  51 000c 039B     		ldr	r3, [sp, #12]
  52 000e 9B68     		ldr	r3, [r3, #8]
  53 0010 0293     		str	r3, [sp, #8]
ARM GAS  /tmp/ccEA7YA6.s 			page 2


  54              		.loc 1 47 0
  55 0012 039B     		ldr	r3, [sp, #12]
  56 0014 2A4A     		ldr	r2, .L11
  57 0016 9A60     		str	r2, [r3, #8]
  58              		.loc 1 49 0
  59 0018 029B     		ldr	r3, [sp, #8]
  60 001a 03F00203 		and	r3, r3, #2
  61 001e 002B     		cmp	r3, #0
  62 0020 03D0     		beq	.L2
  63              		.loc 1 50 0
  64 0022 0198     		ldr	r0, [sp, #4]
  65 0024 0021     		movs	r1, #0
  66 0026 FFF7FEFF 		bl	rtcan_txok_isr_code
  67              	.L2:
  68              		.loc 1 53 0
  69 002a 029B     		ldr	r3, [sp, #8]
  70 002c 03F40073 		and	r3, r3, #512
  71 0030 002B     		cmp	r3, #0
  72 0032 03D0     		beq	.L3
  73              		.loc 1 54 0
  74 0034 0198     		ldr	r0, [sp, #4]
  75 0036 0121     		movs	r1, #1
  76 0038 FFF7FEFF 		bl	rtcan_txok_isr_code
  77              	.L3:
  78              		.loc 1 57 0
  79 003c 029B     		ldr	r3, [sp, #8]
  80 003e 03F40033 		and	r3, r3, #131072
  81 0042 002B     		cmp	r3, #0
  82 0044 03D0     		beq	.L4
  83              		.loc 1 58 0
  84 0046 0198     		ldr	r0, [sp, #4]
  85 0048 0221     		movs	r1, #2
  86 004a FFF7FEFF 		bl	rtcan_txok_isr_code
  87              	.L4:
  88              		.loc 1 61 0
  89 004e 029B     		ldr	r3, [sp, #8]
  90 0050 03F00403 		and	r3, r3, #4
  91 0054 002B     		cmp	r3, #0
  92 0056 03D0     		beq	.L5
  93              		.loc 1 62 0
  94 0058 0198     		ldr	r0, [sp, #4]
  95 005a 0021     		movs	r1, #0
  96 005c FFF7FEFF 		bl	rtcan_alst_isr_code
  97              	.L5:
  98              		.loc 1 65 0
  99 0060 029B     		ldr	r3, [sp, #8]
 100 0062 03F48063 		and	r3, r3, #1024
 101 0066 002B     		cmp	r3, #0
 102 0068 03D0     		beq	.L6
 103              		.loc 1 66 0
 104 006a 0198     		ldr	r0, [sp, #4]
 105 006c 0121     		movs	r1, #1
 106 006e FFF7FEFF 		bl	rtcan_alst_isr_code
 107              	.L6:
 108              		.loc 1 69 0
 109 0072 029B     		ldr	r3, [sp, #8]
 110 0074 03F48023 		and	r3, r3, #262144
ARM GAS  /tmp/ccEA7YA6.s 			page 3


 111 0078 002B     		cmp	r3, #0
 112 007a 03D0     		beq	.L7
 113              		.loc 1 70 0
 114 007c 0198     		ldr	r0, [sp, #4]
 115 007e 0221     		movs	r1, #2
 116 0080 FFF7FEFF 		bl	rtcan_alst_isr_code
 117              	.L7:
 118              		.loc 1 73 0
 119 0084 029B     		ldr	r3, [sp, #8]
 120 0086 03F00803 		and	r3, r3, #8
 121 008a 002B     		cmp	r3, #0
 122 008c 03D0     		beq	.L8
 123              		.loc 1 74 0
 124 008e 0198     		ldr	r0, [sp, #4]
 125 0090 0021     		movs	r1, #0
 126 0092 FFF7FEFF 		bl	rtcan_terr_isr_code
 127              	.L8:
 128              		.loc 1 77 0
 129 0096 029B     		ldr	r3, [sp, #8]
 130 0098 03F40063 		and	r3, r3, #2048
 131 009c 002B     		cmp	r3, #0
 132 009e 03D0     		beq	.L9
 133              		.loc 1 78 0
 134 00a0 0198     		ldr	r0, [sp, #4]
 135 00a2 0121     		movs	r1, #1
 136 00a4 FFF7FEFF 		bl	rtcan_terr_isr_code
 137              	.L9:
 138              		.loc 1 81 0
 139 00a8 029B     		ldr	r3, [sp, #8]
 140 00aa 03F40023 		and	r3, r3, #524288
 141 00ae 002B     		cmp	r3, #0
 142 00b0 03D0     		beq	.L1
 143              		.loc 1 82 0
 144 00b2 0198     		ldr	r0, [sp, #4]
 145 00b4 0221     		movs	r1, #2
 146 00b6 FFF7FEFF 		bl	rtcan_terr_isr_code
 147              	.L1:
 148              		.loc 1 84 0
 149 00ba 05B0     		add	sp, sp, #20
 150              		@ sp needed
 151 00bc 5DF804FB 		ldr	pc, [sp], #4
 152              	.L12:
 153              		.align	2
 154              	.L11:
 155 00c0 01010100 		.word	65793
 156              		.cfi_endproc
 157              	.LFE118:
 158              		.size	rtcan_lld_can_tx_handler, .-rtcan_lld_can_tx_handler
 159 00c4 AFF30080 		.section	.text.rtcan_lld_can_rx0_handler,"ax",%progbits
 159      AFF30080 
 159      AFF30080 
 160              		.align	2
 161              		.p2align 4,,15
 162              		.thumb
 163              		.thumb_func
 164              		.type	rtcan_lld_can_rx0_handler, %function
 165              	rtcan_lld_can_rx0_handler:
ARM GAS  /tmp/ccEA7YA6.s 			page 4


 166              	.LFB119:
 167              		.loc 1 93 0
 168              		.cfi_startproc
 169              		@ args = 0, pretend = 0, frame = 16
 170              		@ frame_needed = 0, uses_anonymous_args = 0
 171 0000 00B5     		push	{lr}
 172              		.cfi_def_cfa_offset 4
 173              		.cfi_offset 14, -4
 174 0002 85B0     		sub	sp, sp, #20
 175              		.cfi_def_cfa_offset 24
 176 0004 0190     		str	r0, [sp, #4]
 177              		.loc 1 96 0
 178 0006 019B     		ldr	r3, [sp, #4]
 179 0008 DB6D     		ldr	r3, [r3, #92]
 180 000a DB68     		ldr	r3, [r3, #12]
 181 000c 0393     		str	r3, [sp, #12]
 182              		.loc 1 97 0
 183 000e 039B     		ldr	r3, [sp, #12]
 184 0010 03F00303 		and	r3, r3, #3
 185 0014 002B     		cmp	r3, #0
 186 0016 0AD0     		beq	.L14
 187              		.loc 1 99 0
 188 0018 019B     		ldr	r3, [sp, #4]
 189 001a DB6D     		ldr	r3, [r3, #92]
 190 001c 019A     		ldr	r2, [sp, #4]
 191 001e D26D     		ldr	r2, [r2, #92]
 192 0020 5269     		ldr	r2, [r2, #20]
 193 0022 22F00202 		bic	r2, r2, #2
 194 0026 5A61     		str	r2, [r3, #20]
 195              		.loc 1 102 0
 196 0028 0198     		ldr	r0, [sp, #4]
 197 002a FFF7FEFF 		bl	rtcan_rx_isr_code
 198              	.L14:
 199              		.loc 1 104 0
 200 002e 039B     		ldr	r3, [sp, #12]
 201 0030 03F01003 		and	r3, r3, #16
 202 0034 002B     		cmp	r3, #0
 203 0036 03D0     		beq	.L13
 204              		.loc 1 106 0
 205 0038 019B     		ldr	r3, [sp, #4]
 206 003a DB6D     		ldr	r3, [r3, #92]
 207 003c 1022     		movs	r2, #16
 208 003e DA60     		str	r2, [r3, #12]
 209              	.L13:
 210              		.loc 1 110 0
 211 0040 05B0     		add	sp, sp, #20
 212              		@ sp needed
 213 0042 5DF804FB 		ldr	pc, [sp], #4
 214              		.cfi_endproc
 215              	.LFE119:
 216              		.size	rtcan_lld_can_rx0_handler, .-rtcan_lld_can_rx0_handler
 217 0046 00BFAFF3 		.section	.text.rtcan_lld_can_rx1_handler,"ax",%progbits
 217      0080AFF3 
 217      0080
 218              		.align	2
 219              		.p2align 4,,15
 220              		.thumb
ARM GAS  /tmp/ccEA7YA6.s 			page 5


 221              		.thumb_func
 222              		.type	rtcan_lld_can_rx1_handler, %function
 223              	rtcan_lld_can_rx1_handler:
 224              	.LFB120:
 225              		.loc 1 119 0
 226              		.cfi_startproc
 227              		@ args = 0, pretend = 0, frame = 16
 228              		@ frame_needed = 0, uses_anonymous_args = 0
 229              		@ link register save eliminated.
 230 0000 84B0     		sub	sp, sp, #16
 231              		.cfi_def_cfa_offset 16
 232 0002 0190     		str	r0, [sp, #4]
 233              		.loc 1 122 0
 234 0004 019B     		ldr	r3, [sp, #4]
 235 0006 DB6D     		ldr	r3, [r3, #92]
 236 0008 1B69     		ldr	r3, [r3, #16]
 237 000a 0393     		str	r3, [sp, #12]
 238              		.loc 1 123 0
 239 000c 039B     		ldr	r3, [sp, #12]
 240 000e 03F00303 		and	r3, r3, #3
 241 0012 002B     		cmp	r3, #0
 242 0014 07D0     		beq	.L17
 243              		.loc 1 125 0
 244 0016 019B     		ldr	r3, [sp, #4]
 245 0018 DB6D     		ldr	r3, [r3, #92]
 246 001a 019A     		ldr	r2, [sp, #4]
 247 001c D26D     		ldr	r2, [r2, #92]
 248 001e 5269     		ldr	r2, [r2, #20]
 249 0020 22F01002 		bic	r2, r2, #16
 250 0024 5A61     		str	r2, [r3, #20]
 251              	.L17:
 252              		.loc 1 129 0
 253 0026 039B     		ldr	r3, [sp, #12]
 254 0028 03F01003 		and	r3, r3, #16
 255 002c 002B     		cmp	r3, #0
 256 002e 03D0     		beq	.L16
 257              		.loc 1 131 0
 258 0030 019B     		ldr	r3, [sp, #4]
 259 0032 DB6D     		ldr	r3, [r3, #92]
 260 0034 1022     		movs	r2, #16
 261 0036 1A61     		str	r2, [r3, #16]
 262              	.L16:
 263              		.loc 1 135 0
 264 0038 04B0     		add	sp, sp, #16
 265              		@ sp needed
 266 003a 7047     		bx	lr
 267              		.cfi_endproc
 268              	.LFE120:
 269              		.size	rtcan_lld_can_rx1_handler, .-rtcan_lld_can_rx1_handler
 270 003c AFF30080 		.section	.text.rtcan_lld_can_sce_handler,"ax",%progbits
 271              		.align	2
 272              		.p2align 4,,15
 273              		.thumb
 274              		.thumb_func
 275              		.type	rtcan_lld_can_sce_handler, %function
 276              	rtcan_lld_can_sce_handler:
 277              	.LFB121:
ARM GAS  /tmp/ccEA7YA6.s 			page 6


 278              		.loc 1 144 0
 279              		.cfi_startproc
 280              		@ args = 0, pretend = 0, frame = 24
 281              		@ frame_needed = 0, uses_anonymous_args = 0
 282              		@ link register save eliminated.
 283 0000 86B0     		sub	sp, sp, #24
 284              		.cfi_def_cfa_offset 24
 285 0002 0190     		str	r0, [sp, #4]
 286              		.loc 1 147 0
 287 0004 019B     		ldr	r3, [sp, #4]
 288 0006 DB6D     		ldr	r3, [r3, #92]
 289 0008 5B68     		ldr	r3, [r3, #4]
 290 000a 0593     		str	r3, [sp, #20]
 291              		.loc 1 148 0
 292 000c 019B     		ldr	r3, [sp, #4]
 293 000e DB6D     		ldr	r3, [r3, #92]
 294 0010 1C22     		movs	r2, #28
 295 0012 5A60     		str	r2, [r3, #4]
 296              		.loc 1 151 0
 297 0014 059B     		ldr	r3, [sp, #20]
 298 0016 03F00403 		and	r3, r3, #4
 299 001a 002B     		cmp	r3, #0
 300 001c 18D0     		beq	.L19
 301              	.LBB2:
 302              		.loc 1 153 0
 303 001e 019B     		ldr	r3, [sp, #4]
 304 0020 DB6D     		ldr	r3, [r3, #92]
 305 0022 9B69     		ldr	r3, [r3, #24]
 306 0024 0493     		str	r3, [sp, #16]
 307              		.loc 1 155 0
 308 0026 019B     		ldr	r3, [sp, #4]
 309 0028 DB6D     		ldr	r3, [r3, #92]
 310 002a 019A     		ldr	r2, [sp, #4]
 311 002c D26D     		ldr	r2, [r2, #92]
 312 002e 9269     		ldr	r2, [r2, #24]
 313 0030 22F07002 		bic	r2, r2, #112
 314 0034 9A61     		str	r2, [r3, #24]
 315              		.loc 1 156 0
 316 0036 049B     		ldr	r3, [sp, #16]
 317 0038 03F00703 		and	r3, r3, #7
 318 003c 0393     		str	r3, [sp, #12]
 319              		.loc 1 157 0
 320 003e 049B     		ldr	r3, [sp, #16]
 321 0040 03F07003 		and	r3, r3, #112
 322 0044 002B     		cmp	r3, #0
 323 0046 03D0     		beq	.L19
 324              		.loc 1 158 0
 325 0048 039B     		ldr	r3, [sp, #12]
 326 004a 43F00803 		orr	r3, r3, #8
 327 004e 0393     		str	r3, [sp, #12]
 328              	.L19:
 329              	.LBE2:
 330              		.loc 1 162 0
 331 0050 06B0     		add	sp, sp, #24
 332              		@ sp needed
 333 0052 7047     		bx	lr
 334              		.cfi_endproc
ARM GAS  /tmp/ccEA7YA6.s 			page 7


 335              	.LFE121:
 336              		.size	rtcan_lld_can_sce_handler, .-rtcan_lld_can_sce_handler
 337 0054 AFF30080 		.section	.text.Vector8C,"ax",%progbits
 337      AFF30080 
 337      AFF30080 
 338              		.align	2
 339              		.p2align 4,,15
 340              		.global	Vector8C
 341              		.thumb
 342              		.thumb_func
 343              		.type	Vector8C, %function
 344              	Vector8C:
 345              	.LFB122:
 346              		.loc 1 174 0
 347              		.cfi_startproc
 348              		@ args = 0, pretend = 0, frame = 0
 349              		@ frame_needed = 0, uses_anonymous_args = 0
 350 0000 08B5     		push	{r3, lr}
 351              		.cfi_def_cfa_offset 8
 352              		.cfi_offset 3, -8
 353              		.cfi_offset 14, -4
 354              		.loc 1 176 0
 355 0002 FFF7FEFF 		bl	dbg_check_enter_isr
 356              		.loc 1 178 0
 357 0006 0448     		ldr	r0, .L22
 358 0008 FFF7FEFF 		bl	rtcan_lld_can_tx_handler
 359              		.loc 1 180 0
 360 000c FFF7FEFF 		bl	dbg_check_leave_isr
 361 0010 FFF7FEFF 		bl	_port_irq_epilogue
 362              		.loc 1 181 0
 363 0014 08BD     		pop	{r3, pc}
 364              	.L23:
 365 0016 00BF     		.align	2
 366              	.L22:
 367 0018 00000000 		.word	RTCAND1
 368              		.cfi_endproc
 369              	.LFE122:
 370              		.size	Vector8C, .-Vector8C
 371 001c AFF30080 		.section	.text.Vector90,"ax",%progbits
 372              		.align	2
 373              		.p2align 4,,15
 374              		.global	Vector90
 375              		.thumb
 376              		.thumb_func
 377              		.type	Vector90, %function
 378              	Vector90:
 379              	.LFB123:
 380              		.loc 1 188 0
 381              		.cfi_startproc
 382              		@ args = 0, pretend = 0, frame = 0
 383              		@ frame_needed = 0, uses_anonymous_args = 0
 384 0000 08B5     		push	{r3, lr}
 385              		.cfi_def_cfa_offset 8
 386              		.cfi_offset 3, -8
 387              		.cfi_offset 14, -4
 388              		.loc 1 190 0
 389 0002 FFF7FEFF 		bl	dbg_check_enter_isr
ARM GAS  /tmp/ccEA7YA6.s 			page 8


 390              		.loc 1 192 0
 391 0006 0448     		ldr	r0, .L25
 392 0008 FFF7FEFF 		bl	rtcan_lld_can_rx0_handler
 393              		.loc 1 194 0
 394 000c FFF7FEFF 		bl	dbg_check_leave_isr
 395 0010 FFF7FEFF 		bl	_port_irq_epilogue
 396              		.loc 1 195 0
 397 0014 08BD     		pop	{r3, pc}
 398              	.L26:
 399 0016 00BF     		.align	2
 400              	.L25:
 401 0018 00000000 		.word	RTCAND1
 402              		.cfi_endproc
 403              	.LFE123:
 404              		.size	Vector90, .-Vector90
 405 001c AFF30080 		.section	.text.Vector94,"ax",%progbits
 406              		.align	2
 407              		.p2align 4,,15
 408              		.global	Vector94
 409              		.thumb
 410              		.thumb_func
 411              		.type	Vector94, %function
 412              	Vector94:
 413              	.LFB124:
 414              		.loc 1 202 0
 415              		.cfi_startproc
 416              		@ args = 0, pretend = 0, frame = 0
 417              		@ frame_needed = 0, uses_anonymous_args = 0
 418 0000 08B5     		push	{r3, lr}
 419              		.cfi_def_cfa_offset 8
 420              		.cfi_offset 3, -8
 421              		.cfi_offset 14, -4
 422              		.loc 1 204 0
 423 0002 FFF7FEFF 		bl	dbg_check_enter_isr
 424              		.loc 1 206 0
 425 0006 0448     		ldr	r0, .L28
 426 0008 FFF7FEFF 		bl	rtcan_lld_can_rx1_handler
 427              		.loc 1 208 0
 428 000c FFF7FEFF 		bl	dbg_check_leave_isr
 429 0010 FFF7FEFF 		bl	_port_irq_epilogue
 430              		.loc 1 209 0
 431 0014 08BD     		pop	{r3, pc}
 432              	.L29:
 433 0016 00BF     		.align	2
 434              	.L28:
 435 0018 00000000 		.word	RTCAND1
 436              		.cfi_endproc
 437              	.LFE124:
 438              		.size	Vector94, .-Vector94
 439 001c AFF30080 		.section	.text.Vector98,"ax",%progbits
 440              		.align	2
 441              		.p2align 4,,15
 442              		.global	Vector98
 443              		.thumb
 444              		.thumb_func
 445              		.type	Vector98, %function
 446              	Vector98:
ARM GAS  /tmp/ccEA7YA6.s 			page 9


 447              	.LFB125:
 448              		.loc 1 216 0
 449              		.cfi_startproc
 450              		@ args = 0, pretend = 0, frame = 0
 451              		@ frame_needed = 0, uses_anonymous_args = 0
 452 0000 08B5     		push	{r3, lr}
 453              		.cfi_def_cfa_offset 8
 454              		.cfi_offset 3, -8
 455              		.cfi_offset 14, -4
 456              		.loc 1 218 0
 457 0002 FFF7FEFF 		bl	dbg_check_enter_isr
 458              		.loc 1 220 0
 459 0006 0448     		ldr	r0, .L31
 460 0008 FFF7FEFF 		bl	rtcan_lld_can_sce_handler
 461              		.loc 1 222 0
 462 000c FFF7FEFF 		bl	dbg_check_leave_isr
 463 0010 FFF7FEFF 		bl	_port_irq_epilogue
 464              		.loc 1 223 0
 465 0014 08BD     		pop	{r3, pc}
 466              	.L32:
 467 0016 00BF     		.align	2
 468              	.L31:
 469 0018 00000000 		.word	RTCAND1
 470              		.cfi_endproc
 471              	.LFE125:
 472              		.size	Vector98, .-Vector98
 473 001c AFF30080 		.section	.text.rtcan_lld_can_init,"ax",%progbits
 474              		.align	2
 475              		.p2align 4,,15
 476              		.global	rtcan_lld_can_init
 477              		.thumb
 478              		.thumb_func
 479              		.type	rtcan_lld_can_init, %function
 480              	rtcan_lld_can_init:
 481              	.LFB126:
 482              		.loc 1 293 0
 483              		.cfi_startproc
 484              		@ args = 0, pretend = 0, frame = 0
 485              		@ frame_needed = 0, uses_anonymous_args = 0
 486 0000 08B5     		push	{r3, lr}
 487              		.cfi_def_cfa_offset 8
 488              		.cfi_offset 3, -8
 489              		.cfi_offset 14, -4
 490              		.loc 1 296 0
 491 0002 034B     		ldr	r3, .L34
 492 0004 034A     		ldr	r2, .L34+4
 493 0006 DA65     		str	r2, [r3, #92]
 494              		.loc 1 297 0
 495 0008 0148     		ldr	r0, .L34
 496 000a FFF7FEFF 		bl	rtcanReset
 497              		.loc 1 304 0
 498 000e 08BD     		pop	{r3, pc}
 499              	.L35:
 500              		.align	2
 501              	.L34:
 502 0010 00000000 		.word	RTCAND1
 503 0014 00640040 		.word	1073767424
ARM GAS  /tmp/ccEA7YA6.s 			page 10


 504              		.cfi_endproc
 505              	.LFE126:
 506              		.size	rtcan_lld_can_init, .-rtcan_lld_can_init
 507 0018 AFF30080 		.section	.text.rtcan_lld_can_start,"ax",%progbits
 507      AFF30080 
 508              		.align	2
 509              		.p2align 4,,15
 510              		.global	rtcan_lld_can_start
 511              		.thumb
 512              		.thumb_func
 513              		.type	rtcan_lld_can_start, %function
 514              	rtcan_lld_can_start:
 515              	.LFB127:
 516              		.loc 1 313 0
 517              		.cfi_startproc
 518              		@ args = 0, pretend = 0, frame = 8
 519              		@ frame_needed = 0, uses_anonymous_args = 0
 520 0000 00B5     		push	{lr}
 521              		.cfi_def_cfa_offset 4
 522              		.cfi_offset 14, -4
 523 0002 83B0     		sub	sp, sp, #12
 524              		.cfi_def_cfa_offset 16
 525 0004 0190     		str	r0, [sp, #4]
 526              		.loc 1 316 0
 527 0006 1320     		movs	r0, #19
 528 0008 B021     		movs	r1, #176
 529 000a FFF7FEFF 		bl	nvicEnableVector
 530              		.loc 1 318 0
 531 000e 1420     		movs	r0, #20
 532 0010 B021     		movs	r1, #176
 533 0012 FFF7FEFF 		bl	nvicEnableVector
 534              		.loc 1 320 0
 535 0016 1520     		movs	r0, #21
 536 0018 B021     		movs	r1, #176
 537 001a FFF7FEFF 		bl	nvicEnableVector
 538              		.loc 1 322 0
 539 001e 1620     		movs	r0, #22
 540 0020 B021     		movs	r1, #176
 541 0022 FFF7FEFF 		bl	nvicEnableVector
 542              		.loc 1 325 0
 543 0026 124B     		ldr	r3, .L38
 544 0028 114A     		ldr	r2, .L38
 545 002a D269     		ldr	r2, [r2, #28]
 546 002c 42F00072 		orr	r2, r2, #33554432
 547 0030 DA61     		str	r2, [r3, #28]
 548              		.loc 1 328 0
 549 0032 019B     		ldr	r3, [sp, #4]
 550 0034 0222     		movs	r2, #2
 551 0036 1A70     		strb	r2, [r3]
 552              		.loc 1 329 0
 553 0038 019B     		ldr	r3, [sp, #4]
 554 003a DB6D     		ldr	r3, [r3, #92]
 555 003c 0122     		movs	r2, #1
 556 003e 1A60     		str	r2, [r3]
 557              		.loc 1 330 0
 558 0040 00BF     		nop
 559              	.L37:
ARM GAS  /tmp/ccEA7YA6.s 			page 11


 560              		.loc 1 330 0 is_stmt 0 discriminator 1
 561 0042 019B     		ldr	r3, [sp, #4]
 562 0044 DB6D     		ldr	r3, [r3, #92]
 563 0046 5B68     		ldr	r3, [r3, #4]
 564 0048 03F00103 		and	r3, r3, #1
 565 004c 002B     		cmp	r3, #0
 566 004e F8D0     		beq	.L37
 567              		.loc 1 340 0 is_stmt 1
 568 0050 019B     		ldr	r3, [sp, #4]
 569 0052 DB6D     		ldr	r3, [r3, #92]
 570 0054 074A     		ldr	r2, .L38+4
 571 0056 DA61     		str	r2, [r3, #28]
 572              		.loc 1 350 0
 573 0058 019B     		ldr	r3, [sp, #4]
 574 005a DB6D     		ldr	r3, [r3, #92]
 575 005c 9022     		movs	r2, #144
 576 005e 1A60     		str	r2, [r3]
 577              		.loc 1 353 0
 578 0060 019B     		ldr	r3, [sp, #4]
 579 0062 DB6D     		ldr	r3, [r3, #92]
 580 0064 044A     		ldr	r2, .L38+8
 581 0066 5A61     		str	r2, [r3, #20]
 582              		.loc 1 356 0
 583 0068 03B0     		add	sp, sp, #12
 584              		@ sp needed
 585 006a 5DF804FB 		ldr	pc, [sp], #4
 586              	.L39:
 587 006e 00BF     		.align	2
 588              	.L38:
 589 0070 00100240 		.word	1073876992
 590 0074 03002400 		.word	2359299
 591 0078 5B8F0100 		.word	102235
 592              		.cfi_endproc
 593              	.LFE127:
 594              		.size	rtcan_lld_can_start, .-rtcan_lld_can_start
 595 007c AFF30080 		.section	.text.rtcan_lld_can_stop,"ax",%progbits
 596              		.align	2
 597              		.p2align 4,,15
 598              		.global	rtcan_lld_can_stop
 599              		.thumb
 600              		.thumb_func
 601              		.type	rtcan_lld_can_stop, %function
 602              	rtcan_lld_can_stop:
 603              	.LFB128:
 604              		.loc 1 365 0
 605              		.cfi_startproc
 606              		@ args = 0, pretend = 0, frame = 8
 607              		@ frame_needed = 0, uses_anonymous_args = 0
 608 0000 00B5     		push	{lr}
 609              		.cfi_def_cfa_offset 4
 610              		.cfi_offset 14, -4
 611 0002 83B0     		sub	sp, sp, #12
 612              		.cfi_def_cfa_offset 16
 613 0004 0190     		str	r0, [sp, #4]
 614              		.loc 1 368 0
 615 0006 019B     		ldr	r3, [sp, #4]
 616 0008 1B78     		ldrb	r3, [r3]	@ zero_extendqisi2
ARM GAS  /tmp/ccEA7YA6.s 			page 12


 617 000a 062B     		cmp	r3, #6
 618 000c 03D0     		beq	.L41
 619              		.loc 1 368 0 is_stmt 0 discriminator 1
 620 000e 019B     		ldr	r3, [sp, #4]
 621 0010 1B78     		ldrb	r3, [r3]	@ zero_extendqisi2
 622 0012 052B     		cmp	r3, #5
 623 0014 1BD1     		bne	.L40
 624              	.L41:
 625              		.loc 1 370 0 is_stmt 1
 626 0016 019A     		ldr	r2, [sp, #4]
 627 0018 0E4B     		ldr	r3, .L43
 628 001a 9A42     		cmp	r2, r3
 629 001c 17D1     		bne	.L40
 630              		.loc 1 377 0
 631 001e 0E4B     		ldr	r3, .L43+4
 632 0020 0E4A     		ldr	r2, .L43+8
 633 0022 1A60     		str	r2, [r3]
 634              		.loc 1 378 0
 635 0024 0C4B     		ldr	r3, .L43+4
 636 0026 0022     		movs	r2, #0
 637 0028 5A61     		str	r2, [r3, #20]
 638              		.loc 1 379 0
 639 002a 1320     		movs	r0, #19
 640 002c FFF7FEFF 		bl	nvicDisableVector
 641              		.loc 1 380 0
 642 0030 1420     		movs	r0, #20
 643 0032 FFF7FEFF 		bl	nvicDisableVector
 644              		.loc 1 381 0
 645 0036 1520     		movs	r0, #21
 646 0038 FFF7FEFF 		bl	nvicDisableVector
 647              		.loc 1 382 0
 648 003c 1620     		movs	r0, #22
 649 003e FFF7FEFF 		bl	nvicDisableVector
 650              		.loc 1 383 0
 651 0042 074B     		ldr	r3, .L43+12
 652 0044 064A     		ldr	r2, .L43+12
 653 0046 D269     		ldr	r2, [r2, #28]
 654 0048 22F00072 		bic	r2, r2, #33554432
 655 004c DA61     		str	r2, [r3, #28]
 656              	.L40:
 657              		.loc 1 398 0
 658 004e 03B0     		add	sp, sp, #12
 659              		@ sp needed
 660 0050 5DF804FB 		ldr	pc, [sp], #4
 661              	.L44:
 662              		.align	2
 663              	.L43:
 664 0054 00000000 		.word	RTCAND1
 665 0058 00640040 		.word	1073767424
 666 005c 02000100 		.word	65538
 667 0060 00100240 		.word	1073876992
 668              		.cfi_endproc
 669              	.LFE128:
 670              		.size	rtcan_lld_can_stop, .-rtcan_lld_can_stop
 671 0064 AFF30080 		.section	.text.rtcan_lld_can_txe,"ax",%progbits
 671      AFF30080 
 671      AFF30080 
ARM GAS  /tmp/ccEA7YA6.s 			page 13


 672              		.align	2
 673              		.p2align 4,,15
 674              		.global	rtcan_lld_can_txe
 675              		.thumb
 676              		.thumb_func
 677              		.type	rtcan_lld_can_txe, %function
 678              	rtcan_lld_can_txe:
 679              	.LFB129:
 680              		.loc 1 411 0
 681              		.cfi_startproc
 682              		@ args = 0, pretend = 0, frame = 8
 683              		@ frame_needed = 0, uses_anonymous_args = 0
 684              		@ link register save eliminated.
 685 0000 82B0     		sub	sp, sp, #8
 686              		.cfi_def_cfa_offset 8
 687 0002 0190     		str	r0, [sp, #4]
 688              		.loc 1 414 0
 689 0004 019B     		ldr	r3, [sp, #4]
 690 0006 DB6D     		ldr	r3, [r3, #92]
 691 0008 9B68     		ldr	r3, [r3, #8]
 692 000a 03F0E053 		and	r3, r3, #469762048
 693 000e B3F1E05F 		cmp	r3, #469762048
 694 0012 14BF     		ite	ne
 695 0014 0023     		movne	r3, #0
 696 0016 0123     		moveq	r3, #1
 697 0018 DBB2     		uxtb	r3, r3
 698              		.loc 1 415 0
 699 001a 1846     		mov	r0, r3
 700 001c 02B0     		add	sp, sp, #8
 701              		@ sp needed
 702 001e 7047     		bx	lr
 703              		.cfi_endproc
 704              	.LFE129:
 705              		.size	rtcan_lld_can_txe, .-rtcan_lld_can_txe
 706              		.section	.text.rtcan_lld_can_transmit,"ax",%progbits
 707              		.align	2
 708              		.p2align 4,,15
 709              		.global	rtcan_lld_can_transmit
 710              		.thumb
 711              		.thumb_func
 712              		.type	rtcan_lld_can_transmit, %function
 713              	rtcan_lld_can_transmit:
 714              	.LFB130:
 715              		.loc 1 425 0
 716              		.cfi_startproc
 717              		@ args = 0, pretend = 0, frame = 16
 718              		@ frame_needed = 0, uses_anonymous_args = 0
 719              		@ link register save eliminated.
 720 0000 84B0     		sub	sp, sp, #16
 721              		.cfi_def_cfa_offset 16
 722 0002 0190     		str	r0, [sp, #4]
 723 0004 0091     		str	r1, [sp]
 724              		.loc 1 426 0
 725 0006 019B     		ldr	r3, [sp, #4]
 726 0008 DB6D     		ldr	r3, [r3, #92]
 727 000a 0393     		str	r3, [sp, #12]
 728              		.loc 1 430 0
ARM GAS  /tmp/ccEA7YA6.s 			page 14


 729 000c 009B     		ldr	r3, [sp]
 730 000e 0022     		movs	r2, #0
 731 0010 5A71     		strb	r2, [r3, #5]
 732              		.loc 1 431 0
 733 0012 009B     		ldr	r3, [sp]
 734 0014 5B79     		ldrb	r3, [r3, #5]	@ zero_extendqisi2
 735 0016 1833     		adds	r3, r3, #24
 736 0018 1B01     		lsls	r3, r3, #4
 737 001a 039A     		ldr	r2, [sp, #12]
 738 001c 1344     		add	r3, r3, r2
 739 001e 0293     		str	r3, [sp, #8]
 740              		.loc 1 433 0
 741 0020 009B     		ldr	r3, [sp]
 742 0022 1B68     		ldr	r3, [r3]
 743 0024 C3F31C03 		ubfx	r3, r3, #0, #29
 744 0028 DB00     		lsls	r3, r3, #3
 745 002a 43F00402 		orr	r2, r3, #4
 746 002e 029B     		ldr	r3, [sp, #8]
 747 0030 1A60     		str	r2, [r3]
 748              		.loc 1 434 0
 749 0032 009B     		ldr	r3, [sp]
 750 0034 1B79     		ldrb	r3, [r3, #4]
 751 0036 C3F30303 		ubfx	r3, r3, #0, #4
 752 003a DBB2     		uxtb	r3, r3
 753 003c 1A46     		mov	r2, r3
 754 003e 029B     		ldr	r3, [sp, #8]
 755 0040 5A60     		str	r2, [r3, #4]
 756              		.loc 1 436 0
 757 0042 009B     		ldr	r3, [sp]
 758 0044 9A68     		ldr	r2, [r3, #8]
 759 0046 029B     		ldr	r3, [sp, #8]
 760 0048 9A60     		str	r2, [r3, #8]
 761              		.loc 1 437 0
 762 004a 009B     		ldr	r3, [sp]
 763 004c DA68     		ldr	r2, [r3, #12]
 764 004e 029B     		ldr	r3, [sp, #8]
 765 0050 DA60     		str	r2, [r3, #12]
 766              		.loc 1 438 0
 767 0052 029B     		ldr	r3, [sp, #8]
 768 0054 1B68     		ldr	r3, [r3]
 769 0056 43F00102 		orr	r2, r3, #1
 770 005a 029B     		ldr	r3, [sp, #8]
 771 005c 1A60     		str	r2, [r3]
 772              		.loc 1 439 0
 773 005e 04B0     		add	sp, sp, #16
 774              		@ sp needed
 775 0060 7047     		bx	lr
 776              		.cfi_endproc
 777              	.LFE130:
 778              		.size	rtcan_lld_can_transmit, .-rtcan_lld_can_transmit
 779 0062 00BFAFF3 		.section	.text.rtcan_lld_can_rxne,"ax",%progbits
 779      0080AFF3 
 779      0080AFF3 
 779      0080
 780              		.align	2
 781              		.p2align 4,,15
 782              		.global	rtcan_lld_can_rxne
ARM GAS  /tmp/ccEA7YA6.s 			page 15


 783              		.thumb
 784              		.thumb_func
 785              		.type	rtcan_lld_can_rxne, %function
 786              	rtcan_lld_can_rxne:
 787              	.LFB131:
 788              		.loc 1 452 0
 789              		.cfi_startproc
 790              		@ args = 0, pretend = 0, frame = 8
 791              		@ frame_needed = 0, uses_anonymous_args = 0
 792              		@ link register save eliminated.
 793 0000 82B0     		sub	sp, sp, #8
 794              		.cfi_def_cfa_offset 8
 795 0002 0190     		str	r0, [sp, #4]
 796              		.loc 1 454 0
 797 0004 019B     		ldr	r3, [sp, #4]
 798 0006 DB6D     		ldr	r3, [r3, #92]
 799 0008 DB68     		ldr	r3, [r3, #12]
 800 000a 03F00303 		and	r3, r3, #3
 801 000e 002B     		cmp	r3, #0
 802 0010 06D1     		bne	.L49
 803              		.loc 1 454 0 is_stmt 0 discriminator 2
 804 0012 019B     		ldr	r3, [sp, #4]
 805 0014 DB6D     		ldr	r3, [r3, #92]
 806 0016 1B69     		ldr	r3, [r3, #16]
 807 0018 03F00303 		and	r3, r3, #3
 808 001c 002B     		cmp	r3, #0
 809 001e 01D0     		beq	.L50
 810              	.L49:
 811              		.loc 1 454 0 discriminator 1
 812 0020 0123     		movs	r3, #1
 813 0022 00E0     		b	.L51
 814              	.L50:
 815              		.loc 1 454 0 discriminator 3
 816 0024 0023     		movs	r3, #0
 817              	.L51:
 818              		.loc 1 454 0 discriminator 4
 819 0026 03F00103 		and	r3, r3, #1
 820 002a DBB2     		uxtb	r3, r3
 821              		.loc 1 455 0 is_stmt 1 discriminator 4
 822 002c 1846     		mov	r0, r3
 823 002e 02B0     		add	sp, sp, #8
 824              		@ sp needed
 825 0030 7047     		bx	lr
 826              		.cfi_endproc
 827              	.LFE131:
 828              		.size	rtcan_lld_can_rxne, .-rtcan_lld_can_rxne
 829 0032 00BFAFF3 		.section	.text.rtcan_lld_can_receive,"ax",%progbits
 829      0080AFF3 
 829      0080AFF3 
 829      0080
 830              		.align	2
 831              		.p2align 4,,15
 832              		.global	rtcan_lld_can_receive
 833              		.thumb
 834              		.thumb_func
 835              		.type	rtcan_lld_can_receive, %function
 836              	rtcan_lld_can_receive:
ARM GAS  /tmp/ccEA7YA6.s 			page 16


 837              	.LFB132:
 838              		.loc 1 465 0
 839              		.cfi_startproc
 840              		@ args = 0, pretend = 0, frame = 16
 841              		@ frame_needed = 0, uses_anonymous_args = 0
 842              		@ link register save eliminated.
 843 0000 84B0     		sub	sp, sp, #16
 844              		.cfi_def_cfa_offset 16
 845 0002 0190     		str	r0, [sp, #4]
 846 0004 0091     		str	r1, [sp]
 847              		.loc 1 466 0
 848 0006 019B     		ldr	r3, [sp, #4]
 849 0008 DB6D     		ldr	r3, [r3, #92]
 850 000a 0393     		str	r3, [sp, #12]
 851              		.loc 1 468 0
 852 000c 039B     		ldr	r3, [sp, #12]
 853 000e DB68     		ldr	r3, [r3, #12]
 854 0010 03F00303 		and	r3, r3, #3
 855 0014 002B     		cmp	r3, #0
 856 0016 37D0     		beq	.L54
 857              		.loc 1 470 0
 858 0018 039B     		ldr	r3, [sp, #12]
 859 001a D3F8B031 		ldr	r3, [r3, #432]
 860 001e DB08     		lsrs	r3, r3, #3
 861 0020 23F06041 		bic	r1, r3, #-536870912
 862 0024 009A     		ldr	r2, [sp]
 863 0026 1368     		ldr	r3, [r2]
 864 0028 61F31C03 		bfi	r3, r1, #0, #29
 865 002c 1360     		str	r3, [r2]
 866              		.loc 1 471 0
 867 002e 039B     		ldr	r3, [sp, #12]
 868 0030 D3F8B431 		ldr	r3, [r3, #436]
 869 0034 DBB2     		uxtb	r3, r3
 870 0036 03F00F03 		and	r3, r3, #15
 871 003a D9B2     		uxtb	r1, r3
 872 003c 009A     		ldr	r2, [sp]
 873 003e 1379     		ldrb	r3, [r2, #4]
 874 0040 61F30303 		bfi	r3, r1, #0, #4
 875 0044 1371     		strb	r3, [r2, #4]
 876              		.loc 1 472 0
 877 0046 039B     		ldr	r3, [sp, #12]
 878 0048 D3F8B821 		ldr	r2, [r3, #440]
 879 004c 009B     		ldr	r3, [sp]
 880 004e 9A60     		str	r2, [r3, #8]
 881              		.loc 1 473 0
 882 0050 039B     		ldr	r3, [sp, #12]
 883 0052 D3F8BC21 		ldr	r2, [r3, #444]
 884 0056 009B     		ldr	r3, [sp]
 885 0058 DA60     		str	r2, [r3, #12]
 886              		.loc 1 474 0
 887 005a 039B     		ldr	r3, [sp, #12]
 888 005c D3F8B431 		ldr	r3, [r3, #436]
 889 0060 1B0A     		lsrs	r3, r3, #8
 890 0062 DAB2     		uxtb	r2, r3
 891 0064 009B     		ldr	r3, [sp]
 892 0066 5A71     		strb	r2, [r3, #5]
 893              		.loc 1 477 0
ARM GAS  /tmp/ccEA7YA6.s 			page 17


 894 0068 039B     		ldr	r3, [sp, #12]
 895 006a 2022     		movs	r2, #32
 896 006c DA60     		str	r2, [r3, #12]
 897              		.loc 1 481 0
 898 006e 039B     		ldr	r3, [sp, #12]
 899 0070 DB68     		ldr	r3, [r3, #12]
 900 0072 03F00303 		and	r3, r3, #3
 901 0076 002B     		cmp	r3, #0
 902 0078 43D1     		bne	.L53
 903              		.loc 1 482 0
 904 007a 039B     		ldr	r3, [sp, #12]
 905 007c 5B69     		ldr	r3, [r3, #20]
 906 007e 43F00202 		orr	r2, r3, #2
 907 0082 039B     		ldr	r3, [sp, #12]
 908 0084 5A61     		str	r2, [r3, #20]
 909 0086 3CE0     		b	.L53
 910              	.L54:
 911              		.loc 1 484 0
 912 0088 039B     		ldr	r3, [sp, #12]
 913 008a 1B69     		ldr	r3, [r3, #16]
 914 008c 03F00303 		and	r3, r3, #3
 915 0090 002B     		cmp	r3, #0
 916 0092 36D0     		beq	.L53
 917              		.loc 1 486 0
 918 0094 039B     		ldr	r3, [sp, #12]
 919 0096 D3F8C031 		ldr	r3, [r3, #448]
 920 009a DB08     		lsrs	r3, r3, #3
 921 009c 23F06041 		bic	r1, r3, #-536870912
 922 00a0 009A     		ldr	r2, [sp]
 923 00a2 1368     		ldr	r3, [r2]
 924 00a4 61F31C03 		bfi	r3, r1, #0, #29
 925 00a8 1360     		str	r3, [r2]
 926              		.loc 1 487 0
 927 00aa 039B     		ldr	r3, [sp, #12]
 928 00ac D3F8C431 		ldr	r3, [r3, #452]
 929 00b0 DBB2     		uxtb	r3, r3
 930 00b2 03F00F03 		and	r3, r3, #15
 931 00b6 D9B2     		uxtb	r1, r3
 932 00b8 009A     		ldr	r2, [sp]
 933 00ba 1379     		ldrb	r3, [r2, #4]
 934 00bc 61F30303 		bfi	r3, r1, #0, #4
 935 00c0 1371     		strb	r3, [r2, #4]
 936              		.loc 1 488 0
 937 00c2 039B     		ldr	r3, [sp, #12]
 938 00c4 D3F8C821 		ldr	r2, [r3, #456]
 939 00c8 009B     		ldr	r3, [sp]
 940 00ca 9A60     		str	r2, [r3, #8]
 941              		.loc 1 489 0
 942 00cc 039B     		ldr	r3, [sp, #12]
 943 00ce D3F8CC21 		ldr	r2, [r3, #460]
 944 00d2 009B     		ldr	r3, [sp]
 945 00d4 DA60     		str	r2, [r3, #12]
 946              		.loc 1 490 0
 947 00d6 039B     		ldr	r3, [sp, #12]
 948 00d8 D3F8C431 		ldr	r3, [r3, #452]
 949 00dc 1B0A     		lsrs	r3, r3, #8
 950 00de DAB2     		uxtb	r2, r3
ARM GAS  /tmp/ccEA7YA6.s 			page 18


 951 00e0 009B     		ldr	r3, [sp]
 952 00e2 5A71     		strb	r2, [r3, #5]
 953              		.loc 1 493 0
 954 00e4 039B     		ldr	r3, [sp, #12]
 955 00e6 2022     		movs	r2, #32
 956 00e8 1A61     		str	r2, [r3, #16]
 957              		.loc 1 497 0
 958 00ea 039B     		ldr	r3, [sp, #12]
 959 00ec 1B69     		ldr	r3, [r3, #16]
 960 00ee 03F00303 		and	r3, r3, #3
 961 00f2 002B     		cmp	r3, #0
 962 00f4 05D1     		bne	.L53
 963              		.loc 1 498 0
 964 00f6 039B     		ldr	r3, [sp, #12]
 965 00f8 5B69     		ldr	r3, [r3, #20]
 966 00fa 43F01002 		orr	r2, r3, #16
 967 00fe 039B     		ldr	r3, [sp, #12]
 968 0100 5A61     		str	r2, [r3, #20]
 969              	.L53:
 970              		.loc 1 501 0
 971 0102 04B0     		add	sp, sp, #16
 972              		@ sp needed
 973 0104 7047     		bx	lr
 974              		.cfi_endproc
 975              	.LFE132:
 976              		.size	rtcan_lld_can_receive, .-rtcan_lld_can_receive
 977 0106 00BFAFF3 		.section	.text.rtcan_lld_can_addfilter,"ax",%progbits
 977      0080AFF3 
 977      0080
 978              		.align	2
 979              		.p2align 4,,15
 980              		.global	rtcan_lld_can_addfilter
 981              		.thumb
 982              		.thumb_func
 983              		.type	rtcan_lld_can_addfilter, %function
 984              	rtcan_lld_can_addfilter:
 985              	.LFB133:
 986              		.loc 1 517 0
 987              		.cfi_startproc
 988              		@ args = 0, pretend = 0, frame = 32
 989              		@ frame_needed = 0, uses_anonymous_args = 0
 990              		@ link register save eliminated.
 991 0000 88B0     		sub	sp, sp, #32
 992              		.cfi_def_cfa_offset 32
 993 0002 0390     		str	r0, [sp, #12]
 994 0004 0291     		str	r1, [sp, #8]
 995 0006 0192     		str	r2, [sp, #4]
 996 0008 0093     		str	r3, [sp]
 997              		.loc 1 518 0
 998 000a 039B     		ldr	r3, [sp, #12]
 999 000c DB6D     		ldr	r3, [r3, #92]
 1000 000e 0793     		str	r3, [sp, #28]
 1001              		.loc 1 523 0
 1002 0010 304B     		ldr	r3, .L60
 1003 0012 1B68     		ldr	r3, [r3]
 1004 0014 1B2B     		cmp	r3, #27
 1005 0016 59D8     		bhi	.L58
ARM GAS  /tmp/ccEA7YA6.s 			page 19


 1006              		.loc 1 525 0
 1007 0018 2E4B     		ldr	r3, .L60
 1008 001a 1B68     		ldr	r3, [r3]
 1009              		.loc 1 524 0
 1010 001c 4833     		adds	r3, r3, #72
 1011 001e DB00     		lsls	r3, r3, #3
 1012 0020 079A     		ldr	r2, [sp, #28]
 1013 0022 1344     		add	r3, r3, r2
 1014 0024 0693     		str	r3, [sp, #24]
 1015              		.loc 1 526 0
 1016 0026 2B4B     		ldr	r3, .L60
 1017 0028 1B68     		ldr	r3, [r3]
 1018 002a 0122     		movs	r2, #1
 1019 002c 02FA03F3 		lsl	r3, r2, r3
 1020 0030 0593     		str	r3, [sp, #20]
 1021              		.loc 1 527 0
 1022 0032 079B     		ldr	r3, [sp, #28]
 1023 0034 D3F80032 		ldr	r3, [r3, #512]
 1024 0038 43F00102 		orr	r2, r3, #1
 1025 003c 079B     		ldr	r3, [sp, #28]
 1026 003e C3F80022 		str	r2, [r3, #512]
 1027              		.loc 1 528 0
 1028 0042 079B     		ldr	r3, [sp, #28]
 1029 0044 D3F81C22 		ldr	r2, [r3, #540]
 1030 0048 059B     		ldr	r3, [sp, #20]
 1031 004a DB43     		mvns	r3, r3
 1032 004c 1A40     		ands	r2, r2, r3
 1033 004e 079B     		ldr	r3, [sp, #28]
 1034 0050 C3F81C22 		str	r2, [r3, #540]
 1035              		.loc 1 532 0
 1036 0054 079B     		ldr	r3, [sp, #28]
 1037 0056 D3F80422 		ldr	r2, [r3, #516]
 1038 005a 059B     		ldr	r3, [sp, #20]
 1039 005c DB43     		mvns	r3, r3
 1040 005e 1A40     		ands	r2, r2, r3
 1041 0060 079B     		ldr	r3, [sp, #28]
 1042 0062 C3F80422 		str	r2, [r3, #516]
 1043              		.loc 1 542 0
 1044 0066 079B     		ldr	r3, [sp, #28]
 1045 0068 D3F80C22 		ldr	r2, [r3, #524]
 1046 006c 059B     		ldr	r3, [sp, #20]
 1047 006e 1A43     		orrs	r2, r2, r3
 1048 0070 079B     		ldr	r3, [sp, #28]
 1049 0072 C3F80C22 		str	r2, [r3, #524]
 1050              		.loc 1 543 0
 1051 0076 079B     		ldr	r3, [sp, #28]
 1052 0078 D3F80422 		ldr	r2, [r3, #516]
 1053 007c 059B     		ldr	r3, [sp, #20]
 1054 007e DB43     		mvns	r3, r3
 1055 0080 1A40     		ands	r2, r2, r3
 1056 0082 079B     		ldr	r3, [sp, #28]
 1057 0084 C3F80422 		str	r2, [r3, #516]
 1058              		.loc 1 544 0
 1059 0088 029B     		ldr	r3, [sp, #8]
 1060 008a DA00     		lsls	r2, r3, #3
 1061 008c 069B     		ldr	r3, [sp, #24]
 1062 008e 1A60     		str	r2, [r3]
ARM GAS  /tmp/ccEA7YA6.s 			page 20


 1063              		.loc 1 545 0
 1064 0090 019B     		ldr	r3, [sp, #4]
 1065 0092 DA00     		lsls	r2, r3, #3
 1066 0094 069B     		ldr	r3, [sp, #24]
 1067 0096 5A60     		str	r2, [r3, #4]
 1068              		.loc 1 563 0
 1069 0098 079B     		ldr	r3, [sp, #28]
 1070 009a D3F81C22 		ldr	r2, [r3, #540]
 1071 009e 059B     		ldr	r3, [sp, #20]
 1072 00a0 1A43     		orrs	r2, r2, r3
 1073 00a2 079B     		ldr	r3, [sp, #28]
 1074 00a4 C3F81C22 		str	r2, [r3, #540]
 1075              		.loc 1 564 0
 1076 00a8 079B     		ldr	r3, [sp, #28]
 1077 00aa D3F80032 		ldr	r3, [r3, #512]
 1078 00ae 23F00102 		bic	r2, r3, #1
 1079 00b2 079B     		ldr	r3, [sp, #28]
 1080 00b4 C3F80022 		str	r2, [r3, #512]
 1081              		.loc 1 566 0
 1082 00b8 064B     		ldr	r3, .L60
 1083 00ba 1B68     		ldr	r3, [r3]
 1084 00bc 591C     		adds	r1, r3, #1
 1085 00be 054A     		ldr	r2, .L60
 1086 00c0 1160     		str	r1, [r2]
 1087 00c2 DAB2     		uxtb	r2, r3
 1088 00c4 009B     		ldr	r3, [sp]
 1089 00c6 1A70     		strb	r2, [r3]
 1090              		.loc 1 567 0
 1091 00c8 0123     		movs	r3, #1
 1092 00ca 00E0     		b	.L59
 1093              	.L58:
 1094              		.loc 1 569 0
 1095 00cc 0023     		movs	r3, #0
 1096              	.L59:
 1097              		.loc 1 571 0
 1098 00ce 1846     		mov	r0, r3
 1099 00d0 08B0     		add	sp, sp, #32
 1100              		@ sp needed
 1101 00d2 7047     		bx	lr
 1102              	.L61:
 1103              		.align	2
 1104              	.L60:
 1105 00d4 00000000 		.word	next_fid.7257
 1106              		.cfi_endproc
 1107              	.LFE133:
 1108              		.size	rtcan_lld_can_addfilter, .-rtcan_lld_can_addfilter
 1109 00d8 AFF30080 		.section	.bss.next_fid.7257,"aw",%nobits
 1109      AFF30080 
 1110              		.align	2
 1111              		.type	next_fid.7257, %object
 1112              		.size	next_fid.7257, 4
 1113              	next_fid.7257:
 1114 0000 00000000 		.space	4
 1115              		.text
 1116              	.Letext0:
 1117              		.file 2 "/usr/include/newlib/machine/_default_types.h"
 1118              		.file 3 "/usr/include/newlib/stdint.h"
ARM GAS  /tmp/ccEA7YA6.s 			page 21


 1119              		.file 4 "/home/dave/r2p-sdk/core/ChibiOS/os/ports/GCC/ARMCMx/chtypes.h"
 1120              		.file 5 "/home/dave/r2p-sdk/core/ChibiOS/os/hal/platforms/STM32F30x/stm32f30x.h"
 1121              		.file 6 "/home/dave/r2p-sdk/core/RTCAN/include/rtcan.h"
 1122              		.file 7 "/home/dave/r2p-sdk/core/RTCAN/include/msgqueue.h"
 1123              		.file 8 "/home/dave/r2p-sdk/core/ChibiOS/os/ports/common/ARMCMx/CMSIS/include/core_cm4.h"
 1124              		.section	.debug_info,"",%progbits
 1125              	.Ldebug_info0:
 1126 0000 B70C0000 		.4byte	0xcb7
 1127 0004 0400     		.2byte	0x4
 1128 0006 00000000 		.4byte	.Ldebug_abbrev0
 1129 000a 04       		.byte	0x4
 1130 000b 01       		.uleb128 0x1
 1131 000c BA040000 		.4byte	.LASF154
 1132 0010 01       		.byte	0x1
 1133 0011 CF000000 		.4byte	.LASF155
 1134 0015 00000000 		.4byte	.Ldebug_ranges0+0
 1135 0019 00000000 		.4byte	0
 1136 001d 00000000 		.4byte	.Ldebug_line0
 1137 0021 02       		.uleb128 0x2
 1138 0022 01       		.byte	0x1
 1139 0023 06       		.byte	0x6
 1140 0024 1F010000 		.4byte	.LASF0
 1141 0028 03       		.uleb128 0x3
 1142 0029 43000000 		.4byte	.LASF3
 1143 002d 02       		.byte	0x2
 1144 002e 1D       		.byte	0x1d
 1145 002f 33000000 		.4byte	0x33
 1146 0033 02       		.uleb128 0x2
 1147 0034 01       		.byte	0x1
 1148 0035 08       		.byte	0x8
 1149 0036 72040000 		.4byte	.LASF1
 1150 003a 02       		.uleb128 0x2
 1151 003b 02       		.byte	0x2
 1152 003c 05       		.byte	0x5
 1153 003d 99040000 		.4byte	.LASF2
 1154 0041 03       		.uleb128 0x3
 1155 0042 11020000 		.4byte	.LASF4
 1156 0046 02       		.byte	0x2
 1157 0047 2B       		.byte	0x2b
 1158 0048 4C000000 		.4byte	0x4c
 1159 004c 02       		.uleb128 0x2
 1160 004d 02       		.byte	0x2
 1161 004e 07       		.byte	0x7
 1162 004f 83060000 		.4byte	.LASF5
 1163 0053 03       		.uleb128 0x3
 1164 0054 55060000 		.4byte	.LASF6
 1165 0058 02       		.byte	0x2
 1166 0059 3F       		.byte	0x3f
 1167 005a 5E000000 		.4byte	0x5e
 1168 005e 02       		.uleb128 0x2
 1169 005f 04       		.byte	0x4
 1170 0060 05       		.byte	0x5
 1171 0061 97010000 		.4byte	.LASF7
 1172 0065 03       		.uleb128 0x3
 1173 0066 2F020000 		.4byte	.LASF8
 1174 006a 02       		.byte	0x2
 1175 006b 41       		.byte	0x41
ARM GAS  /tmp/ccEA7YA6.s 			page 22


 1176 006c 70000000 		.4byte	0x70
 1177 0070 02       		.uleb128 0x2
 1178 0071 04       		.byte	0x4
 1179 0072 07       		.byte	0x7
 1180 0073 B0020000 		.4byte	.LASF9
 1181 0077 02       		.uleb128 0x2
 1182 0078 08       		.byte	0x8
 1183 0079 05       		.byte	0x5
 1184 007a DF010000 		.4byte	.LASF10
 1185 007e 02       		.uleb128 0x2
 1186 007f 08       		.byte	0x8
 1187 0080 07       		.byte	0x7
 1188 0081 8B000000 		.4byte	.LASF11
 1189 0085 04       		.uleb128 0x4
 1190 0086 04       		.byte	0x4
 1191 0087 05       		.byte	0x5
 1192 0088 696E7400 		.ascii	"int\000"
 1193 008c 02       		.uleb128 0x2
 1194 008d 04       		.byte	0x4
 1195 008e 07       		.byte	0x7
 1196 008f 8E020000 		.4byte	.LASF12
 1197 0093 03       		.uleb128 0x3
 1198 0094 0D070000 		.4byte	.LASF13
 1199 0098 03       		.byte	0x3
 1200 0099 2A       		.byte	0x2a
 1201 009a 28000000 		.4byte	0x28
 1202 009e 03       		.uleb128 0x3
 1203 009f 9B020000 		.4byte	.LASF14
 1204 00a3 03       		.byte	0x3
 1205 00a4 36       		.byte	0x36
 1206 00a5 41000000 		.4byte	0x41
 1207 00a9 03       		.uleb128 0x3
 1208 00aa 6A040000 		.4byte	.LASF15
 1209 00ae 03       		.byte	0x3
 1210 00af 41       		.byte	0x41
 1211 00b0 53000000 		.4byte	0x53
 1212 00b4 03       		.uleb128 0x3
 1213 00b5 F6050000 		.4byte	.LASF16
 1214 00b9 03       		.byte	0x3
 1215 00ba 42       		.byte	0x42
 1216 00bb 65000000 		.4byte	0x65
 1217 00bf 03       		.uleb128 0x3
 1218 00c0 3C010000 		.4byte	.LASF17
 1219 00c4 04       		.byte	0x4
 1220 00c5 2B       		.byte	0x2b
 1221 00c6 CA000000 		.4byte	0xca
 1222 00ca 02       		.uleb128 0x2
 1223 00cb 01       		.byte	0x1
 1224 00cc 02       		.byte	0x2
 1225 00cd 64040000 		.4byte	.LASF18
 1226 00d1 03       		.uleb128 0x3
 1227 00d2 AA060000 		.4byte	.LASF19
 1228 00d6 04       		.byte	0x4
 1229 00d7 34       		.byte	0x34
 1230 00d8 B4000000 		.4byte	0xb4
 1231 00dc 05       		.uleb128 0x5
 1232 00dd 04       		.byte	0x4
ARM GAS  /tmp/ccEA7YA6.s 			page 23


 1233 00de 06       		.uleb128 0x6
 1234 00df B4000000 		.4byte	0xb4
 1235 00e3 02       		.uleb128 0x2
 1236 00e4 04       		.byte	0x4
 1237 00e5 07       		.byte	0x7
 1238 00e6 A7030000 		.4byte	.LASF20
 1239 00ea 02       		.uleb128 0x2
 1240 00eb 01       		.byte	0x1
 1241 00ec 08       		.byte	0x8
 1242 00ed 08060000 		.4byte	.LASF21
 1243 00f1 07       		.uleb128 0x7
 1244 00f2 04       		.byte	0x4
 1245 00f3 93000000 		.4byte	0x93
 1246 00f7 07       		.uleb128 0x7
 1247 00f8 04       		.byte	0x4
 1248 00f9 FD000000 		.4byte	0xfd
 1249 00fd 08       		.uleb128 0x8
 1250 00fe 93000000 		.4byte	0x93
 1251 0102 09       		.uleb128 0x9
 1252 0103 B4000000 		.4byte	0xb4
 1253 0107 12010000 		.4byte	0x112
 1254 010b 0A       		.uleb128 0xa
 1255 010c E3000000 		.4byte	0xe3
 1256 0110 07       		.byte	0x7
 1257 0111 00       		.byte	0
 1258 0112 09       		.uleb128 0x9
 1259 0113 B4000000 		.4byte	0xb4
 1260 0117 22010000 		.4byte	0x122
 1261 011b 0A       		.uleb128 0xa
 1262 011c E3000000 		.4byte	0xe3
 1263 0120 01       		.byte	0x1
 1264 0121 00       		.byte	0
 1265 0122 06       		.uleb128 0x6
 1266 0123 9E000000 		.4byte	0x9e
 1267 0127 06       		.uleb128 0x6
 1268 0128 A9000000 		.4byte	0xa9
 1269 012c 0B       		.uleb128 0xb
 1270 012d 10       		.byte	0x10
 1271 012e 05       		.byte	0x5
 1272 012f 6C01     		.2byte	0x16c
 1273 0131 6A010000 		.4byte	0x16a
 1274 0135 0C       		.uleb128 0xc
 1275 0136 54495200 		.ascii	"TIR\000"
 1276 013a 05       		.byte	0x5
 1277 013b 6E01     		.2byte	0x16e
 1278 013d DE000000 		.4byte	0xde
 1279 0141 00       		.byte	0
 1280 0142 0D       		.uleb128 0xd
 1281 0143 58020000 		.4byte	.LASF22
 1282 0147 05       		.byte	0x5
 1283 0148 6F01     		.2byte	0x16f
 1284 014a DE000000 		.4byte	0xde
 1285 014e 04       		.byte	0x4
 1286 014f 0D       		.uleb128 0xd
 1287 0150 92010000 		.4byte	.LASF23
 1288 0154 05       		.byte	0x5
 1289 0155 7001     		.2byte	0x170
ARM GAS  /tmp/ccEA7YA6.s 			page 24


 1290 0157 DE000000 		.4byte	0xde
 1291 015b 08       		.byte	0x8
 1292 015c 0D       		.uleb128 0xd
 1293 015d DB030000 		.4byte	.LASF24
 1294 0161 05       		.byte	0x5
 1295 0162 7101     		.2byte	0x171
 1296 0164 DE000000 		.4byte	0xde
 1297 0168 0C       		.byte	0xc
 1298 0169 00       		.byte	0
 1299 016a 0E       		.uleb128 0xe
 1300 016b B6010000 		.4byte	.LASF25
 1301 016f 05       		.byte	0x5
 1302 0170 7201     		.2byte	0x172
 1303 0172 2C010000 		.4byte	0x12c
 1304 0176 0B       		.uleb128 0xb
 1305 0177 10       		.byte	0x10
 1306 0178 05       		.byte	0x5
 1307 0179 7701     		.2byte	0x177
 1308 017b B4010000 		.4byte	0x1b4
 1309 017f 0C       		.uleb128 0xc
 1310 0180 52495200 		.ascii	"RIR\000"
 1311 0184 05       		.byte	0x5
 1312 0185 7901     		.2byte	0x179
 1313 0187 DE000000 		.4byte	0xde
 1314 018b 00       		.byte	0
 1315 018c 0D       		.uleb128 0xd
 1316 018d E3020000 		.4byte	.LASF26
 1317 0191 05       		.byte	0x5
 1318 0192 7A01     		.2byte	0x17a
 1319 0194 DE000000 		.4byte	0xde
 1320 0198 04       		.byte	0x4
 1321 0199 0D       		.uleb128 0xd
 1322 019a 5D020000 		.4byte	.LASF27
 1323 019e 05       		.byte	0x5
 1324 019f 7B01     		.2byte	0x17b
 1325 01a1 DE000000 		.4byte	0xde
 1326 01a5 08       		.byte	0x8
 1327 01a6 0D       		.uleb128 0xd
 1328 01a7 47060000 		.4byte	.LASF28
 1329 01ab 05       		.byte	0x5
 1330 01ac 7C01     		.2byte	0x17c
 1331 01ae DE000000 		.4byte	0xde
 1332 01b2 0C       		.byte	0xc
 1333 01b3 00       		.byte	0
 1334 01b4 0E       		.uleb128 0xe
 1335 01b5 6D030000 		.4byte	.LASF29
 1336 01b9 05       		.byte	0x5
 1337 01ba 7D01     		.2byte	0x17d
 1338 01bc 76010000 		.4byte	0x176
 1339 01c0 0B       		.uleb128 0xb
 1340 01c1 08       		.byte	0x8
 1341 01c2 05       		.byte	0x5
 1342 01c3 8201     		.2byte	0x182
 1343 01c5 E4010000 		.4byte	0x1e4
 1344 01c9 0C       		.uleb128 0xc
 1345 01ca 46523100 		.ascii	"FR1\000"
 1346 01ce 05       		.byte	0x5
ARM GAS  /tmp/ccEA7YA6.s 			page 25


 1347 01cf 8401     		.2byte	0x184
 1348 01d1 DE000000 		.4byte	0xde
 1349 01d5 00       		.byte	0
 1350 01d6 0C       		.uleb128 0xc
 1351 01d7 46523200 		.ascii	"FR2\000"
 1352 01db 05       		.byte	0x5
 1353 01dc 8501     		.2byte	0x185
 1354 01de DE000000 		.4byte	0xde
 1355 01e2 04       		.byte	0x4
 1356 01e3 00       		.byte	0
 1357 01e4 0E       		.uleb128 0xe
 1358 01e5 0F030000 		.4byte	.LASF30
 1359 01e9 05       		.byte	0x5
 1360 01ea 8601     		.2byte	0x186
 1361 01ec C0010000 		.4byte	0x1c0
 1362 01f0 0F       		.uleb128 0xf
 1363 01f1 2003     		.2byte	0x320
 1364 01f3 05       		.byte	0x5
 1365 01f4 8B01     		.2byte	0x18b
 1366 01f6 26030000 		.4byte	0x326
 1367 01fa 0C       		.uleb128 0xc
 1368 01fb 4D435200 		.ascii	"MCR\000"
 1369 01ff 05       		.byte	0x5
 1370 0200 8D01     		.2byte	0x18d
 1371 0202 DE000000 		.4byte	0xde
 1372 0206 00       		.byte	0
 1373 0207 0C       		.uleb128 0xc
 1374 0208 4D535200 		.ascii	"MSR\000"
 1375 020c 05       		.byte	0x5
 1376 020d 8E01     		.2byte	0x18e
 1377 020f DE000000 		.4byte	0xde
 1378 0213 04       		.byte	0x4
 1379 0214 0C       		.uleb128 0xc
 1380 0215 54535200 		.ascii	"TSR\000"
 1381 0219 05       		.byte	0x5
 1382 021a 8F01     		.2byte	0x18f
 1383 021c DE000000 		.4byte	0xde
 1384 0220 08       		.byte	0x8
 1385 0221 0D       		.uleb128 0xd
 1386 0222 0C020000 		.4byte	.LASF31
 1387 0226 05       		.byte	0x5
 1388 0227 9001     		.2byte	0x190
 1389 0229 DE000000 		.4byte	0xde
 1390 022d 0C       		.byte	0xc
 1391 022e 0D       		.uleb128 0xd
 1392 022f 0A030000 		.4byte	.LASF32
 1393 0233 05       		.byte	0x5
 1394 0234 9101     		.2byte	0x191
 1395 0236 DE000000 		.4byte	0xde
 1396 023a 10       		.byte	0x10
 1397 023b 0C       		.uleb128 0xc
 1398 023c 49455200 		.ascii	"IER\000"
 1399 0240 05       		.byte	0x5
 1400 0241 9201     		.2byte	0x192
 1401 0243 DE000000 		.4byte	0xde
 1402 0247 14       		.byte	0x14
 1403 0248 0C       		.uleb128 0xc
ARM GAS  /tmp/ccEA7YA6.s 			page 26


 1404 0249 45535200 		.ascii	"ESR\000"
 1405 024d 05       		.byte	0x5
 1406 024e 9301     		.2byte	0x193
 1407 0250 DE000000 		.4byte	0xde
 1408 0254 18       		.byte	0x18
 1409 0255 0C       		.uleb128 0xc
 1410 0256 42545200 		.ascii	"BTR\000"
 1411 025a 05       		.byte	0x5
 1412 025b 9401     		.2byte	0x194
 1413 025d DE000000 		.4byte	0xde
 1414 0261 1C       		.byte	0x1c
 1415 0262 0D       		.uleb128 0xd
 1416 0263 1B040000 		.4byte	.LASF33
 1417 0267 05       		.byte	0x5
 1418 0268 9501     		.2byte	0x195
 1419 026a 26030000 		.4byte	0x326
 1420 026e 20       		.byte	0x20
 1421 026f 10       		.uleb128 0x10
 1422 0270 13000000 		.4byte	.LASF34
 1423 0274 05       		.byte	0x5
 1424 0275 9601     		.2byte	0x196
 1425 0277 36030000 		.4byte	0x336
 1426 027b 8001     		.2byte	0x180
 1427 027d 10       		.uleb128 0x10
 1428 027e 5F060000 		.4byte	.LASF35
 1429 0282 05       		.byte	0x5
 1430 0283 9701     		.2byte	0x197
 1431 0285 46030000 		.4byte	0x346
 1432 0289 B001     		.2byte	0x1b0
 1433 028b 10       		.uleb128 0x10
 1434 028c 25040000 		.4byte	.LASF36
 1435 0290 05       		.byte	0x5
 1436 0291 9801     		.2byte	0x198
 1437 0293 56030000 		.4byte	0x356
 1438 0297 D001     		.2byte	0x1d0
 1439 0299 11       		.uleb128 0x11
 1440 029a 464D5200 		.ascii	"FMR\000"
 1441 029e 05       		.byte	0x5
 1442 029f 9901     		.2byte	0x199
 1443 02a1 DE000000 		.4byte	0xde
 1444 02a5 0002     		.2byte	0x200
 1445 02a7 10       		.uleb128 0x10
 1446 02a8 53030000 		.4byte	.LASF37
 1447 02ac 05       		.byte	0x5
 1448 02ad 9A01     		.2byte	0x19a
 1449 02af DE000000 		.4byte	0xde
 1450 02b3 0402     		.2byte	0x204
 1451 02b5 10       		.uleb128 0x10
 1452 02b6 2F040000 		.4byte	.LASF38
 1453 02ba 05       		.byte	0x5
 1454 02bb 9B01     		.2byte	0x19b
 1455 02bd B4000000 		.4byte	0xb4
 1456 02c1 0802     		.2byte	0x208
 1457 02c3 10       		.uleb128 0x10
 1458 02c4 BE000000 		.4byte	.LASF39
 1459 02c8 05       		.byte	0x5
 1460 02c9 9C01     		.2byte	0x19c
ARM GAS  /tmp/ccEA7YA6.s 			page 27


 1461 02cb DE000000 		.4byte	0xde
 1462 02cf 0C02     		.2byte	0x20c
 1463 02d1 10       		.uleb128 0x10
 1464 02d2 39040000 		.4byte	.LASF40
 1465 02d6 05       		.byte	0x5
 1466 02d7 9D01     		.2byte	0x19d
 1467 02d9 B4000000 		.4byte	0xb4
 1468 02dd 1002     		.2byte	0x210
 1469 02df 10       		.uleb128 0x10
 1470 02e0 03040000 		.4byte	.LASF41
 1471 02e4 05       		.byte	0x5
 1472 02e5 9E01     		.2byte	0x19e
 1473 02e7 DE000000 		.4byte	0xde
 1474 02eb 1402     		.2byte	0x214
 1475 02ed 10       		.uleb128 0x10
 1476 02ee E2050000 		.4byte	.LASF42
 1477 02f2 05       		.byte	0x5
 1478 02f3 9F01     		.2byte	0x19f
 1479 02f5 B4000000 		.4byte	0xb4
 1480 02f9 1802     		.2byte	0x218
 1481 02fb 10       		.uleb128 0x10
 1482 02fc 55040000 		.4byte	.LASF43
 1483 0300 05       		.byte	0x5
 1484 0301 A001     		.2byte	0x1a0
 1485 0303 DE000000 		.4byte	0xde
 1486 0307 1C02     		.2byte	0x21c
 1487 0309 10       		.uleb128 0x10
 1488 030a EC050000 		.4byte	.LASF44
 1489 030e 05       		.byte	0x5
 1490 030f A101     		.2byte	0x1a1
 1491 0311 02010000 		.4byte	0x102
 1492 0315 2002     		.2byte	0x220
 1493 0317 10       		.uleb128 0x10
 1494 0318 43030000 		.4byte	.LASF45
 1495 031c 05       		.byte	0x5
 1496 031d A201     		.2byte	0x1a2
 1497 031f 66030000 		.4byte	0x366
 1498 0323 4002     		.2byte	0x240
 1499 0325 00       		.byte	0
 1500 0326 09       		.uleb128 0x9
 1501 0327 B4000000 		.4byte	0xb4
 1502 032b 36030000 		.4byte	0x336
 1503 032f 0A       		.uleb128 0xa
 1504 0330 E3000000 		.4byte	0xe3
 1505 0334 57       		.byte	0x57
 1506 0335 00       		.byte	0
 1507 0336 09       		.uleb128 0x9
 1508 0337 6A010000 		.4byte	0x16a
 1509 033b 46030000 		.4byte	0x346
 1510 033f 0A       		.uleb128 0xa
 1511 0340 E3000000 		.4byte	0xe3
 1512 0344 02       		.byte	0x2
 1513 0345 00       		.byte	0
 1514 0346 09       		.uleb128 0x9
 1515 0347 B4010000 		.4byte	0x1b4
 1516 034b 56030000 		.4byte	0x356
 1517 034f 0A       		.uleb128 0xa
ARM GAS  /tmp/ccEA7YA6.s 			page 28


 1518 0350 E3000000 		.4byte	0xe3
 1519 0354 01       		.byte	0x1
 1520 0355 00       		.byte	0
 1521 0356 09       		.uleb128 0x9
 1522 0357 B4000000 		.4byte	0xb4
 1523 035b 66030000 		.4byte	0x366
 1524 035f 0A       		.uleb128 0xa
 1525 0360 E3000000 		.4byte	0xe3
 1526 0364 0B       		.byte	0xb
 1527 0365 00       		.byte	0
 1528 0366 09       		.uleb128 0x9
 1529 0367 E4010000 		.4byte	0x1e4
 1530 036b 76030000 		.4byte	0x376
 1531 036f 0A       		.uleb128 0xa
 1532 0370 E3000000 		.4byte	0xe3
 1533 0374 1B       		.byte	0x1b
 1534 0375 00       		.byte	0
 1535 0376 0E       		.uleb128 0xe
 1536 0377 67000000 		.4byte	.LASF46
 1537 037b 05       		.byte	0x5
 1538 037c A301     		.2byte	0x1a3
 1539 037e F0010000 		.4byte	0x1f0
 1540 0382 0B       		.uleb128 0xb
 1541 0383 34       		.byte	0x34
 1542 0384 05       		.byte	0x5
 1543 0385 8502     		.2byte	0x285
 1544 0387 34040000 		.4byte	0x434
 1545 038b 0C       		.uleb128 0xc
 1546 038c 435200   		.ascii	"CR\000"
 1547 038f 05       		.byte	0x5
 1548 0390 8702     		.2byte	0x287
 1549 0392 DE000000 		.4byte	0xde
 1550 0396 00       		.byte	0
 1551 0397 0D       		.uleb128 0xd
 1552 0398 2C070000 		.4byte	.LASF47
 1553 039c 05       		.byte	0x5
 1554 039d 8802     		.2byte	0x288
 1555 039f DE000000 		.4byte	0xde
 1556 03a3 04       		.byte	0x4
 1557 03a4 0C       		.uleb128 0xc
 1558 03a5 43495200 		.ascii	"CIR\000"
 1559 03a9 05       		.byte	0x5
 1560 03aa 8902     		.2byte	0x289
 1561 03ac DE000000 		.4byte	0xde
 1562 03b0 08       		.byte	0x8
 1563 03b1 0D       		.uleb128 0xd
 1564 03b2 AD010000 		.4byte	.LASF48
 1565 03b6 05       		.byte	0x5
 1566 03b7 8A02     		.2byte	0x28a
 1567 03b9 DE000000 		.4byte	0xde
 1568 03bd 0C       		.byte	0xc
 1569 03be 0D       		.uleb128 0xd
 1570 03bf E6030000 		.4byte	.LASF49
 1571 03c3 05       		.byte	0x5
 1572 03c4 8B02     		.2byte	0x28b
 1573 03c6 DE000000 		.4byte	0xde
 1574 03ca 10       		.byte	0x10
ARM GAS  /tmp/ccEA7YA6.s 			page 29


 1575 03cb 0D       		.uleb128 0xd
 1576 03cc 68070000 		.4byte	.LASF50
 1577 03d0 05       		.byte	0x5
 1578 03d1 8C02     		.2byte	0x28c
 1579 03d3 DE000000 		.4byte	0xde
 1580 03d7 14       		.byte	0x14
 1581 03d8 0D       		.uleb128 0xd
 1582 03d9 B0050000 		.4byte	.LASF51
 1583 03dd 05       		.byte	0x5
 1584 03de 8D02     		.2byte	0x28d
 1585 03e0 DE000000 		.4byte	0xde
 1586 03e4 18       		.byte	0x18
 1587 03e5 0D       		.uleb128 0xd
 1588 03e6 6C060000 		.4byte	.LASF52
 1589 03ea 05       		.byte	0x5
 1590 03eb 8E02     		.2byte	0x28e
 1591 03ed DE000000 		.4byte	0xde
 1592 03f1 1C       		.byte	0x1c
 1593 03f2 0D       		.uleb128 0xd
 1594 03f3 E3060000 		.4byte	.LASF53
 1595 03f7 05       		.byte	0x5
 1596 03f8 8F02     		.2byte	0x28f
 1597 03fa DE000000 		.4byte	0xde
 1598 03fe 20       		.byte	0x20
 1599 03ff 0C       		.uleb128 0xc
 1600 0400 43535200 		.ascii	"CSR\000"
 1601 0404 05       		.byte	0x5
 1602 0405 9002     		.2byte	0x290
 1603 0407 DE000000 		.4byte	0xde
 1604 040b 24       		.byte	0x24
 1605 040c 0D       		.uleb128 0xd
 1606 040d D3030000 		.4byte	.LASF54
 1607 0411 05       		.byte	0x5
 1608 0412 9102     		.2byte	0x291
 1609 0414 DE000000 		.4byte	0xde
 1610 0418 28       		.byte	0x28
 1611 0419 0D       		.uleb128 0xd
 1612 041a D1020000 		.4byte	.LASF55
 1613 041e 05       		.byte	0x5
 1614 041f 9202     		.2byte	0x292
 1615 0421 DE000000 		.4byte	0xde
 1616 0425 2C       		.byte	0x2c
 1617 0426 0D       		.uleb128 0xd
 1618 0427 07070000 		.4byte	.LASF56
 1619 042b 05       		.byte	0x5
 1620 042c 9302     		.2byte	0x293
 1621 042e DE000000 		.4byte	0xde
 1622 0432 30       		.byte	0x30
 1623 0433 00       		.byte	0
 1624 0434 0E       		.uleb128 0xe
 1625 0435 D7020000 		.4byte	.LASF57
 1626 0439 05       		.byte	0x5
 1627 043a 9402     		.2byte	0x294
 1628 043c 82030000 		.4byte	0x382
 1629 0440 0B       		.uleb128 0xb
 1630 0441 60       		.byte	0x60
 1631 0442 05       		.byte	0x5
ARM GAS  /tmp/ccEA7YA6.s 			page 30


 1632 0443 E002     		.2byte	0x2e0
 1633 0445 C1050000 		.4byte	0x5c1
 1634 0449 0C       		.uleb128 0xc
 1635 044a 43523100 		.ascii	"CR1\000"
 1636 044e 05       		.byte	0x5
 1637 044f E202     		.2byte	0x2e2
 1638 0451 22010000 		.4byte	0x122
 1639 0455 00       		.byte	0
 1640 0456 0D       		.uleb128 0xd
 1641 0457 1B040000 		.4byte	.LASF33
 1642 045b 05       		.byte	0x5
 1643 045c E302     		.2byte	0x2e3
 1644 045e 9E000000 		.4byte	0x9e
 1645 0462 02       		.byte	0x2
 1646 0463 0C       		.uleb128 0xc
 1647 0464 43523200 		.ascii	"CR2\000"
 1648 0468 05       		.byte	0x5
 1649 0469 E402     		.2byte	0x2e4
 1650 046b DE000000 		.4byte	0xde
 1651 046f 04       		.byte	0x4
 1652 0470 0D       		.uleb128 0xd
 1653 0471 05030000 		.4byte	.LASF58
 1654 0475 05       		.byte	0x5
 1655 0476 E502     		.2byte	0x2e5
 1656 0478 DE000000 		.4byte	0xde
 1657 047c 08       		.byte	0x8
 1658 047d 0D       		.uleb128 0xd
 1659 047e 09000000 		.4byte	.LASF59
 1660 0482 05       		.byte	0x5
 1661 0483 E602     		.2byte	0x2e6
 1662 0485 DE000000 		.4byte	0xde
 1663 0489 0C       		.byte	0xc
 1664 048a 0C       		.uleb128 0xc
 1665 048b 535200   		.ascii	"SR\000"
 1666 048e 05       		.byte	0x5
 1667 048f E702     		.2byte	0x2e7
 1668 0491 DE000000 		.4byte	0xde
 1669 0495 10       		.byte	0x10
 1670 0496 0C       		.uleb128 0xc
 1671 0497 45475200 		.ascii	"EGR\000"
 1672 049b 05       		.byte	0x5
 1673 049c E802     		.2byte	0x2e8
 1674 049e DE000000 		.4byte	0xde
 1675 04a2 14       		.byte	0x14
 1676 04a3 0D       		.uleb128 0xd
 1677 04a4 0D010000 		.4byte	.LASF60
 1678 04a8 05       		.byte	0x5
 1679 04a9 E902     		.2byte	0x2e9
 1680 04ab DE000000 		.4byte	0xde
 1681 04af 18       		.byte	0x18
 1682 04b0 0D       		.uleb128 0xd
 1683 04b1 13010000 		.4byte	.LASF61
 1684 04b5 05       		.byte	0x5
 1685 04b6 EA02     		.2byte	0x2ea
 1686 04b8 DE000000 		.4byte	0xde
 1687 04bc 1C       		.byte	0x1c
 1688 04bd 0D       		.uleb128 0xd
ARM GAS  /tmp/ccEA7YA6.s 			page 31


 1689 04be DA010000 		.4byte	.LASF62
 1690 04c2 05       		.byte	0x5
 1691 04c3 EB02     		.2byte	0x2eb
 1692 04c5 DE000000 		.4byte	0xde
 1693 04c9 20       		.byte	0x20
 1694 04ca 0C       		.uleb128 0xc
 1695 04cb 434E5400 		.ascii	"CNT\000"
 1696 04cf 05       		.byte	0x5
 1697 04d0 EC02     		.2byte	0x2ec
 1698 04d2 DE000000 		.4byte	0xde
 1699 04d6 24       		.byte	0x24
 1700 04d7 0C       		.uleb128 0xc
 1701 04d8 50534300 		.ascii	"PSC\000"
 1702 04dc 05       		.byte	0x5
 1703 04dd ED02     		.2byte	0x2ed
 1704 04df 22010000 		.4byte	0x122
 1705 04e3 28       		.byte	0x28
 1706 04e4 0D       		.uleb128 0xd
 1707 04e5 5A040000 		.4byte	.LASF63
 1708 04e9 05       		.byte	0x5
 1709 04ea EE02     		.2byte	0x2ee
 1710 04ec 9E000000 		.4byte	0x9e
 1711 04f0 2A       		.byte	0x2a
 1712 04f1 0C       		.uleb128 0xc
 1713 04f2 41525200 		.ascii	"ARR\000"
 1714 04f6 05       		.byte	0x5
 1715 04f7 EF02     		.2byte	0x2ef
 1716 04f9 DE000000 		.4byte	0xde
 1717 04fd 2C       		.byte	0x2c
 1718 04fe 0C       		.uleb128 0xc
 1719 04ff 52435200 		.ascii	"RCR\000"
 1720 0503 05       		.byte	0x5
 1721 0504 F002     		.2byte	0x2f0
 1722 0506 22010000 		.4byte	0x122
 1723 050a 30       		.byte	0x30
 1724 050b 0D       		.uleb128 0xd
 1725 050c 66010000 		.4byte	.LASF64
 1726 0510 05       		.byte	0x5
 1727 0511 F102     		.2byte	0x2f1
 1728 0513 9E000000 		.4byte	0x9e
 1729 0517 32       		.byte	0x32
 1730 0518 0D       		.uleb128 0xd
 1731 0519 86000000 		.4byte	.LASF65
 1732 051d 05       		.byte	0x5
 1733 051e F202     		.2byte	0x2f2
 1734 0520 DE000000 		.4byte	0xde
 1735 0524 34       		.byte	0x34
 1736 0525 0D       		.uleb128 0xd
 1737 0526 C3060000 		.4byte	.LASF66
 1738 052a 05       		.byte	0x5
 1739 052b F302     		.2byte	0x2f3
 1740 052d DE000000 		.4byte	0xde
 1741 0531 38       		.byte	0x38
 1742 0532 0D       		.uleb128 0xd
 1743 0533 C8060000 		.4byte	.LASF67
 1744 0537 05       		.byte	0x5
 1745 0538 F402     		.2byte	0x2f4
ARM GAS  /tmp/ccEA7YA6.s 			page 32


 1746 053a DE000000 		.4byte	0xde
 1747 053e 3C       		.byte	0x3c
 1748 053f 0D       		.uleb128 0xd
 1749 0540 CD060000 		.4byte	.LASF68
 1750 0544 05       		.byte	0x5
 1751 0545 F502     		.2byte	0x2f5
 1752 0547 DE000000 		.4byte	0xde
 1753 054b 40       		.byte	0x40
 1754 054c 0D       		.uleb128 0xd
 1755 054d CA000000 		.4byte	.LASF69
 1756 0551 05       		.byte	0x5
 1757 0552 F602     		.2byte	0x2f6
 1758 0554 DE000000 		.4byte	0xde
 1759 0558 44       		.byte	0x44
 1760 0559 0C       		.uleb128 0xc
 1761 055a 44435200 		.ascii	"DCR\000"
 1762 055e 05       		.byte	0x5
 1763 055f F702     		.2byte	0x2f7
 1764 0561 22010000 		.4byte	0x122
 1765 0565 48       		.byte	0x48
 1766 0566 0D       		.uleb128 0xd
 1767 0567 76010000 		.4byte	.LASF70
 1768 056b 05       		.byte	0x5
 1769 056c F802     		.2byte	0x2f8
 1770 056e 9E000000 		.4byte	0x9e
 1771 0572 4A       		.byte	0x4a
 1772 0573 0D       		.uleb128 0xd
 1773 0574 42060000 		.4byte	.LASF71
 1774 0578 05       		.byte	0x5
 1775 0579 F902     		.2byte	0x2f9
 1776 057b 22010000 		.4byte	0x122
 1777 057f 4C       		.byte	0x4c
 1778 0580 0D       		.uleb128 0xd
 1779 0581 81010000 		.4byte	.LASF72
 1780 0585 05       		.byte	0x5
 1781 0586 FA02     		.2byte	0x2fa
 1782 0588 9E000000 		.4byte	0x9e
 1783 058c 4E       		.byte	0x4e
 1784 058d 0C       		.uleb128 0xc
 1785 058e 4F5200   		.ascii	"OR\000"
 1786 0591 05       		.byte	0x5
 1787 0592 FB02     		.2byte	0x2fb
 1788 0594 22010000 		.4byte	0x122
 1789 0598 50       		.byte	0x50
 1790 0599 0D       		.uleb128 0xd
 1791 059a 19010000 		.4byte	.LASF73
 1792 059e 05       		.byte	0x5
 1793 059f FC02     		.2byte	0x2fc
 1794 05a1 DE000000 		.4byte	0xde
 1795 05a5 54       		.byte	0x54
 1796 05a6 0D       		.uleb128 0xd
 1797 05a7 D2060000 		.4byte	.LASF74
 1798 05ab 05       		.byte	0x5
 1799 05ac FD02     		.2byte	0x2fd
 1800 05ae DE000000 		.4byte	0xde
 1801 05b2 58       		.byte	0x58
 1802 05b3 0D       		.uleb128 0xd
ARM GAS  /tmp/ccEA7YA6.s 			page 33


 1803 05b4 D7060000 		.4byte	.LASF75
 1804 05b8 05       		.byte	0x5
 1805 05b9 FE02     		.2byte	0x2fe
 1806 05bb DE000000 		.4byte	0xde
 1807 05bf 5C       		.byte	0x5c
 1808 05c0 00       		.byte	0
 1809 05c1 0E       		.uleb128 0xe
 1810 05c2 73000000 		.4byte	.LASF76
 1811 05c6 05       		.byte	0x5
 1812 05c7 FF02     		.2byte	0x2ff
 1813 05c9 40040000 		.4byte	0x440
 1814 05cd 03       		.uleb128 0x3
 1815 05ce 0D060000 		.4byte	.LASF77
 1816 05d2 06       		.byte	0x6
 1817 05d3 5E       		.byte	0x5e
 1818 05d4 D8050000 		.4byte	0x5d8
 1819 05d8 12       		.uleb128 0x12
 1820 05d9 0D060000 		.4byte	.LASF77
 1821 05dd 1E       		.byte	0x1e
 1822 05de 06       		.byte	0x6
 1823 05df B9       		.byte	0xb9
 1824 05e0 59060000 		.4byte	0x659
 1825 05e4 13       		.uleb128 0x13
 1826 05e5 0E000000 		.4byte	.LASF78
 1827 05e9 06       		.byte	0x6
 1828 05ea BA       		.byte	0xba
 1829 05eb 75060000 		.4byte	0x675
 1830 05ef 00       		.byte	0
 1831 05f0 13       		.uleb128 0x13
 1832 05f1 DC060000 		.4byte	.LASF79
 1833 05f5 06       		.byte	0x6
 1834 05f6 BB       		.byte	0xbb
 1835 05f7 EC060000 		.4byte	0x6ec
 1836 05fb 04       		.byte	0x4
 1837 05fc 13       		.uleb128 0x13
 1838 05fd 2F030000 		.4byte	.LASF80
 1839 0601 06       		.byte	0x6
 1840 0602 BC       		.byte	0xbc
 1841 0603 59060000 		.4byte	0x659
 1842 0607 05       		.byte	0x5
 1843 0608 13       		.uleb128 0x13
 1844 0609 ED010000 		.4byte	.LASF81
 1845 060d 06       		.byte	0x6
 1846 060e BD       		.byte	0xbd
 1847 060f DC000000 		.4byte	0xdc
 1848 0613 09       		.byte	0x9
 1849 0614 14       		.uleb128 0x14
 1850 0615 D9080000 		.4byte	0x8d9
 1851 0619 0D       		.byte	0xd
 1852 061a 15       		.uleb128 0x15
 1853 061b 696400   		.ascii	"id\000"
 1854 061e 06       		.byte	0x6
 1855 061f C7       		.byte	0xc7
 1856 0620 F7060000 		.4byte	0x6f7
 1857 0624 11       		.byte	0x11
 1858 0625 13       		.uleb128 0x13
 1859 0626 27070000 		.4byte	.LASF82
ARM GAS  /tmp/ccEA7YA6.s 			page 34


 1860 062a 06       		.byte	0x6
 1861 062b C8       		.byte	0xc8
 1862 062c 9E000000 		.4byte	0x9e
 1863 0630 13       		.byte	0x13
 1864 0631 13       		.uleb128 0x13
 1865 0632 00030000 		.4byte	.LASF83
 1866 0636 06       		.byte	0x6
 1867 0637 C9       		.byte	0xc9
 1868 0638 F7000000 		.4byte	0xf7
 1869 063c 15       		.byte	0x15
 1870 063d 15       		.uleb128 0x15
 1871 063e 70747200 		.ascii	"ptr\000"
 1872 0642 06       		.byte	0x6
 1873 0643 CA       		.byte	0xca
 1874 0644 F1000000 		.4byte	0xf1
 1875 0648 19       		.byte	0x19
 1876 0649 16       		.uleb128 0x16
 1877 064a C9050000 		.4byte	.LASF115
 1878 064e 06       		.byte	0x6
 1879 064f CB       		.byte	0xcb
 1880 0650 93000000 		.4byte	0x93
 1881 0654 01       		.byte	0x1
 1882 0655 07       		.byte	0x7
 1883 0656 01       		.byte	0x1
 1884 0657 1D       		.byte	0x1d
 1885 0658 00       		.byte	0
 1886 0659 03       		.uleb128 0x3
 1887 065a EF030000 		.4byte	.LASF84
 1888 065e 06       		.byte	0x6
 1889 065f 63       		.byte	0x63
 1890 0660 64060000 		.4byte	0x664
 1891 0664 07       		.uleb128 0x7
 1892 0665 04       		.byte	0x4
 1893 0666 6A060000 		.4byte	0x66a
 1894 066a 17       		.uleb128 0x17
 1895 066b 75060000 		.4byte	0x675
 1896 066f 18       		.uleb128 0x18
 1897 0670 75060000 		.4byte	0x675
 1898 0674 00       		.byte	0
 1899 0675 07       		.uleb128 0x7
 1900 0676 04       		.byte	0x4
 1901 0677 CD050000 		.4byte	0x5cd
 1902 067b 19       		.uleb128 0x19
 1903 067c 01       		.byte	0x1
 1904 067d 06       		.byte	0x6
 1905 067e 68       		.byte	0x68
 1906 067f AE060000 		.4byte	0x6ae
 1907 0683 1A       		.uleb128 0x1a
 1908 0684 7C020000 		.4byte	.LASF85
 1909 0688 00       		.sleb128 0
 1910 0689 1A       		.uleb128 0x1a
 1911 068a 1E000000 		.4byte	.LASF86
 1912 068e 01       		.sleb128 1
 1913 068f 1A       		.uleb128 0x1a
 1914 0690 B0030000 		.4byte	.LASF87
 1915 0694 02       		.sleb128 2
 1916 0695 1A       		.uleb128 0x1a
ARM GAS  /tmp/ccEA7YA6.s 			page 35


 1917 0696 15070000 		.4byte	.LASF88
 1918 069a 03       		.sleb128 3
 1919 069b 1A       		.uleb128 0x1a
 1920 069c CC010000 		.4byte	.LASF89
 1921 06a0 04       		.sleb128 4
 1922 06a1 1A       		.uleb128 0x1a
 1923 06a2 A4020000 		.4byte	.LASF90
 1924 06a6 05       		.sleb128 5
 1925 06a7 1A       		.uleb128 0x1a
 1926 06a8 31070000 		.4byte	.LASF91
 1927 06ac 06       		.sleb128 6
 1928 06ad 00       		.byte	0
 1929 06ae 03       		.uleb128 0x3
 1930 06af 09040000 		.4byte	.LASF92
 1931 06b3 06       		.byte	0x6
 1932 06b4 70       		.byte	0x70
 1933 06b5 7B060000 		.4byte	0x67b
 1934 06b9 19       		.uleb128 0x19
 1935 06ba 01       		.byte	0x1
 1936 06bb 06       		.byte	0x6
 1937 06bc 75       		.byte	0x75
 1938 06bd EC060000 		.4byte	0x6ec
 1939 06c1 1A       		.uleb128 0x1a
 1940 06c2 2B010000 		.4byte	.LASF93
 1941 06c6 00       		.sleb128 0
 1942 06c7 1A       		.uleb128 0x1a
 1943 06c8 74060000 		.4byte	.LASF94
 1944 06cc 01       		.sleb128 1
 1945 06cd 1A       		.uleb128 0x1a
 1946 06ce D2050000 		.4byte	.LASF95
 1947 06d2 02       		.sleb128 2
 1948 06d3 1A       		.uleb128 0x1a
 1949 06d4 B8050000 		.4byte	.LASF96
 1950 06d8 03       		.sleb128 3
 1951 06d9 1A       		.uleb128 0x1a
 1952 06da 97030000 		.4byte	.LASF97
 1953 06de 04       		.sleb128 4
 1954 06df 1A       		.uleb128 0x1a
 1955 06e0 43040000 		.4byte	.LASF98
 1956 06e4 05       		.sleb128 5
 1957 06e5 1A       		.uleb128 0x1a
 1958 06e6 5D030000 		.4byte	.LASF99
 1959 06ea 06       		.sleb128 6
 1960 06eb 00       		.byte	0
 1961 06ec 03       		.uleb128 0x3
 1962 06ed 85030000 		.4byte	.LASF100
 1963 06f1 06       		.byte	0x6
 1964 06f2 7D       		.byte	0x7d
 1965 06f3 B9060000 		.4byte	0x6b9
 1966 06f7 03       		.uleb128 0x3
 1967 06f8 38030000 		.4byte	.LASF101
 1968 06fc 06       		.byte	0x6
 1969 06fd 83       		.byte	0x83
 1970 06fe 9E000000 		.4byte	0x9e
 1971 0702 03       		.uleb128 0x3
 1972 0703 C2020000 		.4byte	.LASF102
 1973 0707 06       		.byte	0x6
ARM GAS  /tmp/ccEA7YA6.s 			page 36


 1974 0708 8D       		.byte	0x8d
 1975 0709 93000000 		.4byte	0x93
 1976 070d 1B       		.uleb128 0x1b
 1977 070e 04       		.byte	0x4
 1978 070f 07       		.byte	0x7
 1979 0710 1E       		.byte	0x1e
 1980 0711 22070000 		.4byte	0x722
 1981 0715 13       		.uleb128 0x13
 1982 0716 0E000000 		.4byte	.LASF78
 1983 071a 07       		.byte	0x7
 1984 071b 20       		.byte	0x20
 1985 071c 75060000 		.4byte	0x675
 1986 0720 00       		.byte	0
 1987 0721 00       		.byte	0
 1988 0722 03       		.uleb128 0x3
 1989 0723 5D070000 		.4byte	.LASF103
 1990 0727 07       		.byte	0x7
 1991 0728 21       		.byte	0x21
 1992 0729 0D070000 		.4byte	0x70d
 1993 072d 12       		.uleb128 0x12
 1994 072e B2000000 		.4byte	.LASF104
 1995 0732 60       		.byte	0x60
 1996 0733 06       		.byte	0x6
 1997 0734 E3       		.byte	0xe3
 1998 0735 A9070000 		.4byte	0x7a9
 1999 0739 13       		.uleb128 0x13
 2000 073a 8C010000 		.4byte	.LASF105
 2001 073e 06       		.byte	0x6
 2002 073f E7       		.byte	0xe7
 2003 0740 AE060000 		.4byte	0x6ae
 2004 0744 00       		.byte	0
 2005 0745 13       		.uleb128 0x13
 2006 0746 07020000 		.4byte	.LASF106
 2007 074a 06       		.byte	0x6
 2008 074b EB       		.byte	0xeb
 2009 074c B4000000 		.4byte	0xb4
 2010 0750 04       		.byte	0x4
 2011 0751 13       		.uleb128 0x13
 2012 0752 B6060000 		.4byte	.LASF107
 2013 0756 06       		.byte	0x6
 2014 0757 EF       		.byte	0xef
 2015 0758 B4000000 		.4byte	0xb4
 2016 075c 08       		.byte	0x8
 2017 075d 13       		.uleb128 0x13
 2018 075e 19060000 		.4byte	.LASF108
 2019 0762 06       		.byte	0x6
 2020 0763 F3       		.byte	0xf3
 2021 0764 22070000 		.4byte	0x722
 2022 0768 0C       		.byte	0xc
 2023 0769 13       		.uleb128 0x13
 2024 076a BF030000 		.4byte	.LASF109
 2025 076e 06       		.byte	0x6
 2026 076f F7       		.byte	0xf7
 2027 0770 24090000 		.4byte	0x924
 2028 0774 10       		.byte	0x10
 2029 0775 13       		.uleb128 0x13
 2030 0776 55070000 		.4byte	.LASF110
ARM GAS  /tmp/ccEA7YA6.s 			page 37


 2031 077a 06       		.byte	0x6
 2032 077b FB       		.byte	0xfb
 2033 077c 34090000 		.4byte	0x934
 2034 0780 1C       		.byte	0x1c
 2035 0781 0D       		.uleb128 0xd
 2036 0782 3B060000 		.4byte	.LASF111
 2037 0786 06       		.byte	0x6
 2038 0787 0901     		.2byte	0x109
 2039 0789 44090000 		.4byte	0x944
 2040 078d 54       		.byte	0x54
 2041 078e 0C       		.uleb128 0xc
 2042 078f 74696D00 		.ascii	"tim\000"
 2043 0793 06       		.byte	0x6
 2044 0794 0E01     		.2byte	0x10e
 2045 0796 4F090000 		.4byte	0x94f
 2046 079a 58       		.byte	0x58
 2047 079b 0C       		.uleb128 0xc
 2048 079c 63616E00 		.ascii	"can\000"
 2049 07a0 06       		.byte	0x6
 2050 07a1 1301     		.2byte	0x113
 2051 07a3 55090000 		.4byte	0x955
 2052 07a7 5C       		.byte	0x5c
 2053 07a8 00       		.byte	0
 2054 07a9 1C       		.uleb128 0x1c
 2055 07aa 08       		.byte	0x8
 2056 07ab 06       		.byte	0x6
 2057 07ac A1       		.byte	0xa1
 2058 07ad D3070000 		.4byte	0x7d3
 2059 07b1 1D       		.uleb128 0x1d
 2060 07b2 CD030000 		.4byte	.LASF112
 2061 07b6 06       		.byte	0x6
 2062 07b7 A2       		.byte	0xa2
 2063 07b8 D3070000 		.4byte	0x7d3
 2064 07bc 1D       		.uleb128 0x1d
 2065 07bd BC060000 		.4byte	.LASF113
 2066 07c1 06       		.byte	0x6
 2067 07c2 A3       		.byte	0xa3
 2068 07c3 E3070000 		.4byte	0x7e3
 2069 07c7 1D       		.uleb128 0x1d
 2070 07c8 C3000000 		.4byte	.LASF114
 2071 07cc 06       		.byte	0x6
 2072 07cd A4       		.byte	0xa4
 2073 07ce 12010000 		.4byte	0x112
 2074 07d2 00       		.byte	0
 2075 07d3 09       		.uleb128 0x9
 2076 07d4 93000000 		.4byte	0x93
 2077 07d8 E3070000 		.4byte	0x7e3
 2078 07dc 0A       		.uleb128 0xa
 2079 07dd E3000000 		.4byte	0xe3
 2080 07e1 07       		.byte	0x7
 2081 07e2 00       		.byte	0
 2082 07e3 09       		.uleb128 0x9
 2083 07e4 9E000000 		.4byte	0x9e
 2084 07e8 F3070000 		.4byte	0x7f3
 2085 07ec 0A       		.uleb128 0xa
 2086 07ed E3000000 		.4byte	0xe3
 2087 07f1 03       		.byte	0x3
ARM GAS  /tmp/ccEA7YA6.s 			page 38


 2088 07f2 00       		.byte	0
 2089 07f3 1B       		.uleb128 0x1b
 2090 07f4 10       		.byte	0x10
 2091 07f5 06       		.byte	0x6
 2092 07f6 9D       		.byte	0x9d
 2093 07f7 2B080000 		.4byte	0x82b
 2094 07fb 1E       		.uleb128 0x1e
 2095 07fc 696400   		.ascii	"id\000"
 2096 07ff 06       		.byte	0x6
 2097 0800 9E       		.byte	0x9e
 2098 0801 B4000000 		.4byte	0xb4
 2099 0805 04       		.byte	0x4
 2100 0806 1D       		.byte	0x1d
 2101 0807 03       		.byte	0x3
 2102 0808 00       		.byte	0
 2103 0809 1E       		.uleb128 0x1e
 2104 080a 6C656E00 		.ascii	"len\000"
 2105 080e 06       		.byte	0x6
 2106 080f 9F       		.byte	0x9f
 2107 0810 93000000 		.4byte	0x93
 2108 0814 01       		.byte	0x1
 2109 0815 04       		.byte	0x4
 2110 0816 04       		.byte	0x4
 2111 0817 04       		.byte	0x4
 2112 0818 13       		.uleb128 0x13
 2113 0819 16040000 		.4byte	.LASF116
 2114 081d 06       		.byte	0x6
 2115 081e A0       		.byte	0xa0
 2116 081f 93000000 		.4byte	0x93
 2117 0823 05       		.byte	0x5
 2118 0824 14       		.uleb128 0x14
 2119 0825 A9070000 		.4byte	0x7a9
 2120 0829 08       		.byte	0x8
 2121 082a 00       		.byte	0
 2122 082b 03       		.uleb128 0x3
 2123 082c 80040000 		.4byte	.LASF117
 2124 0830 06       		.byte	0x6
 2125 0831 A6       		.byte	0xa6
 2126 0832 F3070000 		.4byte	0x7f3
 2127 0836 1C       		.uleb128 0x1c
 2128 0837 08       		.byte	0x8
 2129 0838 06       		.byte	0x6
 2130 0839 AF       		.byte	0xaf
 2131 083a 60080000 		.4byte	0x860
 2132 083e 1D       		.uleb128 0x1d
 2133 083f CD030000 		.4byte	.LASF112
 2134 0843 06       		.byte	0x6
 2135 0844 B0       		.byte	0xb0
 2136 0845 D3070000 		.4byte	0x7d3
 2137 0849 1D       		.uleb128 0x1d
 2138 084a BC060000 		.4byte	.LASF113
 2139 084e 06       		.byte	0x6
 2140 084f B1       		.byte	0xb1
 2141 0850 E3070000 		.4byte	0x7e3
 2142 0854 1D       		.uleb128 0x1d
 2143 0855 C3000000 		.4byte	.LASF114
 2144 0859 06       		.byte	0x6
ARM GAS  /tmp/ccEA7YA6.s 			page 39


 2145 085a B2       		.byte	0xb2
 2146 085b 12010000 		.4byte	0x112
 2147 085f 00       		.byte	0
 2148 0860 1B       		.uleb128 0x1b
 2149 0861 10       		.byte	0x10
 2150 0862 06       		.byte	0x6
 2151 0863 AB       		.byte	0xab
 2152 0864 98080000 		.4byte	0x898
 2153 0868 1E       		.uleb128 0x1e
 2154 0869 696400   		.ascii	"id\000"
 2155 086c 06       		.byte	0x6
 2156 086d AC       		.byte	0xac
 2157 086e B4000000 		.4byte	0xb4
 2158 0872 04       		.byte	0x4
 2159 0873 1D       		.byte	0x1d
 2160 0874 03       		.byte	0x3
 2161 0875 00       		.byte	0
 2162 0876 1E       		.uleb128 0x1e
 2163 0877 6C656E00 		.ascii	"len\000"
 2164 087b 06       		.byte	0x6
 2165 087c AD       		.byte	0xad
 2166 087d 93000000 		.4byte	0x93
 2167 0881 01       		.byte	0x1
 2168 0882 04       		.byte	0x4
 2169 0883 04       		.byte	0x4
 2170 0884 04       		.byte	0x4
 2171 0885 13       		.uleb128 0x13
 2172 0886 A9050000 		.4byte	.LASF118
 2173 088a 06       		.byte	0x6
 2174 088b AE       		.byte	0xae
 2175 088c 93000000 		.4byte	0x93
 2176 0890 05       		.byte	0x5
 2177 0891 14       		.uleb128 0x14
 2178 0892 36080000 		.4byte	0x836
 2179 0896 08       		.byte	0x8
 2180 0897 00       		.byte	0
 2181 0898 03       		.uleb128 0x3
 2182 0899 A2000000 		.4byte	.LASF119
 2183 089d 06       		.byte	0x6
 2184 089e B4       		.byte	0xb4
 2185 089f 60080000 		.4byte	0x860
 2186 08a3 1B       		.uleb128 0x1b
 2187 08a4 04       		.byte	0x4
 2188 08a5 06       		.byte	0x6
 2189 08a6 BF       		.byte	0xbf
 2190 08a7 B8080000 		.4byte	0x8b8
 2191 08ab 13       		.uleb128 0x13
 2192 08ac 4C060000 		.4byte	.LASF120
 2193 08b0 06       		.byte	0x6
 2194 08b1 C0       		.byte	0xc0
 2195 08b2 B4000000 		.4byte	0xb4
 2196 08b6 00       		.byte	0
 2197 08b7 00       		.byte	0
 2198 08b8 1B       		.uleb128 0x1b
 2199 08b9 04       		.byte	0x4
 2200 08ba 06       		.byte	0x6
 2201 08bb C2       		.byte	0xc2
ARM GAS  /tmp/ccEA7YA6.s 			page 40


 2202 08bc D9080000 		.4byte	0x8d9
 2203 08c0 13       		.uleb128 0x13
 2204 08c1 07020000 		.4byte	.LASF106
 2205 08c5 06       		.byte	0x6
 2206 08c6 C3       		.byte	0xc3
 2207 08c7 9E000000 		.4byte	0x9e
 2208 08cb 00       		.byte	0
 2209 08cc 13       		.uleb128 0x13
 2210 08cd 7F000000 		.4byte	.LASF121
 2211 08d1 06       		.byte	0x6
 2212 08d2 C4       		.byte	0xc4
 2213 08d3 9E000000 		.4byte	0x9e
 2214 08d7 02       		.byte	0x2
 2215 08d8 00       		.byte	0
 2216 08d9 1C       		.uleb128 0x1c
 2217 08da 04       		.byte	0x4
 2218 08db 06       		.byte	0x6
 2219 08dc BE       		.byte	0xbe
 2220 08dd EC080000 		.4byte	0x8ec
 2221 08e1 1F       		.uleb128 0x1f
 2222 08e2 A3080000 		.4byte	0x8a3
 2223 08e6 1F       		.uleb128 0x1f
 2224 08e7 B8080000 		.4byte	0x8b8
 2225 08eb 00       		.byte	0
 2226 08ec 1B       		.uleb128 0x1b
 2227 08ed 0C       		.byte	0xc
 2228 08ee 06       		.byte	0x6
 2229 08ef D1       		.byte	0xd1
 2230 08f0 19090000 		.4byte	0x919
 2231 08f4 13       		.uleb128 0x13
 2232 08f5 43010000 		.4byte	.LASF122
 2233 08f9 06       		.byte	0x6
 2234 08fa D5       		.byte	0xd5
 2235 08fb B4000000 		.4byte	0xb4
 2236 08ff 00       		.byte	0
 2237 0900 13       		.uleb128 0x13
 2238 0901 4A070000 		.4byte	.LASF123
 2239 0905 06       		.byte	0x6
 2240 0906 D9       		.byte	0xd9
 2241 0907 B4000000 		.4byte	0xb4
 2242 090b 04       		.byte	0x4
 2243 090c 13       		.uleb128 0x13
 2244 090d E0030000 		.4byte	.LASF124
 2245 0911 06       		.byte	0x6
 2246 0912 DD       		.byte	0xdd
 2247 0913 B4000000 		.4byte	0xb4
 2248 0917 08       		.byte	0x8
 2249 0918 00       		.byte	0
 2250 0919 03       		.uleb128 0x3
 2251 091a 3E070000 		.4byte	.LASF125
 2252 091e 06       		.byte	0x6
 2253 091f DE       		.byte	0xde
 2254 0920 EC080000 		.4byte	0x8ec
 2255 0924 09       		.uleb128 0x9
 2256 0925 75060000 		.4byte	0x675
 2257 0929 34090000 		.4byte	0x934
 2258 092d 0A       		.uleb128 0xa
ARM GAS  /tmp/ccEA7YA6.s 			page 41


 2259 092e E3000000 		.4byte	0xe3
 2260 0932 02       		.byte	0x2
 2261 0933 00       		.byte	0
 2262 0934 09       		.uleb128 0x9
 2263 0935 75060000 		.4byte	0x675
 2264 0939 44090000 		.4byte	0x944
 2265 093d 0A       		.uleb128 0xa
 2266 093e E3000000 		.4byte	0xe3
 2267 0942 0D       		.byte	0xd
 2268 0943 00       		.byte	0
 2269 0944 07       		.uleb128 0x7
 2270 0945 04       		.byte	0x4
 2271 0946 4A090000 		.4byte	0x94a
 2272 094a 08       		.uleb128 0x8
 2273 094b 19090000 		.4byte	0x919
 2274 094f 07       		.uleb128 0x7
 2275 0950 04       		.byte	0x4
 2276 0951 C1050000 		.4byte	0x5c1
 2277 0955 07       		.uleb128 0x7
 2278 0956 04       		.byte	0x4
 2279 0957 76030000 		.4byte	0x376
 2280 095b 20       		.uleb128 0x20
 2281 095c 3F020000 		.4byte	.LASF126
 2282 0960 01       		.byte	0x1
 2283 0961 28       		.byte	0x28
 2284 0962 00000000 		.4byte	.LFB118
 2285 0966 C4000000 		.4byte	.LFE118-.LFB118
 2286 096a 01       		.uleb128 0x1
 2287 096b 9C       		.byte	0x9c
 2288 096c 9B090000 		.4byte	0x99b
 2289 0970 21       		.uleb128 0x21
 2290 0971 29000000 		.4byte	.LASF128
 2291 0975 01       		.byte	0x1
 2292 0976 28       		.byte	0x28
 2293 0977 9B090000 		.4byte	0x99b
 2294 097b 02       		.uleb128 0x2
 2295 097c 91       		.byte	0x91
 2296 097d 6C       		.sleb128 -20
 2297 097e 22       		.uleb128 0x22
 2298 097f 63616E00 		.ascii	"can\000"
 2299 0983 01       		.byte	0x1
 2300 0984 29       		.byte	0x29
 2301 0985 55090000 		.4byte	0x955
 2302 0989 02       		.uleb128 0x2
 2303 098a 91       		.byte	0x91
 2304 098b 74       		.sleb128 -12
 2305 098c 22       		.uleb128 0x22
 2306 098d 74737200 		.ascii	"tsr\000"
 2307 0991 01       		.byte	0x1
 2308 0992 2A       		.byte	0x2a
 2309 0993 B4000000 		.4byte	0xb4
 2310 0997 02       		.uleb128 0x2
 2311 0998 91       		.byte	0x91
 2312 0999 70       		.sleb128 -16
 2313 099a 00       		.byte	0
 2314 099b 07       		.uleb128 0x7
 2315 099c 04       		.byte	0x4
ARM GAS  /tmp/ccEA7YA6.s 			page 42


 2316 099d 2D070000 		.4byte	0x72d
 2317 09a1 20       		.uleb128 0x20
 2318 09a2 4C010000 		.4byte	.LASF127
 2319 09a6 01       		.byte	0x1
 2320 09a7 5D       		.byte	0x5d
 2321 09a8 00000000 		.4byte	.LFB119
 2322 09ac 46000000 		.4byte	.LFE119-.LFB119
 2323 09b0 01       		.uleb128 0x1
 2324 09b1 9C       		.byte	0x9c
 2325 09b2 D3090000 		.4byte	0x9d3
 2326 09b6 21       		.uleb128 0x21
 2327 09b7 29000000 		.4byte	.LASF128
 2328 09bb 01       		.byte	0x1
 2329 09bc 5D       		.byte	0x5d
 2330 09bd 9B090000 		.4byte	0x99b
 2331 09c1 02       		.uleb128 0x2
 2332 09c2 91       		.byte	0x91
 2333 09c3 6C       		.sleb128 -20
 2334 09c4 23       		.uleb128 0x23
 2335 09c5 89020000 		.4byte	.LASF129
 2336 09c9 01       		.byte	0x1
 2337 09ca 5E       		.byte	0x5e
 2338 09cb B4000000 		.4byte	0xb4
 2339 09cf 02       		.uleb128 0x2
 2340 09d0 91       		.byte	0x91
 2341 09d1 74       		.sleb128 -12
 2342 09d2 00       		.byte	0
 2343 09d3 24       		.uleb128 0x24
 2344 09d4 62020000 		.4byte	.LASF130
 2345 09d8 01       		.byte	0x1
 2346 09d9 77       		.byte	0x77
 2347 09da 00000000 		.4byte	.LFB120
 2348 09de 3C000000 		.4byte	.LFE120-.LFB120
 2349 09e2 01       		.uleb128 0x1
 2350 09e3 9C       		.byte	0x9c
 2351 09e4 050A0000 		.4byte	0xa05
 2352 09e8 21       		.uleb128 0x21
 2353 09e9 29000000 		.4byte	.LASF128
 2354 09ed 01       		.byte	0x1
 2355 09ee 77       		.byte	0x77
 2356 09ef 9B090000 		.4byte	0x99b
 2357 09f3 02       		.uleb128 0x2
 2358 09f4 91       		.byte	0x91
 2359 09f5 74       		.sleb128 -12
 2360 09f6 23       		.uleb128 0x23
 2361 09f7 58030000 		.4byte	.LASF131
 2362 09fb 01       		.byte	0x1
 2363 09fc 78       		.byte	0x78
 2364 09fd B4000000 		.4byte	0xb4
 2365 0a01 02       		.uleb128 0x2
 2366 0a02 91       		.byte	0x91
 2367 0a03 7C       		.sleb128 -4
 2368 0a04 00       		.byte	0
 2369 0a05 24       		.uleb128 0x24
 2370 0a06 4D000000 		.4byte	.LASF132
 2371 0a0a 01       		.byte	0x1
 2372 0a0b 90       		.byte	0x90
ARM GAS  /tmp/ccEA7YA6.s 			page 43


 2373 0a0c 00000000 		.4byte	.LFB121
 2374 0a10 54000000 		.4byte	.LFE121-.LFB121
 2375 0a14 01       		.uleb128 0x1
 2376 0a15 9C       		.byte	0x9c
 2377 0a16 5D0A0000 		.4byte	0xa5d
 2378 0a1a 21       		.uleb128 0x21
 2379 0a1b 29000000 		.4byte	.LASF128
 2380 0a1f 01       		.byte	0x1
 2381 0a20 90       		.byte	0x90
 2382 0a21 9B090000 		.4byte	0x99b
 2383 0a25 02       		.uleb128 0x2
 2384 0a26 91       		.byte	0x91
 2385 0a27 6C       		.sleb128 -20
 2386 0a28 22       		.uleb128 0x22
 2387 0a29 6D737200 		.ascii	"msr\000"
 2388 0a2d 01       		.byte	0x1
 2389 0a2e 91       		.byte	0x91
 2390 0a2f B4000000 		.4byte	0xb4
 2391 0a33 02       		.uleb128 0x2
 2392 0a34 91       		.byte	0x91
 2393 0a35 7C       		.sleb128 -4
 2394 0a36 25       		.uleb128 0x25
 2395 0a37 1E000000 		.4byte	.LBB2
 2396 0a3b 32000000 		.4byte	.LBE2-.LBB2
 2397 0a3f 23       		.uleb128 0x23
 2398 0a40 21070000 		.4byte	.LASF133
 2399 0a44 01       		.byte	0x1
 2400 0a45 98       		.byte	0x98
 2401 0a46 B4000000 		.4byte	0xb4
 2402 0a4a 02       		.uleb128 0x2
 2403 0a4b 91       		.byte	0x91
 2404 0a4c 74       		.sleb128 -12
 2405 0a4d 22       		.uleb128 0x22
 2406 0a4e 65737200 		.ascii	"esr\000"
 2407 0a52 01       		.byte	0x1
 2408 0a53 99       		.byte	0x99
 2409 0a54 B4000000 		.4byte	0xb4
 2410 0a58 02       		.uleb128 0x2
 2411 0a59 91       		.byte	0x91
 2412 0a5a 78       		.sleb128 -8
 2413 0a5b 00       		.byte	0
 2414 0a5c 00       		.byte	0
 2415 0a5d 26       		.uleb128 0x26
 2416 0a5e FE060000 		.4byte	.LASF134
 2417 0a62 01       		.byte	0x1
 2418 0a63 AE       		.byte	0xae
 2419 0a64 00000000 		.4byte	.LFB122
 2420 0a68 1C000000 		.4byte	.LFE122-.LFB122
 2421 0a6c 01       		.uleb128 0x1
 2422 0a6d 9C       		.byte	0x9c
 2423 0a6e 26       		.uleb128 0x26
 2424 0a6f FF050000 		.4byte	.LASF135
 2425 0a73 01       		.byte	0x1
 2426 0a74 BC       		.byte	0xbc
 2427 0a75 00000000 		.4byte	.LFB123
 2428 0a79 1C000000 		.4byte	.LFE123-.LFB123
 2429 0a7d 01       		.uleb128 0x1
ARM GAS  /tmp/ccEA7YA6.s 			page 44


 2430 0a7e 9C       		.byte	0x9c
 2431 0a7f 26       		.uleb128 0x26
 2432 0a80 6F070000 		.4byte	.LASF136
 2433 0a84 01       		.byte	0x1
 2434 0a85 CA       		.byte	0xca
 2435 0a86 00000000 		.4byte	.LFB124
 2436 0a8a 1C000000 		.4byte	.LFE124-.LFB124
 2437 0a8e 01       		.uleb128 0x1
 2438 0a8f 9C       		.byte	0x9c
 2439 0a90 26       		.uleb128 0x26
 2440 0a91 00000000 		.4byte	.LASF137
 2441 0a95 01       		.byte	0x1
 2442 0a96 D8       		.byte	0xd8
 2443 0a97 00000000 		.4byte	.LFB125
 2444 0a9b 1C000000 		.4byte	.LFE125-.LFB125
 2445 0a9f 01       		.uleb128 0x1
 2446 0aa0 9C       		.byte	0x9c
 2447 0aa1 27       		.uleb128 0x27
 2448 0aa2 1C020000 		.4byte	.LASF138
 2449 0aa6 01       		.byte	0x1
 2450 0aa7 2501     		.2byte	0x125
 2451 0aa9 00000000 		.4byte	.LFB126
 2452 0aad 18000000 		.4byte	.LFE126-.LFB126
 2453 0ab1 01       		.uleb128 0x1
 2454 0ab2 9C       		.byte	0x9c
 2455 0ab3 28       		.uleb128 0x28
 2456 0ab4 96060000 		.4byte	.LASF139
 2457 0ab8 01       		.byte	0x1
 2458 0ab9 3901     		.2byte	0x139
 2459 0abb 00000000 		.4byte	.LFB127
 2460 0abf 7C000000 		.4byte	.LFE127-.LFB127
 2461 0ac3 01       		.uleb128 0x1
 2462 0ac4 9C       		.byte	0x9c
 2463 0ac5 D90A0000 		.4byte	0xad9
 2464 0ac9 29       		.uleb128 0x29
 2465 0aca 29000000 		.4byte	.LASF128
 2466 0ace 01       		.byte	0x1
 2467 0acf 3901     		.2byte	0x139
 2468 0ad1 9B090000 		.4byte	0x99b
 2469 0ad5 02       		.uleb128 0x2
 2470 0ad6 91       		.byte	0x91
 2471 0ad7 74       		.sleb128 -12
 2472 0ad8 00       		.byte	0
 2473 0ad9 28       		.uleb128 0x28
 2474 0ada 30000000 		.4byte	.LASF140
 2475 0ade 01       		.byte	0x1
 2476 0adf 6D01     		.2byte	0x16d
 2477 0ae1 00000000 		.4byte	.LFB128
 2478 0ae5 64000000 		.4byte	.LFE128-.LFB128
 2479 0ae9 01       		.uleb128 0x1
 2480 0aea 9C       		.byte	0x9c
 2481 0aeb FF0A0000 		.4byte	0xaff
 2482 0aef 29       		.uleb128 0x29
 2483 0af0 29000000 		.4byte	.LASF128
 2484 0af4 01       		.byte	0x1
 2485 0af5 6D01     		.2byte	0x16d
 2486 0af7 9B090000 		.4byte	0x99b
ARM GAS  /tmp/ccEA7YA6.s 			page 45


 2487 0afb 02       		.uleb128 0x2
 2488 0afc 91       		.byte	0x91
 2489 0afd 74       		.sleb128 -12
 2490 0afe 00       		.byte	0
 2491 0aff 2A       		.uleb128 0x2a
 2492 0b00 EE020000 		.4byte	.LASF144
 2493 0b04 01       		.byte	0x1
 2494 0b05 9B01     		.2byte	0x19b
 2495 0b07 BF000000 		.4byte	0xbf
 2496 0b0b 00000000 		.4byte	.LFB129
 2497 0b0f 20000000 		.4byte	.LFE129-.LFB129
 2498 0b13 01       		.uleb128 0x1
 2499 0b14 9C       		.byte	0x9c
 2500 0b15 290B0000 		.4byte	0xb29
 2501 0b19 29       		.uleb128 0x29
 2502 0b1a 29000000 		.4byte	.LASF128
 2503 0b1e 01       		.byte	0x1
 2504 0b1f 9B01     		.2byte	0x19b
 2505 0b21 9B090000 		.4byte	0x99b
 2506 0b25 02       		.uleb128 0x2
 2507 0b26 91       		.byte	0x91
 2508 0b27 7C       		.sleb128 -4
 2509 0b28 00       		.byte	0
 2510 0b29 2B       		.uleb128 0x2b
 2511 0b2a A3040000 		.4byte	.LASF141
 2512 0b2e 01       		.byte	0x1
 2513 0b2f A901     		.2byte	0x1a9
 2514 0b31 00000000 		.4byte	.LFB130
 2515 0b35 62000000 		.4byte	.LFE130-.LFB130
 2516 0b39 01       		.uleb128 0x1
 2517 0b3a 9C       		.byte	0x9c
 2518 0b3b 7C0B0000 		.4byte	0xb7c
 2519 0b3f 29       		.uleb128 0x29
 2520 0b40 29000000 		.4byte	.LASF128
 2521 0b44 01       		.byte	0x1
 2522 0b45 A901     		.2byte	0x1a9
 2523 0b47 9B090000 		.4byte	0x99b
 2524 0b4b 02       		.uleb128 0x2
 2525 0b4c 91       		.byte	0x91
 2526 0b4d 74       		.sleb128 -12
 2527 0b4e 29       		.uleb128 0x29
 2528 0b4f 50070000 		.4byte	.LASF142
 2529 0b53 01       		.byte	0x1
 2530 0b54 A901     		.2byte	0x1a9
 2531 0b56 7C0B0000 		.4byte	0xb7c
 2532 0b5a 02       		.uleb128 0x2
 2533 0b5b 91       		.byte	0x91
 2534 0b5c 70       		.sleb128 -16
 2535 0b5d 2C       		.uleb128 0x2c
 2536 0b5e 63616E00 		.ascii	"can\000"
 2537 0b62 01       		.byte	0x1
 2538 0b63 AA01     		.2byte	0x1aa
 2539 0b65 55090000 		.4byte	0x955
 2540 0b69 02       		.uleb128 0x2
 2541 0b6a 91       		.byte	0x91
 2542 0b6b 7C       		.sleb128 -4
 2543 0b6c 2D       		.uleb128 0x2d
ARM GAS  /tmp/ccEA7YA6.s 			page 46


 2544 0b6d 2A030000 		.4byte	.LASF143
 2545 0b71 01       		.byte	0x1
 2546 0b72 AB01     		.2byte	0x1ab
 2547 0b74 820B0000 		.4byte	0xb82
 2548 0b78 02       		.uleb128 0x2
 2549 0b79 91       		.byte	0x91
 2550 0b7a 78       		.sleb128 -8
 2551 0b7b 00       		.byte	0
 2552 0b7c 07       		.uleb128 0x7
 2553 0b7d 04       		.byte	0x4
 2554 0b7e 2B080000 		.4byte	0x82b
 2555 0b82 07       		.uleb128 0x7
 2556 0b83 04       		.byte	0x4
 2557 0b84 6A010000 		.4byte	0x16a
 2558 0b88 2A       		.uleb128 0x2a
 2559 0b89 F4010000 		.4byte	.LASF145
 2560 0b8d 01       		.byte	0x1
 2561 0b8e C401     		.2byte	0x1c4
 2562 0b90 BF000000 		.4byte	0xbf
 2563 0b94 00000000 		.4byte	.LFB131
 2564 0b98 32000000 		.4byte	.LFE131-.LFB131
 2565 0b9c 01       		.uleb128 0x1
 2566 0b9d 9C       		.byte	0x9c
 2567 0b9e B20B0000 		.4byte	0xbb2
 2568 0ba2 29       		.uleb128 0x29
 2569 0ba3 29000000 		.4byte	.LASF128
 2570 0ba7 01       		.byte	0x1
 2571 0ba8 C401     		.2byte	0x1c4
 2572 0baa 9B090000 		.4byte	0x99b
 2573 0bae 02       		.uleb128 0x2
 2574 0baf 91       		.byte	0x91
 2575 0bb0 7C       		.sleb128 -4
 2576 0bb1 00       		.byte	0
 2577 0bb2 2B       		.uleb128 0x2b
 2578 0bb3 E8060000 		.4byte	.LASF146
 2579 0bb7 01       		.byte	0x1
 2580 0bb8 D101     		.2byte	0x1d1
 2581 0bba 00000000 		.4byte	.LFB132
 2582 0bbe 06010000 		.4byte	.LFE132-.LFB132
 2583 0bc2 01       		.uleb128 0x1
 2584 0bc3 9C       		.byte	0x9c
 2585 0bc4 F60B0000 		.4byte	0xbf6
 2586 0bc8 29       		.uleb128 0x29
 2587 0bc9 29000000 		.4byte	.LASF128
 2588 0bcd 01       		.byte	0x1
 2589 0bce D101     		.2byte	0x1d1
 2590 0bd0 9B090000 		.4byte	0x99b
 2591 0bd4 02       		.uleb128 0x2
 2592 0bd5 91       		.byte	0x91
 2593 0bd6 74       		.sleb128 -12
 2594 0bd7 29       		.uleb128 0x29
 2595 0bd8 71010000 		.4byte	.LASF147
 2596 0bdc 01       		.byte	0x1
 2597 0bdd D101     		.2byte	0x1d1
 2598 0bdf F60B0000 		.4byte	0xbf6
 2599 0be3 02       		.uleb128 0x2
 2600 0be4 91       		.byte	0x91
ARM GAS  /tmp/ccEA7YA6.s 			page 47


 2601 0be5 70       		.sleb128 -16
 2602 0be6 2C       		.uleb128 0x2c
 2603 0be7 63616E00 		.ascii	"can\000"
 2604 0beb 01       		.byte	0x1
 2605 0bec D201     		.2byte	0x1d2
 2606 0bee 55090000 		.4byte	0x955
 2607 0bf2 02       		.uleb128 0x2
 2608 0bf3 91       		.byte	0x91
 2609 0bf4 7C       		.sleb128 -4
 2610 0bf5 00       		.byte	0
 2611 0bf6 07       		.uleb128 0x7
 2612 0bf7 04       		.byte	0x4
 2613 0bf8 98080000 		.4byte	0x898
 2614 0bfc 2A       		.uleb128 0x2a
 2615 0bfd 23060000 		.4byte	.LASF148
 2616 0c01 01       		.byte	0x1
 2617 0c02 0502     		.2byte	0x205
 2618 0c04 BF000000 		.4byte	0xbf
 2619 0c08 00000000 		.4byte	.LFB133
 2620 0c0c D8000000 		.4byte	.LFE133-.LFB133
 2621 0c10 01       		.uleb128 0x1
 2622 0c11 9C       		.byte	0x9c
 2623 0c12 910C0000 		.4byte	0xc91
 2624 0c16 29       		.uleb128 0x29
 2625 0c17 29000000 		.4byte	.LASF128
 2626 0c1b 01       		.byte	0x1
 2627 0c1c 0502     		.2byte	0x205
 2628 0c1e 9B090000 		.4byte	0x99b
 2629 0c22 02       		.uleb128 0x2
 2630 0c23 91       		.byte	0x91
 2631 0c24 6C       		.sleb128 -20
 2632 0c25 2E       		.uleb128 0x2e
 2633 0c26 696400   		.ascii	"id\000"
 2634 0c29 01       		.byte	0x1
 2635 0c2a 0502     		.2byte	0x205
 2636 0c2c B4000000 		.4byte	0xb4
 2637 0c30 02       		.uleb128 0x2
 2638 0c31 91       		.byte	0x91
 2639 0c32 68       		.sleb128 -24
 2640 0c33 29       		.uleb128 0x29
 2641 0c34 3A020000 		.4byte	.LASF149
 2642 0c38 01       		.byte	0x1
 2643 0c39 0502     		.2byte	0x205
 2644 0c3b B4000000 		.4byte	0xb4
 2645 0c3f 02       		.uleb128 0x2
 2646 0c40 91       		.byte	0x91
 2647 0c41 64       		.sleb128 -28
 2648 0c42 29       		.uleb128 0x29
 2649 0c43 A9050000 		.4byte	.LASF118
 2650 0c47 01       		.byte	0x1
 2651 0c48 0502     		.2byte	0x205
 2652 0c4a 910C0000 		.4byte	0xc91
 2653 0c4e 02       		.uleb128 0x2
 2654 0c4f 91       		.byte	0x91
 2655 0c50 60       		.sleb128 -32
 2656 0c51 2C       		.uleb128 0x2c
 2657 0c52 63616E00 		.ascii	"can\000"
ARM GAS  /tmp/ccEA7YA6.s 			page 48


 2658 0c56 01       		.byte	0x1
 2659 0c57 0602     		.2byte	0x206
 2660 0c59 55090000 		.4byte	0x955
 2661 0c5d 02       		.uleb128 0x2
 2662 0c5e 91       		.byte	0x91
 2663 0c5f 7C       		.sleb128 -4
 2664 0c60 2C       		.uleb128 0x2c
 2665 0c61 63667000 		.ascii	"cfp\000"
 2666 0c65 01       		.byte	0x1
 2667 0c66 0702     		.2byte	0x207
 2668 0c68 970C0000 		.4byte	0xc97
 2669 0c6c 02       		.uleb128 0x2
 2670 0c6d 91       		.byte	0x91
 2671 0c6e 78       		.sleb128 -8
 2672 0c6f 2D       		.uleb128 0x2d
 2673 0c70 90040000 		.4byte	.LASF150
 2674 0c74 01       		.byte	0x1
 2675 0c75 0802     		.2byte	0x208
 2676 0c77 B4000000 		.4byte	0xb4
 2677 0c7b 05       		.uleb128 0x5
 2678 0c7c 03       		.byte	0x3
 2679 0c7d 00000000 		.4byte	next_fid.7257
 2680 0c81 2D       		.uleb128 0x2d
 2681 0c82 E8020000 		.4byte	.LASF151
 2682 0c86 01       		.byte	0x1
 2683 0c87 0902     		.2byte	0x209
 2684 0c89 B4000000 		.4byte	0xb4
 2685 0c8d 02       		.uleb128 0x2
 2686 0c8e 91       		.byte	0x91
 2687 0c8f 74       		.sleb128 -12
 2688 0c90 00       		.byte	0
 2689 0c91 07       		.uleb128 0x7
 2690 0c92 04       		.byte	0x4
 2691 0c93 02070000 		.4byte	0x702
 2692 0c97 07       		.uleb128 0x7
 2693 0c98 04       		.byte	0x4
 2694 0c99 E4010000 		.4byte	0x1e4
 2695 0c9d 2F       		.uleb128 0x2f
 2696 0c9e A0010000 		.4byte	.LASF152
 2697 0ca2 08       		.byte	0x8
 2698 0ca3 9806     		.2byte	0x698
 2699 0ca5 27010000 		.4byte	0x127
 2700 0ca9 30       		.uleb128 0x30
 2701 0caa C5030000 		.4byte	.LASF153
 2702 0cae 01       		.byte	0x1
 2703 0caf 11       		.byte	0x11
 2704 0cb0 2D070000 		.4byte	0x72d
 2705 0cb4 05       		.uleb128 0x5
 2706 0cb5 03       		.byte	0x3
 2707 0cb6 00000000 		.4byte	RTCAND1
 2708 0cba 00       		.byte	0
 2709              		.section	.debug_abbrev,"",%progbits
 2710              	.Ldebug_abbrev0:
 2711 0000 01       		.uleb128 0x1
 2712 0001 11       		.uleb128 0x11
 2713 0002 01       		.byte	0x1
 2714 0003 25       		.uleb128 0x25
ARM GAS  /tmp/ccEA7YA6.s 			page 49


 2715 0004 0E       		.uleb128 0xe
 2716 0005 13       		.uleb128 0x13
 2717 0006 0B       		.uleb128 0xb
 2718 0007 03       		.uleb128 0x3
 2719 0008 0E       		.uleb128 0xe
 2720 0009 55       		.uleb128 0x55
 2721 000a 17       		.uleb128 0x17
 2722 000b 11       		.uleb128 0x11
 2723 000c 01       		.uleb128 0x1
 2724 000d 10       		.uleb128 0x10
 2725 000e 17       		.uleb128 0x17
 2726 000f 00       		.byte	0
 2727 0010 00       		.byte	0
 2728 0011 02       		.uleb128 0x2
 2729 0012 24       		.uleb128 0x24
 2730 0013 00       		.byte	0
 2731 0014 0B       		.uleb128 0xb
 2732 0015 0B       		.uleb128 0xb
 2733 0016 3E       		.uleb128 0x3e
 2734 0017 0B       		.uleb128 0xb
 2735 0018 03       		.uleb128 0x3
 2736 0019 0E       		.uleb128 0xe
 2737 001a 00       		.byte	0
 2738 001b 00       		.byte	0
 2739 001c 03       		.uleb128 0x3
 2740 001d 16       		.uleb128 0x16
 2741 001e 00       		.byte	0
 2742 001f 03       		.uleb128 0x3
 2743 0020 0E       		.uleb128 0xe
 2744 0021 3A       		.uleb128 0x3a
 2745 0022 0B       		.uleb128 0xb
 2746 0023 3B       		.uleb128 0x3b
 2747 0024 0B       		.uleb128 0xb
 2748 0025 49       		.uleb128 0x49
 2749 0026 13       		.uleb128 0x13
 2750 0027 00       		.byte	0
 2751 0028 00       		.byte	0
 2752 0029 04       		.uleb128 0x4
 2753 002a 24       		.uleb128 0x24
 2754 002b 00       		.byte	0
 2755 002c 0B       		.uleb128 0xb
 2756 002d 0B       		.uleb128 0xb
 2757 002e 3E       		.uleb128 0x3e
 2758 002f 0B       		.uleb128 0xb
 2759 0030 03       		.uleb128 0x3
 2760 0031 08       		.uleb128 0x8
 2761 0032 00       		.byte	0
 2762 0033 00       		.byte	0
 2763 0034 05       		.uleb128 0x5
 2764 0035 0F       		.uleb128 0xf
 2765 0036 00       		.byte	0
 2766 0037 0B       		.uleb128 0xb
 2767 0038 0B       		.uleb128 0xb
 2768 0039 00       		.byte	0
 2769 003a 00       		.byte	0
 2770 003b 06       		.uleb128 0x6
 2771 003c 35       		.uleb128 0x35
ARM GAS  /tmp/ccEA7YA6.s 			page 50


 2772 003d 00       		.byte	0
 2773 003e 49       		.uleb128 0x49
 2774 003f 13       		.uleb128 0x13
 2775 0040 00       		.byte	0
 2776 0041 00       		.byte	0
 2777 0042 07       		.uleb128 0x7
 2778 0043 0F       		.uleb128 0xf
 2779 0044 00       		.byte	0
 2780 0045 0B       		.uleb128 0xb
 2781 0046 0B       		.uleb128 0xb
 2782 0047 49       		.uleb128 0x49
 2783 0048 13       		.uleb128 0x13
 2784 0049 00       		.byte	0
 2785 004a 00       		.byte	0
 2786 004b 08       		.uleb128 0x8
 2787 004c 26       		.uleb128 0x26
 2788 004d 00       		.byte	0
 2789 004e 49       		.uleb128 0x49
 2790 004f 13       		.uleb128 0x13
 2791 0050 00       		.byte	0
 2792 0051 00       		.byte	0
 2793 0052 09       		.uleb128 0x9
 2794 0053 01       		.uleb128 0x1
 2795 0054 01       		.byte	0x1
 2796 0055 49       		.uleb128 0x49
 2797 0056 13       		.uleb128 0x13
 2798 0057 01       		.uleb128 0x1
 2799 0058 13       		.uleb128 0x13
 2800 0059 00       		.byte	0
 2801 005a 00       		.byte	0
 2802 005b 0A       		.uleb128 0xa
 2803 005c 21       		.uleb128 0x21
 2804 005d 00       		.byte	0
 2805 005e 49       		.uleb128 0x49
 2806 005f 13       		.uleb128 0x13
 2807 0060 2F       		.uleb128 0x2f
 2808 0061 0B       		.uleb128 0xb
 2809 0062 00       		.byte	0
 2810 0063 00       		.byte	0
 2811 0064 0B       		.uleb128 0xb
 2812 0065 13       		.uleb128 0x13
 2813 0066 01       		.byte	0x1
 2814 0067 0B       		.uleb128 0xb
 2815 0068 0B       		.uleb128 0xb
 2816 0069 3A       		.uleb128 0x3a
 2817 006a 0B       		.uleb128 0xb
 2818 006b 3B       		.uleb128 0x3b
 2819 006c 05       		.uleb128 0x5
 2820 006d 01       		.uleb128 0x1
 2821 006e 13       		.uleb128 0x13
 2822 006f 00       		.byte	0
 2823 0070 00       		.byte	0
 2824 0071 0C       		.uleb128 0xc
 2825 0072 0D       		.uleb128 0xd
 2826 0073 00       		.byte	0
 2827 0074 03       		.uleb128 0x3
 2828 0075 08       		.uleb128 0x8
ARM GAS  /tmp/ccEA7YA6.s 			page 51


 2829 0076 3A       		.uleb128 0x3a
 2830 0077 0B       		.uleb128 0xb
 2831 0078 3B       		.uleb128 0x3b
 2832 0079 05       		.uleb128 0x5
 2833 007a 49       		.uleb128 0x49
 2834 007b 13       		.uleb128 0x13
 2835 007c 38       		.uleb128 0x38
 2836 007d 0B       		.uleb128 0xb
 2837 007e 00       		.byte	0
 2838 007f 00       		.byte	0
 2839 0080 0D       		.uleb128 0xd
 2840 0081 0D       		.uleb128 0xd
 2841 0082 00       		.byte	0
 2842 0083 03       		.uleb128 0x3
 2843 0084 0E       		.uleb128 0xe
 2844 0085 3A       		.uleb128 0x3a
 2845 0086 0B       		.uleb128 0xb
 2846 0087 3B       		.uleb128 0x3b
 2847 0088 05       		.uleb128 0x5
 2848 0089 49       		.uleb128 0x49
 2849 008a 13       		.uleb128 0x13
 2850 008b 38       		.uleb128 0x38
 2851 008c 0B       		.uleb128 0xb
 2852 008d 00       		.byte	0
 2853 008e 00       		.byte	0
 2854 008f 0E       		.uleb128 0xe
 2855 0090 16       		.uleb128 0x16
 2856 0091 00       		.byte	0
 2857 0092 03       		.uleb128 0x3
 2858 0093 0E       		.uleb128 0xe
 2859 0094 3A       		.uleb128 0x3a
 2860 0095 0B       		.uleb128 0xb
 2861 0096 3B       		.uleb128 0x3b
 2862 0097 05       		.uleb128 0x5
 2863 0098 49       		.uleb128 0x49
 2864 0099 13       		.uleb128 0x13
 2865 009a 00       		.byte	0
 2866 009b 00       		.byte	0
 2867 009c 0F       		.uleb128 0xf
 2868 009d 13       		.uleb128 0x13
 2869 009e 01       		.byte	0x1
 2870 009f 0B       		.uleb128 0xb
 2871 00a0 05       		.uleb128 0x5
 2872 00a1 3A       		.uleb128 0x3a
 2873 00a2 0B       		.uleb128 0xb
 2874 00a3 3B       		.uleb128 0x3b
 2875 00a4 05       		.uleb128 0x5
 2876 00a5 01       		.uleb128 0x1
 2877 00a6 13       		.uleb128 0x13
 2878 00a7 00       		.byte	0
 2879 00a8 00       		.byte	0
 2880 00a9 10       		.uleb128 0x10
 2881 00aa 0D       		.uleb128 0xd
 2882 00ab 00       		.byte	0
 2883 00ac 03       		.uleb128 0x3
 2884 00ad 0E       		.uleb128 0xe
 2885 00ae 3A       		.uleb128 0x3a
ARM GAS  /tmp/ccEA7YA6.s 			page 52


 2886 00af 0B       		.uleb128 0xb
 2887 00b0 3B       		.uleb128 0x3b
 2888 00b1 05       		.uleb128 0x5
 2889 00b2 49       		.uleb128 0x49
 2890 00b3 13       		.uleb128 0x13
 2891 00b4 38       		.uleb128 0x38
 2892 00b5 05       		.uleb128 0x5
 2893 00b6 00       		.byte	0
 2894 00b7 00       		.byte	0
 2895 00b8 11       		.uleb128 0x11
 2896 00b9 0D       		.uleb128 0xd
 2897 00ba 00       		.byte	0
 2898 00bb 03       		.uleb128 0x3
 2899 00bc 08       		.uleb128 0x8
 2900 00bd 3A       		.uleb128 0x3a
 2901 00be 0B       		.uleb128 0xb
 2902 00bf 3B       		.uleb128 0x3b
 2903 00c0 05       		.uleb128 0x5
 2904 00c1 49       		.uleb128 0x49
 2905 00c2 13       		.uleb128 0x13
 2906 00c3 38       		.uleb128 0x38
 2907 00c4 05       		.uleb128 0x5
 2908 00c5 00       		.byte	0
 2909 00c6 00       		.byte	0
 2910 00c7 12       		.uleb128 0x12
 2911 00c8 13       		.uleb128 0x13
 2912 00c9 01       		.byte	0x1
 2913 00ca 03       		.uleb128 0x3
 2914 00cb 0E       		.uleb128 0xe
 2915 00cc 0B       		.uleb128 0xb
 2916 00cd 0B       		.uleb128 0xb
 2917 00ce 3A       		.uleb128 0x3a
 2918 00cf 0B       		.uleb128 0xb
 2919 00d0 3B       		.uleb128 0x3b
 2920 00d1 0B       		.uleb128 0xb
 2921 00d2 01       		.uleb128 0x1
 2922 00d3 13       		.uleb128 0x13
 2923 00d4 00       		.byte	0
 2924 00d5 00       		.byte	0
 2925 00d6 13       		.uleb128 0x13
 2926 00d7 0D       		.uleb128 0xd
 2927 00d8 00       		.byte	0
 2928 00d9 03       		.uleb128 0x3
 2929 00da 0E       		.uleb128 0xe
 2930 00db 3A       		.uleb128 0x3a
 2931 00dc 0B       		.uleb128 0xb
 2932 00dd 3B       		.uleb128 0x3b
 2933 00de 0B       		.uleb128 0xb
 2934 00df 49       		.uleb128 0x49
 2935 00e0 13       		.uleb128 0x13
 2936 00e1 38       		.uleb128 0x38
 2937 00e2 0B       		.uleb128 0xb
 2938 00e3 00       		.byte	0
 2939 00e4 00       		.byte	0
 2940 00e5 14       		.uleb128 0x14
 2941 00e6 0D       		.uleb128 0xd
 2942 00e7 00       		.byte	0
ARM GAS  /tmp/ccEA7YA6.s 			page 53


 2943 00e8 49       		.uleb128 0x49
 2944 00e9 13       		.uleb128 0x13
 2945 00ea 38       		.uleb128 0x38
 2946 00eb 0B       		.uleb128 0xb
 2947 00ec 00       		.byte	0
 2948 00ed 00       		.byte	0
 2949 00ee 15       		.uleb128 0x15
 2950 00ef 0D       		.uleb128 0xd
 2951 00f0 00       		.byte	0
 2952 00f1 03       		.uleb128 0x3
 2953 00f2 08       		.uleb128 0x8
 2954 00f3 3A       		.uleb128 0x3a
 2955 00f4 0B       		.uleb128 0xb
 2956 00f5 3B       		.uleb128 0x3b
 2957 00f6 0B       		.uleb128 0xb
 2958 00f7 49       		.uleb128 0x49
 2959 00f8 13       		.uleb128 0x13
 2960 00f9 38       		.uleb128 0x38
 2961 00fa 0B       		.uleb128 0xb
 2962 00fb 00       		.byte	0
 2963 00fc 00       		.byte	0
 2964 00fd 16       		.uleb128 0x16
 2965 00fe 0D       		.uleb128 0xd
 2966 00ff 00       		.byte	0
 2967 0100 03       		.uleb128 0x3
 2968 0101 0E       		.uleb128 0xe
 2969 0102 3A       		.uleb128 0x3a
 2970 0103 0B       		.uleb128 0xb
 2971 0104 3B       		.uleb128 0x3b
 2972 0105 0B       		.uleb128 0xb
 2973 0106 49       		.uleb128 0x49
 2974 0107 13       		.uleb128 0x13
 2975 0108 0B       		.uleb128 0xb
 2976 0109 0B       		.uleb128 0xb
 2977 010a 0D       		.uleb128 0xd
 2978 010b 0B       		.uleb128 0xb
 2979 010c 0C       		.uleb128 0xc
 2980 010d 0B       		.uleb128 0xb
 2981 010e 38       		.uleb128 0x38
 2982 010f 0B       		.uleb128 0xb
 2983 0110 00       		.byte	0
 2984 0111 00       		.byte	0
 2985 0112 17       		.uleb128 0x17
 2986 0113 15       		.uleb128 0x15
 2987 0114 01       		.byte	0x1
 2988 0115 27       		.uleb128 0x27
 2989 0116 19       		.uleb128 0x19
 2990 0117 01       		.uleb128 0x1
 2991 0118 13       		.uleb128 0x13
 2992 0119 00       		.byte	0
 2993 011a 00       		.byte	0
 2994 011b 18       		.uleb128 0x18
 2995 011c 05       		.uleb128 0x5
 2996 011d 00       		.byte	0
 2997 011e 49       		.uleb128 0x49
 2998 011f 13       		.uleb128 0x13
 2999 0120 00       		.byte	0
ARM GAS  /tmp/ccEA7YA6.s 			page 54


 3000 0121 00       		.byte	0
 3001 0122 19       		.uleb128 0x19
 3002 0123 04       		.uleb128 0x4
 3003 0124 01       		.byte	0x1
 3004 0125 0B       		.uleb128 0xb
 3005 0126 0B       		.uleb128 0xb
 3006 0127 3A       		.uleb128 0x3a
 3007 0128 0B       		.uleb128 0xb
 3008 0129 3B       		.uleb128 0x3b
 3009 012a 0B       		.uleb128 0xb
 3010 012b 01       		.uleb128 0x1
 3011 012c 13       		.uleb128 0x13
 3012 012d 00       		.byte	0
 3013 012e 00       		.byte	0
 3014 012f 1A       		.uleb128 0x1a
 3015 0130 28       		.uleb128 0x28
 3016 0131 00       		.byte	0
 3017 0132 03       		.uleb128 0x3
 3018 0133 0E       		.uleb128 0xe
 3019 0134 1C       		.uleb128 0x1c
 3020 0135 0D       		.uleb128 0xd
 3021 0136 00       		.byte	0
 3022 0137 00       		.byte	0
 3023 0138 1B       		.uleb128 0x1b
 3024 0139 13       		.uleb128 0x13
 3025 013a 01       		.byte	0x1
 3026 013b 0B       		.uleb128 0xb
 3027 013c 0B       		.uleb128 0xb
 3028 013d 3A       		.uleb128 0x3a
 3029 013e 0B       		.uleb128 0xb
 3030 013f 3B       		.uleb128 0x3b
 3031 0140 0B       		.uleb128 0xb
 3032 0141 01       		.uleb128 0x1
 3033 0142 13       		.uleb128 0x13
 3034 0143 00       		.byte	0
 3035 0144 00       		.byte	0
 3036 0145 1C       		.uleb128 0x1c
 3037 0146 17       		.uleb128 0x17
 3038 0147 01       		.byte	0x1
 3039 0148 0B       		.uleb128 0xb
 3040 0149 0B       		.uleb128 0xb
 3041 014a 3A       		.uleb128 0x3a
 3042 014b 0B       		.uleb128 0xb
 3043 014c 3B       		.uleb128 0x3b
 3044 014d 0B       		.uleb128 0xb
 3045 014e 01       		.uleb128 0x1
 3046 014f 13       		.uleb128 0x13
 3047 0150 00       		.byte	0
 3048 0151 00       		.byte	0
 3049 0152 1D       		.uleb128 0x1d
 3050 0153 0D       		.uleb128 0xd
 3051 0154 00       		.byte	0
 3052 0155 03       		.uleb128 0x3
 3053 0156 0E       		.uleb128 0xe
 3054 0157 3A       		.uleb128 0x3a
 3055 0158 0B       		.uleb128 0xb
 3056 0159 3B       		.uleb128 0x3b
ARM GAS  /tmp/ccEA7YA6.s 			page 55


 3057 015a 0B       		.uleb128 0xb
 3058 015b 49       		.uleb128 0x49
 3059 015c 13       		.uleb128 0x13
 3060 015d 00       		.byte	0
 3061 015e 00       		.byte	0
 3062 015f 1E       		.uleb128 0x1e
 3063 0160 0D       		.uleb128 0xd
 3064 0161 00       		.byte	0
 3065 0162 03       		.uleb128 0x3
 3066 0163 08       		.uleb128 0x8
 3067 0164 3A       		.uleb128 0x3a
 3068 0165 0B       		.uleb128 0xb
 3069 0166 3B       		.uleb128 0x3b
 3070 0167 0B       		.uleb128 0xb
 3071 0168 49       		.uleb128 0x49
 3072 0169 13       		.uleb128 0x13
 3073 016a 0B       		.uleb128 0xb
 3074 016b 0B       		.uleb128 0xb
 3075 016c 0D       		.uleb128 0xd
 3076 016d 0B       		.uleb128 0xb
 3077 016e 0C       		.uleb128 0xc
 3078 016f 0B       		.uleb128 0xb
 3079 0170 38       		.uleb128 0x38
 3080 0171 0B       		.uleb128 0xb
 3081 0172 00       		.byte	0
 3082 0173 00       		.byte	0
 3083 0174 1F       		.uleb128 0x1f
 3084 0175 0D       		.uleb128 0xd
 3085 0176 00       		.byte	0
 3086 0177 49       		.uleb128 0x49
 3087 0178 13       		.uleb128 0x13
 3088 0179 00       		.byte	0
 3089 017a 00       		.byte	0
 3090 017b 20       		.uleb128 0x20
 3091 017c 2E       		.uleb128 0x2e
 3092 017d 01       		.byte	0x1
 3093 017e 03       		.uleb128 0x3
 3094 017f 0E       		.uleb128 0xe
 3095 0180 3A       		.uleb128 0x3a
 3096 0181 0B       		.uleb128 0xb
 3097 0182 3B       		.uleb128 0x3b
 3098 0183 0B       		.uleb128 0xb
 3099 0184 27       		.uleb128 0x27
 3100 0185 19       		.uleb128 0x19
 3101 0186 11       		.uleb128 0x11
 3102 0187 01       		.uleb128 0x1
 3103 0188 12       		.uleb128 0x12
 3104 0189 06       		.uleb128 0x6
 3105 018a 40       		.uleb128 0x40
 3106 018b 18       		.uleb128 0x18
 3107 018c 9642     		.uleb128 0x2116
 3108 018e 19       		.uleb128 0x19
 3109 018f 01       		.uleb128 0x1
 3110 0190 13       		.uleb128 0x13
 3111 0191 00       		.byte	0
 3112 0192 00       		.byte	0
 3113 0193 21       		.uleb128 0x21
ARM GAS  /tmp/ccEA7YA6.s 			page 56


 3114 0194 05       		.uleb128 0x5
 3115 0195 00       		.byte	0
 3116 0196 03       		.uleb128 0x3
 3117 0197 0E       		.uleb128 0xe
 3118 0198 3A       		.uleb128 0x3a
 3119 0199 0B       		.uleb128 0xb
 3120 019a 3B       		.uleb128 0x3b
 3121 019b 0B       		.uleb128 0xb
 3122 019c 49       		.uleb128 0x49
 3123 019d 13       		.uleb128 0x13
 3124 019e 02       		.uleb128 0x2
 3125 019f 18       		.uleb128 0x18
 3126 01a0 00       		.byte	0
 3127 01a1 00       		.byte	0
 3128 01a2 22       		.uleb128 0x22
 3129 01a3 34       		.uleb128 0x34
 3130 01a4 00       		.byte	0
 3131 01a5 03       		.uleb128 0x3
 3132 01a6 08       		.uleb128 0x8
 3133 01a7 3A       		.uleb128 0x3a
 3134 01a8 0B       		.uleb128 0xb
 3135 01a9 3B       		.uleb128 0x3b
 3136 01aa 0B       		.uleb128 0xb
 3137 01ab 49       		.uleb128 0x49
 3138 01ac 13       		.uleb128 0x13
 3139 01ad 02       		.uleb128 0x2
 3140 01ae 18       		.uleb128 0x18
 3141 01af 00       		.byte	0
 3142 01b0 00       		.byte	0
 3143 01b1 23       		.uleb128 0x23
 3144 01b2 34       		.uleb128 0x34
 3145 01b3 00       		.byte	0
 3146 01b4 03       		.uleb128 0x3
 3147 01b5 0E       		.uleb128 0xe
 3148 01b6 3A       		.uleb128 0x3a
 3149 01b7 0B       		.uleb128 0xb
 3150 01b8 3B       		.uleb128 0x3b
 3151 01b9 0B       		.uleb128 0xb
 3152 01ba 49       		.uleb128 0x49
 3153 01bb 13       		.uleb128 0x13
 3154 01bc 02       		.uleb128 0x2
 3155 01bd 18       		.uleb128 0x18
 3156 01be 00       		.byte	0
 3157 01bf 00       		.byte	0
 3158 01c0 24       		.uleb128 0x24
 3159 01c1 2E       		.uleb128 0x2e
 3160 01c2 01       		.byte	0x1
 3161 01c3 03       		.uleb128 0x3
 3162 01c4 0E       		.uleb128 0xe
 3163 01c5 3A       		.uleb128 0x3a
 3164 01c6 0B       		.uleb128 0xb
 3165 01c7 3B       		.uleb128 0x3b
 3166 01c8 0B       		.uleb128 0xb
 3167 01c9 27       		.uleb128 0x27
 3168 01ca 19       		.uleb128 0x19
 3169 01cb 11       		.uleb128 0x11
 3170 01cc 01       		.uleb128 0x1
ARM GAS  /tmp/ccEA7YA6.s 			page 57


 3171 01cd 12       		.uleb128 0x12
 3172 01ce 06       		.uleb128 0x6
 3173 01cf 40       		.uleb128 0x40
 3174 01d0 18       		.uleb128 0x18
 3175 01d1 9742     		.uleb128 0x2117
 3176 01d3 19       		.uleb128 0x19
 3177 01d4 01       		.uleb128 0x1
 3178 01d5 13       		.uleb128 0x13
 3179 01d6 00       		.byte	0
 3180 01d7 00       		.byte	0
 3181 01d8 25       		.uleb128 0x25
 3182 01d9 0B       		.uleb128 0xb
 3183 01da 01       		.byte	0x1
 3184 01db 11       		.uleb128 0x11
 3185 01dc 01       		.uleb128 0x1
 3186 01dd 12       		.uleb128 0x12
 3187 01de 06       		.uleb128 0x6
 3188 01df 00       		.byte	0
 3189 01e0 00       		.byte	0
 3190 01e1 26       		.uleb128 0x26
 3191 01e2 2E       		.uleb128 0x2e
 3192 01e3 00       		.byte	0
 3193 01e4 3F       		.uleb128 0x3f
 3194 01e5 19       		.uleb128 0x19
 3195 01e6 03       		.uleb128 0x3
 3196 01e7 0E       		.uleb128 0xe
 3197 01e8 3A       		.uleb128 0x3a
 3198 01e9 0B       		.uleb128 0xb
 3199 01ea 3B       		.uleb128 0x3b
 3200 01eb 0B       		.uleb128 0xb
 3201 01ec 27       		.uleb128 0x27
 3202 01ed 19       		.uleb128 0x19
 3203 01ee 11       		.uleb128 0x11
 3204 01ef 01       		.uleb128 0x1
 3205 01f0 12       		.uleb128 0x12
 3206 01f1 06       		.uleb128 0x6
 3207 01f2 40       		.uleb128 0x40
 3208 01f3 18       		.uleb128 0x18
 3209 01f4 9642     		.uleb128 0x2116
 3210 01f6 19       		.uleb128 0x19
 3211 01f7 00       		.byte	0
 3212 01f8 00       		.byte	0
 3213 01f9 27       		.uleb128 0x27
 3214 01fa 2E       		.uleb128 0x2e
 3215 01fb 00       		.byte	0
 3216 01fc 3F       		.uleb128 0x3f
 3217 01fd 19       		.uleb128 0x19
 3218 01fe 03       		.uleb128 0x3
 3219 01ff 0E       		.uleb128 0xe
 3220 0200 3A       		.uleb128 0x3a
 3221 0201 0B       		.uleb128 0xb
 3222 0202 3B       		.uleb128 0x3b
 3223 0203 05       		.uleb128 0x5
 3224 0204 27       		.uleb128 0x27
 3225 0205 19       		.uleb128 0x19
 3226 0206 11       		.uleb128 0x11
 3227 0207 01       		.uleb128 0x1
ARM GAS  /tmp/ccEA7YA6.s 			page 58


 3228 0208 12       		.uleb128 0x12
 3229 0209 06       		.uleb128 0x6
 3230 020a 40       		.uleb128 0x40
 3231 020b 18       		.uleb128 0x18
 3232 020c 9642     		.uleb128 0x2116
 3233 020e 19       		.uleb128 0x19
 3234 020f 00       		.byte	0
 3235 0210 00       		.byte	0
 3236 0211 28       		.uleb128 0x28
 3237 0212 2E       		.uleb128 0x2e
 3238 0213 01       		.byte	0x1
 3239 0214 3F       		.uleb128 0x3f
 3240 0215 19       		.uleb128 0x19
 3241 0216 03       		.uleb128 0x3
 3242 0217 0E       		.uleb128 0xe
 3243 0218 3A       		.uleb128 0x3a
 3244 0219 0B       		.uleb128 0xb
 3245 021a 3B       		.uleb128 0x3b
 3246 021b 05       		.uleb128 0x5
 3247 021c 27       		.uleb128 0x27
 3248 021d 19       		.uleb128 0x19
 3249 021e 11       		.uleb128 0x11
 3250 021f 01       		.uleb128 0x1
 3251 0220 12       		.uleb128 0x12
 3252 0221 06       		.uleb128 0x6
 3253 0222 40       		.uleb128 0x40
 3254 0223 18       		.uleb128 0x18
 3255 0224 9642     		.uleb128 0x2116
 3256 0226 19       		.uleb128 0x19
 3257 0227 01       		.uleb128 0x1
 3258 0228 13       		.uleb128 0x13
 3259 0229 00       		.byte	0
 3260 022a 00       		.byte	0
 3261 022b 29       		.uleb128 0x29
 3262 022c 05       		.uleb128 0x5
 3263 022d 00       		.byte	0
 3264 022e 03       		.uleb128 0x3
 3265 022f 0E       		.uleb128 0xe
 3266 0230 3A       		.uleb128 0x3a
 3267 0231 0B       		.uleb128 0xb
 3268 0232 3B       		.uleb128 0x3b
 3269 0233 05       		.uleb128 0x5
 3270 0234 49       		.uleb128 0x49
 3271 0235 13       		.uleb128 0x13
 3272 0236 02       		.uleb128 0x2
 3273 0237 18       		.uleb128 0x18
 3274 0238 00       		.byte	0
 3275 0239 00       		.byte	0
 3276 023a 2A       		.uleb128 0x2a
 3277 023b 2E       		.uleb128 0x2e
 3278 023c 01       		.byte	0x1
 3279 023d 3F       		.uleb128 0x3f
 3280 023e 19       		.uleb128 0x19
 3281 023f 03       		.uleb128 0x3
 3282 0240 0E       		.uleb128 0xe
 3283 0241 3A       		.uleb128 0x3a
 3284 0242 0B       		.uleb128 0xb
ARM GAS  /tmp/ccEA7YA6.s 			page 59


 3285 0243 3B       		.uleb128 0x3b
 3286 0244 05       		.uleb128 0x5
 3287 0245 27       		.uleb128 0x27
 3288 0246 19       		.uleb128 0x19
 3289 0247 49       		.uleb128 0x49
 3290 0248 13       		.uleb128 0x13
 3291 0249 11       		.uleb128 0x11
 3292 024a 01       		.uleb128 0x1
 3293 024b 12       		.uleb128 0x12
 3294 024c 06       		.uleb128 0x6
 3295 024d 40       		.uleb128 0x40
 3296 024e 18       		.uleb128 0x18
 3297 024f 9742     		.uleb128 0x2117
 3298 0251 19       		.uleb128 0x19
 3299 0252 01       		.uleb128 0x1
 3300 0253 13       		.uleb128 0x13
 3301 0254 00       		.byte	0
 3302 0255 00       		.byte	0
 3303 0256 2B       		.uleb128 0x2b
 3304 0257 2E       		.uleb128 0x2e
 3305 0258 01       		.byte	0x1
 3306 0259 3F       		.uleb128 0x3f
 3307 025a 19       		.uleb128 0x19
 3308 025b 03       		.uleb128 0x3
 3309 025c 0E       		.uleb128 0xe
 3310 025d 3A       		.uleb128 0x3a
 3311 025e 0B       		.uleb128 0xb
 3312 025f 3B       		.uleb128 0x3b
 3313 0260 05       		.uleb128 0x5
 3314 0261 27       		.uleb128 0x27
 3315 0262 19       		.uleb128 0x19
 3316 0263 11       		.uleb128 0x11
 3317 0264 01       		.uleb128 0x1
 3318 0265 12       		.uleb128 0x12
 3319 0266 06       		.uleb128 0x6
 3320 0267 40       		.uleb128 0x40
 3321 0268 18       		.uleb128 0x18
 3322 0269 9742     		.uleb128 0x2117
 3323 026b 19       		.uleb128 0x19
 3324 026c 01       		.uleb128 0x1
 3325 026d 13       		.uleb128 0x13
 3326 026e 00       		.byte	0
 3327 026f 00       		.byte	0
 3328 0270 2C       		.uleb128 0x2c
 3329 0271 34       		.uleb128 0x34
 3330 0272 00       		.byte	0
 3331 0273 03       		.uleb128 0x3
 3332 0274 08       		.uleb128 0x8
 3333 0275 3A       		.uleb128 0x3a
 3334 0276 0B       		.uleb128 0xb
 3335 0277 3B       		.uleb128 0x3b
 3336 0278 05       		.uleb128 0x5
 3337 0279 49       		.uleb128 0x49
 3338 027a 13       		.uleb128 0x13
 3339 027b 02       		.uleb128 0x2
 3340 027c 18       		.uleb128 0x18
 3341 027d 00       		.byte	0
ARM GAS  /tmp/ccEA7YA6.s 			page 60


 3342 027e 00       		.byte	0
 3343 027f 2D       		.uleb128 0x2d
 3344 0280 34       		.uleb128 0x34
 3345 0281 00       		.byte	0
 3346 0282 03       		.uleb128 0x3
 3347 0283 0E       		.uleb128 0xe
 3348 0284 3A       		.uleb128 0x3a
 3349 0285 0B       		.uleb128 0xb
 3350 0286 3B       		.uleb128 0x3b
 3351 0287 05       		.uleb128 0x5
 3352 0288 49       		.uleb128 0x49
 3353 0289 13       		.uleb128 0x13
 3354 028a 02       		.uleb128 0x2
 3355 028b 18       		.uleb128 0x18
 3356 028c 00       		.byte	0
 3357 028d 00       		.byte	0
 3358 028e 2E       		.uleb128 0x2e
 3359 028f 05       		.uleb128 0x5
 3360 0290 00       		.byte	0
 3361 0291 03       		.uleb128 0x3
 3362 0292 08       		.uleb128 0x8
 3363 0293 3A       		.uleb128 0x3a
 3364 0294 0B       		.uleb128 0xb
 3365 0295 3B       		.uleb128 0x3b
 3366 0296 05       		.uleb128 0x5
 3367 0297 49       		.uleb128 0x49
 3368 0298 13       		.uleb128 0x13
 3369 0299 02       		.uleb128 0x2
 3370 029a 18       		.uleb128 0x18
 3371 029b 00       		.byte	0
 3372 029c 00       		.byte	0
 3373 029d 2F       		.uleb128 0x2f
 3374 029e 34       		.uleb128 0x34
 3375 029f 00       		.byte	0
 3376 02a0 03       		.uleb128 0x3
 3377 02a1 0E       		.uleb128 0xe
 3378 02a2 3A       		.uleb128 0x3a
 3379 02a3 0B       		.uleb128 0xb
 3380 02a4 3B       		.uleb128 0x3b
 3381 02a5 05       		.uleb128 0x5
 3382 02a6 49       		.uleb128 0x49
 3383 02a7 13       		.uleb128 0x13
 3384 02a8 3F       		.uleb128 0x3f
 3385 02a9 19       		.uleb128 0x19
 3386 02aa 3C       		.uleb128 0x3c
 3387 02ab 19       		.uleb128 0x19
 3388 02ac 00       		.byte	0
 3389 02ad 00       		.byte	0
 3390 02ae 30       		.uleb128 0x30
 3391 02af 34       		.uleb128 0x34
 3392 02b0 00       		.byte	0
 3393 02b1 03       		.uleb128 0x3
 3394 02b2 0E       		.uleb128 0xe
 3395 02b3 3A       		.uleb128 0x3a
 3396 02b4 0B       		.uleb128 0xb
 3397 02b5 3B       		.uleb128 0x3b
 3398 02b6 0B       		.uleb128 0xb
ARM GAS  /tmp/ccEA7YA6.s 			page 61


 3399 02b7 49       		.uleb128 0x49
 3400 02b8 13       		.uleb128 0x13
 3401 02b9 3F       		.uleb128 0x3f
 3402 02ba 19       		.uleb128 0x19
 3403 02bb 02       		.uleb128 0x2
 3404 02bc 18       		.uleb128 0x18
 3405 02bd 00       		.byte	0
 3406 02be 00       		.byte	0
 3407 02bf 00       		.byte	0
 3408              		.section	.debug_aranges,"",%progbits
 3409 0000 94000000 		.4byte	0x94
 3410 0004 0200     		.2byte	0x2
 3411 0006 00000000 		.4byte	.Ldebug_info0
 3412 000a 04       		.byte	0x4
 3413 000b 00       		.byte	0
 3414 000c 0000     		.2byte	0
 3415 000e 0000     		.2byte	0
 3416 0010 00000000 		.4byte	.LFB118
 3417 0014 C4000000 		.4byte	.LFE118-.LFB118
 3418 0018 00000000 		.4byte	.LFB119
 3419 001c 46000000 		.4byte	.LFE119-.LFB119
 3420 0020 00000000 		.4byte	.LFB120
 3421 0024 3C000000 		.4byte	.LFE120-.LFB120
 3422 0028 00000000 		.4byte	.LFB121
 3423 002c 54000000 		.4byte	.LFE121-.LFB121
 3424 0030 00000000 		.4byte	.LFB122
 3425 0034 1C000000 		.4byte	.LFE122-.LFB122
 3426 0038 00000000 		.4byte	.LFB123
 3427 003c 1C000000 		.4byte	.LFE123-.LFB123
 3428 0040 00000000 		.4byte	.LFB124
 3429 0044 1C000000 		.4byte	.LFE124-.LFB124
 3430 0048 00000000 		.4byte	.LFB125
 3431 004c 1C000000 		.4byte	.LFE125-.LFB125
 3432 0050 00000000 		.4byte	.LFB126
 3433 0054 18000000 		.4byte	.LFE126-.LFB126
 3434 0058 00000000 		.4byte	.LFB127
 3435 005c 7C000000 		.4byte	.LFE127-.LFB127
 3436 0060 00000000 		.4byte	.LFB128
 3437 0064 64000000 		.4byte	.LFE128-.LFB128
 3438 0068 00000000 		.4byte	.LFB129
 3439 006c 20000000 		.4byte	.LFE129-.LFB129
 3440 0070 00000000 		.4byte	.LFB130
 3441 0074 62000000 		.4byte	.LFE130-.LFB130
 3442 0078 00000000 		.4byte	.LFB131
 3443 007c 32000000 		.4byte	.LFE131-.LFB131
 3444 0080 00000000 		.4byte	.LFB132
 3445 0084 06010000 		.4byte	.LFE132-.LFB132
 3446 0088 00000000 		.4byte	.LFB133
 3447 008c D8000000 		.4byte	.LFE133-.LFB133
 3448 0090 00000000 		.4byte	0
 3449 0094 00000000 		.4byte	0
 3450              		.section	.debug_ranges,"",%progbits
 3451              	.Ldebug_ranges0:
 3452 0000 00000000 		.4byte	.LFB118
 3453 0004 C4000000 		.4byte	.LFE118
 3454 0008 00000000 		.4byte	.LFB119
 3455 000c 46000000 		.4byte	.LFE119
ARM GAS  /tmp/ccEA7YA6.s 			page 62


 3456 0010 00000000 		.4byte	.LFB120
 3457 0014 3C000000 		.4byte	.LFE120
 3458 0018 00000000 		.4byte	.LFB121
 3459 001c 54000000 		.4byte	.LFE121
 3460 0020 00000000 		.4byte	.LFB122
 3461 0024 1C000000 		.4byte	.LFE122
 3462 0028 00000000 		.4byte	.LFB123
 3463 002c 1C000000 		.4byte	.LFE123
 3464 0030 00000000 		.4byte	.LFB124
 3465 0034 1C000000 		.4byte	.LFE124
 3466 0038 00000000 		.4byte	.LFB125
 3467 003c 1C000000 		.4byte	.LFE125
 3468 0040 00000000 		.4byte	.LFB126
 3469 0044 18000000 		.4byte	.LFE126
 3470 0048 00000000 		.4byte	.LFB127
 3471 004c 7C000000 		.4byte	.LFE127
 3472 0050 00000000 		.4byte	.LFB128
 3473 0054 64000000 		.4byte	.LFE128
 3474 0058 00000000 		.4byte	.LFB129
 3475 005c 20000000 		.4byte	.LFE129
 3476 0060 00000000 		.4byte	.LFB130
 3477 0064 62000000 		.4byte	.LFE130
 3478 0068 00000000 		.4byte	.LFB131
 3479 006c 32000000 		.4byte	.LFE131
 3480 0070 00000000 		.4byte	.LFB132
 3481 0074 06010000 		.4byte	.LFE132
 3482 0078 00000000 		.4byte	.LFB133
 3483 007c D8000000 		.4byte	.LFE133
 3484 0080 00000000 		.4byte	0
 3485 0084 00000000 		.4byte	0
 3486              		.section	.debug_line,"",%progbits
 3487              	.Ldebug_line0:
 3488 0000 80030000 		.section	.debug_str,"MS",%progbits,1
 3488      0200C101 
 3488      00000201 
 3488      FB0E0D00 
 3488      01010101 
 3489              	.LASF137:
 3490 0000 56656374 		.ascii	"Vector98\000"
 3490      6F723938 
 3490      00
 3491              	.LASF59:
 3492 0009 44494552 		.ascii	"DIER\000"
 3492      00
 3493              	.LASF78:
 3494 000e 6E657874 		.ascii	"next\000"
 3494      00
 3495              	.LASF34:
 3496 0013 7354784D 		.ascii	"sTxMailBox\000"
 3496      61696C42 
 3496      6F7800
 3497              	.LASF86:
 3498 001e 52544341 		.ascii	"RTCAN_STOP\000"
 3498      4E5F5354 
 3498      4F5000
 3499              	.LASF128:
 3500 0029 72746361 		.ascii	"rtcanp\000"
ARM GAS  /tmp/ccEA7YA6.s 			page 63


 3500      6E7000
 3501              	.LASF140:
 3502 0030 72746361 		.ascii	"rtcan_lld_can_stop\000"
 3502      6E5F6C6C 
 3502      645F6361 
 3502      6E5F7374 
 3502      6F7000
 3503              	.LASF3:
 3504 0043 5F5F7569 		.ascii	"__uint8_t\000"
 3504      6E74385F 
 3504      7400
 3505              	.LASF132:
 3506 004d 72746361 		.ascii	"rtcan_lld_can_sce_handler\000"
 3506      6E5F6C6C 
 3506      645F6361 
 3506      6E5F7363 
 3506      655F6861 
 3507              	.LASF46:
 3508 0067 43414E5F 		.ascii	"CAN_TypeDef\000"
 3508      54797065 
 3508      44656600 
 3509              	.LASF76:
 3510 0073 54494D5F 		.ascii	"TIM_TypeDef\000"
 3510      54797065 
 3510      44656600 
 3511              	.LASF121:
 3512 007f 70657269 		.ascii	"period\000"
 3512      6F6400
 3513              	.LASF65:
 3514 0086 43435231 		.ascii	"CCR1\000"
 3514      00
 3515              	.LASF11:
 3516 008b 6C6F6E67 		.ascii	"long long unsigned int\000"
 3516      206C6F6E 
 3516      6720756E 
 3516      7369676E 
 3516      65642069 
 3517              	.LASF119:
 3518 00a2 72746361 		.ascii	"rtcan_rxframe_t\000"
 3518      6E5F7278 
 3518      6672616D 
 3518      655F7400 
 3519              	.LASF104:
 3520 00b2 52544341 		.ascii	"RTCANDriver\000"
 3520      4E447269 
 3520      76657200 
 3521              	.LASF39:
 3522 00be 46533152 		.ascii	"FS1R\000"
 3522      00
 3523              	.LASF114:
 3524 00c3 64617461 		.ascii	"data32\000"
 3524      333200
 3525              	.LASF69:
 3526 00ca 42445452 		.ascii	"BDTR\000"
 3526      00
 3527              	.LASF155:
 3528 00cf 2F686F6D 		.ascii	"/home/dave/r2p-sdk/core/RTCAN/platforms/STM32/rtcan"
ARM GAS  /tmp/ccEA7YA6.s 			page 64


 3528      652F6461 
 3528      76652F72 
 3528      32702D73 
 3528      646B2F63 
 3529 0102 5F6C6C64 		.ascii	"_lld_can.c\000"
 3529      5F63616E 
 3529      2E6300
 3530              	.LASF60:
 3531 010d 43434D52 		.ascii	"CCMR1\000"
 3531      3100
 3532              	.LASF61:
 3533 0113 43434D52 		.ascii	"CCMR2\000"
 3533      3200
 3534              	.LASF73:
 3535 0119 43434D52 		.ascii	"CCMR3\000"
 3535      3300
 3536              	.LASF0:
 3537 011f 7369676E 		.ascii	"signed char\000"
 3537      65642063 
 3537      68617200 
 3538              	.LASF93:
 3539 012b 52544341 		.ascii	"RTCAN_MSG_UNINIT\000"
 3539      4E5F4D53 
 3539      475F554E 
 3539      494E4954 
 3539      00
 3540              	.LASF17:
 3541 013c 626F6F6C 		.ascii	"bool_t\000"
 3541      5F7400
 3542              	.LASF122:
 3543 0143 62617564 		.ascii	"baudrate\000"
 3543      72617465 
 3543      00
 3544              	.LASF127:
 3545 014c 72746361 		.ascii	"rtcan_lld_can_rx0_handler\000"
 3545      6E5F6C6C 
 3545      645F6361 
 3545      6E5F7278 
 3545      305F6861 
 3546              	.LASF64:
 3547 0166 52455345 		.ascii	"RESERVED10\000"
 3547      52564544 
 3547      313000
 3548              	.LASF147:
 3549 0171 72786670 		.ascii	"rxfp\000"
 3549      00
 3550              	.LASF70:
 3551 0176 52455345 		.ascii	"RESERVED12\000"
 3551      52564544 
 3551      313200
 3552              	.LASF72:
 3553 0181 52455345 		.ascii	"RESERVED13\000"
 3553      52564544 
 3553      313300
 3554              	.LASF105:
 3555 018c 73746174 		.ascii	"state\000"
 3555      6500
ARM GAS  /tmp/ccEA7YA6.s 			page 65


 3556              	.LASF23:
 3557 0192 54444C52 		.ascii	"TDLR\000"
 3557      00
 3558              	.LASF7:
 3559 0197 6C6F6E67 		.ascii	"long int\000"
 3559      20696E74 
 3559      00
 3560              	.LASF152:
 3561 01a0 49544D5F 		.ascii	"ITM_RxBuffer\000"
 3561      52784275 
 3561      66666572 
 3561      00
 3562              	.LASF48:
 3563 01ad 41504232 		.ascii	"APB2RSTR\000"
 3563      52535452 
 3563      00
 3564              	.LASF25:
 3565 01b6 43414E5F 		.ascii	"CAN_TxMailBox_TypeDef\000"
 3565      54784D61 
 3565      696C426F 
 3565      785F5479 
 3565      70654465 
 3566              	.LASF89:
 3567 01cc 52544341 		.ascii	"RTCAN_SYNCING\000"
 3567      4E5F5359 
 3567      4E43494E 
 3567      4700
 3568              	.LASF62:
 3569 01da 43434552 		.ascii	"CCER\000"
 3569      00
 3570              	.LASF10:
 3571 01df 6C6F6E67 		.ascii	"long long int\000"
 3571      206C6F6E 
 3571      6720696E 
 3571      7400
 3572              	.LASF81:
 3573 01ed 70617261 		.ascii	"params\000"
 3573      6D7300
 3574              	.LASF145:
 3575 01f4 72746361 		.ascii	"rtcan_lld_can_rxne\000"
 3575      6E5F6C6C 
 3575      645F6361 
 3575      6E5F7278 
 3575      6E6500
 3576              	.LASF106:
 3577 0207 736C6F74 		.ascii	"slot\000"
 3577      00
 3578              	.LASF31:
 3579 020c 52463052 		.ascii	"RF0R\000"
 3579      00
 3580              	.LASF4:
 3581 0211 5F5F7569 		.ascii	"__uint16_t\000"
 3581      6E743136 
 3581      5F7400
 3582              	.LASF138:
 3583 021c 72746361 		.ascii	"rtcan_lld_can_init\000"
 3583      6E5F6C6C 
ARM GAS  /tmp/ccEA7YA6.s 			page 66


 3583      645F6361 
 3583      6E5F696E 
 3583      697400
 3584              	.LASF8:
 3585 022f 5F5F7569 		.ascii	"__uint32_t\000"
 3585      6E743332 
 3585      5F7400
 3586              	.LASF149:
 3587 023a 6D61736B 		.ascii	"mask\000"
 3587      00
 3588              	.LASF126:
 3589 023f 72746361 		.ascii	"rtcan_lld_can_tx_handler\000"
 3589      6E5F6C6C 
 3589      645F6361 
 3589      6E5F7478 
 3589      5F68616E 
 3590              	.LASF22:
 3591 0258 54445452 		.ascii	"TDTR\000"
 3591      00
 3592              	.LASF27:
 3593 025d 52444C52 		.ascii	"RDLR\000"
 3593      00
 3594              	.LASF130:
 3595 0262 72746361 		.ascii	"rtcan_lld_can_rx1_handler\000"
 3595      6E5F6C6C 
 3595      645F6361 
 3595      6E5F7278 
 3595      315F6861 
 3596              	.LASF85:
 3597 027c 52544341 		.ascii	"RTCAN_UNINIT\000"
 3597      4E5F554E 
 3597      494E4954 
 3597      00
 3598              	.LASF129:
 3599 0289 72663072 		.ascii	"rf0r\000"
 3599      00
 3600              	.LASF12:
 3601 028e 756E7369 		.ascii	"unsigned int\000"
 3601      676E6564 
 3601      20696E74 
 3601      00
 3602              	.LASF14:
 3603 029b 75696E74 		.ascii	"uint16_t\000"
 3603      31365F74 
 3603      00
 3604              	.LASF90:
 3605 02a4 52544341 		.ascii	"RTCAN_SLAVE\000"
 3605      4E5F534C 
 3605      41564500 
 3606              	.LASF9:
 3607 02b0 6C6F6E67 		.ascii	"long unsigned int\000"
 3607      20756E73 
 3607      69676E65 
 3607      6420696E 
 3607      7400
 3608              	.LASF102:
 3609 02c2 72746361 		.ascii	"rtcan_filter_t\000"
ARM GAS  /tmp/ccEA7YA6.s 			page 67


 3609      6E5F6669 
 3609      6C746572 
 3609      5F7400
 3610              	.LASF55:
 3611 02d1 43464752 		.ascii	"CFGR2\000"
 3611      3200
 3612              	.LASF57:
 3613 02d7 5243435F 		.ascii	"RCC_TypeDef\000"
 3613      54797065 
 3613      44656600 
 3614              	.LASF26:
 3615 02e3 52445452 		.ascii	"RDTR\000"
 3615      00
 3616              	.LASF151:
 3617 02e8 666D6173 		.ascii	"fmask\000"
 3617      6B00
 3618              	.LASF144:
 3619 02ee 72746361 		.ascii	"rtcan_lld_can_txe\000"
 3619      6E5F6C6C 
 3619      645F6361 
 3619      6E5F7478 
 3619      6500
 3620              	.LASF83:
 3621 0300 64617461 		.ascii	"data\000"
 3621      00
 3622              	.LASF58:
 3623 0305 534D4352 		.ascii	"SMCR\000"
 3623      00
 3624              	.LASF32:
 3625 030a 52463152 		.ascii	"RF1R\000"
 3625      00
 3626              	.LASF30:
 3627 030f 43414E5F 		.ascii	"CAN_FilterRegister_TypeDef\000"
 3627      46696C74 
 3627      65725265 
 3627      67697374 
 3627      65725F54 
 3628              	.LASF143:
 3629 032a 746D6270 		.ascii	"tmbp\000"
 3629      00
 3630              	.LASF80:
 3631 032f 63616C6C 		.ascii	"callback\000"
 3631      6261636B 
 3631      00
 3632              	.LASF101:
 3633 0338 72746361 		.ascii	"rtcan_id_t\000"
 3633      6E5F6964 
 3633      5F7400
 3634              	.LASF45:
 3635 0343 7346696C 		.ascii	"sFilterRegister\000"
 3635      74657252 
 3635      65676973 
 3635      74657200 
 3636              	.LASF37:
 3637 0353 464D3152 		.ascii	"FM1R\000"
 3637      00
 3638              	.LASF131:
ARM GAS  /tmp/ccEA7YA6.s 			page 68


 3639 0358 72663172 		.ascii	"rf1r\000"
 3639      00
 3640              	.LASF99:
 3641 035d 52544341 		.ascii	"RTCAN_MSG_ERROR\000"
 3641      4E5F4D53 
 3641      475F4552 
 3641      524F5200 
 3642              	.LASF29:
 3643 036d 43414E5F 		.ascii	"CAN_FIFOMailBox_TypeDef\000"
 3643      4649464F 
 3643      4D61696C 
 3643      426F785F 
 3643      54797065 
 3644              	.LASF100:
 3645 0385 72746361 		.ascii	"rtcan_msgstatus_t\000"
 3645      6E5F6D73 
 3645      67737461 
 3645      7475735F 
 3645      7400
 3646              	.LASF97:
 3647 0397 52544341 		.ascii	"RTCAN_MSG_ONAIR\000"
 3647      4E5F4D53 
 3647      475F4F4E 
 3647      41495200 
 3648              	.LASF20:
 3649 03a7 73697A65 		.ascii	"sizetype\000"
 3649      74797065 
 3649      00
 3650              	.LASF87:
 3651 03b0 52544341 		.ascii	"RTCAN_STARTING\000"
 3651      4E5F5354 
 3651      41525449 
 3651      4E4700
 3652              	.LASF109:
 3653 03bf 6F6E6169 		.ascii	"onair\000"
 3653      7200
 3654              	.LASF153:
 3655 03c5 52544341 		.ascii	"RTCAND1\000"
 3655      4E443100 
 3656              	.LASF112:
 3657 03cd 64617461 		.ascii	"data8\000"
 3657      3800
 3658              	.LASF54:
 3659 03d3 41484252 		.ascii	"AHBRSTR\000"
 3659      53545200 
 3660              	.LASF24:
 3661 03db 54444852 		.ascii	"TDHR\000"
 3661      00
 3662              	.LASF124:
 3663 03e0 736C6F74 		.ascii	"slots\000"
 3663      7300
 3664              	.LASF49:
 3665 03e6 41504231 		.ascii	"APB1RSTR\000"
 3665      52535452 
 3665      00
 3666              	.LASF84:
 3667 03ef 72746361 		.ascii	"rtcan_msgcallback_t\000"
ARM GAS  /tmp/ccEA7YA6.s 			page 69


 3667      6E5F6D73 
 3667      6763616C 
 3667      6C626163 
 3667      6B5F7400 
 3668              	.LASF41:
 3669 0403 46464131 		.ascii	"FFA1R\000"
 3669      5200
 3670              	.LASF92:
 3671 0409 72746361 		.ascii	"rtcanstate_t\000"
 3671      6E737461 
 3671      74655F74 
 3671      00
 3672              	.LASF116:
 3673 0416 6D626F78 		.ascii	"mbox\000"
 3673      00
 3674              	.LASF33:
 3675 041b 52455345 		.ascii	"RESERVED0\000"
 3675      52564544 
 3675      3000
 3676              	.LASF36:
 3677 0425 52455345 		.ascii	"RESERVED1\000"
 3677      52564544 
 3677      3100
 3678              	.LASF38:
 3679 042f 52455345 		.ascii	"RESERVED2\000"
 3679      52564544 
 3679      3200
 3680              	.LASF40:
 3681 0439 52455345 		.ascii	"RESERVED3\000"
 3681      52564544 
 3681      3300
 3682              	.LASF98:
 3683 0443 52544341 		.ascii	"RTCAN_MSG_TIMEOUT\000"
 3683      4E5F4D53 
 3683      475F5449 
 3683      4D454F55 
 3683      5400
 3684              	.LASF43:
 3685 0455 46413152 		.ascii	"FA1R\000"
 3685      00
 3686              	.LASF63:
 3687 045a 52455345 		.ascii	"RESERVED9\000"
 3687      52564544 
 3687      3900
 3688              	.LASF18:
 3689 0464 5F426F6F 		.ascii	"_Bool\000"
 3689      6C00
 3690              	.LASF15:
 3691 046a 696E7433 		.ascii	"int32_t\000"
 3691      325F7400 
 3692              	.LASF1:
 3693 0472 756E7369 		.ascii	"unsigned char\000"
 3693      676E6564 
 3693      20636861 
 3693      7200
 3694              	.LASF117:
 3695 0480 72746361 		.ascii	"rtcan_txframe_t\000"
ARM GAS  /tmp/ccEA7YA6.s 			page 70


 3695      6E5F7478 
 3695      6672616D 
 3695      655F7400 
 3696              	.LASF150:
 3697 0490 6E657874 		.ascii	"next_fid\000"
 3697      5F666964 
 3697      00
 3698              	.LASF2:
 3699 0499 73686F72 		.ascii	"short int\000"
 3699      7420696E 
 3699      7400
 3700              	.LASF141:
 3701 04a3 72746361 		.ascii	"rtcan_lld_can_transmit\000"
 3701      6E5F6C6C 
 3701      645F6361 
 3701      6E5F7472 
 3701      616E736D 
 3702              	.LASF154:
 3703 04ba 474E5520 		.ascii	"GNU C 4.8.4 20141219 (release) -mcpu=cortex-m4 -mfl"
 3703      4320342E 
 3703      382E3420 
 3703      32303134 
 3703      31323139 
 3704 04ed 6F61742D 		.ascii	"oat-abi=hard -mfpu=fpv4-sp-d16 -mno-thumb-interwork"
 3704      6162693D 
 3704      68617264 
 3704      202D6D66 
 3704      70753D66 
 3705 0520 202D6D74 		.ascii	" -mthumb -ggdb -O0 -fomit-frame-pointer -falign-fun"
 3705      68756D62 
 3705      202D6767 
 3705      6462202D 
 3705      4F30202D 
 3706 0553 6374696F 		.ascii	"ctions=16 -ffunction-sections -fdata-sections -fno-"
 3706      6E733D31 
 3706      36202D66 
 3706      66756E63 
 3706      74696F6E 
 3707 0586 636F6D6D 		.ascii	"common -fsingle-precision-constant\000"
 3707      6F6E202D 
 3707      6673696E 
 3707      676C652D 
 3707      70726563 
 3708              	.LASF118:
 3709 05a9 66696C74 		.ascii	"filter\000"
 3709      657200
 3710              	.LASF51:
 3711 05b0 41504232 		.ascii	"APB2ENR\000"
 3711      454E5200 
 3712              	.LASF96:
 3713 05b8 52544341 		.ascii	"RTCAN_MSG_QUEUED\000"
 3713      4E5F4D53 
 3713      475F5155 
 3713      45554544 
 3713      00
 3714              	.LASF115:
 3715 05c9 66726167 		.ascii	"fragment\000"
ARM GAS  /tmp/ccEA7YA6.s 			page 71


 3715      6D656E74 
 3715      00
 3716              	.LASF95:
 3717 05d2 52544341 		.ascii	"RTCAN_MSG_READY\000"
 3717      4E5F4D53 
 3717      475F5245 
 3717      41445900 
 3718              	.LASF42:
 3719 05e2 52455345 		.ascii	"RESERVED4\000"
 3719      52564544 
 3719      3400
 3720              	.LASF44:
 3721 05ec 52455345 		.ascii	"RESERVED5\000"
 3721      52564544 
 3721      3500
 3722              	.LASF16:
 3723 05f6 75696E74 		.ascii	"uint32_t\000"
 3723      33325F74 
 3723      00
 3724              	.LASF135:
 3725 05ff 56656374 		.ascii	"Vector90\000"
 3725      6F723930 
 3725      00
 3726              	.LASF21:
 3727 0608 63686172 		.ascii	"char\000"
 3727      00
 3728              	.LASF77:
 3729 060d 72746361 		.ascii	"rtcan_msg_t\000"
 3729      6E5F6D73 
 3729      675F7400 
 3730              	.LASF108:
 3731 0619 7372745F 		.ascii	"srt_queue\000"
 3731      71756575 
 3731      6500
 3732              	.LASF148:
 3733 0623 72746361 		.ascii	"rtcan_lld_can_addfilter\000"
 3733      6E5F6C6C 
 3733      645F6361 
 3733      6E5F6164 
 3733      6466696C 
 3734              	.LASF111:
 3735 063b 636F6E66 		.ascii	"config\000"
 3735      696700
 3736              	.LASF71:
 3737 0642 444D4152 		.ascii	"DMAR\000"
 3737      00
 3738              	.LASF28:
 3739 0647 52444852 		.ascii	"RDHR\000"
 3739      00
 3740              	.LASF120:
 3741 064c 64656164 		.ascii	"deadline\000"
 3741      6C696E65 
 3741      00
 3742              	.LASF6:
 3743 0655 5F5F696E 		.ascii	"__int32_t\000"
 3743      7433325F 
 3743      7400
ARM GAS  /tmp/ccEA7YA6.s 			page 72


 3744              	.LASF35:
 3745 065f 73464946 		.ascii	"sFIFOMailBox\000"
 3745      4F4D6169 
 3745      6C426F78 
 3745      00
 3746              	.LASF52:
 3747 066c 41504231 		.ascii	"APB1ENR\000"
 3747      454E5200 
 3748              	.LASF94:
 3749 0674 52544341 		.ascii	"RTCAN_MSG_BUSY\000"
 3749      4E5F4D53 
 3749      475F4255 
 3749      535900
 3750              	.LASF5:
 3751 0683 73686F72 		.ascii	"short unsigned int\000"
 3751      7420756E 
 3751      7369676E 
 3751      65642069 
 3751      6E7400
 3752              	.LASF139:
 3753 0696 72746361 		.ascii	"rtcan_lld_can_start\000"
 3753      6E5F6C6C 
 3753      645F6361 
 3753      6E5F7374 
 3753      61727400 
 3754              	.LASF19:
 3755 06aa 666C6167 		.ascii	"flagsmask_t\000"
 3755      736D6173 
 3755      6B5F7400 
 3756              	.LASF107:
 3757 06b6 6379636C 		.ascii	"cycle\000"
 3757      6500
 3758              	.LASF113:
 3759 06bc 64617461 		.ascii	"data16\000"
 3759      313600
 3760              	.LASF66:
 3761 06c3 43435232 		.ascii	"CCR2\000"
 3761      00
 3762              	.LASF67:
 3763 06c8 43435233 		.ascii	"CCR3\000"
 3763      00
 3764              	.LASF68:
 3765 06cd 43435234 		.ascii	"CCR4\000"
 3765      00
 3766              	.LASF74:
 3767 06d2 43435235 		.ascii	"CCR5\000"
 3767      00
 3768              	.LASF75:
 3769 06d7 43435236 		.ascii	"CCR6\000"
 3769      00
 3770              	.LASF79:
 3771 06dc 73746174 		.ascii	"status\000"
 3771      757300
 3772              	.LASF53:
 3773 06e3 42444352 		.ascii	"BDCR\000"
 3773      00
 3774              	.LASF146:
ARM GAS  /tmp/ccEA7YA6.s 			page 73


 3775 06e8 72746361 		.ascii	"rtcan_lld_can_receive\000"
 3775      6E5F6C6C 
 3775      645F6361 
 3775      6E5F7265 
 3775      63656976 
 3776              	.LASF134:
 3777 06fe 56656374 		.ascii	"Vector8C\000"
 3777      6F723843 
 3777      00
 3778              	.LASF56:
 3779 0707 43464752 		.ascii	"CFGR3\000"
 3779      3300
 3780              	.LASF13:
 3781 070d 75696E74 		.ascii	"uint8_t\000"
 3781      385F7400 
 3782              	.LASF88:
 3783 0715 52544341 		.ascii	"RTCAN_ERROR\000"
 3783      4E5F4552 
 3783      524F5200 
 3784              	.LASF133:
 3785 0721 666C6167 		.ascii	"flags\000"
 3785      7300
 3786              	.LASF82:
 3787 0727 73697A65 		.ascii	"size\000"
 3787      00
 3788              	.LASF47:
 3789 072c 43464752 		.ascii	"CFGR\000"
 3789      00
 3790              	.LASF91:
 3791 0731 52544341 		.ascii	"RTCAN_MASTER\000"
 3791      4E5F4D41 
 3791      53544552 
 3791      00
 3792              	.LASF125:
 3793 073e 52544341 		.ascii	"RTCANConfig\000"
 3793      4E436F6E 
 3793      66696700 
 3794              	.LASF123:
 3795 074a 636C6F63 		.ascii	"clock\000"
 3795      6B00
 3796              	.LASF142:
 3797 0750 74786670 		.ascii	"txfp\000"
 3797      00
 3798              	.LASF110:
 3799 0755 66696C74 		.ascii	"filters\000"
 3799      65727300 
 3800              	.LASF103:
 3801 075d 6D736771 		.ascii	"msgqueue_t\000"
 3801      75657565 
 3801      5F7400
 3802              	.LASF50:
 3803 0768 41484245 		.ascii	"AHBENR\000"
 3803      4E5200
 3804              	.LASF136:
 3805 076f 56656374 		.ascii	"Vector94\000"
 3805      6F723934 
 3805      00
ARM GAS  /tmp/ccEA7YA6.s 			page 74


 3806              		.ident	"GCC: (4.8.4-1+11-1) 4.8.4 20141219 (release)"
ARM GAS  /tmp/ccEA7YA6.s 			page 75


DEFINED SYMBOLS
                            *ABS*:0000000000000000 rtcan_lld_can.c
     /tmp/ccEA7YA6.s:25     .bss.RTCAND1:0000000000000000 RTCAND1
     /tmp/ccEA7YA6.s:22     .bss.RTCAND1:0000000000000000 $d
     /tmp/ccEA7YA6.s:28     .text.rtcan_lld_can_tx_handler:0000000000000000 $t
     /tmp/ccEA7YA6.s:33     .text.rtcan_lld_can_tx_handler:0000000000000000 rtcan_lld_can_tx_handler
     /tmp/ccEA7YA6.s:155    .text.rtcan_lld_can_tx_handler:00000000000000c0 $d
     /tmp/ccEA7YA6.s:160    .text.rtcan_lld_can_rx0_handler:0000000000000000 $t
     /tmp/ccEA7YA6.s:165    .text.rtcan_lld_can_rx0_handler:0000000000000000 rtcan_lld_can_rx0_handler
     /tmp/ccEA7YA6.s:218    .text.rtcan_lld_can_rx1_handler:0000000000000000 $t
     /tmp/ccEA7YA6.s:223    .text.rtcan_lld_can_rx1_handler:0000000000000000 rtcan_lld_can_rx1_handler
     /tmp/ccEA7YA6.s:271    .text.rtcan_lld_can_sce_handler:0000000000000000 $t
     /tmp/ccEA7YA6.s:276    .text.rtcan_lld_can_sce_handler:0000000000000000 rtcan_lld_can_sce_handler
     /tmp/ccEA7YA6.s:338    .text.Vector8C:0000000000000000 $t
     /tmp/ccEA7YA6.s:344    .text.Vector8C:0000000000000000 Vector8C
     /tmp/ccEA7YA6.s:367    .text.Vector8C:0000000000000018 $d
     /tmp/ccEA7YA6.s:372    .text.Vector90:0000000000000000 $t
     /tmp/ccEA7YA6.s:378    .text.Vector90:0000000000000000 Vector90
     /tmp/ccEA7YA6.s:401    .text.Vector90:0000000000000018 $d
     /tmp/ccEA7YA6.s:406    .text.Vector94:0000000000000000 $t
     /tmp/ccEA7YA6.s:412    .text.Vector94:0000000000000000 Vector94
     /tmp/ccEA7YA6.s:435    .text.Vector94:0000000000000018 $d
     /tmp/ccEA7YA6.s:440    .text.Vector98:0000000000000000 $t
     /tmp/ccEA7YA6.s:446    .text.Vector98:0000000000000000 Vector98
     /tmp/ccEA7YA6.s:469    .text.Vector98:0000000000000018 $d
     /tmp/ccEA7YA6.s:474    .text.rtcan_lld_can_init:0000000000000000 $t
     /tmp/ccEA7YA6.s:480    .text.rtcan_lld_can_init:0000000000000000 rtcan_lld_can_init
     /tmp/ccEA7YA6.s:502    .text.rtcan_lld_can_init:0000000000000010 $d
     /tmp/ccEA7YA6.s:508    .text.rtcan_lld_can_start:0000000000000000 $t
     /tmp/ccEA7YA6.s:514    .text.rtcan_lld_can_start:0000000000000000 rtcan_lld_can_start
     /tmp/ccEA7YA6.s:589    .text.rtcan_lld_can_start:0000000000000070 $d
     /tmp/ccEA7YA6.s:596    .text.rtcan_lld_can_stop:0000000000000000 $t
     /tmp/ccEA7YA6.s:602    .text.rtcan_lld_can_stop:0000000000000000 rtcan_lld_can_stop
     /tmp/ccEA7YA6.s:664    .text.rtcan_lld_can_stop:0000000000000054 $d
     /tmp/ccEA7YA6.s:672    .text.rtcan_lld_can_txe:0000000000000000 $t
     /tmp/ccEA7YA6.s:678    .text.rtcan_lld_can_txe:0000000000000000 rtcan_lld_can_txe
     /tmp/ccEA7YA6.s:707    .text.rtcan_lld_can_transmit:0000000000000000 $t
     /tmp/ccEA7YA6.s:713    .text.rtcan_lld_can_transmit:0000000000000000 rtcan_lld_can_transmit
     /tmp/ccEA7YA6.s:780    .text.rtcan_lld_can_rxne:0000000000000000 $t
     /tmp/ccEA7YA6.s:786    .text.rtcan_lld_can_rxne:0000000000000000 rtcan_lld_can_rxne
     /tmp/ccEA7YA6.s:830    .text.rtcan_lld_can_receive:0000000000000000 $t
     /tmp/ccEA7YA6.s:836    .text.rtcan_lld_can_receive:0000000000000000 rtcan_lld_can_receive
     /tmp/ccEA7YA6.s:978    .text.rtcan_lld_can_addfilter:0000000000000000 $t
     /tmp/ccEA7YA6.s:984    .text.rtcan_lld_can_addfilter:0000000000000000 rtcan_lld_can_addfilter
     /tmp/ccEA7YA6.s:1105   .text.rtcan_lld_can_addfilter:00000000000000d4 $d
     /tmp/ccEA7YA6.s:1113   .bss.next_fid.7257:0000000000000000 next_fid.7257
     /tmp/ccEA7YA6.s:1110   .bss.next_fid.7257:0000000000000000 $d
                     .debug_frame:0000000000000010 $d
     /tmp/ccEA7YA6.s:159    .text.rtcan_lld_can_tx_handler:00000000000000c4 $t
     /tmp/ccEA7YA6.s:371    .text.Vector8C:000000000000001c $t
     /tmp/ccEA7YA6.s:405    .text.Vector90:000000000000001c $t
     /tmp/ccEA7YA6.s:439    .text.Vector94:000000000000001c $t
     /tmp/ccEA7YA6.s:473    .text.Vector98:000000000000001c $t
     /tmp/ccEA7YA6.s:507    .text.rtcan_lld_can_init:0000000000000018 $t
     /tmp/ccEA7YA6.s:595    .text.rtcan_lld_can_start:000000000000007c $t
     /tmp/ccEA7YA6.s:671    .text.rtcan_lld_can_stop:0000000000000064 $t
     /tmp/ccEA7YA6.s:1109   .text.rtcan_lld_can_addfilter:00000000000000d8 $t
ARM GAS  /tmp/ccEA7YA6.s 			page 76



UNDEFINED SYMBOLS
rtcan_txok_isr_code
rtcan_alst_isr_code
rtcan_terr_isr_code
rtcan_rx_isr_code
dbg_check_enter_isr
dbg_check_leave_isr
_port_irq_epilogue
rtcanReset
nvicEnableVector
nvicDisableVector
