ARM GAS  /tmp/cckOgOXG.s 			page 1


   1              		.syntax unified
   2              		.cpu cortex-m4
   3              		.eabi_attribute 27, 3
   4              		.eabi_attribute 28, 1
   5              		.fpu fpv4-sp-d16
   6              		.eabi_attribute 20, 1
   7              		.eabi_attribute 21, 1
   8              		.eabi_attribute 23, 3
   9              		.eabi_attribute 24, 1
  10              		.eabi_attribute 25, 1
  11              		.eabi_attribute 26, 1
  12              		.eabi_attribute 30, 6
  13              		.eabi_attribute 34, 1
  14              		.eabi_attribute 18, 4
  15              		.thumb
  16              		.file	"serial.c"
  17              		.text
  18              	.Ltext0:
  19              		.cfi_sections	.debug_frame
  20              		.section	.text.write,"ax",%progbits
  21              		.align	2
  22              		.p2align 4,,15
  23              		.thumb
  24              		.thumb_func
  25              		.type	write, %function
  26              	write:
  27              	.LFB118:
  28              		.file 1 "/home/dave/r2p-sdk/core/ChibiOS/os/hal/src/serial.c"
  29              		.loc 1 62 0
  30              		.cfi_startproc
  31              		@ args = 0, pretend = 0, frame = 16
  32              		@ frame_needed = 0, uses_anonymous_args = 0
  33 0000 00B5     		push	{lr}
  34              		.cfi_def_cfa_offset 4
  35              		.cfi_offset 14, -4
  36 0002 85B0     		sub	sp, sp, #20
  37              		.cfi_def_cfa_offset 24
  38 0004 0390     		str	r0, [sp, #12]
  39 0006 0291     		str	r1, [sp, #8]
  40 0008 0192     		str	r2, [sp, #4]
  41              		.loc 1 64 0
  42 000a 039B     		ldr	r3, [sp, #12]
  43 000c 3033     		adds	r3, r3, #48
  44 000e 1846     		mov	r0, r3
  45 0010 0299     		ldr	r1, [sp, #8]
  46 0012 019A     		ldr	r2, [sp, #4]
  47 0014 4FF0FF33 		mov	r3, #-1
  48 0018 FFF7FEFF 		bl	chOQWriteTimeout
  49 001c 0346     		mov	r3, r0
  50              		.loc 1 66 0
  51 001e 1846     		mov	r0, r3
  52 0020 05B0     		add	sp, sp, #20
  53              		@ sp needed
  54 0022 5DF804FB 		ldr	pc, [sp], #4
  55              		.cfi_endproc
  56              	.LFE118:
  57              		.size	write, .-write
ARM GAS  /tmp/cckOgOXG.s 			page 2


  58 0026 00BFAFF3 		.section	.text.read,"ax",%progbits
  58      0080AFF3 
  58      0080
  59              		.align	2
  60              		.p2align 4,,15
  61              		.thumb
  62              		.thumb_func
  63              		.type	read, %function
  64              	read:
  65              	.LFB119:
  66              		.loc 1 68 0
  67              		.cfi_startproc
  68              		@ args = 0, pretend = 0, frame = 16
  69              		@ frame_needed = 0, uses_anonymous_args = 0
  70 0000 00B5     		push	{lr}
  71              		.cfi_def_cfa_offset 4
  72              		.cfi_offset 14, -4
  73 0002 85B0     		sub	sp, sp, #20
  74              		.cfi_def_cfa_offset 24
  75 0004 0390     		str	r0, [sp, #12]
  76 0006 0291     		str	r1, [sp, #8]
  77 0008 0192     		str	r2, [sp, #4]
  78              		.loc 1 70 0
  79 000a 039B     		ldr	r3, [sp, #12]
  80 000c 0C33     		adds	r3, r3, #12
  81 000e 1846     		mov	r0, r3
  82 0010 0299     		ldr	r1, [sp, #8]
  83 0012 019A     		ldr	r2, [sp, #4]
  84 0014 4FF0FF33 		mov	r3, #-1
  85 0018 FFF7FEFF 		bl	chIQReadTimeout
  86 001c 0346     		mov	r3, r0
  87              		.loc 1 72 0
  88 001e 1846     		mov	r0, r3
  89 0020 05B0     		add	sp, sp, #20
  90              		@ sp needed
  91 0022 5DF804FB 		ldr	pc, [sp], #4
  92              		.cfi_endproc
  93              	.LFE119:
  94              		.size	read, .-read
  95              		.section	.text.put,"ax",%progbits
  96              		.align	2
  97              		.p2align 4,,15
  98              		.thumb
  99              		.thumb_func
 100              		.type	put, %function
 101              	put:
 102              	.LFB120:
 103              		.loc 1 74 0
 104              		.cfi_startproc
 105              		@ args = 0, pretend = 0, frame = 8
 106              		@ frame_needed = 0, uses_anonymous_args = 0
 107 0000 00B5     		push	{lr}
 108              		.cfi_def_cfa_offset 4
 109              		.cfi_offset 14, -4
 110 0002 83B0     		sub	sp, sp, #12
 111              		.cfi_def_cfa_offset 16
 112 0004 0190     		str	r0, [sp, #4]
ARM GAS  /tmp/cckOgOXG.s 			page 3


 113 0006 0B46     		mov	r3, r1
 114 0008 8DF80330 		strb	r3, [sp, #3]
 115              		.loc 1 76 0
 116 000c 019B     		ldr	r3, [sp, #4]
 117 000e 03F13002 		add	r2, r3, #48
 118 0012 9DF80330 		ldrb	r3, [sp, #3]	@ zero_extendqisi2
 119 0016 1046     		mov	r0, r2
 120 0018 1946     		mov	r1, r3
 121 001a 4FF0FF32 		mov	r2, #-1
 122 001e FFF7FEFF 		bl	chOQPutTimeout
 123 0022 0346     		mov	r3, r0
 124              		.loc 1 77 0
 125 0024 1846     		mov	r0, r3
 126 0026 03B0     		add	sp, sp, #12
 127              		@ sp needed
 128 0028 5DF804FB 		ldr	pc, [sp], #4
 129              		.cfi_endproc
 130              	.LFE120:
 131              		.size	put, .-put
 132 002c AFF30080 		.section	.text.get,"ax",%progbits
 133              		.align	2
 134              		.p2align 4,,15
 135              		.thumb
 136              		.thumb_func
 137              		.type	get, %function
 138              	get:
 139              	.LFB121:
 140              		.loc 1 79 0
 141              		.cfi_startproc
 142              		@ args = 0, pretend = 0, frame = 8
 143              		@ frame_needed = 0, uses_anonymous_args = 0
 144 0000 00B5     		push	{lr}
 145              		.cfi_def_cfa_offset 4
 146              		.cfi_offset 14, -4
 147 0002 83B0     		sub	sp, sp, #12
 148              		.cfi_def_cfa_offset 16
 149 0004 0190     		str	r0, [sp, #4]
 150              		.loc 1 81 0
 151 0006 019B     		ldr	r3, [sp, #4]
 152 0008 0C33     		adds	r3, r3, #12
 153 000a 1846     		mov	r0, r3
 154 000c 4FF0FF31 		mov	r1, #-1
 155 0010 FFF7FEFF 		bl	chIQGetTimeout
 156 0014 0346     		mov	r3, r0
 157              		.loc 1 82 0
 158 0016 1846     		mov	r0, r3
 159 0018 03B0     		add	sp, sp, #12
 160              		@ sp needed
 161 001a 5DF804FB 		ldr	pc, [sp], #4
 162              		.cfi_endproc
 163              	.LFE121:
 164              		.size	get, .-get
 165 001e 00BF     		.section	.text.putt,"ax",%progbits
 166              		.align	2
 167              		.p2align 4,,15
 168              		.thumb
 169              		.thumb_func
ARM GAS  /tmp/cckOgOXG.s 			page 4


 170              		.type	putt, %function
 171              	putt:
 172              	.LFB122:
 173              		.loc 1 84 0
 174              		.cfi_startproc
 175              		@ args = 0, pretend = 0, frame = 16
 176              		@ frame_needed = 0, uses_anonymous_args = 0
 177 0000 00B5     		push	{lr}
 178              		.cfi_def_cfa_offset 4
 179              		.cfi_offset 14, -4
 180 0002 85B0     		sub	sp, sp, #20
 181              		.cfi_def_cfa_offset 24
 182 0004 0390     		str	r0, [sp, #12]
 183 0006 0B46     		mov	r3, r1
 184 0008 0192     		str	r2, [sp, #4]
 185 000a 8DF80B30 		strb	r3, [sp, #11]
 186              		.loc 1 86 0
 187 000e 039B     		ldr	r3, [sp, #12]
 188 0010 03F13002 		add	r2, r3, #48
 189 0014 9DF80B30 		ldrb	r3, [sp, #11]	@ zero_extendqisi2
 190 0018 1046     		mov	r0, r2
 191 001a 1946     		mov	r1, r3
 192 001c 019A     		ldr	r2, [sp, #4]
 193 001e FFF7FEFF 		bl	chOQPutTimeout
 194 0022 0346     		mov	r3, r0
 195              		.loc 1 87 0
 196 0024 1846     		mov	r0, r3
 197 0026 05B0     		add	sp, sp, #20
 198              		@ sp needed
 199 0028 5DF804FB 		ldr	pc, [sp], #4
 200              		.cfi_endproc
 201              	.LFE122:
 202              		.size	putt, .-putt
 203 002c AFF30080 		.section	.text.gett,"ax",%progbits
 204              		.align	2
 205              		.p2align 4,,15
 206              		.thumb
 207              		.thumb_func
 208              		.type	gett, %function
 209              	gett:
 210              	.LFB123:
 211              		.loc 1 89 0
 212              		.cfi_startproc
 213              		@ args = 0, pretend = 0, frame = 8
 214              		@ frame_needed = 0, uses_anonymous_args = 0
 215 0000 00B5     		push	{lr}
 216              		.cfi_def_cfa_offset 4
 217              		.cfi_offset 14, -4
 218 0002 83B0     		sub	sp, sp, #12
 219              		.cfi_def_cfa_offset 16
 220 0004 0190     		str	r0, [sp, #4]
 221 0006 0091     		str	r1, [sp]
 222              		.loc 1 91 0
 223 0008 019B     		ldr	r3, [sp, #4]
 224 000a 0C33     		adds	r3, r3, #12
 225 000c 1846     		mov	r0, r3
 226 000e 0099     		ldr	r1, [sp]
ARM GAS  /tmp/cckOgOXG.s 			page 5


 227 0010 FFF7FEFF 		bl	chIQGetTimeout
 228 0014 0346     		mov	r3, r0
 229              		.loc 1 92 0
 230 0016 1846     		mov	r0, r3
 231 0018 03B0     		add	sp, sp, #12
 232              		@ sp needed
 233 001a 5DF804FB 		ldr	pc, [sp], #4
 234              		.cfi_endproc
 235              	.LFE123:
 236              		.size	gett, .-gett
 237 001e 00BF     		.section	.text.writet,"ax",%progbits
 238              		.align	2
 239              		.p2align 4,,15
 240              		.thumb
 241              		.thumb_func
 242              		.type	writet, %function
 243              	writet:
 244              	.LFB124:
 245              		.loc 1 94 0
 246              		.cfi_startproc
 247              		@ args = 0, pretend = 0, frame = 16
 248              		@ frame_needed = 0, uses_anonymous_args = 0
 249 0000 00B5     		push	{lr}
 250              		.cfi_def_cfa_offset 4
 251              		.cfi_offset 14, -4
 252 0002 85B0     		sub	sp, sp, #20
 253              		.cfi_def_cfa_offset 24
 254 0004 0390     		str	r0, [sp, #12]
 255 0006 0291     		str	r1, [sp, #8]
 256 0008 0192     		str	r2, [sp, #4]
 257 000a 0093     		str	r3, [sp]
 258              		.loc 1 96 0
 259 000c 039B     		ldr	r3, [sp, #12]
 260 000e 3033     		adds	r3, r3, #48
 261 0010 1846     		mov	r0, r3
 262 0012 0299     		ldr	r1, [sp, #8]
 263 0014 019A     		ldr	r2, [sp, #4]
 264 0016 009B     		ldr	r3, [sp]
 265 0018 FFF7FEFF 		bl	chOQWriteTimeout
 266 001c 0346     		mov	r3, r0
 267              		.loc 1 97 0
 268 001e 1846     		mov	r0, r3
 269 0020 05B0     		add	sp, sp, #20
 270              		@ sp needed
 271 0022 5DF804FB 		ldr	pc, [sp], #4
 272              		.cfi_endproc
 273              	.LFE124:
 274              		.size	writet, .-writet
 275 0026 00BFAFF3 		.section	.text.readt,"ax",%progbits
 275      0080AFF3 
 275      0080
 276              		.align	2
 277              		.p2align 4,,15
 278              		.thumb
 279              		.thumb_func
 280              		.type	readt, %function
 281              	readt:
ARM GAS  /tmp/cckOgOXG.s 			page 6


 282              	.LFB125:
 283              		.loc 1 99 0
 284              		.cfi_startproc
 285              		@ args = 0, pretend = 0, frame = 16
 286              		@ frame_needed = 0, uses_anonymous_args = 0
 287 0000 00B5     		push	{lr}
 288              		.cfi_def_cfa_offset 4
 289              		.cfi_offset 14, -4
 290 0002 85B0     		sub	sp, sp, #20
 291              		.cfi_def_cfa_offset 24
 292 0004 0390     		str	r0, [sp, #12]
 293 0006 0291     		str	r1, [sp, #8]
 294 0008 0192     		str	r2, [sp, #4]
 295 000a 0093     		str	r3, [sp]
 296              		.loc 1 101 0
 297 000c 039B     		ldr	r3, [sp, #12]
 298 000e 0C33     		adds	r3, r3, #12
 299 0010 1846     		mov	r0, r3
 300 0012 0299     		ldr	r1, [sp, #8]
 301 0014 019A     		ldr	r2, [sp, #4]
 302 0016 009B     		ldr	r3, [sp]
 303 0018 FFF7FEFF 		bl	chIQReadTimeout
 304 001c 0346     		mov	r3, r0
 305              		.loc 1 102 0
 306 001e 1846     		mov	r0, r3
 307 0020 05B0     		add	sp, sp, #20
 308              		@ sp needed
 309 0022 5DF804FB 		ldr	pc, [sp], #4
 310              		.cfi_endproc
 311              	.LFE125:
 312              		.size	readt, .-readt
 313 0026 00BFAFF3 		.section	.rodata.vmt,"a",%progbits
 313      0080AFF3 
 313      0080
 314              		.align	2
 315              		.type	vmt, %object
 316              		.size	vmt, 32
 317              	vmt:
 318 0000 00000000 		.word	write
 319 0004 00000000 		.word	read
 320 0008 00000000 		.word	put
 321 000c 00000000 		.word	get
 322 0010 00000000 		.word	putt
 323 0014 00000000 		.word	gett
 324 0018 00000000 		.word	writet
 325 001c 00000000 		.word	readt
 326              		.section	.text.sdInit,"ax",%progbits
 327              		.align	2
 328              		.p2align 4,,15
 329              		.global	sdInit
 330              		.thumb
 331              		.thumb_func
 332              		.type	sdInit, %function
 333              	sdInit:
 334              	.LFB126:
 335              		.loc 1 120 0
 336              		.cfi_startproc
ARM GAS  /tmp/cckOgOXG.s 			page 7


 337              		@ args = 0, pretend = 0, frame = 0
 338              		@ frame_needed = 0, uses_anonymous_args = 0
 339 0000 08B5     		push	{r3, lr}
 340              		.cfi_def_cfa_offset 8
 341              		.cfi_offset 3, -8
 342              		.cfi_offset 14, -4
 343              		.loc 1 122 0
 344 0002 FFF7FEFF 		bl	sd_lld_init
 345              		.loc 1 123 0
 346 0006 08BD     		pop	{r3, pc}
 347              		.cfi_endproc
 348              	.LFE126:
 349              		.size	sdInit, .-sdInit
 350 0008 AFF30080 		.section	.text.sdObjectInit,"ax",%progbits
 350      AFF30080 
 351              		.align	2
 352              		.p2align 4,,15
 353              		.global	sdObjectInit
 354              		.thumb
 355              		.thumb_func
 356              		.type	sdObjectInit, %function
 357              	sdObjectInit:
 358              	.LFB127:
 359              		.loc 1 140 0
 360              		.cfi_startproc
 361              		@ args = 0, pretend = 0, frame = 16
 362              		@ frame_needed = 0, uses_anonymous_args = 0
 363 0000 00B5     		push	{lr}
 364              		.cfi_def_cfa_offset 4
 365              		.cfi_offset 14, -4
 366 0002 87B0     		sub	sp, sp, #28
 367              		.cfi_def_cfa_offset 32
 368 0004 0590     		str	r0, [sp, #20]
 369 0006 0491     		str	r1, [sp, #16]
 370 0008 0392     		str	r2, [sp, #12]
 371              		.loc 1 142 0
 372 000a 059B     		ldr	r3, [sp, #20]
 373 000c 144A     		ldr	r2, .L19
 374 000e 1A60     		str	r2, [r3]
 375              		.loc 1 143 0
 376 0010 059B     		ldr	r3, [sp, #20]
 377 0012 1A1D     		adds	r2, r3, #4
 378 0014 059B     		ldr	r3, [sp, #20]
 379 0016 5A60     		str	r2, [r3, #4]
 380              		.loc 1 144 0
 381 0018 059B     		ldr	r3, [sp, #20]
 382 001a 0122     		movs	r2, #1
 383 001c 1A72     		strb	r2, [r3, #8]
 384              		.loc 1 145 0
 385 001e 059B     		ldr	r3, [sp, #20]
 386 0020 03F10C02 		add	r2, r3, #12
 387 0024 059B     		ldr	r3, [sp, #20]
 388 0026 5433     		adds	r3, r3, #84
 389 0028 0599     		ldr	r1, [sp, #20]
 390 002a 0091     		str	r1, [sp]
 391 002c 1046     		mov	r0, r2
 392 002e 1946     		mov	r1, r3
ARM GAS  /tmp/cckOgOXG.s 			page 8


 393 0030 4FF48072 		mov	r2, #256
 394 0034 049B     		ldr	r3, [sp, #16]
 395 0036 FFF7FEFF 		bl	chIQInit
 396              		.loc 1 146 0
 397 003a 059B     		ldr	r3, [sp, #20]
 398 003c 03F13002 		add	r2, r3, #48
 399 0040 059B     		ldr	r3, [sp, #20]
 400 0042 03F5AA73 		add	r3, r3, #340
 401 0046 0599     		ldr	r1, [sp, #20]
 402 0048 0091     		str	r1, [sp]
 403 004a 1046     		mov	r0, r2
 404 004c 1946     		mov	r1, r3
 405 004e 4FF48072 		mov	r2, #256
 406 0052 039B     		ldr	r3, [sp, #12]
 407 0054 FFF7FEFF 		bl	chOQInit
 408              		.loc 1 147 0
 409 0058 07B0     		add	sp, sp, #28
 410              		@ sp needed
 411 005a 5DF804FB 		ldr	pc, [sp], #4
 412              	.L20:
 413 005e 00BF     		.align	2
 414              	.L19:
 415 0060 00000000 		.word	vmt
 416              		.cfi_endproc
 417              	.LFE127:
 418              		.size	sdObjectInit, .-sdObjectInit
 419 0064 AFF30080 		.section	.rodata
 419      AFF30080 
 419      AFF30080 
 420              		.align	2
 421              	.LC0:
 422 0000 22736453 		.ascii	"\"sdStart\"()\000"
 422      74617274 
 422      22282900 
 423              		.align	2
 424              	.LC1:
 425 000c 73645374 		.ascii	"sdStart(), #1\000"
 425      61727428 
 425      292C2023 
 425      3100
 426              		.section	.text.sdStart,"ax",%progbits
 427              		.align	2
 428              		.p2align 4,,15
 429              		.global	sdStart
 430              		.thumb
 431              		.thumb_func
 432              		.type	sdStart, %function
 433              	sdStart:
 434              	.LFB128:
 435              		.loc 1 159 0
 436              		.cfi_startproc
 437              		@ args = 0, pretend = 0, frame = 8
 438              		@ frame_needed = 0, uses_anonymous_args = 0
 439 0000 00B5     		push	{lr}
 440              		.cfi_def_cfa_offset 4
 441              		.cfi_offset 14, -4
 442 0002 83B0     		sub	sp, sp, #12
ARM GAS  /tmp/cckOgOXG.s 			page 9


 443              		.cfi_def_cfa_offset 16
 444 0004 0190     		str	r0, [sp, #4]
 445 0006 0091     		str	r1, [sp]
 446              		.loc 1 161 0
 447 0008 019B     		ldr	r3, [sp, #4]
 448 000a 002B     		cmp	r3, #0
 449 000c 02D1     		bne	.L22
 450              		.loc 1 161 0 is_stmt 0 discriminator 1
 451 000e 1148     		ldr	r0, .L24
 452 0010 FFF7FEFF 		bl	chDbgPanic
 453              	.L22:
 454              	.LBB2:
 455              		.loc 1 163 0 is_stmt 1
 456 0014 2023     		movs	r3, #32
 457              	@ 163 "/home/dave/r2p-sdk/core/ChibiOS/os/hal/src/serial.c" 1
 458 0016 83F31188 		msr     BASEPRI, r3
 459              	@ 0 "" 2
 460              		.thumb
 461              	.LBE2:
 462 001a FFF7FEFF 		bl	dbg_check_lock
 463              		.loc 1 164 0
 464 001e 019B     		ldr	r3, [sp, #4]
 465 0020 1B7A     		ldrb	r3, [r3, #8]	@ zero_extendqisi2
 466 0022 012B     		cmp	r3, #1
 467 0024 06D0     		beq	.L23
 468              		.loc 1 164 0 is_stmt 0 discriminator 1
 469 0026 019B     		ldr	r3, [sp, #4]
 470 0028 1B7A     		ldrb	r3, [r3, #8]	@ zero_extendqisi2
 471 002a 022B     		cmp	r3, #2
 472 002c 02D0     		beq	.L23
 473 002e 0A48     		ldr	r0, .L24+4
 474 0030 FFF7FEFF 		bl	chDbgPanic
 475              	.L23:
 476              		.loc 1 167 0 is_stmt 1
 477 0034 0198     		ldr	r0, [sp, #4]
 478 0036 0099     		ldr	r1, [sp]
 479 0038 FFF7FEFF 		bl	sd_lld_start
 480              		.loc 1 168 0
 481 003c 019B     		ldr	r3, [sp, #4]
 482 003e 0222     		movs	r2, #2
 483 0040 1A72     		strb	r2, [r3, #8]
 484              		.loc 1 169 0
 485 0042 FFF7FEFF 		bl	dbg_check_unlock
 486              	.LBB3:
 487 0046 0023     		movs	r3, #0
 488              	@ 169 "/home/dave/r2p-sdk/core/ChibiOS/os/hal/src/serial.c" 1
 489 0048 83F31188 		msr     BASEPRI, r3
 490              	@ 0 "" 2
 491              		.thumb
 492              	.LBE3:
 493              		.loc 1 170 0
 494 004c 03B0     		add	sp, sp, #12
 495              		@ sp needed
 496 004e 5DF804FB 		ldr	pc, [sp], #4
 497              	.L25:
 498 0052 00BF     		.align	2
 499              	.L24:
ARM GAS  /tmp/cckOgOXG.s 			page 10


 500 0054 00000000 		.word	.LC0
 501 0058 0C000000 		.word	.LC1
 502              		.cfi_endproc
 503              	.LFE128:
 504              		.size	sdStart, .-sdStart
 505 005c AFF30080 		.section	.rodata
 506 001a 0000     		.align	2
 507              	.LC2:
 508 001c 22736453 		.ascii	"\"sdStop\"()\000"
 508      746F7022 
 508      282900
 509 0027 00       		.align	2
 510              	.LC3:
 511 0028 73645374 		.ascii	"sdStop(), #1\000"
 511      6F702829 
 511      2C202331 
 511      00
 512              		.section	.text.sdStop,"ax",%progbits
 513              		.align	2
 514              		.p2align 4,,15
 515              		.global	sdStop
 516              		.thumb
 517              		.thumb_func
 518              		.type	sdStop, %function
 519              	sdStop:
 520              	.LFB129:
 521              		.loc 1 181 0
 522              		.cfi_startproc
 523              		@ args = 0, pretend = 0, frame = 8
 524              		@ frame_needed = 0, uses_anonymous_args = 0
 525 0000 00B5     		push	{lr}
 526              		.cfi_def_cfa_offset 4
 527              		.cfi_offset 14, -4
 528 0002 83B0     		sub	sp, sp, #12
 529              		.cfi_def_cfa_offset 16
 530 0004 0190     		str	r0, [sp, #4]
 531              		.loc 1 183 0
 532 0006 019B     		ldr	r3, [sp, #4]
 533 0008 002B     		cmp	r3, #0
 534 000a 02D1     		bne	.L27
 535              		.loc 1 183 0 is_stmt 0 discriminator 1
 536 000c 1648     		ldr	r0, .L29
 537 000e FFF7FEFF 		bl	chDbgPanic
 538              	.L27:
 539              	.LBB4:
 540              		.loc 1 185 0 is_stmt 1
 541 0012 2023     		movs	r3, #32
 542              	@ 185 "/home/dave/r2p-sdk/core/ChibiOS/os/hal/src/serial.c" 1
 543 0014 83F31188 		msr     BASEPRI, r3
 544              	@ 0 "" 2
 545              		.thumb
 546              	.LBE4:
 547 0018 FFF7FEFF 		bl	dbg_check_lock
 548              		.loc 1 186 0
 549 001c 019B     		ldr	r3, [sp, #4]
 550 001e 1B7A     		ldrb	r3, [r3, #8]	@ zero_extendqisi2
 551 0020 012B     		cmp	r3, #1
ARM GAS  /tmp/cckOgOXG.s 			page 11


 552 0022 06D0     		beq	.L28
 553              		.loc 1 186 0 is_stmt 0 discriminator 1
 554 0024 019B     		ldr	r3, [sp, #4]
 555 0026 1B7A     		ldrb	r3, [r3, #8]	@ zero_extendqisi2
 556 0028 022B     		cmp	r3, #2
 557 002a 02D0     		beq	.L28
 558 002c 0F48     		ldr	r0, .L29+4
 559 002e FFF7FEFF 		bl	chDbgPanic
 560              	.L28:
 561              		.loc 1 189 0 is_stmt 1
 562 0032 0198     		ldr	r0, [sp, #4]
 563 0034 FFF7FEFF 		bl	sd_lld_stop
 564              		.loc 1 190 0
 565 0038 019B     		ldr	r3, [sp, #4]
 566 003a 0122     		movs	r2, #1
 567 003c 1A72     		strb	r2, [r3, #8]
 568              		.loc 1 191 0
 569 003e 019B     		ldr	r3, [sp, #4]
 570 0040 3033     		adds	r3, r3, #48
 571 0042 1846     		mov	r0, r3
 572 0044 FFF7FEFF 		bl	chOQResetI
 573              		.loc 1 192 0
 574 0048 019B     		ldr	r3, [sp, #4]
 575 004a 0C33     		adds	r3, r3, #12
 576 004c 1846     		mov	r0, r3
 577 004e FFF7FEFF 		bl	chIQResetI
 578              		.loc 1 193 0
 579 0052 FFF7FEFF 		bl	chSchRescheduleS
 580              		.loc 1 194 0
 581 0056 FFF7FEFF 		bl	dbg_check_unlock
 582              	.LBB5:
 583 005a 0023     		movs	r3, #0
 584              	@ 194 "/home/dave/r2p-sdk/core/ChibiOS/os/hal/src/serial.c" 1
 585 005c 83F31188 		msr     BASEPRI, r3
 586              	@ 0 "" 2
 587              		.thumb
 588              	.LBE5:
 589              		.loc 1 195 0
 590 0060 03B0     		add	sp, sp, #12
 591              		@ sp needed
 592 0062 5DF804FB 		ldr	pc, [sp], #4
 593              	.L30:
 594 0066 00BF     		.align	2
 595              	.L29:
 596 0068 1C000000 		.word	.LC2
 597 006c 28000000 		.word	.LC3
 598              		.cfi_endproc
 599              	.LFE129:
 600              		.size	sdStop, .-sdStop
 601              		.section	.rodata
 602 0035 000000   		.align	2
 603              	.LC4:
 604 0038 22736449 		.ascii	"\"sdIncomingDataI\"()\000"
 604      6E636F6D 
 604      696E6744 
 604      61746149 
 604      22282900 
ARM GAS  /tmp/cckOgOXG.s 			page 12


 605              		.section	.text.sdIncomingDataI,"ax",%progbits
 606              		.align	2
 607              		.p2align 4,,15
 608              		.global	sdIncomingDataI
 609              		.thumb
 610              		.thumb_func
 611              		.type	sdIncomingDataI, %function
 612              	sdIncomingDataI:
 613              	.LFB130:
 614              		.loc 1 213 0
 615              		.cfi_startproc
 616              		@ args = 0, pretend = 0, frame = 8
 617              		@ frame_needed = 0, uses_anonymous_args = 0
 618 0000 00B5     		push	{lr}
 619              		.cfi_def_cfa_offset 4
 620              		.cfi_offset 14, -4
 621 0002 83B0     		sub	sp, sp, #12
 622              		.cfi_def_cfa_offset 16
 623 0004 0190     		str	r0, [sp, #4]
 624 0006 0B46     		mov	r3, r1
 625 0008 8DF80330 		strb	r3, [sp, #3]
 626              		.loc 1 215 0
 627 000c FFF7FEFF 		bl	chDbgCheckClassI
 628              		.loc 1 216 0
 629 0010 019B     		ldr	r3, [sp, #4]
 630 0012 002B     		cmp	r3, #0
 631 0014 02D1     		bne	.L32
 632              		.loc 1 216 0 is_stmt 0 discriminator 1
 633 0016 1148     		ldr	r0, .L35
 634 0018 FFF7FEFF 		bl	chDbgPanic
 635              	.L32:
 636              		.loc 1 218 0 is_stmt 1
 637 001c 019B     		ldr	r3, [sp, #4]
 638 001e 5B69     		ldr	r3, [r3, #20]
 639 0020 002B     		cmp	r3, #0
 640 0022 05D1     		bne	.L33
 641              		.loc 1 219 0
 642 0024 019B     		ldr	r3, [sp, #4]
 643 0026 0433     		adds	r3, r3, #4
 644 0028 1846     		mov	r0, r3
 645 002a 0421     		movs	r1, #4
 646 002c FFF7FEFF 		bl	chEvtBroadcastFlagsI
 647              	.L33:
 648              		.loc 1 220 0
 649 0030 019B     		ldr	r3, [sp, #4]
 650 0032 03F10C02 		add	r2, r3, #12
 651 0036 9DF80330 		ldrb	r3, [sp, #3]	@ zero_extendqisi2
 652 003a 1046     		mov	r0, r2
 653 003c 1946     		mov	r1, r3
 654 003e FFF7FEFF 		bl	chIQPutI
 655 0042 0346     		mov	r3, r0
 656 0044 002B     		cmp	r3, #0
 657 0046 05DA     		bge	.L31
 658              		.loc 1 221 0
 659 0048 019B     		ldr	r3, [sp, #4]
 660 004a 0433     		adds	r3, r3, #4
 661 004c 1846     		mov	r0, r3
ARM GAS  /tmp/cckOgOXG.s 			page 13


 662 004e 8021     		movs	r1, #128
 663 0050 FFF7FEFF 		bl	chEvtBroadcastFlagsI
 664              	.L31:
 665              		.loc 1 222 0
 666 0054 03B0     		add	sp, sp, #12
 667              		@ sp needed
 668 0056 5DF804FB 		ldr	pc, [sp], #4
 669              	.L36:
 670 005a 00BF     		.align	2
 671              	.L35:
 672 005c 38000000 		.word	.LC4
 673              		.cfi_endproc
 674              	.LFE130:
 675              		.size	sdIncomingDataI, .-sdIncomingDataI
 676              		.section	.rodata
 677              		.align	2
 678              	.LC5:
 679 004c 22736452 		.ascii	"\"sdRequestDataI\"()\000"
 679      65717565 
 679      73744461 
 679      74614922 
 679      282900
 680 005f 00       		.section	.text.sdRequestDataI,"ax",%progbits
 681              		.align	2
 682              		.p2align 4,,15
 683              		.global	sdRequestDataI
 684              		.thumb
 685              		.thumb_func
 686              		.type	sdRequestDataI, %function
 687              	sdRequestDataI:
 688              	.LFB131:
 689              		.loc 1 239 0
 690              		.cfi_startproc
 691              		@ args = 0, pretend = 0, frame = 16
 692              		@ frame_needed = 0, uses_anonymous_args = 0
 693 0000 00B5     		push	{lr}
 694              		.cfi_def_cfa_offset 4
 695              		.cfi_offset 14, -4
 696 0002 85B0     		sub	sp, sp, #20
 697              		.cfi_def_cfa_offset 24
 698 0004 0190     		str	r0, [sp, #4]
 699              		.loc 1 242 0
 700 0006 FFF7FEFF 		bl	chDbgCheckClassI
 701              		.loc 1 243 0
 702 000a 019B     		ldr	r3, [sp, #4]
 703 000c 002B     		cmp	r3, #0
 704 000e 02D1     		bne	.L38
 705              		.loc 1 243 0 is_stmt 0 discriminator 1
 706 0010 0B48     		ldr	r0, .L41
 707 0012 FFF7FEFF 		bl	chDbgPanic
 708              	.L38:
 709              		.loc 1 245 0 is_stmt 1
 710 0016 019B     		ldr	r3, [sp, #4]
 711 0018 3033     		adds	r3, r3, #48
 712 001a 1846     		mov	r0, r3
 713 001c FFF7FEFF 		bl	chOQGetI
 714 0020 0390     		str	r0, [sp, #12]
ARM GAS  /tmp/cckOgOXG.s 			page 14


 715              		.loc 1 246 0
 716 0022 039B     		ldr	r3, [sp, #12]
 717 0024 002B     		cmp	r3, #0
 718 0026 05DA     		bge	.L39
 719              		.loc 1 247 0
 720 0028 019B     		ldr	r3, [sp, #4]
 721 002a 0433     		adds	r3, r3, #4
 722 002c 1846     		mov	r0, r3
 723 002e 0821     		movs	r1, #8
 724 0030 FFF7FEFF 		bl	chEvtBroadcastFlagsI
 725              	.L39:
 726              		.loc 1 248 0
 727 0034 039B     		ldr	r3, [sp, #12]
 728              		.loc 1 249 0
 729 0036 1846     		mov	r0, r3
 730 0038 05B0     		add	sp, sp, #20
 731              		@ sp needed
 732 003a 5DF804FB 		ldr	pc, [sp], #4
 733              	.L42:
 734 003e 00BF     		.align	2
 735              	.L41:
 736 0040 4C000000 		.word	.LC5
 737              		.cfi_endproc
 738              	.LFE131:
 739              		.size	sdRequestDataI, .-sdRequestDataI
 740 0044 AFF30080 		.text
 740      AFF30080 
 740      AFF30080 
 741              	.Letext0:
 742              		.file 2 "/usr/lib/gcc/arm-none-eabi/4.8/include/stddef.h"
 743              		.file 3 "/usr/include/newlib/machine/_default_types.h"
 744              		.file 4 "/usr/include/newlib/stdint.h"
 745              		.file 5 "/home/dave/r2p-sdk/core/ChibiOS/os/ports/GCC/ARMCMx/chtypes.h"
 746              		.file 6 "/home/dave/r2p-sdk/core/ChibiOS/os/kernel/include/chlists.h"
 747              		.file 7 "/home/dave/r2p-sdk/core/ChibiOS/os/kernel/include/chthreads.h"
 748              		.file 8 "/home/dave/r2p-sdk/core/ChibiOS/os/ports/GCC/ARMCMx/chcore_v7m.h"
 749              		.file 9 "/home/dave/r2p-sdk/core/ChibiOS/os/kernel/include/chmtx.h"
 750              		.file 10 "/home/dave/r2p-sdk/core/ChibiOS/os/kernel/include/chevents.h"
 751              		.file 11 "/home/dave/r2p-sdk/core/ChibiOS/os/kernel/include/chqueues.h"
 752              		.file 12 "/home/dave/r2p-sdk/core/ChibiOS/os/hal/platforms/STM32F30x/stm32f30x.h"
 753              		.file 13 "/home/dave/r2p-sdk/core/ChibiOS/os/hal/include/serial.h"
 754              		.file 14 "/home/dave/r2p-sdk/core/ChibiOS/os/hal/platforms/STM32/USARTv2/serial_lld.h"
 755              		.file 15 "/home/dave/r2p-sdk/core/ChibiOS/os/ports/common/ARMCMx/CMSIS/include/core_cm4.h"