ARM GAS  /tmp/cckOgOXG.s 			page 1


   1              		.syntax unified
   2              		.cpu cortex-m4
   3              		.eabi_attribute 27, 3
   4              		.eabi_attribute 28, 1
   5              		.fpu fpv4-sp-d16
   6              		.eabi_attribute 20, 1
   7              		.eabi_attribute 21, 1
   8              		.eabi_attribute 23, 3
   9              		.eabi_attribute 24, 1
  10              		.eabi_attribute 25, 1
  11              		.eabi_attribute 26, 1
  12              		.eabi_attribute 30, 6
  13              		.eabi_attribute 34, 1
  14              		.eabi_attribute 18, 4
  15              		.thumb
  16              		.file	"serial.c"
  17              		.text
  18              	.Ltext0:
  19              		.cfi_sections	.debug_frame
  20              		.section	.text.write,"ax",%progbits
  21              		.align	2
  22              		.p2align 4,,15
  23              		.thumb
  24              		.thumb_func
  25              		.type	write, %function
  26              	write:
  27              	.LFB118:
  28              		.file 1 "/home/dave/r2p-sdk/core/ChibiOS/os/hal/src/serial.c"
  29              		.loc 1 62 0
  30              		.cfi_startproc
  31              		@ args = 0, pretend = 0, frame = 16
  32              		@ frame_needed = 0, uses_anonymous_args = 0
  33 0000 00B5     		push	{lr}
  34              		.cfi_def_cfa_offset 4
  35              		.cfi_offset 14, -4
  36 0002 85B0     		sub	sp, sp, #20
  37              		.cfi_def_cfa_offset 24
  38 0004 0390     		str	r0, [sp, #12]
  39 0006 0291     		str	r1, [sp, #8]
  40 0008 0192     		str	r2, [sp, #4]
  41              		.loc 1 64 0
  42 000a 039B     		ldr	r3, [sp, #12]
  43 000c 3033     		adds	r3, r3, #48
  44 000e 1846     		mov	r0, r3
  45 0010 0299     		ldr	r1, [sp, #8]
  46 0012 019A     		ldr	r2, [sp, #4]
  47 0014 4FF0FF33 		mov	r3, #-1
  48 0018 FFF7FEFF 		bl	chOQWriteTimeout
  49 001c 0346     		mov	r3, r0
  50              		.loc 1 66 0
  51 001e 1846     		mov	r0, r3
  52 0020 05B0     		add	sp, sp, #20
  53              		@ sp needed
  54 0022 5DF804FB 		ldr	pc, [sp], #4
  55              		.cfi_endproc
  56              	.LFE118:
  57              		.size	write, .-write
ARM GAS  /tmp/cckOgOXG.s 			page 2


  58 0026 00BFAFF3 		.section	.text.read,"ax",%progbits
  58      0080AFF3 
  58      0080
  59              		.align	2
  60              		.p2align 4,,15
  61              		.thumb
  62              		.thumb_func
  63              		.type	read, %function
  64              	read:
  65              	.LFB119:
  66              		.loc 1 68 0
  67              		.cfi_startproc
  68              		@ args = 0, pretend = 0, frame = 16
  69              		@ frame_needed = 0, uses_anonymous_args = 0
  70 0000 00B5     		push	{lr}
  71              		.cfi_def_cfa_offset 4
  72              		.cfi_offset 14, -4
  73 0002 85B0     		sub	sp, sp, #20
  74              		.cfi_def_cfa_offset 24
  75 0004 0390     		str	r0, [sp, #12]
  76 0006 0291     		str	r1, [sp, #8]
  77 0008 0192     		str	r2, [sp, #4]
  78              		.loc 1 70 0
  79 000a 039B     		ldr	r3, [sp, #12]
  80 000c 0C33     		adds	r3, r3, #12
  81 000e 1846     		mov	r0, r3
  82 0010 0299     		ldr	r1, [sp, #8]
  83 0012 019A     		ldr	r2, [sp, #4]
  84 0014 4FF0FF33 		mov	r3, #-1
  85 0018 FFF7FEFF 		bl	chIQReadTimeout
  86 001c 0346     		mov	r3, r0
  87              		.loc 1 72 0
  88 001e 1846     		mov	r0, r3
  89 0020 05B0     		add	sp, sp, #20
  90              		@ sp needed
  91 0022 5DF804FB 		ldr	pc, [sp], #4
  92              		.cfi_endproc
  93              	.LFE119:
  94              		.size	read, .-read
  95              		.section	.text.put,"ax",%progbits
  96              		.align	2
  97              		.p2align 4,,15
  98              		.thumb
  99              		.thumb_func
 100              		.type	put, %function
 101              	put:
 102              	.LFB120:
 103              		.loc 1 74 0
 104              		.cfi_startproc
 105              		@ args = 0, pretend = 0, frame = 8
 106              		@ frame_needed = 0, uses_anonymous_args = 0
 107 0000 00B5     		push	{lr}
 108              		.cfi_def_cfa_offset 4
 109              		.cfi_offset 14, -4
 110 0002 83B0     		sub	sp, sp, #12
 111              		.cfi_def_cfa_offset 16
 112 0004 0190     		str	r0, [sp, #4]
ARM GAS  /tmp/cckOgOXG.s 			page 3


 113 0006 0B46     		mov	r3, r1
 114 0008 8DF80330 		strb	r3, [sp, #3]
 115              		.loc 1 76 0
 116 000c 019B     		ldr	r3, [sp, #4]
 117 000e 03F13002 		add	r2, r3, #48
 118 0012 9DF80330 		ldrb	r3, [sp, #3]	@ zero_extendqisi2
 119 0016 1046     		mov	r0, r2
 120 0018 1946     		mov	r1, r3
 121 001a 4FF0FF32 		mov	r2, #-1
 122 001e FFF7FEFF 		bl	chOQPutTimeout
 123 0022 0346     		mov	r3, r0
 124              		.loc 1 77 0
 125 0024 1846     		mov	r0, r3
 126 0026 03B0     		add	sp, sp, #12
 127              		@ sp needed
 128 0028 5DF804FB 		ldr	pc, [sp], #4
 129              		.cfi_endproc
 130              	.LFE120:
 131              		.size	put, .-put
 132 002c AFF30080 		.section	.text.get,"ax",%progbits
 133              		.align	2
 134              		.p2align 4,,15
 135              		.thumb
 136              		.thumb_func
 137              		.type	get, %function
 138              	get:
 139              	.LFB121:
 140              		.loc 1 79 0
 141              		.cfi_startproc
 142              		@ args = 0, pretend = 0, frame = 8
 143              		@ frame_needed = 0, uses_anonymous_args = 0
 144 0000 00B5     		push	{lr}
 145              		.cfi_def_cfa_offset 4
 146              		.cfi_offset 14, -4
 147 0002 83B0     		sub	sp, sp, #12
 148              		.cfi_def_cfa_offset 16
 149 0004 0190     		str	r0, [sp, #4]
 150              		.loc 1 81 0
 151 0006 019B     		ldr	r3, [sp, #4]
 152 0008 0C33     		adds	r3, r3, #12
 153 000a 1846     		mov	r0, r3
 154 000c 4FF0FF31 		mov	r1, #-1
 155 0010 FFF7FEFF 		bl	chIQGetTimeout
 156 0014 0346     		mov	r3, r0
 157              		.loc 1 82 0
 158 0016 1846     		mov	r0, r3
 159 0018 03B0     		add	sp, sp, #12
 160              		@ sp needed
 161 001a 5DF804FB 		ldr	pc, [sp], #4
 162              		.cfi_endproc
 163              	.LFE121:
 164              		.size	get, .-get
 165 001e 00BF     		.section	.text.putt,"ax",%progbits
 166              		.align	2
 167              		.p2align 4,,15
 168              		.thumb
 169              		.thumb_func
ARM GAS  /tmp/cckOgOXG.s 			page 4


 170              		.type	putt, %function
 171              	putt:
 172              	.LFB122:
 173              		.loc 1 84 0
 174              		.cfi_startproc
 175              		@ args = 0, pretend = 0, frame = 16
 176              		@ frame_needed = 0, uses_anonymous_args = 0
 177 0000 00B5     		push	{lr}
 178              		.cfi_def_cfa_offset 4
 179              		.cfi_offset 14, -4
 180 0002 85B0     		sub	sp, sp, #20
 181              		.cfi_def_cfa_offset 24
 182 0004 0390     		str	r0, [sp, #12]
 183 0006 0B46     		mov	r3, r1
 184 0008 0192     		str	r2, [sp, #4]
 185 000a 8DF80B30 		strb	r3, [sp, #11]
 186              		.loc 1 86 0
 187 000e 039B     		ldr	r3, [sp, #12]
 188 0010 03F13002 		add	r2, r3, #48
 189 0014 9DF80B30 		ldrb	r3, [sp, #11]	@ zero_extendqisi2
 190 0018 1046     		mov	r0, r2
 191 001a 1946     		mov	r1, r3
 192 001c 019A     		ldr	r2, [sp, #4]
 193 001e FFF7FEFF 		bl	chOQPutTimeout
 194 0022 0346     		mov	r3, r0
 195              		.loc 1 87 0
 196 0024 1846     		mov	r0, r3
 197 0026 05B0     		add	sp, sp, #20
 198              		@ sp needed
 199 0028 5DF804FB 		ldr	pc, [sp], #4
 200              		.cfi_endproc
 201              	.LFE122:
 202              		.size	putt, .-putt
 203 002c AFF30080 		.section	.text.gett,"ax",%progbits
 204              		.align	2
 205              		.p2align 4,,15
 206              		.thumb
 207              		.thumb_func
 208              		.type	gett, %function
 209              	gett:
 210              	.LFB123:
 211              		.loc 1 89 0
 212              		.cfi_startproc
 213              		@ args = 0, pretend = 0, frame = 8
 214              		@ frame_needed = 0, uses_anonymous_args = 0
 215 0000 00B5     		push	{lr}
 216              		.cfi_def_cfa_offset 4
 217              		.cfi_offset 14, -4
 218 0002 83B0     		sub	sp, sp, #12
 219              		.cfi_def_cfa_offset 16
 220 0004 0190     		str	r0, [sp, #4]
 221 0006 0091     		str	r1, [sp]
 222              		.loc 1 91 0
 223 0008 019B     		ldr	r3, [sp, #4]
 224 000a 0C33     		adds	r3, r3, #12
 225 000c 1846     		mov	r0, r3
 226 000e 0099     		ldr	r1, [sp]
ARM GAS  /tmp/cckOgOXG.s 			page 5


 227 0010 FFF7FEFF 		bl	chIQGetTimeout
 228 0014 0346     		mov	r3, r0
 229              		.loc 1 92 0
 230 0016 1846     		mov	r0, r3
 231 0018 03B0     		add	sp, sp, #12
 232              		@ sp needed
 233 001a 5DF804FB 		ldr	pc, [sp], #4
 234              		.cfi_endproc
 235              	.LFE123:
 236              		.size	gett, .-gett
 237 001e 00BF     		.section	.text.writet,"ax",%progbits
 238              		.align	2
 239              		.p2align 4,,15
 240              		.thumb
 241              		.thumb_func
 242              		.type	writet, %function
 243              	writet:
 244              	.LFB124:
 245              		.loc 1 94 0
 246              		.cfi_startproc
 247              		@ args = 0, pretend = 0, frame = 16
 248              		@ frame_needed = 0, uses_anonymous_args = 0
 249 0000 00B5     		push	{lr}
 250              		.cfi_def_cfa_offset 4
 251              		.cfi_offset 14, -4
 252 0002 85B0     		sub	sp, sp, #20
 253              		.cfi_def_cfa_offset 24
 254 0004 0390     		str	r0, [sp, #12]
 255 0006 0291     		str	r1, [sp, #8]
 256 0008 0192     		str	r2, [sp, #4]
 257 000a 0093     		str	r3, [sp]
 258              		.loc 1 96 0
 259 000c 039B     		ldr	r3, [sp, #12]
 260 000e 3033     		adds	r3, r3, #48
 261 0010 1846     		mov	r0, r3
 262 0012 0299     		ldr	r1, [sp, #8]
 263 0014 019A     		ldr	r2, [sp, #4]
 264 0016 009B     		ldr	r3, [sp]
 265 0018 FFF7FEFF 		bl	chOQWriteTimeout
 266 001c 0346     		mov	r3, r0
 267              		.loc 1 97 0
 268 001e 1846     		mov	r0, r3
 269 0020 05B0     		add	sp, sp, #20
 270              		@ sp needed
 271 0022 5DF804FB 		ldr	pc, [sp], #4
 272              		.cfi_endproc
 273              	.LFE124:
 274              		.size	writet, .-writet
 275 0026 00BFAFF3 		.section	.text.readt,"ax",%progbits
 275      0080AFF3 
 275      0080
 276              		.align	2
 277              		.p2align 4,,15
 278              		.thumb
 279              		.thumb_func
 280              		.type	readt, %function
 281              	readt:
ARM GAS  /tmp/cckOgOXG.s 			page 6


 282              	.LFB125:
 283              		.loc 1 99 0
 284              		.cfi_startproc
 285              		@ args = 0, pretend = 0, frame = 16
 286              		@ frame_needed = 0, uses_anonymous_args = 0
 287 0000 00B5     		push	{lr}
 288              		.cfi_def_cfa_offset 4
 289              		.cfi_offset 14, -4
 290 0002 85B0     		sub	sp, sp, #20
 291              		.cfi_def_cfa_offset 24
 292 0004 0390     		str	r0, [sp, #12]
 293 0006 0291     		str	r1, [sp, #8]
 294 0008 0192     		str	r2, [sp, #4]
 295 000a 0093     		str	r3, [sp]
 296              		.loc 1 101 0
 297 000c 039B     		ldr	r3, [sp, #12]
 298 000e 0C33     		adds	r3, r3, #12
 299 0010 1846     		mov	r0, r3
 300 0012 0299     		ldr	r1, [sp, #8]
 301 0014 019A     		ldr	r2, [sp, #4]
 302 0016 009B     		ldr	r3, [sp]
 303 0018 FFF7FEFF 		bl	chIQReadTimeout
 304 001c 0346     		mov	r3, r0
 305              		.loc 1 102 0
 306 001e 1846     		mov	r0, r3
 307 0020 05B0     		add	sp, sp, #20
 308              		@ sp needed
 309 0022 5DF804FB 		ldr	pc, [sp], #4
 310              		.cfi_endproc
 311              	.LFE125:
 312              		.size	readt, .-readt
 313 0026 00BFAFF3 		.section	.rodata.vmt,"a",%progbits
 313      0080AFF3 
 313      0080
 314              		.align	2
 315              		.type	vmt, %object
 316              		.size	vmt, 32
 317              	vmt:
 318 0000 00000000 		.word	write
 319 0004 00000000 		.word	read
 320 0008 00000000 		.word	put
 321 000c 00000000 		.word	get
 322 0010 00000000 		.word	putt
 323 0014 00000000 		.word	gett
 324 0018 00000000 		.word	writet
 325 001c 00000000 		.word	readt
 326              		.section	.text.sdInit,"ax",%progbits
 327              		.align	2
 328              		.p2align 4,,15
 329              		.global	sdInit
 330              		.thumb
 331              		.thumb_func
 332              		.type	sdInit, %function
 333              	sdInit:
 334              	.LFB126:
 335              		.loc 1 120 0
 336              		.cfi_startproc
ARM GAS  /tmp/cckOgOXG.s 			page 7


 337              		@ args = 0, pretend = 0, frame = 0
 338              		@ frame_needed = 0, uses_anonymous_args = 0
 339 0000 08B5     		push	{r3, lr}
 340              		.cfi_def_cfa_offset 8
 341              		.cfi_offset 3, -8
 342              		.cfi_offset 14, -4
 343              		.loc 1 122 0
 344 0002 FFF7FEFF 		bl	sd_lld_init
 345              		.loc 1 123 0
 346 0006 08BD     		pop	{r3, pc}
 347              		.cfi_endproc
 348              	.LFE126:
 349              		.size	sdInit, .-sdInit
 350 0008 AFF30080 		.section	.text.sdObjectInit,"ax",%progbits
 350      AFF30080 
 351              		.align	2
 352              		.p2align 4,,15
 353              		.global	sdObjectInit
 354              		.thumb
 355              		.thumb_func
 356              		.type	sdObjectInit, %function
 357              	sdObjectInit:
 358              	.LFB127:
 359              		.loc 1 140 0
 360              		.cfi_startproc
 361              		@ args = 0, pretend = 0, frame = 16
 362              		@ frame_needed = 0, uses_anonymous_args = 0
 363 0000 00B5     		push	{lr}
 364              		.cfi_def_cfa_offset 4
 365              		.cfi_offset 14, -4
 366 0002 87B0     		sub	sp, sp, #28
 367              		.cfi_def_cfa_offset 32
 368 0004 0590     		str	r0, [sp, #20]
 369 0006 0491     		str	r1, [sp, #16]
 370 0008 0392     		str	r2, [sp, #12]
 371              		.loc 1 142 0
 372 000a 059B     		ldr	r3, [sp, #20]
 373 000c 144A     		ldr	r2, .L19
 374 000e 1A60     		str	r2, [r3]
 375              		.loc 1 143 0
 376 0010 059B     		ldr	r3, [sp, #20]
 377 0012 1A1D     		adds	r2, r3, #4
 378 0014 059B     		ldr	r3, [sp, #20]
 379 0016 5A60     		str	r2, [r3, #4]
 380              		.loc 1 144 0
 381 0018 059B     		ldr	r3, [sp, #20]
 382 001a 0122     		movs	r2, #1
 383 001c 1A72     		strb	r2, [r3, #8]
 384              		.loc 1 145 0
 385 001e 059B     		ldr	r3, [sp, #20]
 386 0020 03F10C02 		add	r2, r3, #12
 387 0024 059B     		ldr	r3, [sp, #20]
 388 0026 5433     		adds	r3, r3, #84
 389 0028 0599     		ldr	r1, [sp, #20]
 390 002a 0091     		str	r1, [sp]
 391 002c 1046     		mov	r0, r2
 392 002e 1946     		mov	r1, r3
ARM GAS  /tmp/cckOgOXG.s 			page 8


 393 0030 4FF48072 		mov	r2, #256
 394 0034 049B     		ldr	r3, [sp, #16]
 395 0036 FFF7FEFF 		bl	chIQInit
 396              		.loc 1 146 0
 397 003a 059B     		ldr	r3, [sp, #20]
 398 003c 03F13002 		add	r2, r3, #48
 399 0040 059B     		ldr	r3, [sp, #20]
 400 0042 03F5AA73 		add	r3, r3, #340
 401 0046 0599     		ldr	r1, [sp, #20]
 402 0048 0091     		str	r1, [sp]
 403 004a 1046     		mov	r0, r2
 404 004c 1946     		mov	r1, r3
 405 004e 4FF48072 		mov	r2, #256
 406 0052 039B     		ldr	r3, [sp, #12]
 407 0054 FFF7FEFF 		bl	chOQInit
 408              		.loc 1 147 0
 409 0058 07B0     		add	sp, sp, #28
 410              		@ sp needed
 411 005a 5DF804FB 		ldr	pc, [sp], #4
 412              	.L20:
 413 005e 00BF     		.align	2
 414              	.L19:
 415 0060 00000000 		.word	vmt
 416              		.cfi_endproc
 417              	.LFE127:
 418              		.size	sdObjectInit, .-sdObjectInit
 419 0064 AFF30080 		.section	.rodata
 419      AFF30080 
 419      AFF30080 
 420              		.align	2
 421              	.LC0:
 422 0000 22736453 		.ascii	"\"sdStart\"()\000"
 422      74617274 
 422      22282900 
 423              		.align	2
 424              	.LC1:
 425 000c 73645374 		.ascii	"sdStart(), #1\000"
 425      61727428 
 425      292C2023 
 425      3100
 426              		.section	.text.sdStart,"ax",%progbits
 427              		.align	2
 428              		.p2align 4,,15
 429              		.global	sdStart
 430              		.thumb
 431              		.thumb_func
 432              		.type	sdStart, %function
 433              	sdStart:
 434              	.LFB128:
 435              		.loc 1 159 0
 436              		.cfi_startproc
 437              		@ args = 0, pretend = 0, frame = 8
 438              		@ frame_needed = 0, uses_anonymous_args = 0
 439 0000 00B5     		push	{lr}
 440              		.cfi_def_cfa_offset 4
 441              		.cfi_offset 14, -4
 442 0002 83B0     		sub	sp, sp, #12
ARM GAS  /tmp/cckOgOXG.s 			page 9


 443              		.cfi_def_cfa_offset 16
 444 0004 0190     		str	r0, [sp, #4]
 445 0006 0091     		str	r1, [sp]
 446              		.loc 1 161 0
 447 0008 019B     		ldr	r3, [sp, #4]
 448 000a 002B     		cmp	r3, #0
 449 000c 02D1     		bne	.L22
 450              		.loc 1 161 0 is_stmt 0 discriminator 1
 451 000e 1148     		ldr	r0, .L24
 452 0010 FFF7FEFF 		bl	chDbgPanic
 453              	.L22:
 454              	.LBB2:
 455              		.loc 1 163 0 is_stmt 1
 456 0014 2023     		movs	r3, #32
 457              	@ 163 "/home/dave/r2p-sdk/core/ChibiOS/os/hal/src/serial.c" 1
 458 0016 83F31188 		msr     BASEPRI, r3
 459              	@ 0 "" 2
 460              		.thumb
 461              	.LBE2:
 462 001a FFF7FEFF 		bl	dbg_check_lock
 463              		.loc 1 164 0
 464 001e 019B     		ldr	r3, [sp, #4]
 465 0020 1B7A     		ldrb	r3, [r3, #8]	@ zero_extendqisi2
 466 0022 012B     		cmp	r3, #1
 467 0024 06D0     		beq	.L23
 468              		.loc 1 164 0 is_stmt 0 discriminator 1
 469 0026 019B     		ldr	r3, [sp, #4]
 470 0028 1B7A     		ldrb	r3, [r3, #8]	@ zero_extendqisi2
 471 002a 022B     		cmp	r3, #2
 472 002c 02D0     		beq	.L23
 473 002e 0A48     		ldr	r0, .L24+4
 474 0030 FFF7FEFF 		bl	chDbgPanic
 475              	.L23:
 476              		.loc 1 167 0 is_stmt 1
 477 0034 0198     		ldr	r0, [sp, #4]
 478 0036 0099     		ldr	r1, [sp]
 479 0038 FFF7FEFF 		bl	sd_lld_start
 480              		.loc 1 168 0
 481 003c 019B     		ldr	r3, [sp, #4]
 482 003e 0222     		movs	r2, #2
 483 0040 1A72     		strb	r2, [r3, #8]
 484              		.loc 1 169 0
 485 0042 FFF7FEFF 		bl	dbg_check_unlock
 486              	.LBB3:
 487 0046 0023     		movs	r3, #0
 488              	@ 169 "/home/dave/r2p-sdk/core/ChibiOS/os/hal/src/serial.c" 1
 489 0048 83F31188 		msr     BASEPRI, r3
 490              	@ 0 "" 2
 491              		.thumb
 492              	.LBE3:
 493              		.loc 1 170 0
 494 004c 03B0     		add	sp, sp, #12
 495              		@ sp needed
 496 004e 5DF804FB 		ldr	pc, [sp], #4
 497              	.L25:
 498 0052 00BF     		.align	2
 499              	.L24:
ARM GAS  /tmp/cckOgOXG.s 			page 10


 500 0054 00000000 		.word	.LC0
 501 0058 0C000000 		.word	.LC1
 502              		.cfi_endproc
 503              	.LFE128:
 504              		.size	sdStart, .-sdStart
 505 005c AFF30080 		.section	.rodata
 506 001a 0000     		.align	2
 507              	.LC2:
 508 001c 22736453 		.ascii	"\"sdStop\"()\000"
 508      746F7022 
 508      282900
 509 0027 00       		.align	2
 510              	.LC3:
 511 0028 73645374 		.ascii	"sdStop(), #1\000"
 511      6F702829 
 511      2C202331 
 511      00
 512              		.section	.text.sdStop,"ax",%progbits
 513              		.align	2
 514              		.p2align 4,,15
 515              		.global	sdStop
 516              		.thumb
 517              		.thumb_func
 518              		.type	sdStop, %function
 519              	sdStop:
 520              	.LFB129:
 521              		.loc 1 181 0
 522              		.cfi_startproc
 523              		@ args = 0, pretend = 0, frame = 8
 524              		@ frame_needed = 0, uses_anonymous_args = 0
 525 0000 00B5     		push	{lr}
 526              		.cfi_def_cfa_offset 4
 527              		.cfi_offset 14, -4
 528 0002 83B0     		sub	sp, sp, #12
 529              		.cfi_def_cfa_offset 16
 530 0004 0190     		str	r0, [sp, #4]
 531              		.loc 1 183 0
 532 0006 019B     		ldr	r3, [sp, #4]
 533 0008 002B     		cmp	r3, #0
 534 000a 02D1     		bne	.L27
 535              		.loc 1 183 0 is_stmt 0 discriminator 1
 536 000c 1648     		ldr	r0, .L29
 537 000e FFF7FEFF 		bl	chDbgPanic
 538              	.L27:
 539              	.LBB4:
 540              		.loc 1 185 0 is_stmt 1
 541 0012 2023     		movs	r3, #32
 542              	@ 185 "/home/dave/r2p-sdk/core/ChibiOS/os/hal/src/serial.c" 1
 543 0014 83F31188 		msr     BASEPRI, r3
 544              	@ 0 "" 2
 545              		.thumb
 546              	.LBE4:
 547 0018 FFF7FEFF 		bl	dbg_check_lock
 548              		.loc 1 186 0
 549 001c 019B     		ldr	r3, [sp, #4]
 550 001e 1B7A     		ldrb	r3, [r3, #8]	@ zero_extendqisi2
 551 0020 012B     		cmp	r3, #1
ARM GAS  /tmp/cckOgOXG.s 			page 11


 552 0022 06D0     		beq	.L28
 553              		.loc 1 186 0 is_stmt 0 discriminator 1
 554 0024 019B     		ldr	r3, [sp, #4]
 555 0026 1B7A     		ldrb	r3, [r3, #8]	@ zero_extendqisi2
 556 0028 022B     		cmp	r3, #2
 557 002a 02D0     		beq	.L28
 558 002c 0F48     		ldr	r0, .L29+4
 559 002e FFF7FEFF 		bl	chDbgPanic
 560              	.L28:
 561              		.loc 1 189 0 is_stmt 1
 562 0032 0198     		ldr	r0, [sp, #4]
 563 0034 FFF7FEFF 		bl	sd_lld_stop
 564              		.loc 1 190 0
 565 0038 019B     		ldr	r3, [sp, #4]
 566 003a 0122     		movs	r2, #1
 567 003c 1A72     		strb	r2, [r3, #8]
 568              		.loc 1 191 0
 569 003e 019B     		ldr	r3, [sp, #4]
 570 0040 3033     		adds	r3, r3, #48
 571 0042 1846     		mov	r0, r3
 572 0044 FFF7FEFF 		bl	chOQResetI
 573              		.loc 1 192 0
 574 0048 019B     		ldr	r3, [sp, #4]
 575 004a 0C33     		adds	r3, r3, #12
 576 004c 1846     		mov	r0, r3
 577 004e FFF7FEFF 		bl	chIQResetI
 578              		.loc 1 193 0
 579 0052 FFF7FEFF 		bl	chSchRescheduleS
 580              		.loc 1 194 0
 581 0056 FFF7FEFF 		bl	dbg_check_unlock
 582              	.LBB5:
 583 005a 0023     		movs	r3, #0
 584              	@ 194 "/home/dave/r2p-sdk/core/ChibiOS/os/hal/src/serial.c" 1
 585 005c 83F31188 		msr     BASEPRI, r3
 586              	@ 0 "" 2
 587              		.thumb
 588              	.LBE5:
 589              		.loc 1 195 0
 590 0060 03B0     		add	sp, sp, #12
 591              		@ sp needed
 592 0062 5DF804FB 		ldr	pc, [sp], #4
 593              	.L30:
 594 0066 00BF     		.align	2
 595              	.L29:
 596 0068 1C000000 		.word	.LC2
 597 006c 28000000 		.word	.LC3
 598              		.cfi_endproc
 599              	.LFE129:
 600              		.size	sdStop, .-sdStop
 601              		.section	.rodata
 602 0035 000000   		.align	2
 603              	.LC4:
 604 0038 22736449 		.ascii	"\"sdIncomingDataI\"()\000"
 604      6E636F6D 
 604      696E6744 
 604      61746149 
 604      22282900 
ARM GAS  /tmp/cckOgOXG.s 			page 12


 605              		.section	.text.sdIncomingDataI,"ax",%progbits
 606              		.align	2
 607              		.p2align 4,,15
 608              		.global	sdIncomingDataI
 609              		.thumb
 610              		.thumb_func
 611              		.type	sdIncomingDataI, %function
 612              	sdIncomingDataI:
 613              	.LFB130:
 614              		.loc 1 213 0
 615              		.cfi_startproc
 616              		@ args = 0, pretend = 0, frame = 8
 617              		@ frame_needed = 0, uses_anonymous_args = 0
 618 0000 00B5     		push	{lr}
 619              		.cfi_def_cfa_offset 4
 620              		.cfi_offset 14, -4
 621 0002 83B0     		sub	sp, sp, #12
 622              		.cfi_def_cfa_offset 16
 623 0004 0190     		str	r0, [sp, #4]
 624 0006 0B46     		mov	r3, r1
 625 0008 8DF80330 		strb	r3, [sp, #3]
 626              		.loc 1 215 0
 627 000c FFF7FEFF 		bl	chDbgCheckClassI
 628              		.loc 1 216 0
 629 0010 019B     		ldr	r3, [sp, #4]
 630 0012 002B     		cmp	r3, #0
 631 0014 02D1     		bne	.L32
 632              		.loc 1 216 0 is_stmt 0 discriminator 1
 633 0016 1148     		ldr	r0, .L35
 634 0018 FFF7FEFF 		bl	chDbgPanic
 635              	.L32:
 636              		.loc 1 218 0 is_stmt 1
 637 001c 019B     		ldr	r3, [sp, #4]
 638 001e 5B69     		ldr	r3, [r3, #20]
 639 0020 002B     		cmp	r3, #0
 640 0022 05D1     		bne	.L33
 641              		.loc 1 219 0
 642 0024 019B     		ldr	r3, [sp, #4]
 643 0026 0433     		adds	r3, r3, #4
 644 0028 1846     		mov	r0, r3
 645 002a 0421     		movs	r1, #4
 646 002c FFF7FEFF 		bl	chEvtBroadcastFlagsI
 647              	.L33:
 648              		.loc 1 220 0
 649 0030 019B     		ldr	r3, [sp, #4]
 650 0032 03F10C02 		add	r2, r3, #12
 651 0036 9DF80330 		ldrb	r3, [sp, #3]	@ zero_extendqisi2
 652 003a 1046     		mov	r0, r2
 653 003c 1946     		mov	r1, r3
 654 003e FFF7FEFF 		bl	chIQPutI
 655 0042 0346     		mov	r3, r0
 656 0044 002B     		cmp	r3, #0
 657 0046 05DA     		bge	.L31
 658              		.loc 1 221 0
 659 0048 019B     		ldr	r3, [sp, #4]
 660 004a 0433     		adds	r3, r3, #4
 661 004c 1846     		mov	r0, r3
ARM GAS  /tmp/cckOgOXG.s 			page 13


 662 004e 8021     		movs	r1, #128
 663 0050 FFF7FEFF 		bl	chEvtBroadcastFlagsI
 664              	.L31:
 665              		.loc 1 222 0
 666 0054 03B0     		add	sp, sp, #12
 667              		@ sp needed
 668 0056 5DF804FB 		ldr	pc, [sp], #4
 669              	.L36:
 670 005a 00BF     		.align	2
 671              	.L35:
 672 005c 38000000 		.word	.LC4
 673              		.cfi_endproc
 674              	.LFE130:
 675              		.size	sdIncomingDataI, .-sdIncomingDataI
 676              		.section	.rodata
 677              		.align	2
 678              	.LC5:
 679 004c 22736452 		.ascii	"\"sdRequestDataI\"()\000"
 679      65717565 
 679      73744461 
 679      74614922 
 679      282900
 680 005f 00       		.section	.text.sdRequestDataI,"ax",%progbits
 681              		.align	2
 682              		.p2align 4,,15
 683              		.global	sdRequestDataI
 684              		.thumb
 685              		.thumb_func
 686              		.type	sdRequestDataI, %function
 687              	sdRequestDataI:
 688              	.LFB131:
 689              		.loc 1 239 0
 690              		.cfi_startproc
 691              		@ args = 0, pretend = 0, frame = 16
 692              		@ frame_needed = 0, uses_anonymous_args = 0
 693 0000 00B5     		push	{lr}
 694              		.cfi_def_cfa_offset 4
 695              		.cfi_offset 14, -4
 696 0002 85B0     		sub	sp, sp, #20
 697              		.cfi_def_cfa_offset 24
 698 0004 0190     		str	r0, [sp, #4]
 699              		.loc 1 242 0
 700 0006 FFF7FEFF 		bl	chDbgCheckClassI
 701              		.loc 1 243 0
 702 000a 019B     		ldr	r3, [sp, #4]
 703 000c 002B     		cmp	r3, #0
 704 000e 02D1     		bne	.L38
 705              		.loc 1 243 0 is_stmt 0 discriminator 1
 706 0010 0B48     		ldr	r0, .L41
 707 0012 FFF7FEFF 		bl	chDbgPanic
 708              	.L38:
 709              		.loc 1 245 0 is_stmt 1
 710 0016 019B     		ldr	r3, [sp, #4]
 711 0018 3033     		adds	r3, r3, #48
 712 001a 1846     		mov	r0, r3
 713 001c FFF7FEFF 		bl	chOQGetI
 714 0020 0390     		str	r0, [sp, #12]
ARM GAS  /tmp/cckOgOXG.s 			page 14


 715              		.loc 1 246 0
 716 0022 039B     		ldr	r3, [sp, #12]
 717 0024 002B     		cmp	r3, #0
 718 0026 05DA     		bge	.L39
 719              		.loc 1 247 0
 720 0028 019B     		ldr	r3, [sp, #4]
 721 002a 0433     		adds	r3, r3, #4
 722 002c 1846     		mov	r0, r3
 723 002e 0821     		movs	r1, #8
 724 0030 FFF7FEFF 		bl	chEvtBroadcastFlagsI
 725              	.L39:
 726              		.loc 1 248 0
 727 0034 039B     		ldr	r3, [sp, #12]
 728              		.loc 1 249 0
 729 0036 1846     		mov	r0, r3
 730 0038 05B0     		add	sp, sp, #20
 731              		@ sp needed
 732 003a 5DF804FB 		ldr	pc, [sp], #4
 733              	.L42:
 734 003e 00BF     		.align	2
 735              	.L41:
 736 0040 4C000000 		.word	.LC5
 737              		.cfi_endproc
 738              	.LFE131:
 739              		.size	sdRequestDataI, .-sdRequestDataI
 740 0044 AFF30080 		.text
 740      AFF30080 
 740      AFF30080 
 741              	.Letext0:
 742              		.file 2 "/usr/lib/gcc/arm-none-eabi/4.8/include/stddef.h"
 743              		.file 3 "/usr/include/newlib/machine/_default_types.h"
 744              		.file 4 "/usr/include/newlib/stdint.h"
 745              		.file 5 "/home/dave/r2p-sdk/core/ChibiOS/os/ports/GCC/ARMCMx/chtypes.h"
 746              		.file 6 "/home/dave/r2p-sdk/core/ChibiOS/os/kernel/include/chlists.h"
 747              		.file 7 "/home/dave/r2p-sdk/core/ChibiOS/os/kernel/include/chthreads.h"
 748              		.file 8 "/home/dave/r2p-sdk/core/ChibiOS/os/ports/GCC/ARMCMx/chcore_v7m.h"
 749              		.file 9 "/home/dave/r2p-sdk/core/ChibiOS/os/kernel/include/chmtx.h"
 750              		.file 10 "/home/dave/r2p-sdk/core/ChibiOS/os/kernel/include/chevents.h"
 751              		.file 11 "/home/dave/r2p-sdk/core/ChibiOS/os/kernel/include/chqueues.h"
 752              		.file 12 "/home/dave/r2p-sdk/core/ChibiOS/os/hal/platforms/STM32F30x/stm32f30x.h"
 753              		.file 13 "/home/dave/r2p-sdk/core/ChibiOS/os/hal/include/serial.h"
 754              		.file 14 "/home/dave/r2p-sdk/core/ChibiOS/os/hal/platforms/STM32/USARTv2/serial_lld.h"
 755              		.file 15 "/home/dave/r2p-sdk/core/ChibiOS/os/ports/common/ARMCMx/CMSIS/include/core_cm4.h"
 756              		.section	.debug_info,"",%progbits
 757              	.Ldebug_info0:
 758 0000 FB0C0000 		.4byte	0xcfb
 759 0004 0400     		.2byte	0x4
 760 0006 00000000 		.4byte	.Ldebug_abbrev0
 761 000a 04       		.byte	0x4
 762 000b 01       		.uleb128 0x1
 763 000c 65040000 		.4byte	.LASF124
 764 0010 01       		.byte	0x1
 765 0011 54050000 		.4byte	.LASF125
 766 0015 00000000 		.4byte	.Ldebug_ranges0+0
 767 0019 00000000 		.4byte	0
 768 001d 00000000 		.4byte	.Ldebug_line0
 769 0021 02       		.uleb128 0x2
ARM GAS  /tmp/cckOgOXG.s 			page 15


 770 0022 04       		.byte	0x4
 771 0023 05       		.byte	0x5
 772 0024 696E7400 		.ascii	"int\000"
 773 0028 03       		.uleb128 0x3
 774 0029 00000000 		.4byte	.LASF2
 775 002d 02       		.byte	0x2
 776 002e D4       		.byte	0xd4
 777 002f 33000000 		.4byte	0x33
 778 0033 04       		.uleb128 0x4
 779 0034 04       		.byte	0x4
 780 0035 07       		.byte	0x7
 781 0036 19010000 		.4byte	.LASF0
 782 003a 04       		.uleb128 0x4
 783 003b 01       		.byte	0x1
 784 003c 06       		.byte	0x6
 785 003d 85000000 		.4byte	.LASF1
 786 0041 03       		.uleb128 0x3
 787 0042 23000000 		.4byte	.LASF3
 788 0046 03       		.byte	0x3
 789 0047 1D       		.byte	0x1d
 790 0048 4C000000 		.4byte	0x4c
 791 004c 04       		.uleb128 0x4
 792 004d 01       		.byte	0x1
 793 004e 08       		.byte	0x8
 794 004f C0020000 		.4byte	.LASF4
 795 0053 04       		.uleb128 0x4
 796 0054 02       		.byte	0x2
 797 0055 05       		.byte	0x5
 798 0056 F5020000 		.4byte	.LASF5
 799 005a 03       		.uleb128 0x3
 800 005b A6030000 		.4byte	.LASF6
 801 005f 03       		.byte	0x3
 802 0060 2B       		.byte	0x2b
 803 0061 65000000 		.4byte	0x65
 804 0065 04       		.uleb128 0x4
 805 0066 02       		.byte	0x2
 806 0067 07       		.byte	0x7
 807 0068 E0000000 		.4byte	.LASF7
 808 006c 03       		.uleb128 0x3
 809 006d CD030000 		.4byte	.LASF8
 810 0071 03       		.byte	0x3
 811 0072 3F       		.byte	0x3f
 812 0073 77000000 		.4byte	0x77
 813 0077 04       		.uleb128 0x4
 814 0078 04       		.byte	0x4
 815 0079 05       		.byte	0x5
 816 007a BD000000 		.4byte	.LASF9
 817 007e 03       		.uleb128 0x3
 818 007f F3000000 		.4byte	.LASF10
 819 0083 03       		.byte	0x3
 820 0084 41       		.byte	0x41
 821 0085 89000000 		.4byte	0x89
 822 0089 04       		.uleb128 0x4
 823 008a 04       		.byte	0x4
 824 008b 07       		.byte	0x7
 825 008c 6B030000 		.4byte	.LASF11
 826 0090 04       		.uleb128 0x4
ARM GAS  /tmp/cckOgOXG.s 			page 16


 827 0091 08       		.byte	0x8
 828 0092 05       		.byte	0x5
 829 0093 77000000 		.4byte	.LASF12
 830 0097 03       		.uleb128 0x3
 831 0098 57020000 		.4byte	.LASF13
 832 009c 03       		.byte	0x3
 833 009d 5B       		.byte	0x5b
 834 009e A2000000 		.4byte	0xa2
 835 00a2 04       		.uleb128 0x4
 836 00a3 08       		.byte	0x8
 837 00a4 07       		.byte	0x7
 838 00a5 2D000000 		.4byte	.LASF14
 839 00a9 03       		.uleb128 0x3
 840 00aa 39040000 		.4byte	.LASF15
 841 00ae 04       		.byte	0x4
 842 00af 2A       		.byte	0x2a
 843 00b0 41000000 		.4byte	0x41
 844 00b4 03       		.uleb128 0x3
 845 00b5 26010000 		.4byte	.LASF16
 846 00b9 04       		.byte	0x4
 847 00ba 36       		.byte	0x36
 848 00bb 5A000000 		.4byte	0x5a
 849 00bf 03       		.uleb128 0x3
 850 00c0 B8020000 		.4byte	.LASF17
 851 00c4 04       		.byte	0x4
 852 00c5 41       		.byte	0x41
 853 00c6 6C000000 		.4byte	0x6c
 854 00ca 03       		.uleb128 0x3
 855 00cb 55030000 		.4byte	.LASF18
 856 00cf 04       		.byte	0x4
 857 00d0 42       		.byte	0x42
 858 00d1 7E000000 		.4byte	0x7e
 859 00d5 03       		.uleb128 0x3
 860 00d6 0E000000 		.4byte	.LASF19
 861 00da 04       		.byte	0x4
 862 00db 4E       		.byte	0x4e
 863 00dc 97000000 		.4byte	0x97
 864 00e0 03       		.uleb128 0x3
 865 00e1 9E000000 		.4byte	.LASF20
 866 00e5 05       		.byte	0x5
 867 00e6 2B       		.byte	0x2b
 868 00e7 EB000000 		.4byte	0xeb
 869 00eb 04       		.uleb128 0x4
 870 00ec 01       		.byte	0x1
 871 00ed 02       		.byte	0x2
 872 00ee B2020000 		.4byte	.LASF21
 873 00f2 03       		.uleb128 0x3
 874 00f3 96010000 		.4byte	.LASF22
 875 00f7 05       		.byte	0x5
 876 00f8 2C       		.byte	0x2c
 877 00f9 A9000000 		.4byte	0xa9
 878 00fd 03       		.uleb128 0x3
 879 00fe C6000000 		.4byte	.LASF23
 880 0102 05       		.byte	0x5
 881 0103 2D       		.byte	0x2d
 882 0104 A9000000 		.4byte	0xa9
 883 0108 03       		.uleb128 0x3
ARM GAS  /tmp/cckOgOXG.s 			page 17


 884 0109 6B020000 		.4byte	.LASF24
 885 010d 05       		.byte	0x5
 886 010e 2E       		.byte	0x2e
 887 010f A9000000 		.4byte	0xa9
 888 0113 03       		.uleb128 0x3
 889 0114 AD000000 		.4byte	.LASF25
 890 0118 05       		.byte	0x5
 891 0119 2F       		.byte	0x2f
 892 011a A9000000 		.4byte	0xa9
 893 011e 03       		.uleb128 0x3
 894 011f A2020000 		.4byte	.LASF26
 895 0123 05       		.byte	0x5
 896 0124 30       		.byte	0x30
 897 0125 CA000000 		.4byte	0xca
 898 0129 03       		.uleb128 0x3
 899 012a 74010000 		.4byte	.LASF27
 900 012e 05       		.byte	0x5
 901 012f 31       		.byte	0x31
 902 0130 BF000000 		.4byte	0xbf
 903 0134 03       		.uleb128 0x3
 904 0135 AA010000 		.4byte	.LASF28
 905 0139 05       		.byte	0x5
 906 013a 33       		.byte	0x33
 907 013b CA000000 		.4byte	0xca
 908 013f 03       		.uleb128 0x3
 909 0140 F0030000 		.4byte	.LASF29
 910 0144 05       		.byte	0x5
 911 0145 34       		.byte	0x34
 912 0146 CA000000 		.4byte	0xca
 913 014a 03       		.uleb128 0x3
 914 014b B8030000 		.4byte	.LASF30
 915 014f 05       		.byte	0x5
 916 0150 35       		.byte	0x35
 917 0151 CA000000 		.4byte	0xca
 918 0155 03       		.uleb128 0x3
 919 0156 2F030000 		.4byte	.LASF31
 920 015a 06       		.byte	0x6
 921 015b 2A       		.byte	0x2a
 922 015c 60010000 		.4byte	0x160
 923 0160 05       		.uleb128 0x5
 924 0161 2F030000 		.4byte	.LASF31
 925 0165 4C       		.byte	0x4c
 926 0166 07       		.byte	0x7
 927 0167 5E       		.byte	0x5e
 928 0168 69020000 		.4byte	0x269
 929 016c 06       		.uleb128 0x6
 930 016d 10030000 		.4byte	.LASF32
 931 0171 07       		.byte	0x7
 932 0172 5F       		.byte	0x5f
 933 0173 8A020000 		.4byte	0x28a
 934 0177 00       		.byte	0
 935 0178 06       		.uleb128 0x6
 936 0179 9B020000 		.4byte	.LASF33
 937 017d 07       		.byte	0x7
 938 017e 61       		.byte	0x61
 939 017f 8A020000 		.4byte	0x28a
 940 0183 04       		.byte	0x4
ARM GAS  /tmp/cckOgOXG.s 			page 18


 941 0184 06       		.uleb128 0x6
 942 0185 0D020000 		.4byte	.LASF34
 943 0189 07       		.byte	0x7
 944 018a 63       		.byte	0x63
 945 018b 1E010000 		.4byte	0x11e
 946 018f 08       		.byte	0x8
 947 0190 06       		.uleb128 0x6
 948 0191 A4050000 		.4byte	.LASF35
 949 0195 07       		.byte	0x7
 950 0196 64       		.byte	0x64
 951 0197 1F040000 		.4byte	0x41f
 952 019b 0C       		.byte	0xc
 953 019c 06       		.uleb128 0x6
 954 019d D8000000 		.4byte	.LASF36
 955 01a1 07       		.byte	0x7
 956 01a2 66       		.byte	0x66
 957 01a3 8A020000 		.4byte	0x28a
 958 01a7 10       		.byte	0x10
 959 01a8 06       		.uleb128 0x6
 960 01a9 1C020000 		.4byte	.LASF37
 961 01ad 07       		.byte	0x7
 962 01ae 67       		.byte	0x67
 963 01af 8A020000 		.4byte	0x28a
 964 01b3 14       		.byte	0x14
 965 01b4 06       		.uleb128 0x6
 966 01b5 0C040000 		.4byte	.LASF38
 967 01b9 07       		.byte	0x7
 968 01ba 6E       		.byte	0x6e
 969 01bb 3A050000 		.4byte	0x53a
 970 01bf 18       		.byte	0x18
 971 01c0 06       		.uleb128 0x6
 972 01c1 31020000 		.4byte	.LASF39
 973 01c5 07       		.byte	0x7
 974 01c6 74       		.byte	0x74
 975 01c7 4C050000 		.4byte	0x54c
 976 01cb 1C       		.byte	0x1c
 977 01cc 06       		.uleb128 0x6
 978 01cd E3020000 		.4byte	.LASF40
 979 01d1 07       		.byte	0x7
 980 01d2 79       		.byte	0x79
 981 01d3 FD000000 		.4byte	0xfd
 982 01d7 20       		.byte	0x20
 983 01d8 06       		.uleb128 0x6
 984 01d9 17030000 		.4byte	.LASF41
 985 01dd 07       		.byte	0x7
 986 01de 7D       		.byte	0x7d
 987 01df F2000000 		.4byte	0xf2
 988 01e3 21       		.byte	0x21
 989 01e4 06       		.uleb128 0x6
 990 01e5 43020000 		.4byte	.LASF42
 991 01e9 07       		.byte	0x7
 992 01ea 82       		.byte	0x82
 993 01eb 08010000 		.4byte	0x108
 994 01ef 22       		.byte	0x22
 995 01f0 06       		.uleb128 0x6
 996 01f1 FF020000 		.4byte	.LASF43
 997 01f5 07       		.byte	0x7
ARM GAS  /tmp/cckOgOXG.s 			page 19


 998 01f6 88       		.byte	0x88
 999 01f7 13010000 		.4byte	0x113
 1000 01fb 23       		.byte	0x23
 1001 01fc 06       		.uleb128 0x6
 1002 01fd 3F010000 		.4byte	.LASF44
 1003 0201 07       		.byte	0x7
 1004 0202 8F       		.byte	0x8f
 1005 0203 4C040000 		.4byte	0x44c
 1006 0207 24       		.byte	0x24
 1007 0208 07       		.uleb128 0x7
 1008 0209 705F7500 		.ascii	"p_u\000"
 1009 020d 07       		.byte	0x7
 1010 020e B4       		.byte	0xb4
 1011 020f 05050000 		.4byte	0x505
 1012 0213 28       		.byte	0x28
 1013 0214 06       		.uleb128 0x6
 1014 0215 AA050000 		.4byte	.LASF45
 1015 0219 07       		.byte	0x7
 1016 021a B9       		.byte	0xb9
 1017 021b B0020000 		.4byte	0x2b0
 1018 021f 2C       		.byte	0x2c
 1019 0220 06       		.uleb128 0x6
 1020 0221 4E010000 		.4byte	.LASF46
 1021 0225 07       		.byte	0x7
 1022 0226 BF       		.byte	0xbf
 1023 0227 90020000 		.4byte	0x290
 1024 022b 30       		.byte	0x30
 1025 022c 06       		.uleb128 0x6
 1026 022d 24040000 		.4byte	.LASF47
 1027 0231 07       		.byte	0x7
 1028 0232 C3       		.byte	0xc3
 1029 0233 29010000 		.4byte	0x129
 1030 0237 38       		.byte	0x38
 1031 0238 06       		.uleb128 0x6
 1032 0239 36030000 		.4byte	.LASF48
 1033 023d 07       		.byte	0x7
 1034 023e C9       		.byte	0xc9
 1035 023f 34010000 		.4byte	0x134
 1036 0243 3C       		.byte	0x3c
 1037 0244 06       		.uleb128 0x6
 1038 0245 EB020000 		.4byte	.LASF49
 1039 0249 07       		.byte	0x7
 1040 024a D0       		.byte	0xd0
 1041 024b 52050000 		.4byte	0x552
 1042 024f 40       		.byte	0x40
 1043 0250 06       		.uleb128 0x6
 1044 0251 C2030000 		.4byte	.LASF50
 1045 0255 07       		.byte	0x7
 1046 0256 D4       		.byte	0xd4
 1047 0257 1E010000 		.4byte	0x11e
 1048 025b 44       		.byte	0x44
 1049 025c 06       		.uleb128 0x6
 1050 025d 96000000 		.4byte	.LASF51
 1051 0261 07       		.byte	0x7
 1052 0262 DA       		.byte	0xda
 1053 0263 C6020000 		.4byte	0x2c6
 1054 0267 48       		.byte	0x48
ARM GAS  /tmp/cckOgOXG.s 			page 20


 1055 0268 00       		.byte	0
 1056 0269 08       		.uleb128 0x8
 1057 026a 08       		.byte	0x8
 1058 026b 06       		.byte	0x6
 1059 026c 61       		.byte	0x61
 1060 026d 8A020000 		.4byte	0x28a
 1061 0271 06       		.uleb128 0x6
 1062 0272 10030000 		.4byte	.LASF32
 1063 0276 06       		.byte	0x6
 1064 0277 62       		.byte	0x62
 1065 0278 8A020000 		.4byte	0x28a
 1066 027c 00       		.byte	0
 1067 027d 06       		.uleb128 0x6
 1068 027e 9B020000 		.4byte	.LASF33
 1069 0282 06       		.byte	0x6
 1070 0283 64       		.byte	0x64
 1071 0284 8A020000 		.4byte	0x28a
 1072 0288 04       		.byte	0x4
 1073 0289 00       		.byte	0
 1074 028a 09       		.uleb128 0x9
 1075 028b 04       		.byte	0x4
 1076 028c 55010000 		.4byte	0x155
 1077 0290 03       		.uleb128 0x3
 1078 0291 24020000 		.4byte	.LASF52
 1079 0295 06       		.byte	0x6
 1080 0296 66       		.byte	0x66
 1081 0297 69020000 		.4byte	0x269
 1082 029b 08       		.uleb128 0x8
 1083 029c 04       		.byte	0x4
 1084 029d 06       		.byte	0x6
 1085 029e 6B       		.byte	0x6b
 1086 029f B0020000 		.4byte	0x2b0
 1087 02a3 06       		.uleb128 0x6
 1088 02a4 10030000 		.4byte	.LASF32
 1089 02a8 06       		.byte	0x6
 1090 02a9 6D       		.byte	0x6d
 1091 02aa 8A020000 		.4byte	0x28a
 1092 02ae 00       		.byte	0
 1093 02af 00       		.byte	0
 1094 02b0 03       		.uleb128 0x3
 1095 02b1 9E010000 		.4byte	.LASF53
 1096 02b5 06       		.byte	0x6
 1097 02b6 70       		.byte	0x70
 1098 02b7 9B020000 		.4byte	0x29b
 1099 02bb 03       		.uleb128 0x3
 1100 02bc FE000000 		.4byte	.LASF54
 1101 02c0 08       		.byte	0x8
 1102 02c1 E5       		.byte	0xe5
 1103 02c2 C6020000 		.4byte	0x2c6
 1104 02c6 0A       		.uleb128 0xa
 1105 02c7 04       		.byte	0x4
 1106 02c8 03       		.uleb128 0x3
 1107 02c9 DE010000 		.4byte	.LASF55
 1108 02cd 08       		.byte	0x8
 1109 02ce EB       		.byte	0xeb
 1110 02cf D5000000 		.4byte	0xd5
 1111 02d3 0B       		.uleb128 0xb
ARM GAS  /tmp/cckOgOXG.s 			page 21


 1112 02d4 E4030000 		.4byte	.LASF56
 1113 02d8 64       		.byte	0x64
 1114 02d9 08       		.byte	0x8
 1115 02da 0C01     		.2byte	0x10c
 1116 02dc 1F040000 		.4byte	0x41f
 1117 02e0 0C       		.uleb128 0xc
 1118 02e1 73313600 		.ascii	"s16\000"
 1119 02e5 08       		.byte	0x8
 1120 02e6 0E01     		.2byte	0x10e
 1121 02e8 BB020000 		.4byte	0x2bb
 1122 02ec 00       		.byte	0
 1123 02ed 0C       		.uleb128 0xc
 1124 02ee 73313700 		.ascii	"s17\000"
 1125 02f2 08       		.byte	0x8
 1126 02f3 0F01     		.2byte	0x10f
 1127 02f5 BB020000 		.4byte	0x2bb
 1128 02f9 04       		.byte	0x4
 1129 02fa 0C       		.uleb128 0xc
 1130 02fb 73313800 		.ascii	"s18\000"
 1131 02ff 08       		.byte	0x8
 1132 0300 1001     		.2byte	0x110
 1133 0302 BB020000 		.4byte	0x2bb
 1134 0306 08       		.byte	0x8
 1135 0307 0C       		.uleb128 0xc
 1136 0308 73313900 		.ascii	"s19\000"
 1137 030c 08       		.byte	0x8
 1138 030d 1101     		.2byte	0x111
 1139 030f BB020000 		.4byte	0x2bb
 1140 0313 0C       		.byte	0xc
 1141 0314 0C       		.uleb128 0xc
 1142 0315 73323000 		.ascii	"s20\000"
 1143 0319 08       		.byte	0x8
 1144 031a 1201     		.2byte	0x112
 1145 031c BB020000 		.4byte	0x2bb
 1146 0320 10       		.byte	0x10
 1147 0321 0C       		.uleb128 0xc
 1148 0322 73323100 		.ascii	"s21\000"
 1149 0326 08       		.byte	0x8
 1150 0327 1301     		.2byte	0x113
 1151 0329 BB020000 		.4byte	0x2bb
 1152 032d 14       		.byte	0x14
 1153 032e 0C       		.uleb128 0xc
 1154 032f 73323200 		.ascii	"s22\000"
 1155 0333 08       		.byte	0x8
 1156 0334 1401     		.2byte	0x114
 1157 0336 BB020000 		.4byte	0x2bb
 1158 033a 18       		.byte	0x18
 1159 033b 0C       		.uleb128 0xc
 1160 033c 73323300 		.ascii	"s23\000"
 1161 0340 08       		.byte	0x8
 1162 0341 1501     		.2byte	0x115
 1163 0343 BB020000 		.4byte	0x2bb
 1164 0347 1C       		.byte	0x1c
 1165 0348 0C       		.uleb128 0xc
 1166 0349 73323400 		.ascii	"s24\000"
 1167 034d 08       		.byte	0x8
 1168 034e 1601     		.2byte	0x116
ARM GAS  /tmp/cckOgOXG.s 			page 22


 1169 0350 BB020000 		.4byte	0x2bb
 1170 0354 20       		.byte	0x20
 1171 0355 0C       		.uleb128 0xc
 1172 0356 73323500 		.ascii	"s25\000"
 1173 035a 08       		.byte	0x8
 1174 035b 1701     		.2byte	0x117
 1175 035d BB020000 		.4byte	0x2bb
 1176 0361 24       		.byte	0x24
 1177 0362 0C       		.uleb128 0xc
 1178 0363 73323600 		.ascii	"s26\000"
 1179 0367 08       		.byte	0x8
 1180 0368 1801     		.2byte	0x118
 1181 036a BB020000 		.4byte	0x2bb
 1182 036e 28       		.byte	0x28
 1183 036f 0C       		.uleb128 0xc
 1184 0370 73323700 		.ascii	"s27\000"
 1185 0374 08       		.byte	0x8
 1186 0375 1901     		.2byte	0x119
 1187 0377 BB020000 		.4byte	0x2bb
 1188 037b 2C       		.byte	0x2c
 1189 037c 0C       		.uleb128 0xc
 1190 037d 73323800 		.ascii	"s28\000"
 1191 0381 08       		.byte	0x8
 1192 0382 1A01     		.2byte	0x11a
 1193 0384 BB020000 		.4byte	0x2bb
 1194 0388 30       		.byte	0x30
 1195 0389 0C       		.uleb128 0xc
 1196 038a 73323900 		.ascii	"s29\000"
 1197 038e 08       		.byte	0x8
 1198 038f 1B01     		.2byte	0x11b
 1199 0391 BB020000 		.4byte	0x2bb
 1200 0395 34       		.byte	0x34
 1201 0396 0C       		.uleb128 0xc
 1202 0397 73333000 		.ascii	"s30\000"
 1203 039b 08       		.byte	0x8
 1204 039c 1C01     		.2byte	0x11c
 1205 039e BB020000 		.4byte	0x2bb
 1206 03a2 38       		.byte	0x38
 1207 03a3 0C       		.uleb128 0xc
 1208 03a4 73333100 		.ascii	"s31\000"
 1209 03a8 08       		.byte	0x8
 1210 03a9 1D01     		.2byte	0x11d
 1211 03ab BB020000 		.4byte	0x2bb
 1212 03af 3C       		.byte	0x3c
 1213 03b0 0C       		.uleb128 0xc
 1214 03b1 723400   		.ascii	"r4\000"
 1215 03b4 08       		.byte	0x8
 1216 03b5 1F01     		.2byte	0x11f
 1217 03b7 BB020000 		.4byte	0x2bb
 1218 03bb 40       		.byte	0x40
 1219 03bc 0C       		.uleb128 0xc
 1220 03bd 723500   		.ascii	"r5\000"
 1221 03c0 08       		.byte	0x8
 1222 03c1 2001     		.2byte	0x120
 1223 03c3 BB020000 		.4byte	0x2bb
 1224 03c7 44       		.byte	0x44
 1225 03c8 0C       		.uleb128 0xc
ARM GAS  /tmp/cckOgOXG.s 			page 23


 1226 03c9 723600   		.ascii	"r6\000"
 1227 03cc 08       		.byte	0x8
 1228 03cd 2101     		.2byte	0x121
 1229 03cf BB020000 		.4byte	0x2bb
 1230 03d3 48       		.byte	0x48
 1231 03d4 0C       		.uleb128 0xc
 1232 03d5 723700   		.ascii	"r7\000"
 1233 03d8 08       		.byte	0x8
 1234 03d9 2201     		.2byte	0x122
 1235 03db BB020000 		.4byte	0x2bb
 1236 03df 4C       		.byte	0x4c
 1237 03e0 0C       		.uleb128 0xc
 1238 03e1 723800   		.ascii	"r8\000"
 1239 03e4 08       		.byte	0x8
 1240 03e5 2301     		.2byte	0x123
 1241 03e7 BB020000 		.4byte	0x2bb
 1242 03eb 50       		.byte	0x50
 1243 03ec 0C       		.uleb128 0xc
 1244 03ed 723900   		.ascii	"r9\000"
 1245 03f0 08       		.byte	0x8
 1246 03f1 2401     		.2byte	0x124
 1247 03f3 BB020000 		.4byte	0x2bb
 1248 03f7 54       		.byte	0x54
 1249 03f8 0C       		.uleb128 0xc
 1250 03f9 72313000 		.ascii	"r10\000"
 1251 03fd 08       		.byte	0x8
 1252 03fe 2501     		.2byte	0x125
 1253 0400 BB020000 		.4byte	0x2bb
 1254 0404 58       		.byte	0x58
 1255 0405 0C       		.uleb128 0xc
 1256 0406 72313100 		.ascii	"r11\000"
 1257 040a 08       		.byte	0x8
 1258 040b 2601     		.2byte	0x126
 1259 040d BB020000 		.4byte	0x2bb
 1260 0411 5C       		.byte	0x5c
 1261 0412 0C       		.uleb128 0xc
 1262 0413 6C7200   		.ascii	"lr\000"
 1263 0416 08       		.byte	0x8
 1264 0417 2701     		.2byte	0x127
 1265 0419 BB020000 		.4byte	0x2bb
 1266 041d 60       		.byte	0x60
 1267 041e 00       		.byte	0
 1268 041f 0B       		.uleb128 0xb
 1269 0420 DC030000 		.4byte	.LASF57
 1270 0424 04       		.byte	0x4
 1271 0425 08       		.byte	0x8
 1272 0426 3101     		.2byte	0x131
 1273 0428 3A040000 		.4byte	0x43a
 1274 042c 0C       		.uleb128 0xc
 1275 042d 72313300 		.ascii	"r13\000"
 1276 0431 08       		.byte	0x8
 1277 0432 3201     		.2byte	0x132
 1278 0434 3A040000 		.4byte	0x43a
 1279 0438 00       		.byte	0
 1280 0439 00       		.byte	0
 1281 043a 09       		.uleb128 0x9
 1282 043b 04       		.byte	0x4
ARM GAS  /tmp/cckOgOXG.s 			page 24


 1283 043c D3020000 		.4byte	0x2d3
 1284 0440 0D       		.uleb128 0xd
 1285 0441 CA000000 		.4byte	0xca
 1286 0445 04       		.uleb128 0x4
 1287 0446 04       		.byte	0x4
 1288 0447 07       		.byte	0x7
 1289 0448 F4010000 		.4byte	.LASF58
 1290 044c 0D       		.uleb128 0xd
 1291 044d 4A010000 		.4byte	0x14a
 1292 0451 05       		.uleb128 0x5
 1293 0452 07020000 		.4byte	.LASF59
 1294 0456 10       		.byte	0x10
 1295 0457 09       		.byte	0x9
 1296 0458 2C       		.byte	0x2c
 1297 0459 82040000 		.4byte	0x482
 1298 045d 06       		.uleb128 0x6
 1299 045e A5000000 		.4byte	.LASF60
 1300 0462 09       		.byte	0x9
 1301 0463 2D       		.byte	0x2d
 1302 0464 90020000 		.4byte	0x290
 1303 0468 00       		.byte	0
 1304 0469 06       		.uleb128 0x6
 1305 046a 9C050000 		.4byte	.LASF61
 1306 046e 09       		.byte	0x9
 1307 046f 2F       		.byte	0x2f
 1308 0470 8A020000 		.4byte	0x28a
 1309 0474 08       		.byte	0x8
 1310 0475 06       		.uleb128 0x6
 1311 0476 B1030000 		.4byte	.LASF62
 1312 047a 09       		.byte	0x9
 1313 047b 31       		.byte	0x31
 1314 047c 82040000 		.4byte	0x482
 1315 0480 0C       		.byte	0xc
 1316 0481 00       		.byte	0
 1317 0482 09       		.uleb128 0x9
 1318 0483 04       		.byte	0x4
 1319 0484 51040000 		.4byte	0x451
 1320 0488 03       		.uleb128 0x3
 1321 0489 07020000 		.4byte	.LASF59
 1322 048d 09       		.byte	0x9
 1323 048e 33       		.byte	0x33
 1324 048f 51040000 		.4byte	0x451
 1325 0493 03       		.uleb128 0x3
 1326 0494 49040000 		.4byte	.LASF63
 1327 0498 0A       		.byte	0xa
 1328 0499 2C       		.byte	0x2c
 1329 049a 9E040000 		.4byte	0x49e
 1330 049e 05       		.uleb128 0x5
 1331 049f 49040000 		.4byte	.LASF63
 1332 04a3 10       		.byte	0x10
 1333 04a4 0A       		.byte	0xa
 1334 04a5 31       		.byte	0x31
 1335 04a6 DB040000 		.4byte	0x4db
 1336 04aa 06       		.uleb128 0x6
 1337 04ab 1F030000 		.4byte	.LASF64
 1338 04af 0A       		.byte	0xa
 1339 04b0 32       		.byte	0x32
ARM GAS  /tmp/cckOgOXG.s 			page 25


 1340 04b1 DB040000 		.4byte	0x4db
 1341 04b5 00       		.byte	0
 1342 04b6 06       		.uleb128 0x6
 1343 04b7 CE020000 		.4byte	.LASF65
 1344 04bb 0A       		.byte	0xa
 1345 04bc 35       		.byte	0x35
 1346 04bd 8A020000 		.4byte	0x28a
 1347 04c1 04       		.byte	0x4
 1348 04c2 06       		.uleb128 0x6
 1349 04c3 14020000 		.4byte	.LASF66
 1350 04c7 0A       		.byte	0xa
 1351 04c8 37       		.byte	0x37
 1352 04c9 34010000 		.4byte	0x134
 1353 04cd 08       		.byte	0x8
 1354 04ce 06       		.uleb128 0x6
 1355 04cf DA020000 		.4byte	.LASF67
 1356 04d3 0A       		.byte	0xa
 1357 04d4 3A       		.byte	0x3a
 1358 04d5 3F010000 		.4byte	0x13f
 1359 04d9 0C       		.byte	0xc
 1360 04da 00       		.byte	0
 1361 04db 09       		.uleb128 0x9
 1362 04dc 04       		.byte	0x4
 1363 04dd 93040000 		.4byte	0x493
 1364 04e1 05       		.uleb128 0x5
 1365 04e2 07010000 		.4byte	.LASF68
 1366 04e6 04       		.byte	0x4
 1367 04e7 0A       		.byte	0xa
 1368 04e8 41       		.byte	0x41
 1369 04e9 FA040000 		.4byte	0x4fa
 1370 04ed 06       		.uleb128 0x6
 1371 04ee 13040000 		.4byte	.LASF69
 1372 04f2 0A       		.byte	0xa
 1373 04f3 42       		.byte	0x42
 1374 04f4 DB040000 		.4byte	0x4db
 1375 04f8 00       		.byte	0
 1376 04f9 00       		.byte	0
 1377 04fa 03       		.uleb128 0x3
 1378 04fb 07010000 		.4byte	.LASF68
 1379 04ff 0A       		.byte	0xa
 1380 0500 45       		.byte	0x45
 1381 0501 E1040000 		.4byte	0x4e1
 1382 0505 0E       		.uleb128 0xe
 1383 0506 04       		.byte	0x4
 1384 0507 07       		.byte	0x7
 1385 0508 96       		.byte	0x96
 1386 0509 3A050000 		.4byte	0x53a
 1387 050d 0F       		.uleb128 0xf
 1388 050e 07000000 		.4byte	.LASF70
 1389 0512 07       		.byte	0x7
 1390 0513 9D       		.byte	0x9d
 1391 0514 29010000 		.4byte	0x129
 1392 0518 0F       		.uleb128 0xf
 1393 0519 44000000 		.4byte	.LASF71
 1394 051d 07       		.byte	0x7
 1395 051e A4       		.byte	0xa4
 1396 051f 29010000 		.4byte	0x129
ARM GAS  /tmp/cckOgOXG.s 			page 26


 1397 0523 0F       		.uleb128 0xf
 1398 0524 57040000 		.4byte	.LASF72
 1399 0528 07       		.byte	0x7
 1400 0529 AB       		.byte	0xab
 1401 052a C6020000 		.4byte	0x2c6
 1402 052e 0F       		.uleb128 0xf
 1403 052f 09030000 		.4byte	.LASF73
 1404 0533 07       		.byte	0x7
 1405 0534 B2       		.byte	0xb2
 1406 0535 34010000 		.4byte	0x134
 1407 0539 00       		.byte	0
 1408 053a 09       		.uleb128 0x9
 1409 053b 04       		.byte	0x4
 1410 053c 40050000 		.4byte	0x540
 1411 0540 10       		.uleb128 0x10
 1412 0541 45050000 		.4byte	0x545
 1413 0545 04       		.uleb128 0x4
 1414 0546 01       		.byte	0x1
 1415 0547 08       		.byte	0x8
 1416 0548 82030000 		.4byte	.LASF74
 1417 054c 09       		.uleb128 0x9
 1418 054d 04       		.byte	0x4
 1419 054e C8020000 		.4byte	0x2c8
 1420 0552 09       		.uleb128 0x9
 1421 0553 04       		.byte	0x4
 1422 0554 88040000 		.4byte	0x488
 1423 0558 09       		.uleb128 0x9
 1424 0559 04       		.byte	0x4
 1425 055a 5E050000 		.4byte	0x55e
 1426 055e 11       		.uleb128 0x11
 1427 055f 29010000 		.4byte	0x129
 1428 0563 6D050000 		.4byte	0x56d
 1429 0567 12       		.uleb128 0x12
 1430 0568 C6020000 		.4byte	0x2c6
 1431 056c 00       		.byte	0
 1432 056d 03       		.uleb128 0x3
 1433 056e D1010000 		.4byte	.LASF75
 1434 0572 0B       		.byte	0xb
 1435 0573 37       		.byte	0x37
 1436 0574 78050000 		.4byte	0x578
 1437 0578 05       		.uleb128 0x5
 1438 0579 D1010000 		.4byte	.LASF75
 1439 057d 24       		.byte	0x24
 1440 057e 0B       		.byte	0xb
 1441 057f 45       		.byte	0x45
 1442 0580 E5050000 		.4byte	0x5e5
 1443 0584 06       		.uleb128 0x6
 1444 0585 6D000000 		.4byte	.LASF76
 1445 0589 0B       		.byte	0xb
 1446 058a 46       		.byte	0x46
 1447 058b 90020000 		.4byte	0x290
 1448 058f 00       		.byte	0
 1449 0590 06       		.uleb128 0x6
 1450 0591 FD010000 		.4byte	.LASF77
 1451 0595 0B       		.byte	0xb
 1452 0596 47       		.byte	0x47
 1453 0597 28000000 		.4byte	0x28
ARM GAS  /tmp/cckOgOXG.s 			page 27


 1454 059b 08       		.byte	0x8
 1455 059c 06       		.uleb128 0x6
 1456 059d CF000000 		.4byte	.LASF78
 1457 05a1 0B       		.byte	0xb
 1458 05a2 48       		.byte	0x48
 1459 05a3 07060000 		.4byte	0x607
 1460 05a7 0C       		.byte	0xc
 1461 05a8 06       		.uleb128 0x6
 1462 05a9 06040000 		.4byte	.LASF79
 1463 05ad 0B       		.byte	0xb
 1464 05ae 49       		.byte	0x49
 1465 05af 07060000 		.4byte	0x607
 1466 05b3 10       		.byte	0x10
 1467 05b4 06       		.uleb128 0x6
 1468 05b5 6C010000 		.4byte	.LASF80
 1469 05b9 0B       		.byte	0xb
 1470 05ba 4B       		.byte	0x4b
 1471 05bb 07060000 		.4byte	0x607
 1472 05bf 14       		.byte	0x14
 1473 05c0 06       		.uleb128 0x6
 1474 05c1 AA020000 		.4byte	.LASF81
 1475 05c5 0B       		.byte	0xb
 1476 05c6 4C       		.byte	0x4c
 1477 05c7 07060000 		.4byte	0x607
 1478 05cb 18       		.byte	0x18
 1479 05cc 06       		.uleb128 0x6
 1480 05cd 1B040000 		.4byte	.LASF82
 1481 05d1 0B       		.byte	0xb
 1482 05d2 4D       		.byte	0x4d
 1483 05d3 E5050000 		.4byte	0x5e5
 1484 05d7 1C       		.byte	0x1c
 1485 05d8 06       		.uleb128 0x6
 1486 05d9 95050000 		.4byte	.LASF83
 1487 05dd 0B       		.byte	0xb
 1488 05de 4E       		.byte	0x4e
 1489 05df C6020000 		.4byte	0x2c6
 1490 05e3 20       		.byte	0x20
 1491 05e4 00       		.byte	0
 1492 05e5 03       		.uleb128 0x3
 1493 05e6 C7010000 		.4byte	.LASF84
 1494 05ea 0B       		.byte	0xb
 1495 05eb 3A       		.byte	0x3a
 1496 05ec F0050000 		.4byte	0x5f0
 1497 05f0 09       		.uleb128 0x9
 1498 05f1 04       		.byte	0x4
 1499 05f2 F6050000 		.4byte	0x5f6
 1500 05f6 13       		.uleb128 0x13
 1501 05f7 01060000 		.4byte	0x601
 1502 05fb 12       		.uleb128 0x12
 1503 05fc 01060000 		.4byte	0x601
 1504 0600 00       		.byte	0
 1505 0601 09       		.uleb128 0x9
 1506 0602 04       		.byte	0x4
 1507 0603 6D050000 		.4byte	0x56d
 1508 0607 09       		.uleb128 0x9
 1509 0608 04       		.byte	0x4
 1510 0609 A9000000 		.4byte	0xa9
ARM GAS  /tmp/cckOgOXG.s 			page 28


 1511 060d 03       		.uleb128 0x3
 1512 060e B6010000 		.4byte	.LASF85
 1513 0612 0B       		.byte	0xb
 1514 0613 82       		.byte	0x82
 1515 0614 6D050000 		.4byte	0x56d
 1516 0618 03       		.uleb128 0x3
 1517 0619 17000000 		.4byte	.LASF86
 1518 061d 0B       		.byte	0xb
 1519 061e F5       		.byte	0xf5
 1520 061f 6D050000 		.4byte	0x56d
 1521 0623 11       		.uleb128 0x11
 1522 0624 28000000 		.4byte	0x28
 1523 0628 3C060000 		.4byte	0x63c
 1524 062c 12       		.uleb128 0x12
 1525 062d C6020000 		.4byte	0x2c6
 1526 0631 12       		.uleb128 0x12
 1527 0632 3C060000 		.4byte	0x63c
 1528 0636 12       		.uleb128 0x12
 1529 0637 28000000 		.4byte	0x28
 1530 063b 00       		.byte	0
 1531 063c 09       		.uleb128 0x9
 1532 063d 04       		.byte	0x4
 1533 063e 42060000 		.4byte	0x642
 1534 0642 10       		.uleb128 0x10
 1535 0643 A9000000 		.4byte	0xa9
 1536 0647 09       		.uleb128 0x9
 1537 0648 04       		.byte	0x4
 1538 0649 23060000 		.4byte	0x623
 1539 064d 11       		.uleb128 0x11
 1540 064e 28000000 		.4byte	0x28
 1541 0652 66060000 		.4byte	0x666
 1542 0656 12       		.uleb128 0x12
 1543 0657 C6020000 		.4byte	0x2c6
 1544 065b 12       		.uleb128 0x12
 1545 065c 07060000 		.4byte	0x607
 1546 0660 12       		.uleb128 0x12
 1547 0661 28000000 		.4byte	0x28
 1548 0665 00       		.byte	0
 1549 0666 09       		.uleb128 0x9
 1550 0667 04       		.byte	0x4
 1551 0668 4D060000 		.4byte	0x64d
 1552 066c 11       		.uleb128 0x11
 1553 066d 29010000 		.4byte	0x129
 1554 0671 80060000 		.4byte	0x680
 1555 0675 12       		.uleb128 0x12
 1556 0676 C6020000 		.4byte	0x2c6
 1557 067a 12       		.uleb128 0x12
 1558 067b A9000000 		.4byte	0xa9
 1559 067f 00       		.byte	0
 1560 0680 09       		.uleb128 0x9
 1561 0681 04       		.byte	0x4
 1562 0682 6C060000 		.4byte	0x66c
 1563 0686 0D       		.uleb128 0xd
 1564 0687 B4000000 		.4byte	0xb4
 1565 068b 0D       		.uleb128 0xd
 1566 068c BF000000 		.4byte	0xbf
 1567 0690 14       		.uleb128 0x14
ARM GAS  /tmp/cckOgOXG.s 			page 29


 1568 0691 2C       		.byte	0x2c
 1569 0692 0C       		.byte	0xc
 1570 0693 1B03     		.2byte	0x31b
 1571 0695 6A070000 		.4byte	0x76a
 1572 0699 0C       		.uleb128 0xc
 1573 069a 43523100 		.ascii	"CR1\000"
 1574 069e 0C       		.byte	0xc
 1575 069f 1D03     		.2byte	0x31d
 1576 06a1 40040000 		.4byte	0x440
 1577 06a5 00       		.byte	0
 1578 06a6 0C       		.uleb128 0xc
 1579 06a7 43523200 		.ascii	"CR2\000"
 1580 06ab 0C       		.byte	0xc
 1581 06ac 1E03     		.2byte	0x31e
 1582 06ae 40040000 		.4byte	0x440
 1583 06b2 04       		.byte	0x4
 1584 06b3 0C       		.uleb128 0xc
 1585 06b4 43523300 		.ascii	"CR3\000"
 1586 06b8 0C       		.byte	0xc
 1587 06b9 1F03     		.2byte	0x31f
 1588 06bb 40040000 		.4byte	0x440
 1589 06bf 08       		.byte	0x8
 1590 06c0 0C       		.uleb128 0xc
 1591 06c1 42525200 		.ascii	"BRR\000"
 1592 06c5 0C       		.byte	0xc
 1593 06c6 2003     		.2byte	0x320
 1594 06c8 86060000 		.4byte	0x686
 1595 06cc 0C       		.byte	0xc
 1596 06cd 15       		.uleb128 0x15
 1597 06ce 73020000 		.4byte	.LASF87
 1598 06d2 0C       		.byte	0xc
 1599 06d3 2103     		.2byte	0x321
 1600 06d5 B4000000 		.4byte	0xb4
 1601 06d9 0E       		.byte	0xe
 1602 06da 15       		.uleb128 0x15
 1603 06db 91000000 		.4byte	.LASF88
 1604 06df 0C       		.byte	0xc
 1605 06e0 2203     		.2byte	0x322
 1606 06e2 86060000 		.4byte	0x686
 1607 06e6 10       		.byte	0x10
 1608 06e7 15       		.uleb128 0x15
 1609 06e8 7D020000 		.4byte	.LASF89
 1610 06ec 0C       		.byte	0xc
 1611 06ed 2303     		.2byte	0x323
 1612 06ef B4000000 		.4byte	0xb4
 1613 06f3 12       		.byte	0x12
 1614 06f4 15       		.uleb128 0x15
 1615 06f5 D7030000 		.4byte	.LASF90
 1616 06f9 0C       		.byte	0xc
 1617 06fa 2403     		.2byte	0x324
 1618 06fc 40040000 		.4byte	0x440
 1619 0700 14       		.byte	0x14
 1620 0701 0C       		.uleb128 0xc
 1621 0702 52515200 		.ascii	"RQR\000"
 1622 0706 0C       		.byte	0xc
 1623 0707 2503     		.2byte	0x325
 1624 0709 86060000 		.4byte	0x686
ARM GAS  /tmp/cckOgOXG.s 			page 30


 1625 070d 18       		.byte	0x18
 1626 070e 15       		.uleb128 0x15
 1627 070f 87020000 		.4byte	.LASF91
 1628 0713 0C       		.byte	0xc
 1629 0714 2603     		.2byte	0x326
 1630 0716 B4000000 		.4byte	0xb4
 1631 071a 1A       		.byte	0x1a
 1632 071b 0C       		.uleb128 0xc
 1633 071c 49535200 		.ascii	"ISR\000"
 1634 0720 0C       		.byte	0xc
 1635 0721 2703     		.2byte	0x327
 1636 0723 40040000 		.4byte	0x440
 1637 0727 1C       		.byte	0x1c
 1638 0728 0C       		.uleb128 0xc
 1639 0729 49435200 		.ascii	"ICR\000"
 1640 072d 0C       		.byte	0xc
 1641 072e 2803     		.2byte	0x328
 1642 0730 40040000 		.4byte	0x440
 1643 0734 20       		.byte	0x20
 1644 0735 0C       		.uleb128 0xc
 1645 0736 52445200 		.ascii	"RDR\000"
 1646 073a 0C       		.byte	0xc
 1647 073b 2903     		.2byte	0x329
 1648 073d 86060000 		.4byte	0x686
 1649 0741 24       		.byte	0x24
 1650 0742 15       		.uleb128 0x15
 1651 0743 91020000 		.4byte	.LASF92
 1652 0747 0C       		.byte	0xc
 1653 0748 2A03     		.2byte	0x32a
 1654 074a B4000000 		.4byte	0xb4
 1655 074e 26       		.byte	0x26
 1656 074f 0C       		.uleb128 0xc
 1657 0750 54445200 		.ascii	"TDR\000"
 1658 0754 0C       		.byte	0xc
 1659 0755 2B03     		.2byte	0x32b
 1660 0757 86060000 		.4byte	0x686
 1661 075b 28       		.byte	0x28
 1662 075c 15       		.uleb128 0x15
 1663 075d 4B030000 		.4byte	.LASF93
 1664 0761 0C       		.byte	0xc
 1665 0762 2C03     		.2byte	0x32c
 1666 0764 B4000000 		.4byte	0xb4
 1667 0768 2A       		.byte	0x2a
 1668 0769 00       		.byte	0
 1669 076a 16       		.uleb128 0x16
 1670 076b 81010000 		.4byte	.LASF94
 1671 076f 0C       		.byte	0xc
 1672 0770 2D03     		.2byte	0x32d
 1673 0772 90060000 		.4byte	0x690
 1674 0776 11       		.uleb128 0x11
 1675 0777 29010000 		.4byte	0x129
 1676 077b 8F070000 		.4byte	0x78f
 1677 077f 12       		.uleb128 0x12
 1678 0780 C6020000 		.4byte	0x2c6
 1679 0784 12       		.uleb128 0x12
 1680 0785 A9000000 		.4byte	0xa9
 1681 0789 12       		.uleb128 0x12
ARM GAS  /tmp/cckOgOXG.s 			page 31


 1682 078a 4A010000 		.4byte	0x14a
 1683 078e 00       		.byte	0
 1684 078f 09       		.uleb128 0x9
 1685 0790 04       		.byte	0x4
 1686 0791 76070000 		.4byte	0x776
 1687 0795 11       		.uleb128 0x11
 1688 0796 29010000 		.4byte	0x129
 1689 079a A9070000 		.4byte	0x7a9
 1690 079e 12       		.uleb128 0x12
 1691 079f C6020000 		.4byte	0x2c6
 1692 07a3 12       		.uleb128 0x12
 1693 07a4 4A010000 		.4byte	0x14a
 1694 07a8 00       		.byte	0
 1695 07a9 09       		.uleb128 0x9
 1696 07aa 04       		.byte	0x4
 1697 07ab 95070000 		.4byte	0x795
 1698 07af 11       		.uleb128 0x11
 1699 07b0 28000000 		.4byte	0x28
 1700 07b4 CD070000 		.4byte	0x7cd
 1701 07b8 12       		.uleb128 0x12
 1702 07b9 C6020000 		.4byte	0x2c6
 1703 07bd 12       		.uleb128 0x12
 1704 07be 3C060000 		.4byte	0x63c
 1705 07c2 12       		.uleb128 0x12
 1706 07c3 28000000 		.4byte	0x28
 1707 07c7 12       		.uleb128 0x12
 1708 07c8 4A010000 		.4byte	0x14a
 1709 07cc 00       		.byte	0
 1710 07cd 09       		.uleb128 0x9
 1711 07ce 04       		.byte	0x4
 1712 07cf AF070000 		.4byte	0x7af
 1713 07d3 11       		.uleb128 0x11
 1714 07d4 28000000 		.4byte	0x28
 1715 07d8 F1070000 		.4byte	0x7f1
 1716 07dc 12       		.uleb128 0x12
 1717 07dd C6020000 		.4byte	0x2c6
 1718 07e1 12       		.uleb128 0x12
 1719 07e2 07060000 		.4byte	0x607
 1720 07e6 12       		.uleb128 0x12
 1721 07e7 28000000 		.4byte	0x28
 1722 07eb 12       		.uleb128 0x12
 1723 07ec 4A010000 		.4byte	0x14a
 1724 07f0 00       		.byte	0
 1725 07f1 09       		.uleb128 0x9
 1726 07f2 04       		.byte	0x4
 1727 07f3 D3070000 		.4byte	0x7d3
 1728 07f7 17       		.uleb128 0x17
 1729 07f8 01       		.byte	0x1
 1730 07f9 0D       		.byte	0xd
 1731 07fa 64       		.byte	0x64
 1732 07fb 12080000 		.4byte	0x812
 1733 07ff 18       		.uleb128 0x18
 1734 0800 41030000 		.4byte	.LASF95
 1735 0804 00       		.sleb128 0
 1736 0805 18       		.uleb128 0x18
 1737 0806 27030000 		.4byte	.LASF96
 1738 080a 01       		.sleb128 1
ARM GAS  /tmp/cckOgOXG.s 			page 32


 1739 080b 18       		.uleb128 0x18
 1740 080c 62020000 		.4byte	.LASF97
 1741 0810 02       		.sleb128 2
 1742 0811 00       		.byte	0
 1743 0812 03       		.uleb128 0x3
 1744 0813 FC030000 		.4byte	.LASF98
 1745 0817 0D       		.byte	0xd
 1746 0818 68       		.byte	0x68
 1747 0819 F7070000 		.4byte	0x7f7
 1748 081d 03       		.uleb128 0x3
 1749 081e 5E030000 		.4byte	.LASF99
 1750 0822 0D       		.byte	0xd
 1751 0823 6D       		.byte	0x6d
 1752 0824 28080000 		.4byte	0x828
 1753 0828 19       		.uleb128 0x19
 1754 0829 5E030000 		.4byte	.LASF99
 1755 082d 5C02     		.2byte	0x25c
 1756 082f 0D       		.byte	0xd
 1757 0830 87       		.byte	0x87
 1758 0831 A3080000 		.4byte	0x8a3
 1759 0835 07       		.uleb128 0x7
 1760 0836 766D7400 		.ascii	"vmt\000"
 1761 083a 0D       		.byte	0xd
 1762 083b 89       		.byte	0x89
 1763 083c 54090000 		.4byte	0x954
 1764 0840 00       		.byte	0
 1765 0841 06       		.uleb128 0x6
 1766 0842 66010000 		.4byte	.LASF100
 1767 0846 0D       		.byte	0xd
 1768 0847 8A       		.byte	0x8a
 1769 0848 FA040000 		.4byte	0x4fa
 1770 084c 04       		.byte	0x4
 1771 084d 06       		.uleb128 0x6
 1772 084e B7000000 		.4byte	.LASF101
 1773 0852 0D       		.byte	0xd
 1774 0853 8A       		.byte	0x8a
 1775 0854 12080000 		.4byte	0x812
 1776 0858 08       		.byte	0x8
 1777 0859 06       		.uleb128 0x6
 1778 085a 5E040000 		.4byte	.LASF102
 1779 085e 0D       		.byte	0xd
 1780 085f 8A       		.byte	0x8a
 1781 0860 0D060000 		.4byte	0x60d
 1782 0864 0C       		.byte	0xc
 1783 0865 06       		.uleb128 0x6
 1784 0866 7A010000 		.4byte	.LASF103
 1785 086a 0D       		.byte	0xd
 1786 086b 8A       		.byte	0x8a
 1787 086c 18060000 		.4byte	0x618
 1788 0870 30       		.byte	0x30
 1789 0871 07       		.uleb128 0x7
 1790 0872 696200   		.ascii	"ib\000"
 1791 0875 0D       		.byte	0xd
 1792 0876 8A       		.byte	0x8a
 1793 0877 5F090000 		.4byte	0x95f
 1794 087b 54       		.byte	0x54
 1795 087c 1A       		.uleb128 0x1a
ARM GAS  /tmp/cckOgOXG.s 			page 33


 1796 087d 6F6200   		.ascii	"ob\000"
 1797 0880 0D       		.byte	0xd
 1798 0881 8A       		.byte	0x8a
 1799 0882 5F090000 		.4byte	0x95f
 1800 0886 5401     		.2byte	0x154
 1801 0888 1B       		.uleb128 0x1b
 1802 0889 13010000 		.4byte	.LASF104
 1803 088d 0D       		.byte	0xd
 1804 088e 8A       		.byte	0x8a
 1805 088f 6F090000 		.4byte	0x96f
 1806 0893 5402     		.2byte	0x254
 1807 0895 1B       		.uleb128 0x1b
 1808 0896 88050000 		.4byte	.LASF105
 1809 089a 0D       		.byte	0xd
 1810 089b 8A       		.byte	0x8a
 1811 089c CA000000 		.4byte	0xca
 1812 08a0 5802     		.2byte	0x258
 1813 08a2 00       		.byte	0
 1814 08a3 08       		.uleb128 0x8
 1815 08a4 10       		.byte	0x10
 1816 08a5 0E       		.byte	0xe
 1817 08a6 D7       		.byte	0xd7
 1818 08a7 DC080000 		.4byte	0x8dc
 1819 08ab 06       		.uleb128 0x6
 1820 08ac C1010000 		.4byte	.LASF106
 1821 08b0 0E       		.byte	0xe
 1822 08b1 DB       		.byte	0xdb
 1823 08b2 CA000000 		.4byte	0xca
 1824 08b6 00       		.byte	0
 1825 08b7 07       		.uleb128 0x7
 1826 08b8 63723100 		.ascii	"cr1\000"
 1827 08bc 0E       		.byte	0xe
 1828 08bd E0       		.byte	0xe0
 1829 08be CA000000 		.4byte	0xca
 1830 08c2 04       		.byte	0x4
 1831 08c3 07       		.uleb128 0x7
 1832 08c4 63723200 		.ascii	"cr2\000"
 1833 08c8 0E       		.byte	0xe
 1834 08c9 E4       		.byte	0xe4
 1835 08ca CA000000 		.4byte	0xca
 1836 08ce 08       		.byte	0x8
 1837 08cf 07       		.uleb128 0x7
 1838 08d0 63723300 		.ascii	"cr3\000"
 1839 08d4 0E       		.byte	0xe
 1840 08d5 E8       		.byte	0xe8
 1841 08d6 CA000000 		.4byte	0xca
 1842 08da 0C       		.byte	0xc
 1843 08db 00       		.byte	0
 1844 08dc 03       		.uleb128 0x3
 1845 08dd 4A020000 		.4byte	.LASF107
 1846 08e1 0E       		.byte	0xe
 1847 08e2 E9       		.byte	0xe9
 1848 08e3 A3080000 		.4byte	0x8a3
 1849 08e7 05       		.uleb128 0x5
 1850 08e8 2F010000 		.4byte	.LASF108
 1851 08ec 20       		.byte	0x20
 1852 08ed 0D       		.byte	0xd
ARM GAS  /tmp/cckOgOXG.s 			page 34


 1853 08ee 7C       		.byte	0x7c
 1854 08ef 54090000 		.4byte	0x954
 1855 08f3 06       		.uleb128 0x6
 1856 08f4 E9010000 		.4byte	.LASF109
 1857 08f8 0D       		.byte	0xd
 1858 08f9 7D       		.byte	0x7d
 1859 08fa 47060000 		.4byte	0x647
 1860 08fe 00       		.byte	0
 1861 08ff 06       		.uleb128 0x6
 1862 0900 7D030000 		.4byte	.LASF110
 1863 0904 0D       		.byte	0xd
 1864 0905 7D       		.byte	0x7d
 1865 0906 66060000 		.4byte	0x666
 1866 090a 04       		.byte	0x4
 1867 090b 07       		.uleb128 0x7
 1868 090c 70757400 		.ascii	"put\000"
 1869 0910 0D       		.byte	0xd
 1870 0911 7D       		.byte	0x7d
 1871 0912 80060000 		.4byte	0x680
 1872 0916 08       		.byte	0x8
 1873 0917 07       		.uleb128 0x7
 1874 0918 67657400 		.ascii	"get\000"
 1875 091c 0D       		.byte	0xd
 1876 091d 7D       		.byte	0x7d
 1877 091e 58050000 		.4byte	0x558
 1878 0922 0C       		.byte	0xc
 1879 0923 06       		.uleb128 0x6
 1880 0924 EF010000 		.4byte	.LASF111
 1881 0928 0D       		.byte	0xd
 1882 0929 7D       		.byte	0x7d
 1883 092a 8F070000 		.4byte	0x78f
 1884 092e 10       		.byte	0x10
 1885 092f 06       		.uleb128 0x6
 1886 0930 61010000 		.4byte	.LASF112
 1887 0934 0D       		.byte	0xd
 1888 0935 7D       		.byte	0x7d
 1889 0936 A9070000 		.4byte	0x7a9
 1890 093a 14       		.byte	0x14
 1891 093b 06       		.uleb128 0x6
 1892 093c 8F010000 		.4byte	.LASF113
 1893 0940 0D       		.byte	0xd
 1894 0941 7D       		.byte	0x7d
 1895 0942 CD070000 		.4byte	0x7cd
 1896 0946 18       		.byte	0x18
 1897 0947 06       		.uleb128 0x6
 1898 0948 67000000 		.4byte	.LASF114
 1899 094c 0D       		.byte	0xd
 1900 094d 7D       		.byte	0x7d
 1901 094e F1070000 		.4byte	0x7f1
 1902 0952 1C       		.byte	0x1c
 1903 0953 00       		.byte	0
 1904 0954 09       		.uleb128 0x9
 1905 0955 04       		.byte	0x4
 1906 0956 5A090000 		.4byte	0x95a
 1907 095a 10       		.uleb128 0x10
 1908 095b E7080000 		.4byte	0x8e7
 1909 095f 1C       		.uleb128 0x1c
ARM GAS  /tmp/cckOgOXG.s 			page 35


 1910 0960 A9000000 		.4byte	0xa9
 1911 0964 6F090000 		.4byte	0x96f
 1912 0968 1D       		.uleb128 0x1d
 1913 0969 45040000 		.4byte	0x445
 1914 096d FF       		.byte	0xff
 1915 096e 00       		.byte	0
 1916 096f 09       		.uleb128 0x9
 1917 0970 04       		.byte	0x4
 1918 0971 6A070000 		.4byte	0x76a
 1919 0975 1E       		.uleb128 0x1e
 1920 0976 E9010000 		.4byte	.LASF109
 1921 097a 01       		.byte	0x1
 1922 097b 3E       		.byte	0x3e
 1923 097c 28000000 		.4byte	0x28
 1924 0980 00000000 		.4byte	.LFB118
 1925 0984 26000000 		.4byte	.LFE118-.LFB118
 1926 0988 01       		.uleb128 0x1
 1927 0989 9C       		.byte	0x9c
 1928 098a B5090000 		.4byte	0x9b5
 1929 098e 1F       		.uleb128 0x1f
 1930 098f 697000   		.ascii	"ip\000"
 1931 0992 01       		.byte	0x1
 1932 0993 3E       		.byte	0x3e
 1933 0994 C6020000 		.4byte	0x2c6
 1934 0998 02       		.uleb128 0x2
 1935 0999 91       		.byte	0x91
 1936 099a 74       		.sleb128 -12
 1937 099b 1F       		.uleb128 0x1f
 1938 099c 627000   		.ascii	"bp\000"
 1939 099f 01       		.byte	0x1
 1940 09a0 3E       		.byte	0x3e
 1941 09a1 3C060000 		.4byte	0x63c
 1942 09a5 02       		.uleb128 0x2
 1943 09a6 91       		.byte	0x91
 1944 09a7 70       		.sleb128 -16
 1945 09a8 1F       		.uleb128 0x1f
 1946 09a9 6E00     		.ascii	"n\000"
 1947 09ab 01       		.byte	0x1
 1948 09ac 3E       		.byte	0x3e
 1949 09ad 28000000 		.4byte	0x28
 1950 09b1 02       		.uleb128 0x2
 1951 09b2 91       		.byte	0x91
 1952 09b3 6C       		.sleb128 -20
 1953 09b4 00       		.byte	0
 1954 09b5 1E       		.uleb128 0x1e
 1955 09b6 7D030000 		.4byte	.LASF110
 1956 09ba 01       		.byte	0x1
 1957 09bb 44       		.byte	0x44
 1958 09bc 28000000 		.4byte	0x28
 1959 09c0 00000000 		.4byte	.LFB119
 1960 09c4 26000000 		.4byte	.LFE119-.LFB119
 1961 09c8 01       		.uleb128 0x1
 1962 09c9 9C       		.byte	0x9c
 1963 09ca F5090000 		.4byte	0x9f5
 1964 09ce 1F       		.uleb128 0x1f
 1965 09cf 697000   		.ascii	"ip\000"
 1966 09d2 01       		.byte	0x1
ARM GAS  /tmp/cckOgOXG.s 			page 36


 1967 09d3 44       		.byte	0x44
 1968 09d4 C6020000 		.4byte	0x2c6
 1969 09d8 02       		.uleb128 0x2
 1970 09d9 91       		.byte	0x91
 1971 09da 74       		.sleb128 -12
 1972 09db 1F       		.uleb128 0x1f
 1973 09dc 627000   		.ascii	"bp\000"
 1974 09df 01       		.byte	0x1
 1975 09e0 44       		.byte	0x44
 1976 09e1 07060000 		.4byte	0x607
 1977 09e5 02       		.uleb128 0x2
 1978 09e6 91       		.byte	0x91
 1979 09e7 70       		.sleb128 -16
 1980 09e8 1F       		.uleb128 0x1f
 1981 09e9 6E00     		.ascii	"n\000"
 1982 09eb 01       		.byte	0x1
 1983 09ec 44       		.byte	0x44
 1984 09ed 28000000 		.4byte	0x28
 1985 09f1 02       		.uleb128 0x2
 1986 09f2 91       		.byte	0x91
 1987 09f3 6C       		.sleb128 -20
 1988 09f4 00       		.byte	0
 1989 09f5 20       		.uleb128 0x20
 1990 09f6 70757400 		.ascii	"put\000"
 1991 09fa 01       		.byte	0x1
 1992 09fb 4A       		.byte	0x4a
 1993 09fc 29010000 		.4byte	0x129
 1994 0a00 00000000 		.4byte	.LFB120
 1995 0a04 2C000000 		.4byte	.LFE120-.LFB120
 1996 0a08 01       		.uleb128 0x1
 1997 0a09 9C       		.byte	0x9c
 1998 0a0a 280A0000 		.4byte	0xa28
 1999 0a0e 1F       		.uleb128 0x1f
 2000 0a0f 697000   		.ascii	"ip\000"
 2001 0a12 01       		.byte	0x1
 2002 0a13 4A       		.byte	0x4a
 2003 0a14 C6020000 		.4byte	0x2c6
 2004 0a18 02       		.uleb128 0x2
 2005 0a19 91       		.byte	0x91
 2006 0a1a 74       		.sleb128 -12
 2007 0a1b 1F       		.uleb128 0x1f
 2008 0a1c 6200     		.ascii	"b\000"
 2009 0a1e 01       		.byte	0x1
 2010 0a1f 4A       		.byte	0x4a
 2011 0a20 A9000000 		.4byte	0xa9
 2012 0a24 02       		.uleb128 0x2
 2013 0a25 91       		.byte	0x91
 2014 0a26 73       		.sleb128 -13
 2015 0a27 00       		.byte	0
 2016 0a28 20       		.uleb128 0x20
 2017 0a29 67657400 		.ascii	"get\000"
 2018 0a2d 01       		.byte	0x1
 2019 0a2e 4F       		.byte	0x4f
 2020 0a2f 29010000 		.4byte	0x129
 2021 0a33 00000000 		.4byte	.LFB121
 2022 0a37 1E000000 		.4byte	.LFE121-.LFB121
 2023 0a3b 01       		.uleb128 0x1
ARM GAS  /tmp/cckOgOXG.s 			page 37


 2024 0a3c 9C       		.byte	0x9c
 2025 0a3d 4F0A0000 		.4byte	0xa4f
 2026 0a41 1F       		.uleb128 0x1f
 2027 0a42 697000   		.ascii	"ip\000"
 2028 0a45 01       		.byte	0x1
 2029 0a46 4F       		.byte	0x4f
 2030 0a47 C6020000 		.4byte	0x2c6
 2031 0a4b 02       		.uleb128 0x2
 2032 0a4c 91       		.byte	0x91
 2033 0a4d 74       		.sleb128 -12
 2034 0a4e 00       		.byte	0
 2035 0a4f 1E       		.uleb128 0x1e
 2036 0a50 EF010000 		.4byte	.LASF111
 2037 0a54 01       		.byte	0x1
 2038 0a55 54       		.byte	0x54
 2039 0a56 29010000 		.4byte	0x129
 2040 0a5a 00000000 		.4byte	.LFB122
 2041 0a5e 2C000000 		.4byte	.LFE122-.LFB122
 2042 0a62 01       		.uleb128 0x1
 2043 0a63 9C       		.byte	0x9c
 2044 0a64 900A0000 		.4byte	0xa90
 2045 0a68 1F       		.uleb128 0x1f
 2046 0a69 697000   		.ascii	"ip\000"
 2047 0a6c 01       		.byte	0x1
 2048 0a6d 54       		.byte	0x54
 2049 0a6e C6020000 		.4byte	0x2c6
 2050 0a72 02       		.uleb128 0x2
 2051 0a73 91       		.byte	0x91
 2052 0a74 74       		.sleb128 -12
 2053 0a75 1F       		.uleb128 0x1f
 2054 0a76 6200     		.ascii	"b\000"
 2055 0a78 01       		.byte	0x1
 2056 0a79 54       		.byte	0x54
 2057 0a7a A9000000 		.4byte	0xa9
 2058 0a7e 02       		.uleb128 0x2
 2059 0a7f 91       		.byte	0x91
 2060 0a80 73       		.sleb128 -13
 2061 0a81 21       		.uleb128 0x21
 2062 0a82 59010000 		.4byte	.LASF115
 2063 0a86 01       		.byte	0x1
 2064 0a87 54       		.byte	0x54
 2065 0a88 4A010000 		.4byte	0x14a
 2066 0a8c 02       		.uleb128 0x2
 2067 0a8d 91       		.byte	0x91
 2068 0a8e 6C       		.sleb128 -20
 2069 0a8f 00       		.byte	0
 2070 0a90 1E       		.uleb128 0x1e
 2071 0a91 61010000 		.4byte	.LASF112
 2072 0a95 01       		.byte	0x1
 2073 0a96 59       		.byte	0x59
 2074 0a97 29010000 		.4byte	0x129
 2075 0a9b 00000000 		.4byte	.LFB123
 2076 0a9f 1E000000 		.4byte	.LFE123-.LFB123
 2077 0aa3 01       		.uleb128 0x1
 2078 0aa4 9C       		.byte	0x9c
 2079 0aa5 C50A0000 		.4byte	0xac5
 2080 0aa9 1F       		.uleb128 0x1f
ARM GAS  /tmp/cckOgOXG.s 			page 38


 2081 0aaa 697000   		.ascii	"ip\000"
 2082 0aad 01       		.byte	0x1
 2083 0aae 59       		.byte	0x59
 2084 0aaf C6020000 		.4byte	0x2c6
 2085 0ab3 02       		.uleb128 0x2
 2086 0ab4 91       		.byte	0x91
 2087 0ab5 74       		.sleb128 -12
 2088 0ab6 21       		.uleb128 0x21
 2089 0ab7 59010000 		.4byte	.LASF115
 2090 0abb 01       		.byte	0x1
 2091 0abc 59       		.byte	0x59
 2092 0abd 4A010000 		.4byte	0x14a
 2093 0ac1 02       		.uleb128 0x2
 2094 0ac2 91       		.byte	0x91
 2095 0ac3 70       		.sleb128 -16
 2096 0ac4 00       		.byte	0
 2097 0ac5 1E       		.uleb128 0x1e
 2098 0ac6 8F010000 		.4byte	.LASF113
 2099 0aca 01       		.byte	0x1
 2100 0acb 5E       		.byte	0x5e
 2101 0acc 28000000 		.4byte	0x28
 2102 0ad0 00000000 		.4byte	.LFB124
 2103 0ad4 26000000 		.4byte	.LFE124-.LFB124
 2104 0ad8 01       		.uleb128 0x1
 2105 0ad9 9C       		.byte	0x9c
 2106 0ada 130B0000 		.4byte	0xb13
 2107 0ade 1F       		.uleb128 0x1f
 2108 0adf 697000   		.ascii	"ip\000"
 2109 0ae2 01       		.byte	0x1
 2110 0ae3 5E       		.byte	0x5e
 2111 0ae4 C6020000 		.4byte	0x2c6
 2112 0ae8 02       		.uleb128 0x2
 2113 0ae9 91       		.byte	0x91
 2114 0aea 74       		.sleb128 -12
 2115 0aeb 1F       		.uleb128 0x1f
 2116 0aec 627000   		.ascii	"bp\000"
 2117 0aef 01       		.byte	0x1
 2118 0af0 5E       		.byte	0x5e
 2119 0af1 3C060000 		.4byte	0x63c
 2120 0af5 02       		.uleb128 0x2
 2121 0af6 91       		.byte	0x91
 2122 0af7 70       		.sleb128 -16
 2123 0af8 1F       		.uleb128 0x1f
 2124 0af9 6E00     		.ascii	"n\000"
 2125 0afb 01       		.byte	0x1
 2126 0afc 5E       		.byte	0x5e
 2127 0afd 28000000 		.4byte	0x28
 2128 0b01 02       		.uleb128 0x2
 2129 0b02 91       		.byte	0x91
 2130 0b03 6C       		.sleb128 -20
 2131 0b04 21       		.uleb128 0x21
 2132 0b05 EB030000 		.4byte	.LASF116
 2133 0b09 01       		.byte	0x1
 2134 0b0a 5E       		.byte	0x5e
 2135 0b0b 4A010000 		.4byte	0x14a
 2136 0b0f 02       		.uleb128 0x2
 2137 0b10 91       		.byte	0x91
ARM GAS  /tmp/cckOgOXG.s 			page 39


 2138 0b11 68       		.sleb128 -24
 2139 0b12 00       		.byte	0
 2140 0b13 1E       		.uleb128 0x1e
 2141 0b14 67000000 		.4byte	.LASF114
 2142 0b18 01       		.byte	0x1
 2143 0b19 63       		.byte	0x63
 2144 0b1a 28000000 		.4byte	0x28
 2145 0b1e 00000000 		.4byte	.LFB125
 2146 0b22 26000000 		.4byte	.LFE125-.LFB125
 2147 0b26 01       		.uleb128 0x1
 2148 0b27 9C       		.byte	0x9c
 2149 0b28 610B0000 		.4byte	0xb61
 2150 0b2c 1F       		.uleb128 0x1f
 2151 0b2d 697000   		.ascii	"ip\000"
 2152 0b30 01       		.byte	0x1
 2153 0b31 63       		.byte	0x63
 2154 0b32 C6020000 		.4byte	0x2c6
 2155 0b36 02       		.uleb128 0x2
 2156 0b37 91       		.byte	0x91
 2157 0b38 74       		.sleb128 -12
 2158 0b39 1F       		.uleb128 0x1f
 2159 0b3a 627000   		.ascii	"bp\000"
 2160 0b3d 01       		.byte	0x1
 2161 0b3e 63       		.byte	0x63
 2162 0b3f 07060000 		.4byte	0x607
 2163 0b43 02       		.uleb128 0x2
 2164 0b44 91       		.byte	0x91
 2165 0b45 70       		.sleb128 -16
 2166 0b46 1F       		.uleb128 0x1f
 2167 0b47 6E00     		.ascii	"n\000"
 2168 0b49 01       		.byte	0x1
 2169 0b4a 63       		.byte	0x63
 2170 0b4b 28000000 		.4byte	0x28
 2171 0b4f 02       		.uleb128 0x2
 2172 0b50 91       		.byte	0x91
 2173 0b51 6C       		.sleb128 -20
 2174 0b52 21       		.uleb128 0x21
 2175 0b53 EB030000 		.4byte	.LASF116
 2176 0b57 01       		.byte	0x1
 2177 0b58 63       		.byte	0x63
 2178 0b59 4A010000 		.4byte	0x14a
 2179 0b5d 02       		.uleb128 0x2
 2180 0b5e 91       		.byte	0x91
 2181 0b5f 68       		.sleb128 -24
 2182 0b60 00       		.byte	0
 2183 0b61 22       		.uleb128 0x22
 2184 0b62 8E050000 		.4byte	.LASF126
 2185 0b66 01       		.byte	0x1
 2186 0b67 78       		.byte	0x78
 2187 0b68 00000000 		.4byte	.LFB126
 2188 0b6c 08000000 		.4byte	.LFE126-.LFB126
 2189 0b70 01       		.uleb128 0x1
 2190 0b71 9C       		.byte	0x9c
 2191 0b72 23       		.uleb128 0x23
 2192 0b73 5A000000 		.4byte	.LASF119
 2193 0b77 01       		.byte	0x1
 2194 0b78 8C       		.byte	0x8c
ARM GAS  /tmp/cckOgOXG.s 			page 40


 2195 0b79 00000000 		.4byte	.LFB127
 2196 0b7d 64000000 		.4byte	.LFE127-.LFB127
 2197 0b81 01       		.uleb128 0x1
 2198 0b82 9C       		.byte	0x9c
 2199 0b83 B20B0000 		.4byte	0xbb2
 2200 0b87 1F       		.uleb128 0x1f
 2201 0b88 73647000 		.ascii	"sdp\000"
 2202 0b8c 01       		.byte	0x1
 2203 0b8d 8C       		.byte	0x8c
 2204 0b8e B20B0000 		.4byte	0xbb2
 2205 0b92 02       		.uleb128 0x2
 2206 0b93 91       		.byte	0x91
 2207 0b94 74       		.sleb128 -12
 2208 0b95 21       		.uleb128 0x21
 2209 0b96 46010000 		.4byte	.LASF117
 2210 0b9a 01       		.byte	0x1
 2211 0b9b 8C       		.byte	0x8c
 2212 0b9c E5050000 		.4byte	0x5e5
 2213 0ba0 02       		.uleb128 0x2
 2214 0ba1 91       		.byte	0x91
 2215 0ba2 70       		.sleb128 -16
 2216 0ba3 21       		.uleb128 0x21
 2217 0ba4 41040000 		.4byte	.LASF118
 2218 0ba8 01       		.byte	0x1
 2219 0ba9 8C       		.byte	0x8c
 2220 0baa E5050000 		.4byte	0x5e5
 2221 0bae 02       		.uleb128 0x2
 2222 0baf 91       		.byte	0x91
 2223 0bb0 6C       		.sleb128 -20
 2224 0bb1 00       		.byte	0
 2225 0bb2 09       		.uleb128 0x9
 2226 0bb3 04       		.byte	0x4
 2227 0bb4 1D080000 		.4byte	0x81d
 2228 0bb8 23       		.uleb128 0x23
 2229 0bb9 9E030000 		.4byte	.LASF120
 2230 0bbd 01       		.byte	0x1
 2231 0bbe 9F       		.byte	0x9f
 2232 0bbf 00000000 		.4byte	.LFB128
 2233 0bc3 5C000000 		.4byte	.LFE128-.LFB128
 2234 0bc7 01       		.uleb128 0x1
 2235 0bc8 9C       		.byte	0x9c
 2236 0bc9 1C0C0000 		.4byte	0xc1c
 2237 0bcd 1F       		.uleb128 0x1f
 2238 0bce 73647000 		.ascii	"sdp\000"
 2239 0bd2 01       		.byte	0x1
 2240 0bd3 9F       		.byte	0x9f
 2241 0bd4 B20B0000 		.4byte	0xbb2
 2242 0bd8 02       		.uleb128 0x2
 2243 0bd9 91       		.byte	0x91
 2244 0bda 74       		.sleb128 -12
 2245 0bdb 21       		.uleb128 0x21
 2246 0bdc 97030000 		.4byte	.LASF121
 2247 0be0 01       		.byte	0x1
 2248 0be1 9F       		.byte	0x9f
 2249 0be2 1C0C0000 		.4byte	0xc1c
 2250 0be6 02       		.uleb128 0x2
 2251 0be7 91       		.byte	0x91
ARM GAS  /tmp/cckOgOXG.s 			page 41


 2252 0be8 70       		.sleb128 -16
 2253 0be9 24       		.uleb128 0x24
 2254 0bea 14000000 		.4byte	.LBB2
 2255 0bee 06000000 		.4byte	.LBE2-.LBB2
 2256 0bf2 040C0000 		.4byte	0xc04
 2257 0bf6 25       		.uleb128 0x25
 2258 0bf7 746D7000 		.ascii	"tmp\000"
 2259 0bfb 01       		.byte	0x1
 2260 0bfc A3       		.byte	0xa3
 2261 0bfd CA000000 		.4byte	0xca
 2262 0c01 01       		.uleb128 0x1
 2263 0c02 53       		.byte	0x53
 2264 0c03 00       		.byte	0
 2265 0c04 26       		.uleb128 0x26
 2266 0c05 46000000 		.4byte	.LBB3
 2267 0c09 06000000 		.4byte	.LBE3-.LBB3
 2268 0c0d 25       		.uleb128 0x25
 2269 0c0e 746D7000 		.ascii	"tmp\000"
 2270 0c12 01       		.byte	0x1
 2271 0c13 A9       		.byte	0xa9
 2272 0c14 CA000000 		.4byte	0xca
 2273 0c18 01       		.uleb128 0x1
 2274 0c19 53       		.byte	0x53
 2275 0c1a 00       		.byte	0
 2276 0c1b 00       		.byte	0
 2277 0c1c 09       		.uleb128 0x9
 2278 0c1d 04       		.byte	0x4
 2279 0c1e 220C0000 		.4byte	0xc22
 2280 0c22 10       		.uleb128 0x10
 2281 0c23 DC080000 		.4byte	0x8dc
 2282 0c27 23       		.uleb128 0x23
 2283 0c28 3C020000 		.4byte	.LASF122
 2284 0c2c 01       		.byte	0x1
 2285 0c2d B5       		.byte	0xb5
 2286 0c2e 00000000 		.4byte	.LFB129
 2287 0c32 70000000 		.4byte	.LFE129-.LFB129
 2288 0c36 01       		.uleb128 0x1
 2289 0c37 9C       		.byte	0x9c
 2290 0c38 7D0C0000 		.4byte	0xc7d
 2291 0c3c 1F       		.uleb128 0x1f
 2292 0c3d 73647000 		.ascii	"sdp\000"
 2293 0c41 01       		.byte	0x1
 2294 0c42 B5       		.byte	0xb5
 2295 0c43 B20B0000 		.4byte	0xbb2
 2296 0c47 02       		.uleb128 0x2
 2297 0c48 91       		.byte	0x91
 2298 0c49 74       		.sleb128 -12
 2299 0c4a 24       		.uleb128 0x24
 2300 0c4b 12000000 		.4byte	.LBB4
 2301 0c4f 06000000 		.4byte	.LBE4-.LBB4
 2302 0c53 650C0000 		.4byte	0xc65
 2303 0c57 25       		.uleb128 0x25
 2304 0c58 746D7000 		.ascii	"tmp\000"
 2305 0c5c 01       		.byte	0x1
 2306 0c5d B9       		.byte	0xb9
 2307 0c5e CA000000 		.4byte	0xca
 2308 0c62 01       		.uleb128 0x1
ARM GAS  /tmp/cckOgOXG.s 			page 42


 2309 0c63 53       		.byte	0x53
 2310 0c64 00       		.byte	0
 2311 0c65 26       		.uleb128 0x26
 2312 0c66 5A000000 		.4byte	.LBB5
 2313 0c6a 06000000 		.4byte	.LBE5-.LBB5
 2314 0c6e 25       		.uleb128 0x25
 2315 0c6f 746D7000 		.ascii	"tmp\000"
 2316 0c73 01       		.byte	0x1
 2317 0c74 C2       		.byte	0xc2
 2318 0c75 CA000000 		.4byte	0xca
 2319 0c79 01       		.uleb128 0x1
 2320 0c7a 53       		.byte	0x53
 2321 0c7b 00       		.byte	0
 2322 0c7c 00       		.byte	0
 2323 0c7d 23       		.uleb128 0x23
 2324 0c7e 87030000 		.4byte	.LASF123
 2325 0c82 01       		.byte	0x1
 2326 0c83 D5       		.byte	0xd5
 2327 0c84 00000000 		.4byte	.LFB130
 2328 0c88 60000000 		.4byte	.LFE130-.LFB130
 2329 0c8c 01       		.uleb128 0x1
 2330 0c8d 9C       		.byte	0x9c
 2331 0c8e AD0C0000 		.4byte	0xcad
 2332 0c92 1F       		.uleb128 0x1f
 2333 0c93 73647000 		.ascii	"sdp\000"
 2334 0c97 01       		.byte	0x1
 2335 0c98 D5       		.byte	0xd5
 2336 0c99 B20B0000 		.4byte	0xbb2
 2337 0c9d 02       		.uleb128 0x2
 2338 0c9e 91       		.byte	0x91
 2339 0c9f 74       		.sleb128 -12
 2340 0ca0 1F       		.uleb128 0x1f
 2341 0ca1 6200     		.ascii	"b\000"
 2342 0ca3 01       		.byte	0x1
 2343 0ca4 D5       		.byte	0xd5
 2344 0ca5 A9000000 		.4byte	0xa9
 2345 0ca9 02       		.uleb128 0x2
 2346 0caa 91       		.byte	0x91
 2347 0cab 73       		.sleb128 -13
 2348 0cac 00       		.byte	0
 2349 0cad 27       		.uleb128 0x27
 2350 0cae 2A040000 		.4byte	.LASF127
 2351 0cb2 01       		.byte	0x1
 2352 0cb3 EF       		.byte	0xef
 2353 0cb4 29010000 		.4byte	0x129
 2354 0cb8 00000000 		.4byte	.LFB131
 2355 0cbc 44000000 		.4byte	.LFE131-.LFB131
 2356 0cc0 01       		.uleb128 0x1
 2357 0cc1 9C       		.byte	0x9c
 2358 0cc2 E10C0000 		.4byte	0xce1
 2359 0cc6 1F       		.uleb128 0x1f
 2360 0cc7 73647000 		.ascii	"sdp\000"
 2361 0ccb 01       		.byte	0x1
 2362 0ccc EF       		.byte	0xef
 2363 0ccd B20B0000 		.4byte	0xbb2
 2364 0cd1 02       		.uleb128 0x2
 2365 0cd2 91       		.byte	0x91
ARM GAS  /tmp/cckOgOXG.s 			page 43


 2366 0cd3 6C       		.sleb128 -20
 2367 0cd4 25       		.uleb128 0x25
 2368 0cd5 6200     		.ascii	"b\000"
 2369 0cd7 01       		.byte	0x1
 2370 0cd8 F0       		.byte	0xf0
 2371 0cd9 29010000 		.4byte	0x129
 2372 0cdd 02       		.uleb128 0x2
 2373 0cde 91       		.byte	0x91
 2374 0cdf 74       		.sleb128 -12
 2375 0ce0 00       		.byte	0
 2376 0ce1 25       		.uleb128 0x25
 2377 0ce2 766D7400 		.ascii	"vmt\000"
 2378 0ce6 01       		.byte	0x1
 2379 0ce7 68       		.byte	0x68
 2380 0ce8 5A090000 		.4byte	0x95a
 2381 0cec 05       		.uleb128 0x5
 2382 0ced 03       		.byte	0x3
 2383 0cee 00000000 		.4byte	vmt
 2384 0cf2 28       		.uleb128 0x28
 2385 0cf3 4D000000 		.4byte	.LASF128
 2386 0cf7 0F       		.byte	0xf
 2387 0cf8 9806     		.2byte	0x698
 2388 0cfa 8B060000 		.4byte	0x68b
 2389 0cfe 00       		.byte	0
 2390              		.section	.debug_abbrev,"",%progbits
 2391              	.Ldebug_abbrev0:
 2392 0000 01       		.uleb128 0x1
 2393 0001 11       		.uleb128 0x11
 2394 0002 01       		.byte	0x1
 2395 0003 25       		.uleb128 0x25
 2396 0004 0E       		.uleb128 0xe
 2397 0005 13       		.uleb128 0x13
 2398 0006 0B       		.uleb128 0xb
 2399 0007 03       		.uleb128 0x3
 2400 0008 0E       		.uleb128 0xe
 2401 0009 55       		.uleb128 0x55
 2402 000a 17       		.uleb128 0x17
 2403 000b 11       		.uleb128 0x11
 2404 000c 01       		.uleb128 0x1
 2405 000d 10       		.uleb128 0x10
 2406 000e 17       		.uleb128 0x17
 2407 000f 00       		.byte	0
 2408 0010 00       		.byte	0
 2409 0011 02       		.uleb128 0x2
 2410 0012 24       		.uleb128 0x24
 2411 0013 00       		.byte	0
 2412 0014 0B       		.uleb128 0xb
 2413 0015 0B       		.uleb128 0xb
 2414 0016 3E       		.uleb128 0x3e
 2415 0017 0B       		.uleb128 0xb
 2416 0018 03       		.uleb128 0x3
 2417 0019 08       		.uleb128 0x8
 2418 001a 00       		.byte	0
 2419 001b 00       		.byte	0
 2420 001c 03       		.uleb128 0x3
 2421 001d 16       		.uleb128 0x16
 2422 001e 00       		.byte	0
ARM GAS  /tmp/cckOgOXG.s 			page 44


 2423 001f 03       		.uleb128 0x3
 2424 0020 0E       		.uleb128 0xe
 2425 0021 3A       		.uleb128 0x3a
 2426 0022 0B       		.uleb128 0xb
 2427 0023 3B       		.uleb128 0x3b
 2428 0024 0B       		.uleb128 0xb
 2429 0025 49       		.uleb128 0x49
 2430 0026 13       		.uleb128 0x13
 2431 0027 00       		.byte	0
 2432 0028 00       		.byte	0
 2433 0029 04       		.uleb128 0x4
 2434 002a 24       		.uleb128 0x24
 2435 002b 00       		.byte	0
 2436 002c 0B       		.uleb128 0xb
 2437 002d 0B       		.uleb128 0xb
 2438 002e 3E       		.uleb128 0x3e
 2439 002f 0B       		.uleb128 0xb
 2440 0030 03       		.uleb128 0x3
 2441 0031 0E       		.uleb128 0xe
 2442 0032 00       		.byte	0
 2443 0033 00       		.byte	0
 2444 0034 05       		.uleb128 0x5
 2445 0035 13       		.uleb128 0x13
 2446 0036 01       		.byte	0x1
 2447 0037 03       		.uleb128 0x3
 2448 0038 0E       		.uleb128 0xe
 2449 0039 0B       		.uleb128 0xb
 2450 003a 0B       		.uleb128 0xb
 2451 003b 3A       		.uleb128 0x3a
 2452 003c 0B       		.uleb128 0xb
 2453 003d 3B       		.uleb128 0x3b
 2454 003e 0B       		.uleb128 0xb
 2455 003f 01       		.uleb128 0x1
 2456 0040 13       		.uleb128 0x13
 2457 0041 00       		.byte	0
 2458 0042 00       		.byte	0
 2459 0043 06       		.uleb128 0x6
 2460 0044 0D       		.uleb128 0xd
 2461 0045 00       		.byte	0
 2462 0046 03       		.uleb128 0x3
 2463 0047 0E       		.uleb128 0xe
 2464 0048 3A       		.uleb128 0x3a
 2465 0049 0B       		.uleb128 0xb
 2466 004a 3B       		.uleb128 0x3b
 2467 004b 0B       		.uleb128 0xb
 2468 004c 49       		.uleb128 0x49
 2469 004d 13       		.uleb128 0x13
 2470 004e 38       		.uleb128 0x38
 2471 004f 0B       		.uleb128 0xb
 2472 0050 00       		.byte	0
 2473 0051 00       		.byte	0
 2474 0052 07       		.uleb128 0x7
 2475 0053 0D       		.uleb128 0xd
 2476 0054 00       		.byte	0
 2477 0055 03       		.uleb128 0x3
 2478 0056 08       		.uleb128 0x8
 2479 0057 3A       		.uleb128 0x3a
ARM GAS  /tmp/cckOgOXG.s 			page 45


 2480 0058 0B       		.uleb128 0xb
 2481 0059 3B       		.uleb128 0x3b
 2482 005a 0B       		.uleb128 0xb
 2483 005b 49       		.uleb128 0x49
 2484 005c 13       		.uleb128 0x13
 2485 005d 38       		.uleb128 0x38
 2486 005e 0B       		.uleb128 0xb
 2487 005f 00       		.byte	0
 2488 0060 00       		.byte	0
 2489 0061 08       		.uleb128 0x8
 2490 0062 13       		.uleb128 0x13
 2491 0063 01       		.byte	0x1
 2492 0064 0B       		.uleb128 0xb
 2493 0065 0B       		.uleb128 0xb
 2494 0066 3A       		.uleb128 0x3a
 2495 0067 0B       		.uleb128 0xb
 2496 0068 3B       		.uleb128 0x3b
 2497 0069 0B       		.uleb128 0xb
 2498 006a 01       		.uleb128 0x1
 2499 006b 13       		.uleb128 0x13
 2500 006c 00       		.byte	0
 2501 006d 00       		.byte	0
 2502 006e 09       		.uleb128 0x9
 2503 006f 0F       		.uleb128 0xf
 2504 0070 00       		.byte	0
 2505 0071 0B       		.uleb128 0xb
 2506 0072 0B       		.uleb128 0xb
 2507 0073 49       		.uleb128 0x49
 2508 0074 13       		.uleb128 0x13
 2509 0075 00       		.byte	0
 2510 0076 00       		.byte	0
 2511 0077 0A       		.uleb128 0xa
 2512 0078 0F       		.uleb128 0xf
 2513 0079 00       		.byte	0
 2514 007a 0B       		.uleb128 0xb
 2515 007b 0B       		.uleb128 0xb
 2516 007c 00       		.byte	0
 2517 007d 00       		.byte	0
 2518 007e 0B       		.uleb128 0xb
 2519 007f 13       		.uleb128 0x13
 2520 0080 01       		.byte	0x1
 2521 0081 03       		.uleb128 0x3
 2522 0082 0E       		.uleb128 0xe
 2523 0083 0B       		.uleb128 0xb
 2524 0084 0B       		.uleb128 0xb
 2525 0085 3A       		.uleb128 0x3a
 2526 0086 0B       		.uleb128 0xb
 2527 0087 3B       		.uleb128 0x3b
 2528 0088 05       		.uleb128 0x5
 2529 0089 01       		.uleb128 0x1
 2530 008a 13       		.uleb128 0x13
 2531 008b 00       		.byte	0
 2532 008c 00       		.byte	0
 2533 008d 0C       		.uleb128 0xc
 2534 008e 0D       		.uleb128 0xd
 2535 008f 00       		.byte	0
 2536 0090 03       		.uleb128 0x3
ARM GAS  /tmp/cckOgOXG.s 			page 46


 2537 0091 08       		.uleb128 0x8
 2538 0092 3A       		.uleb128 0x3a
 2539 0093 0B       		.uleb128 0xb
 2540 0094 3B       		.uleb128 0x3b
 2541 0095 05       		.uleb128 0x5
 2542 0096 49       		.uleb128 0x49
 2543 0097 13       		.uleb128 0x13
 2544 0098 38       		.uleb128 0x38
 2545 0099 0B       		.uleb128 0xb
 2546 009a 00       		.byte	0
 2547 009b 00       		.byte	0
 2548 009c 0D       		.uleb128 0xd
 2549 009d 35       		.uleb128 0x35
 2550 009e 00       		.byte	0
 2551 009f 49       		.uleb128 0x49
 2552 00a0 13       		.uleb128 0x13
 2553 00a1 00       		.byte	0
 2554 00a2 00       		.byte	0
 2555 00a3 0E       		.uleb128 0xe
 2556 00a4 17       		.uleb128 0x17
 2557 00a5 01       		.byte	0x1
 2558 00a6 0B       		.uleb128 0xb
 2559 00a7 0B       		.uleb128 0xb
 2560 00a8 3A       		.uleb128 0x3a
 2561 00a9 0B       		.uleb128 0xb
 2562 00aa 3B       		.uleb128 0x3b
 2563 00ab 0B       		.uleb128 0xb
 2564 00ac 01       		.uleb128 0x1
 2565 00ad 13       		.uleb128 0x13
 2566 00ae 00       		.byte	0
 2567 00af 00       		.byte	0
 2568 00b0 0F       		.uleb128 0xf
 2569 00b1 0D       		.uleb128 0xd
 2570 00b2 00       		.byte	0
 2571 00b3 03       		.uleb128 0x3
 2572 00b4 0E       		.uleb128 0xe
 2573 00b5 3A       		.uleb128 0x3a
 2574 00b6 0B       		.uleb128 0xb
 2575 00b7 3B       		.uleb128 0x3b
 2576 00b8 0B       		.uleb128 0xb
 2577 00b9 49       		.uleb128 0x49
 2578 00ba 13       		.uleb128 0x13
 2579 00bb 00       		.byte	0
 2580 00bc 00       		.byte	0
 2581 00bd 10       		.uleb128 0x10
 2582 00be 26       		.uleb128 0x26
 2583 00bf 00       		.byte	0
 2584 00c0 49       		.uleb128 0x49
 2585 00c1 13       		.uleb128 0x13
 2586 00c2 00       		.byte	0
 2587 00c3 00       		.byte	0
 2588 00c4 11       		.uleb128 0x11
 2589 00c5 15       		.uleb128 0x15
 2590 00c6 01       		.byte	0x1
 2591 00c7 27       		.uleb128 0x27
 2592 00c8 19       		.uleb128 0x19
 2593 00c9 49       		.uleb128 0x49
ARM GAS  /tmp/cckOgOXG.s 			page 47


 2594 00ca 13       		.uleb128 0x13
 2595 00cb 01       		.uleb128 0x1
 2596 00cc 13       		.uleb128 0x13
 2597 00cd 00       		.byte	0
 2598 00ce 00       		.byte	0
 2599 00cf 12       		.uleb128 0x12
 2600 00d0 05       		.uleb128 0x5
 2601 00d1 00       		.byte	0
 2602 00d2 49       		.uleb128 0x49
 2603 00d3 13       		.uleb128 0x13
 2604 00d4 00       		.byte	0
 2605 00d5 00       		.byte	0
 2606 00d6 13       		.uleb128 0x13
 2607 00d7 15       		.uleb128 0x15
 2608 00d8 01       		.byte	0x1
 2609 00d9 27       		.uleb128 0x27
 2610 00da 19       		.uleb128 0x19
 2611 00db 01       		.uleb128 0x1
 2612 00dc 13       		.uleb128 0x13
 2613 00dd 00       		.byte	0
 2614 00de 00       		.byte	0
 2615 00df 14       		.uleb128 0x14
 2616 00e0 13       		.uleb128 0x13
 2617 00e1 01       		.byte	0x1
 2618 00e2 0B       		.uleb128 0xb
 2619 00e3 0B       		.uleb128 0xb
 2620 00e4 3A       		.uleb128 0x3a
 2621 00e5 0B       		.uleb128 0xb
 2622 00e6 3B       		.uleb128 0x3b
 2623 00e7 05       		.uleb128 0x5
 2624 00e8 01       		.uleb128 0x1
 2625 00e9 13       		.uleb128 0x13
 2626 00ea 00       		.byte	0
 2627 00eb 00       		.byte	0
 2628 00ec 15       		.uleb128 0x15
 2629 00ed 0D       		.uleb128 0xd
 2630 00ee 00       		.byte	0
 2631 00ef 03       		.uleb128 0x3
 2632 00f0 0E       		.uleb128 0xe
 2633 00f1 3A       		.uleb128 0x3a
 2634 00f2 0B       		.uleb128 0xb
 2635 00f3 3B       		.uleb128 0x3b
 2636 00f4 05       		.uleb128 0x5
 2637 00f5 49       		.uleb128 0x49
 2638 00f6 13       		.uleb128 0x13
 2639 00f7 38       		.uleb128 0x38
 2640 00f8 0B       		.uleb128 0xb
 2641 00f9 00       		.byte	0
 2642 00fa 00       		.byte	0
 2643 00fb 16       		.uleb128 0x16
 2644 00fc 16       		.uleb128 0x16
 2645 00fd 00       		.byte	0
 2646 00fe 03       		.uleb128 0x3
 2647 00ff 0E       		.uleb128 0xe
 2648 0100 3A       		.uleb128 0x3a
 2649 0101 0B       		.uleb128 0xb
 2650 0102 3B       		.uleb128 0x3b
ARM GAS  /tmp/cckOgOXG.s 			page 48


 2651 0103 05       		.uleb128 0x5
 2652 0104 49       		.uleb128 0x49
 2653 0105 13       		.uleb128 0x13
 2654 0106 00       		.byte	0
 2655 0107 00       		.byte	0
 2656 0108 17       		.uleb128 0x17
 2657 0109 04       		.uleb128 0x4
 2658 010a 01       		.byte	0x1
 2659 010b 0B       		.uleb128 0xb
 2660 010c 0B       		.uleb128 0xb
 2661 010d 3A       		.uleb128 0x3a
 2662 010e 0B       		.uleb128 0xb
 2663 010f 3B       		.uleb128 0x3b
 2664 0110 0B       		.uleb128 0xb
 2665 0111 01       		.uleb128 0x1
 2666 0112 13       		.uleb128 0x13
 2667 0113 00       		.byte	0
 2668 0114 00       		.byte	0
 2669 0115 18       		.uleb128 0x18
 2670 0116 28       		.uleb128 0x28
 2671 0117 00       		.byte	0
 2672 0118 03       		.uleb128 0x3
 2673 0119 0E       		.uleb128 0xe
 2674 011a 1C       		.uleb128 0x1c
 2675 011b 0D       		.uleb128 0xd
 2676 011c 00       		.byte	0
 2677 011d 00       		.byte	0
 2678 011e 19       		.uleb128 0x19
 2679 011f 13       		.uleb128 0x13
 2680 0120 01       		.byte	0x1
 2681 0121 03       		.uleb128 0x3
 2682 0122 0E       		.uleb128 0xe
 2683 0123 0B       		.uleb128 0xb
 2684 0124 05       		.uleb128 0x5
 2685 0125 3A       		.uleb128 0x3a
 2686 0126 0B       		.uleb128 0xb
 2687 0127 3B       		.uleb128 0x3b
 2688 0128 0B       		.uleb128 0xb
 2689 0129 01       		.uleb128 0x1
 2690 012a 13       		.uleb128 0x13
 2691 012b 00       		.byte	0
 2692 012c 00       		.byte	0
 2693 012d 1A       		.uleb128 0x1a
 2694 012e 0D       		.uleb128 0xd
 2695 012f 00       		.byte	0
 2696 0130 03       		.uleb128 0x3
 2697 0131 08       		.uleb128 0x8
 2698 0132 3A       		.uleb128 0x3a
 2699 0133 0B       		.uleb128 0xb
 2700 0134 3B       		.uleb128 0x3b
 2701 0135 0B       		.uleb128 0xb
 2702 0136 49       		.uleb128 0x49
 2703 0137 13       		.uleb128 0x13
 2704 0138 38       		.uleb128 0x38
 2705 0139 05       		.uleb128 0x5
 2706 013a 00       		.byte	0
 2707 013b 00       		.byte	0
ARM GAS  /tmp/cckOgOXG.s 			page 49


 2708 013c 1B       		.uleb128 0x1b
 2709 013d 0D       		.uleb128 0xd
 2710 013e 00       		.byte	0
 2711 013f 03       		.uleb128 0x3
 2712 0140 0E       		.uleb128 0xe
 2713 0141 3A       		.uleb128 0x3a
 2714 0142 0B       		.uleb128 0xb
 2715 0143 3B       		.uleb128 0x3b
 2716 0144 0B       		.uleb128 0xb
 2717 0145 49       		.uleb128 0x49
 2718 0146 13       		.uleb128 0x13
 2719 0147 38       		.uleb128 0x38
 2720 0148 05       		.uleb128 0x5
 2721 0149 00       		.byte	0
 2722 014a 00       		.byte	0
 2723 014b 1C       		.uleb128 0x1c
 2724 014c 01       		.uleb128 0x1
 2725 014d 01       		.byte	0x1
 2726 014e 49       		.uleb128 0x49
 2727 014f 13       		.uleb128 0x13
 2728 0150 01       		.uleb128 0x1
 2729 0151 13       		.uleb128 0x13
 2730 0152 00       		.byte	0
 2731 0153 00       		.byte	0
 2732 0154 1D       		.uleb128 0x1d
 2733 0155 21       		.uleb128 0x21
 2734 0156 00       		.byte	0
 2735 0157 49       		.uleb128 0x49
 2736 0158 13       		.uleb128 0x13
 2737 0159 2F       		.uleb128 0x2f
 2738 015a 0B       		.uleb128 0xb
 2739 015b 00       		.byte	0
 2740 015c 00       		.byte	0
 2741 015d 1E       		.uleb128 0x1e
 2742 015e 2E       		.uleb128 0x2e
 2743 015f 01       		.byte	0x1
 2744 0160 03       		.uleb128 0x3
 2745 0161 0E       		.uleb128 0xe
 2746 0162 3A       		.uleb128 0x3a
 2747 0163 0B       		.uleb128 0xb
 2748 0164 3B       		.uleb128 0x3b
 2749 0165 0B       		.uleb128 0xb
 2750 0166 27       		.uleb128 0x27
 2751 0167 19       		.uleb128 0x19
 2752 0168 49       		.uleb128 0x49
 2753 0169 13       		.uleb128 0x13
 2754 016a 11       		.uleb128 0x11
 2755 016b 01       		.uleb128 0x1
 2756 016c 12       		.uleb128 0x12
 2757 016d 06       		.uleb128 0x6
 2758 016e 40       		.uleb128 0x40
 2759 016f 18       		.uleb128 0x18
 2760 0170 9642     		.uleb128 0x2116
 2761 0172 19       		.uleb128 0x19
 2762 0173 01       		.uleb128 0x1
 2763 0174 13       		.uleb128 0x13
 2764 0175 00       		.byte	0
ARM GAS  /tmp/cckOgOXG.s 			page 50


 2765 0176 00       		.byte	0
 2766 0177 1F       		.uleb128 0x1f
 2767 0178 05       		.uleb128 0x5
 2768 0179 00       		.byte	0
 2769 017a 03       		.uleb128 0x3
 2770 017b 08       		.uleb128 0x8
 2771 017c 3A       		.uleb128 0x3a
 2772 017d 0B       		.uleb128 0xb
 2773 017e 3B       		.uleb128 0x3b
 2774 017f 0B       		.uleb128 0xb
 2775 0180 49       		.uleb128 0x49
 2776 0181 13       		.uleb128 0x13
 2777 0182 02       		.uleb128 0x2
 2778 0183 18       		.uleb128 0x18
 2779 0184 00       		.byte	0
 2780 0185 00       		.byte	0
 2781 0186 20       		.uleb128 0x20
 2782 0187 2E       		.uleb128 0x2e
 2783 0188 01       		.byte	0x1
 2784 0189 03       		.uleb128 0x3
 2785 018a 08       		.uleb128 0x8
 2786 018b 3A       		.uleb128 0x3a
 2787 018c 0B       		.uleb128 0xb
 2788 018d 3B       		.uleb128 0x3b
 2789 018e 0B       		.uleb128 0xb
 2790 018f 27       		.uleb128 0x27
 2791 0190 19       		.uleb128 0x19
 2792 0191 49       		.uleb128 0x49
 2793 0192 13       		.uleb128 0x13
 2794 0193 11       		.uleb128 0x11
 2795 0194 01       		.uleb128 0x1
 2796 0195 12       		.uleb128 0x12
 2797 0196 06       		.uleb128 0x6
 2798 0197 40       		.uleb128 0x40
 2799 0198 18       		.uleb128 0x18
 2800 0199 9642     		.uleb128 0x2116
 2801 019b 19       		.uleb128 0x19
 2802 019c 01       		.uleb128 0x1
 2803 019d 13       		.uleb128 0x13
 2804 019e 00       		.byte	0
 2805 019f 00       		.byte	0
 2806 01a0 21       		.uleb128 0x21
 2807 01a1 05       		.uleb128 0x5
 2808 01a2 00       		.byte	0
 2809 01a3 03       		.uleb128 0x3
 2810 01a4 0E       		.uleb128 0xe
 2811 01a5 3A       		.uleb128 0x3a
 2812 01a6 0B       		.uleb128 0xb
 2813 01a7 3B       		.uleb128 0x3b
 2814 01a8 0B       		.uleb128 0xb
 2815 01a9 49       		.uleb128 0x49
 2816 01aa 13       		.uleb128 0x13
 2817 01ab 02       		.uleb128 0x2
 2818 01ac 18       		.uleb128 0x18
 2819 01ad 00       		.byte	0
 2820 01ae 00       		.byte	0
 2821 01af 22       		.uleb128 0x22
ARM GAS  /tmp/cckOgOXG.s 			page 51


 2822 01b0 2E       		.uleb128 0x2e
 2823 01b1 00       		.byte	0
 2824 01b2 3F       		.uleb128 0x3f
 2825 01b3 19       		.uleb128 0x19
 2826 01b4 03       		.uleb128 0x3
 2827 01b5 0E       		.uleb128 0xe
 2828 01b6 3A       		.uleb128 0x3a
 2829 01b7 0B       		.uleb128 0xb
 2830 01b8 3B       		.uleb128 0x3b
 2831 01b9 0B       		.uleb128 0xb
 2832 01ba 27       		.uleb128 0x27
 2833 01bb 19       		.uleb128 0x19
 2834 01bc 11       		.uleb128 0x11
 2835 01bd 01       		.uleb128 0x1
 2836 01be 12       		.uleb128 0x12
 2837 01bf 06       		.uleb128 0x6
 2838 01c0 40       		.uleb128 0x40
 2839 01c1 18       		.uleb128 0x18
 2840 01c2 9642     		.uleb128 0x2116
 2841 01c4 19       		.uleb128 0x19
 2842 01c5 00       		.byte	0
 2843 01c6 00       		.byte	0
 2844 01c7 23       		.uleb128 0x23
 2845 01c8 2E       		.uleb128 0x2e
 2846 01c9 01       		.byte	0x1
 2847 01ca 3F       		.uleb128 0x3f
 2848 01cb 19       		.uleb128 0x19
 2849 01cc 03       		.uleb128 0x3
 2850 01cd 0E       		.uleb128 0xe
 2851 01ce 3A       		.uleb128 0x3a
 2852 01cf 0B       		.uleb128 0xb
 2853 01d0 3B       		.uleb128 0x3b
 2854 01d1 0B       		.uleb128 0xb
 2855 01d2 27       		.uleb128 0x27
 2856 01d3 19       		.uleb128 0x19
 2857 01d4 11       		.uleb128 0x11
 2858 01d5 01       		.uleb128 0x1
 2859 01d6 12       		.uleb128 0x12
 2860 01d7 06       		.uleb128 0x6
 2861 01d8 40       		.uleb128 0x40
 2862 01d9 18       		.uleb128 0x18
 2863 01da 9642     		.uleb128 0x2116
 2864 01dc 19       		.uleb128 0x19
 2865 01dd 01       		.uleb128 0x1
 2866 01de 13       		.uleb128 0x13
 2867 01df 00       		.byte	0
 2868 01e0 00       		.byte	0
 2869 01e1 24       		.uleb128 0x24
 2870 01e2 0B       		.uleb128 0xb
 2871 01e3 01       		.byte	0x1
 2872 01e4 11       		.uleb128 0x11
 2873 01e5 01       		.uleb128 0x1
 2874 01e6 12       		.uleb128 0x12
 2875 01e7 06       		.uleb128 0x6
 2876 01e8 01       		.uleb128 0x1
 2877 01e9 13       		.uleb128 0x13
 2878 01ea 00       		.byte	0
ARM GAS  /tmp/cckOgOXG.s 			page 52


 2879 01eb 00       		.byte	0
 2880 01ec 25       		.uleb128 0x25
 2881 01ed 34       		.uleb128 0x34
 2882 01ee 00       		.byte	0
 2883 01ef 03       		.uleb128 0x3
 2884 01f0 08       		.uleb128 0x8
 2885 01f1 3A       		.uleb128 0x3a
 2886 01f2 0B       		.uleb128 0xb
 2887 01f3 3B       		.uleb128 0x3b
 2888 01f4 0B       		.uleb128 0xb
 2889 01f5 49       		.uleb128 0x49
 2890 01f6 13       		.uleb128 0x13
 2891 01f7 02       		.uleb128 0x2
 2892 01f8 18       		.uleb128 0x18
 2893 01f9 00       		.byte	0
 2894 01fa 00       		.byte	0
 2895 01fb 26       		.uleb128 0x26
 2896 01fc 0B       		.uleb128 0xb
 2897 01fd 01       		.byte	0x1
 2898 01fe 11       		.uleb128 0x11
 2899 01ff 01       		.uleb128 0x1
 2900 0200 12       		.uleb128 0x12
 2901 0201 06       		.uleb128 0x6
 2902 0202 00       		.byte	0
 2903 0203 00       		.byte	0
 2904 0204 27       		.uleb128 0x27
 2905 0205 2E       		.uleb128 0x2e
 2906 0206 01       		.byte	0x1
 2907 0207 3F       		.uleb128 0x3f
 2908 0208 19       		.uleb128 0x19
 2909 0209 03       		.uleb128 0x3
 2910 020a 0E       		.uleb128 0xe
 2911 020b 3A       		.uleb128 0x3a
 2912 020c 0B       		.uleb128 0xb
 2913 020d 3B       		.uleb128 0x3b
 2914 020e 0B       		.uleb128 0xb
 2915 020f 27       		.uleb128 0x27
 2916 0210 19       		.uleb128 0x19
 2917 0211 49       		.uleb128 0x49
 2918 0212 13       		.uleb128 0x13
 2919 0213 11       		.uleb128 0x11
 2920 0214 01       		.uleb128 0x1
 2921 0215 12       		.uleb128 0x12
 2922 0216 06       		.uleb128 0x6
 2923 0217 40       		.uleb128 0x40
 2924 0218 18       		.uleb128 0x18
 2925 0219 9642     		.uleb128 0x2116
 2926 021b 19       		.uleb128 0x19
 2927 021c 01       		.uleb128 0x1
 2928 021d 13       		.uleb128 0x13
 2929 021e 00       		.byte	0
 2930 021f 00       		.byte	0
 2931 0220 28       		.uleb128 0x28
 2932 0221 34       		.uleb128 0x34
 2933 0222 00       		.byte	0
 2934 0223 03       		.uleb128 0x3
 2935 0224 0E       		.uleb128 0xe
ARM GAS  /tmp/cckOgOXG.s 			page 53


 2936 0225 3A       		.uleb128 0x3a
 2937 0226 0B       		.uleb128 0xb
 2938 0227 3B       		.uleb128 0x3b
 2939 0228 05       		.uleb128 0x5
 2940 0229 49       		.uleb128 0x49
 2941 022a 13       		.uleb128 0x13
 2942 022b 3F       		.uleb128 0x3f
 2943 022c 19       		.uleb128 0x19
 2944 022d 3C       		.uleb128 0x3c
 2945 022e 19       		.uleb128 0x19
 2946 022f 00       		.byte	0
 2947 0230 00       		.byte	0
 2948 0231 00       		.byte	0
 2949              		.section	.debug_aranges,"",%progbits
 2950 0000 84000000 		.4byte	0x84
 2951 0004 0200     		.2byte	0x2
 2952 0006 00000000 		.4byte	.Ldebug_info0
 2953 000a 04       		.byte	0x4
 2954 000b 00       		.byte	0
 2955 000c 0000     		.2byte	0
 2956 000e 0000     		.2byte	0
 2957 0010 00000000 		.4byte	.LFB118
 2958 0014 26000000 		.4byte	.LFE118-.LFB118
 2959 0018 00000000 		.4byte	.LFB119
 2960 001c 26000000 		.4byte	.LFE119-.LFB119
 2961 0020 00000000 		.4byte	.LFB120
 2962 0024 2C000000 		.4byte	.LFE120-.LFB120
 2963 0028 00000000 		.4byte	.LFB121
 2964 002c 1E000000 		.4byte	.LFE121-.LFB121
 2965 0030 00000000 		.4byte	.LFB122
 2966 0034 2C000000 		.4byte	.LFE122-.LFB122
 2967 0038 00000000 		.4byte	.LFB123
 2968 003c 1E000000 		.4byte	.LFE123-.LFB123
 2969 0040 00000000 		.4byte	.LFB124
 2970 0044 26000000 		.4byte	.LFE124-.LFB124
 2971 0048 00000000 		.4byte	.LFB125
 2972 004c 26000000 		.4byte	.LFE125-.LFB125
 2973 0050 00000000 		.4byte	.LFB126
 2974 0054 08000000 		.4byte	.LFE126-.LFB126
 2975 0058 00000000 		.4byte	.LFB127
 2976 005c 64000000 		.4byte	.LFE127-.LFB127
 2977 0060 00000000 		.4byte	.LFB128
 2978 0064 5C000000 		.4byte	.LFE128-.LFB128
 2979 0068 00000000 		.4byte	.LFB129
 2980 006c 70000000 		.4byte	.LFE129-.LFB129
 2981 0070 00000000 		.4byte	.LFB130
 2982 0074 60000000 		.4byte	.LFE130-.LFB130
 2983 0078 00000000 		.4byte	.LFB131
 2984 007c 44000000 		.4byte	.LFE131-.LFB131
 2985 0080 00000000 		.4byte	0
 2986 0084 00000000 		.4byte	0
 2987              		.section	.debug_ranges,"",%progbits
 2988              	.Ldebug_ranges0:
 2989 0000 00000000 		.4byte	.LFB118
 2990 0004 26000000 		.4byte	.LFE118
 2991 0008 00000000 		.4byte	.LFB119
 2992 000c 26000000 		.4byte	.LFE119
ARM GAS  /tmp/cckOgOXG.s 			page 54


 2993 0010 00000000 		.4byte	.LFB120
 2994 0014 2C000000 		.4byte	.LFE120
 2995 0018 00000000 		.4byte	.LFB121
 2996 001c 1E000000 		.4byte	.LFE121
 2997 0020 00000000 		.4byte	.LFB122
 2998 0024 2C000000 		.4byte	.LFE122
 2999 0028 00000000 		.4byte	.LFB123
 3000 002c 1E000000 		.4byte	.LFE123
 3001 0030 00000000 		.4byte	.LFB124
 3002 0034 26000000 		.4byte	.LFE124
 3003 0038 00000000 		.4byte	.LFB125
 3004 003c 26000000 		.4byte	.LFE125
 3005 0040 00000000 		.4byte	.LFB126
 3006 0044 08000000 		.4byte	.LFE126
 3007 0048 00000000 		.4byte	.LFB127
 3008 004c 64000000 		.4byte	.LFE127
 3009 0050 00000000 		.4byte	.LFB128
 3010 0054 5C000000 		.4byte	.LFE128
 3011 0058 00000000 		.4byte	.LFB129
 3012 005c 70000000 		.4byte	.LFE129
 3013 0060 00000000 		.4byte	.LFB130
 3014 0064 60000000 		.4byte	.LFE130
 3015 0068 00000000 		.4byte	.LFB131
 3016 006c 44000000 		.4byte	.LFE131
 3017 0070 00000000 		.4byte	0
 3018 0074 00000000 		.4byte	0
 3019              		.section	.debug_line,"",%progbits
 3020              	.Ldebug_line0:
 3021 0000 00040000 		.section	.debug_str,"MS",%progbits,1
 3021      0200BA02 
 3021      00000201 
 3021      FB0E0D00 
 3021      01010101 
 3022              	.LASF2:
 3023 0000 73697A65 		.ascii	"size_t\000"
 3023      5F7400
 3024              	.LASF70:
 3025 0007 7264796D 		.ascii	"rdymsg\000"
 3025      736700
 3026              	.LASF19:
 3027 000e 75696E74 		.ascii	"uint64_t\000"
 3027      36345F74 
 3027      00
 3028              	.LASF86:
 3029 0017 4F757470 		.ascii	"OutputQueue\000"
 3029      75745175 
 3029      65756500 
 3030              	.LASF3:
 3031 0023 5F5F7569 		.ascii	"__uint8_t\000"
 3031      6E74385F 
 3031      7400
 3032              	.LASF14:
 3033 002d 6C6F6E67 		.ascii	"long long unsigned int\000"
 3033      206C6F6E 
 3033      6720756E 
 3033      7369676E 
 3033      65642069 
ARM GAS  /tmp/cckOgOXG.s 			page 55


 3034              	.LASF71:
 3035 0044 65786974 		.ascii	"exitcode\000"
 3035      636F6465 
 3035      00
 3036              	.LASF128:
 3037 004d 49544D5F 		.ascii	"ITM_RxBuffer\000"
 3037      52784275 
 3037      66666572 
 3037      00
 3038              	.LASF119:
 3039 005a 73644F62 		.ascii	"sdObjectInit\000"
 3039      6A656374 
 3039      496E6974 
 3039      00
 3040              	.LASF114:
 3041 0067 72656164 		.ascii	"readt\000"
 3041      7400
 3042              	.LASF76:
 3043 006d 715F7761 		.ascii	"q_waiting\000"
 3043      6974696E 
 3043      6700
 3044              	.LASF12:
 3045 0077 6C6F6E67 		.ascii	"long long int\000"
 3045      206C6F6E 
 3045      6720696E 
 3045      7400
 3046              	.LASF1:
 3047 0085 7369676E 		.ascii	"signed char\000"
 3047      65642063 
 3047      68617200 
 3048              	.LASF88:
 3049 0091 47545052 		.ascii	"GTPR\000"
 3049      00
 3050              	.LASF51:
 3051 0096 705F6D70 		.ascii	"p_mpool\000"
 3051      6F6F6C00 
 3052              	.LASF20:
 3053 009e 626F6F6C 		.ascii	"bool_t\000"
 3053      5F7400
 3054              	.LASF60:
 3055 00a5 6D5F7175 		.ascii	"m_queue\000"
 3055      65756500 
 3056              	.LASF25:
 3057 00ad 74736C69 		.ascii	"tslices_t\000"
 3057      6365735F 
 3057      7400
 3058              	.LASF101:
 3059 00b7 73746174 		.ascii	"state\000"
 3059      6500
 3060              	.LASF9:
 3061 00bd 6C6F6E67 		.ascii	"long int\000"
 3061      20696E74 
 3061      00
 3062              	.LASF23:
 3063 00c6 74737461 		.ascii	"tstate_t\000"
 3063      74655F74 
 3063      00
ARM GAS  /tmp/cckOgOXG.s 			page 56


 3064              	.LASF78:
 3065 00cf 715F6275 		.ascii	"q_buffer\000"
 3065      66666572 
 3065      00
 3066              	.LASF36:
 3067 00d8 705F6E65 		.ascii	"p_newer\000"
 3067      77657200 
 3068              	.LASF7:
 3069 00e0 73686F72 		.ascii	"short unsigned int\000"
 3069      7420756E 
 3069      7369676E 
 3069      65642069 
 3069      6E7400
 3070              	.LASF10:
 3071 00f3 5F5F7569 		.ascii	"__uint32_t\000"
 3071      6E743332 
 3071      5F7400
 3072              	.LASF54:
 3073 00fe 72656761 		.ascii	"regarm_t\000"
 3073      726D5F74 
 3073      00
 3074              	.LASF68:
 3075 0107 4576656E 		.ascii	"EventSource\000"
 3075      74536F75 
 3075      72636500 
 3076              	.LASF104:
 3077 0113 75736172 		.ascii	"usart\000"
 3077      7400
 3078              	.LASF0:
 3079 0119 756E7369 		.ascii	"unsigned int\000"
 3079      676E6564 
 3079      20696E74 
 3079      00
 3080              	.LASF16:
 3081 0126 75696E74 		.ascii	"uint16_t\000"
 3081      31365F74 
 3081      00
 3082              	.LASF108:
 3083 012f 53657269 		.ascii	"SerialDriverVMT\000"
 3083      616C4472 
 3083      69766572 
 3083      564D5400 
 3084              	.LASF44:
 3085 013f 705F7469 		.ascii	"p_time\000"
 3085      6D6500
 3086              	.LASF117:
 3087 0146 696E6F74 		.ascii	"inotify\000"
 3087      69667900 
 3088              	.LASF46:
 3089 014e 705F6D73 		.ascii	"p_msgqueue\000"
 3089      67717565 
 3089      756500
 3090              	.LASF115:
 3091 0159 74696D65 		.ascii	"timeout\000"
 3091      6F757400 
 3092              	.LASF112:
 3093 0161 67657474 		.ascii	"gett\000"
ARM GAS  /tmp/cckOgOXG.s 			page 57


 3093      00
 3094              	.LASF100:
 3095 0166 6576656E 		.ascii	"event\000"
 3095      7400
 3096              	.LASF80:
 3097 016c 715F7772 		.ascii	"q_wrptr\000"
 3097      70747200 
 3098              	.LASF27:
 3099 0174 6D73675F 		.ascii	"msg_t\000"
 3099      7400
 3100              	.LASF103:
 3101 017a 6F717565 		.ascii	"oqueue\000"
 3101      756500
 3102              	.LASF94:
 3103 0181 55534152 		.ascii	"USART_TypeDef\000"
 3103      545F5479 
 3103      70654465 
 3103      6600
 3104              	.LASF113:
 3105 018f 77726974 		.ascii	"writet\000"
 3105      657400
 3106              	.LASF22:
 3107 0196 746D6F64 		.ascii	"tmode_t\000"
 3107      655F7400 
 3108              	.LASF53:
 3109 019e 54687265 		.ascii	"ThreadsList\000"
 3109      6164734C 
 3109      69737400 
 3110              	.LASF28:
 3111 01aa 6576656E 		.ascii	"eventmask_t\000"
 3111      746D6173 
 3111      6B5F7400 
 3112              	.LASF85:
 3113 01b6 496E7075 		.ascii	"InputQueue\000"
 3113      74517565 
 3113      756500
 3114              	.LASF106:
 3115 01c1 73706565 		.ascii	"speed\000"
 3115      6400
 3116              	.LASF84:
 3117 01c7 716E6F74 		.ascii	"qnotify_t\000"
 3117      6966795F 
 3117      7400
 3118              	.LASF75:
 3119 01d1 47656E65 		.ascii	"GenericQueue\000"
 3119      72696351 
 3119      75657565 
 3119      00
 3120              	.LASF55:
 3121 01de 73746B61 		.ascii	"stkalign_t\000"
 3121      6C69676E 
 3121      5F7400
 3122              	.LASF109:
 3123 01e9 77726974 		.ascii	"write\000"
 3123      6500
 3124              	.LASF111:
 3125 01ef 70757474 		.ascii	"putt\000"
ARM GAS  /tmp/cckOgOXG.s 			page 58


 3125      00
 3126              	.LASF58:
 3127 01f4 73697A65 		.ascii	"sizetype\000"
 3127      74797065 
 3127      00
 3128              	.LASF77:
 3129 01fd 715F636F 		.ascii	"q_counter\000"
 3129      756E7465 
 3129      7200
 3130              	.LASF59:
 3131 0207 4D757465 		.ascii	"Mutex\000"
 3131      7800
 3132              	.LASF34:
 3133 020d 705F7072 		.ascii	"p_prio\000"
 3133      696F00
 3134              	.LASF66:
 3135 0214 656C5F6D 		.ascii	"el_mask\000"
 3135      61736B00 
 3136              	.LASF37:
 3137 021c 705F6F6C 		.ascii	"p_older\000"
 3137      64657200 
 3138              	.LASF52:
 3139 0224 54687265 		.ascii	"ThreadsQueue\000"
 3139      61647351 
 3139      75657565 
 3139      00
 3140              	.LASF39:
 3141 0231 705F7374 		.ascii	"p_stklimit\000"
 3141      6B6C696D 
 3141      697400
 3142              	.LASF122:
 3143 023c 73645374 		.ascii	"sdStop\000"
 3143      6F7000
 3144              	.LASF42:
 3145 0243 705F7265 		.ascii	"p_refs\000"
 3145      667300
 3146              	.LASF107:
 3147 024a 53657269 		.ascii	"SerialConfig\000"
 3147      616C436F 
 3147      6E666967 
 3147      00
 3148              	.LASF13:
 3149 0257 5F5F7569 		.ascii	"__uint64_t\000"
 3149      6E743634 
 3149      5F7400
 3150              	.LASF97:
 3151 0262 53445F52 		.ascii	"SD_READY\000"
 3151      45414459 
 3151      00
 3152              	.LASF24:
 3153 026b 74726566 		.ascii	"trefs_t\000"
 3153      735F7400 
 3154              	.LASF87:
 3155 0273 52455345 		.ascii	"RESERVED1\000"
 3155      52564544 
 3155      3100
 3156              	.LASF89:
ARM GAS  /tmp/cckOgOXG.s 			page 59


 3157 027d 52455345 		.ascii	"RESERVED2\000"
 3157      52564544 
 3157      3200
 3158              	.LASF91:
 3159 0287 52455345 		.ascii	"RESERVED3\000"
 3159      52564544 
 3159      3300
 3160              	.LASF92:
 3161 0291 52455345 		.ascii	"RESERVED4\000"
 3161      52564544 
 3161      3400
 3162              	.LASF33:
 3163 029b 705F7072 		.ascii	"p_prev\000"
 3163      657600
 3164              	.LASF26:
 3165 02a2 74707269 		.ascii	"tprio_t\000"
 3165      6F5F7400 
 3166              	.LASF81:
 3167 02aa 715F7264 		.ascii	"q_rdptr\000"
 3167      70747200 
 3168              	.LASF21:
 3169 02b2 5F426F6F 		.ascii	"_Bool\000"
 3169      6C00
 3170              	.LASF17:
 3171 02b8 696E7433 		.ascii	"int32_t\000"
 3171      325F7400 
 3172              	.LASF4:
 3173 02c0 756E7369 		.ascii	"unsigned char\000"
 3173      676E6564 
 3173      20636861 
 3173      7200
 3174              	.LASF65:
 3175 02ce 656C5F6C 		.ascii	"el_listener\000"
 3175      69737465 
 3175      6E657200 
 3176              	.LASF67:
 3177 02da 656C5F66 		.ascii	"el_flags\000"
 3177      6C616773 
 3177      00
 3178              	.LASF40:
 3179 02e3 705F7374 		.ascii	"p_state\000"
 3179      61746500 
 3180              	.LASF49:
 3181 02eb 705F6D74 		.ascii	"p_mtxlist\000"
 3181      786C6973 
 3181      7400
 3182              	.LASF5:
 3183 02f5 73686F72 		.ascii	"short int\000"
 3183      7420696E 
 3183      7400
 3184              	.LASF43:
 3185 02ff 705F7072 		.ascii	"p_preempt\000"
 3185      65656D70 
 3185      7400
 3186              	.LASF73:
 3187 0309 65776D61 		.ascii	"ewmask\000"
 3187      736B00
ARM GAS  /tmp/cckOgOXG.s 			page 60


 3188              	.LASF32:
 3189 0310 705F6E65 		.ascii	"p_next\000"
 3189      787400
 3190              	.LASF41:
 3191 0317 705F666C 		.ascii	"p_flags\000"
 3191      61677300 
 3192              	.LASF64:
 3193 031f 656C5F6E 		.ascii	"el_next\000"
 3193      65787400 
 3194              	.LASF96:
 3195 0327 53445F53 		.ascii	"SD_STOP\000"
 3195      544F5000 
 3196              	.LASF31:
 3197 032f 54687265 		.ascii	"Thread\000"
 3197      616400
 3198              	.LASF48:
 3199 0336 705F6570 		.ascii	"p_epending\000"
 3199      656E6469 
 3199      6E6700
 3200              	.LASF95:
 3201 0341 53445F55 		.ascii	"SD_UNINIT\000"
 3201      4E494E49 
 3201      5400
 3202              	.LASF93:
 3203 034b 52455345 		.ascii	"RESERVED5\000"
 3203      52564544 
 3203      3500
 3204              	.LASF18:
 3205 0355 75696E74 		.ascii	"uint32_t\000"
 3205      33325F74 
 3205      00
 3206              	.LASF99:
 3207 035e 53657269 		.ascii	"SerialDriver\000"
 3207      616C4472 
 3207      69766572 
 3207      00
 3208              	.LASF11:
 3209 036b 6C6F6E67 		.ascii	"long unsigned int\000"
 3209      20756E73 
 3209      69676E65 
 3209      6420696E 
 3209      7400
 3210              	.LASF110:
 3211 037d 72656164 		.ascii	"read\000"
 3211      00
 3212              	.LASF74:
 3213 0382 63686172 		.ascii	"char\000"
 3213      00
 3214              	.LASF123:
 3215 0387 7364496E 		.ascii	"sdIncomingDataI\000"
 3215      636F6D69 
 3215      6E674461 
 3215      74614900 
 3216              	.LASF121:
 3217 0397 636F6E66 		.ascii	"config\000"
 3217      696700
 3218              	.LASF120:
ARM GAS  /tmp/cckOgOXG.s 			page 61


 3219 039e 73645374 		.ascii	"sdStart\000"
 3219      61727400 
 3220              	.LASF6:
 3221 03a6 5F5F7569 		.ascii	"__uint16_t\000"
 3221      6E743136 
 3221      5F7400
 3222              	.LASF62:
 3223 03b1 6D5F6E65 		.ascii	"m_next\000"
 3223      787400
 3224              	.LASF30:
 3225 03b8 73797374 		.ascii	"systime_t\000"
 3225      696D655F 
 3225      7400
 3226              	.LASF50:
 3227 03c2 705F7265 		.ascii	"p_realprio\000"
 3227      616C7072 
 3227      696F00
 3228              	.LASF8:
 3229 03cd 5F5F696E 		.ascii	"__int32_t\000"
 3229      7433325F 
 3229      7400
 3230              	.LASF90:
 3231 03d7 52544F52 		.ascii	"RTOR\000"
 3231      00
 3232              	.LASF57:
 3233 03dc 636F6E74 		.ascii	"context\000"
 3233      65787400 
 3234              	.LASF56:
 3235 03e4 696E7463 		.ascii	"intctx\000"
 3235      747800
 3236              	.LASF116:
 3237 03eb 74696D65 		.ascii	"time\000"
 3237      00
 3238              	.LASF29:
 3239 03f0 666C6167 		.ascii	"flagsmask_t\000"
 3239      736D6173 
 3239      6B5F7400 
 3240              	.LASF98:
 3241 03fc 73647374 		.ascii	"sdstate_t\000"
 3241      6174655F 
 3241      7400
 3242              	.LASF79:
 3243 0406 715F746F 		.ascii	"q_top\000"
 3243      7000
 3244              	.LASF38:
 3245 040c 705F6E61 		.ascii	"p_name\000"
 3245      6D6500
 3246              	.LASF69:
 3247 0413 65735F6E 		.ascii	"es_next\000"
 3247      65787400 
 3248              	.LASF82:
 3249 041b 715F6E6F 		.ascii	"q_notify\000"
 3249      74696679 
 3249      00
 3250              	.LASF47:
 3251 0424 705F6D73 		.ascii	"p_msg\000"
 3251      6700
ARM GAS  /tmp/cckOgOXG.s 			page 62


 3252              	.LASF127:
 3253 042a 73645265 		.ascii	"sdRequestDataI\000"
 3253      71756573 
 3253      74446174 
 3253      614900
 3254              	.LASF15:
 3255 0439 75696E74 		.ascii	"uint8_t\000"
 3255      385F7400 
 3256              	.LASF118:
 3257 0441 6F6E6F74 		.ascii	"onotify\000"
 3257      69667900 
 3258              	.LASF63:
 3259 0449 4576656E 		.ascii	"EventListener\000"
 3259      744C6973 
 3259      74656E65 
 3259      7200
 3260              	.LASF72:
 3261 0457 77746F62 		.ascii	"wtobjp\000"
 3261      6A7000
 3262              	.LASF102:
 3263 045e 69717565 		.ascii	"iqueue\000"
 3263      756500
 3264              	.LASF124:
 3265 0465 474E5520 		.ascii	"GNU C 4.8.4 20141219 (release) -mcpu=cortex-m4 -mfl"
 3265      4320342E 
 3265      382E3420 
 3265      32303134 
 3265      31323139 
 3266 0498 6F61742D 		.ascii	"oat-abi=hard -mfpu=fpv4-sp-d16 -mno-thumb-interwork"
 3266      6162693D 
 3266      68617264 
 3266      202D6D66 
 3266      70753D66 
 3267 04cb 202D6D74 		.ascii	" -mthumb -ggdb -O0 -fomit-frame-pointer -falign-fun"
 3267      68756D62 
 3267      202D6767 
 3267      6462202D 
 3267      4F30202D 
 3268 04fe 6374696F 		.ascii	"ctions=16 -ffunction-sections -fdata-sections -fno-"
 3268      6E733D31 
 3268      36202D66 
 3268      66756E63 
 3268      74696F6E 
 3269 0531 636F6D6D 		.ascii	"common -fsingle-precision-constant\000"
 3269      6F6E202D 
 3269      6673696E 
 3269      676C652D 
 3269      70726563 
 3270              	.LASF125:
 3271 0554 2F686F6D 		.ascii	"/home/dave/r2p-sdk/core/ChibiOS/os/hal/src/serial.c"
 3271      652F6461 
 3271      76652F72 
 3271      32702D73 
 3271      646B2F63 
 3272 0587 00       		.ascii	"\000"
 3273              	.LASF105:
 3274 0588 636C6F63 		.ascii	"clock\000"
ARM GAS  /tmp/cckOgOXG.s 			page 63


 3274      6B00
 3275              	.LASF126:
 3276 058e 7364496E 		.ascii	"sdInit\000"
 3276      697400
 3277              	.LASF83:
 3278 0595 715F6C69 		.ascii	"q_link\000"
 3278      6E6B00
 3279              	.LASF61:
 3280 059c 6D5F6F77 		.ascii	"m_owner\000"
 3280      6E657200 
 3281              	.LASF35:
 3282 05a4 705F6374 		.ascii	"p_ctx\000"
 3282      7800
 3283              	.LASF45:
 3284 05aa 705F7761 		.ascii	"p_waiting\000"
 3284      6974696E 
 3284      6700
 3285              		.ident	"GCC: (4.8.4-1+11-1) 4.8.4 20141219 (release)"
ARM GAS  /tmp/cckOgOXG.s 			page 64


DEFINED SYMBOLS
                            *ABS*:0000000000000000 serial.c
     /tmp/cckOgOXG.s:21     .text.write:0000000000000000 $t
     /tmp/cckOgOXG.s:26     .text.write:0000000000000000 write
     /tmp/cckOgOXG.s:59     .text.read:0000000000000000 $t
     /tmp/cckOgOXG.s:64     .text.read:0000000000000000 read
     /tmp/cckOgOXG.s:96     .text.put:0000000000000000 $t
     /tmp/cckOgOXG.s:101    .text.put:0000000000000000 put
     /tmp/cckOgOXG.s:133    .text.get:0000000000000000 $t
     /tmp/cckOgOXG.s:138    .text.get:0000000000000000 get
     /tmp/cckOgOXG.s:166    .text.putt:0000000000000000 $t
     /tmp/cckOgOXG.s:171    .text.putt:0000000000000000 putt
     /tmp/cckOgOXG.s:204    .text.gett:0000000000000000 $t
     /tmp/cckOgOXG.s:209    .text.gett:0000000000000000 gett
     /tmp/cckOgOXG.s:238    .text.writet:0000000000000000 $t
     /tmp/cckOgOXG.s:243    .text.writet:0000000000000000 writet
     /tmp/cckOgOXG.s:276    .text.readt:0000000000000000 $t
     /tmp/cckOgOXG.s:281    .text.readt:0000000000000000 readt
     /tmp/cckOgOXG.s:314    .rodata.vmt:0000000000000000 $d
     /tmp/cckOgOXG.s:317    .rodata.vmt:0000000000000000 vmt
     /tmp/cckOgOXG.s:327    .text.sdInit:0000000000000000 $t
     /tmp/cckOgOXG.s:333    .text.sdInit:0000000000000000 sdInit
     /tmp/cckOgOXG.s:351    .text.sdObjectInit:0000000000000000 $t
     /tmp/cckOgOXG.s:357    .text.sdObjectInit:0000000000000000 sdObjectInit
     /tmp/cckOgOXG.s:415    .text.sdObjectInit:0000000000000060 $d
     /tmp/cckOgOXG.s:420    .rodata:0000000000000000 $d
     /tmp/cckOgOXG.s:427    .text.sdStart:0000000000000000 $t
     /tmp/cckOgOXG.s:433    .text.sdStart:0000000000000000 sdStart
     /tmp/cckOgOXG.s:500    .text.sdStart:0000000000000054 $d
     /tmp/cckOgOXG.s:513    .text.sdStop:0000000000000000 $t
     /tmp/cckOgOXG.s:519    .text.sdStop:0000000000000000 sdStop
     /tmp/cckOgOXG.s:596    .text.sdStop:0000000000000068 $d
     /tmp/cckOgOXG.s:606    .text.sdIncomingDataI:0000000000000000 $t
     /tmp/cckOgOXG.s:612    .text.sdIncomingDataI:0000000000000000 sdIncomingDataI
     /tmp/cckOgOXG.s:672    .text.sdIncomingDataI:000000000000005c $d
     /tmp/cckOgOXG.s:681    .text.sdRequestDataI:0000000000000000 $t
     /tmp/cckOgOXG.s:687    .text.sdRequestDataI:0000000000000000 sdRequestDataI
     /tmp/cckOgOXG.s:736    .text.sdRequestDataI:0000000000000040 $d
                     .debug_frame:0000000000000010 $d
     /tmp/cckOgOXG.s:419    .text.sdObjectInit:0000000000000064 $t
     /tmp/cckOgOXG.s:505    .text.sdStart:000000000000005c $t
     /tmp/cckOgOXG.s:740    .text.sdRequestDataI:0000000000000044 $t

UNDEFINED SYMBOLS
chOQWriteTimeout
chIQReadTimeout
chOQPutTimeout
chIQGetTimeout
sd_lld_init
chIQInit
chOQInit
chDbgPanic
dbg_check_lock
sd_lld_start
dbg_check_unlock
sd_lld_stop
chOQResetI
ARM GAS  /tmp/cckOgOXG.s 			page 65


chIQResetI
chSchRescheduleS
chDbgCheckClassI
chEvtBroadcastFlagsI
chIQPutI
chOQGetI
