ARM GAS  /tmp/ccHhvR3P.s 			page 1


   1              		.syntax unified
   2              		.cpu cortex-m4
   3              		.eabi_attribute 27, 3
   4              		.eabi_attribute 28, 1
   5              		.fpu fpv4-sp-d16
   6              		.eabi_attribute 20, 1
   7              		.eabi_attribute 21, 1
   8              		.eabi_attribute 23, 3
   9              		.eabi_attribute 24, 1
  10              		.eabi_attribute 25, 1
  11              		.eabi_attribute 26, 1
  12              		.eabi_attribute 30, 6
  13              		.eabi_attribute 34, 1
  14              		.eabi_attribute 18, 4
  15              		.thumb
  16              		.file	"shell.c"
  17              		.text
  18              	.Ltext0:
  19              		.cfi_sections	.debug_frame
  20              		.section	.text.chprintf,"ax",%progbits
  21              		.align	2
  22              		.p2align 4,,15
  23              		.thumb
  24              		.thumb_func
  25              		.type	chprintf, %function
  26              	chprintf:
  27              	.LFB118:
  28              		.file 1 "/home/dave/r2p-sdk/core/ChibiOS/os/various/chprintf.h"
  29              		.loc 1 69 0
  30              		.cfi_startproc
  31              		@ args = 4, pretend = 12, frame = 16
  32              		@ frame_needed = 0, uses_anonymous_args = 1
  33 0000 0EB4     		push	{r1, r2, r3}
  34              		.cfi_def_cfa_offset 12
  35              		.cfi_offset 1, -12
  36              		.cfi_offset 2, -8
  37              		.cfi_offset 3, -4
  38 0002 00B5     		push	{lr}
  39              		.cfi_def_cfa_offset 16
  40              		.cfi_offset 14, -16
  41 0004 84B0     		sub	sp, sp, #16
  42              		.cfi_def_cfa_offset 32
  43 0006 0190     		str	r0, [sp, #4]
  44              		.loc 1 72 0
  45 0008 06AB     		add	r3, sp, #24
  46 000a 0393     		str	r3, [sp, #12]
  47              		.loc 1 73 0
  48 000c 0198     		ldr	r0, [sp, #4]
  49 000e 0599     		ldr	r1, [sp, #20]
  50 0010 039A     		ldr	r2, [sp, #12]
  51 0012 FFF7FEFF 		bl	chvprintf
  52              		.loc 1 75 0
  53 0016 04B0     		add	sp, sp, #16
  54              		@ sp needed
  55 0018 5DF804EB 		ldr	lr, [sp], #4
  56 001c 03B0     		add	sp, sp, #12
  57 001e 7047     		bx	lr
ARM GAS  /tmp/ccHhvR3P.s 			page 2


  58              		.cfi_endproc
  59              	.LFE118:
  60              		.size	chprintf, .-chprintf
  61              		.global	shell_terminated
  62              		.section	.bss.shell_terminated,"aw",%nobits
  63              		.align	2
  64              		.type	shell_terminated, %object
  65              		.size	shell_terminated, 4
  66              	shell_terminated:
  67 0000 00000000 		.space	4
  68              		.section	.text._strtok,"ax",%progbits
  69              		.align	2
  70              		.p2align 4,,15
  71              		.thumb
  72              		.thumb_func
  73              		.type	_strtok, %function
  74              	_strtok:
  75              	.LFB119:
  76              		.file 2 "/home/dave/r2p-sdk/core/ChibiOS/os/various/shell.c"
  77              		.loc 2 37 0
  78              		.cfi_startproc
  79              		@ args = 0, pretend = 0, frame = 24
  80              		@ frame_needed = 0, uses_anonymous_args = 0
  81 0000 00B5     		push	{lr}
  82              		.cfi_def_cfa_offset 4
  83              		.cfi_offset 14, -4
  84 0002 87B0     		sub	sp, sp, #28
  85              		.cfi_def_cfa_offset 32
  86 0004 0390     		str	r0, [sp, #12]
  87 0006 0291     		str	r1, [sp, #8]
  88 0008 0192     		str	r2, [sp, #4]
  89              		.loc 2 39 0
  90 000a 039B     		ldr	r3, [sp, #12]
  91 000c 002B     		cmp	r3, #0
  92 000e 02D0     		beq	.L3
  93              		.loc 2 40 0
  94 0010 019B     		ldr	r3, [sp, #4]
  95 0012 039A     		ldr	r2, [sp, #12]
  96 0014 1A60     		str	r2, [r3]
  97              	.L3:
  98              		.loc 2 41 0
  99 0016 019B     		ldr	r3, [sp, #4]
 100 0018 1B68     		ldr	r3, [r3]
 101 001a 0593     		str	r3, [sp, #20]
 102              		.loc 2 43 0
 103 001c 059B     		ldr	r3, [sp, #20]
 104 001e 002B     		cmp	r3, #0
 105 0020 01D1     		bne	.L4
 106              		.loc 2 44 0
 107 0022 0023     		movs	r3, #0
 108 0024 20E0     		b	.L5
 109              	.L4:
 110              		.loc 2 46 0
 111 0026 0598     		ldr	r0, [sp, #20]
 112 0028 0299     		ldr	r1, [sp, #8]
 113 002a FFF7FEFF 		bl	strspn
 114 002e 0346     		mov	r3, r0
ARM GAS  /tmp/ccHhvR3P.s 			page 3


 115 0030 059A     		ldr	r2, [sp, #20]
 116 0032 1344     		add	r3, r3, r2
 117 0034 0593     		str	r3, [sp, #20]
 118              		.loc 2 47 0
 119 0036 0598     		ldr	r0, [sp, #20]
 120 0038 0299     		ldr	r1, [sp, #8]
 121 003a FFF7FEFF 		bl	strpbrk
 122 003e 0246     		mov	r2, r0
 123 0040 019B     		ldr	r3, [sp, #4]
 124 0042 1A60     		str	r2, [r3]
 125              		.loc 2 48 0
 126 0044 019B     		ldr	r3, [sp, #4]
 127 0046 1B68     		ldr	r3, [r3]
 128 0048 002B     		cmp	r3, #0
 129 004a 06D0     		beq	.L6
 130              		.loc 2 49 0
 131 004c 019B     		ldr	r3, [sp, #4]
 132 004e 1B68     		ldr	r3, [r3]
 133 0050 591C     		adds	r1, r3, #1
 134 0052 019A     		ldr	r2, [sp, #4]
 135 0054 1160     		str	r1, [r2]
 136 0056 0022     		movs	r2, #0
 137 0058 1A70     		strb	r2, [r3]
 138              	.L6:
 139              		.loc 2 51 0
 140 005a 059B     		ldr	r3, [sp, #20]
 141 005c 1B78     		ldrb	r3, [r3]	@ zero_extendqisi2
 142 005e 002B     		cmp	r3, #0
 143 0060 01D0     		beq	.L7
 144              		.loc 2 51 0 is_stmt 0 discriminator 1
 145 0062 059B     		ldr	r3, [sp, #20]
 146 0064 00E0     		b	.L8
 147              	.L7:
 148              		.loc 2 51 0 discriminator 2
 149 0066 0023     		movs	r3, #0
 150              	.L8:
 151              	.L5:
 152              		.loc 2 52 0 is_stmt 1
 153 0068 1846     		mov	r0, r3
 154 006a 07B0     		add	sp, sp, #28
 155              		@ sp needed
 156 006c 5DF804FB 		ldr	pc, [sp], #4
 157              		.cfi_endproc
 158              	.LFE119:
 159              		.size	_strtok, .-_strtok
 160              		.section	.rodata
 161              		.align	2
 162              	.LC0:
 163 0000 55736167 		.ascii	"Usage: %s\015\012\000"
 163      653A2025 
 163      730D0A00 
 164              		.section	.text.usage,"ax",%progbits
 165              		.align	2
 166              		.p2align 4,,15
 167              		.thumb
 168              		.thumb_func
 169              		.type	usage, %function
ARM GAS  /tmp/ccHhvR3P.s 			page 4


 170              	usage:
 171              	.LFB120:
 172              		.loc 2 54 0
 173              		.cfi_startproc
 174              		@ args = 0, pretend = 0, frame = 8
 175              		@ frame_needed = 0, uses_anonymous_args = 0
 176 0000 00B5     		push	{lr}
 177              		.cfi_def_cfa_offset 4
 178              		.cfi_offset 14, -4
 179 0002 83B0     		sub	sp, sp, #12
 180              		.cfi_def_cfa_offset 16
 181 0004 0190     		str	r0, [sp, #4]
 182 0006 0091     		str	r1, [sp]
 183              		.loc 2 56 0
 184 0008 0198     		ldr	r0, [sp, #4]
 185 000a 0349     		ldr	r1, .L10
 186 000c 009A     		ldr	r2, [sp]
 187 000e FFF7FEFF 		bl	chprintf
 188              		.loc 2 57 0
 189 0012 03B0     		add	sp, sp, #12
 190              		@ sp needed
 191 0014 5DF804FB 		ldr	pc, [sp], #4
 192              	.L11:
 193              		.align	2
 194              	.L10:
 195 0018 00000000 		.word	.LC0
 196              		.cfi_endproc
 197              	.LFE120:
 198              		.size	usage, .-usage
 199 001c AFF30080 		.section	.rodata
 200              		.align	2
 201              	.LC1:
 202 000c 25732000 		.ascii	"%s \000"
 203              		.section	.text.list_commands,"ax",%progbits
 204              		.align	2
 205              		.p2align 4,,15
 206              		.thumb
 207              		.thumb_func
 208              		.type	list_commands, %function
 209              	list_commands:
 210              	.LFB121:
 211              		.loc 2 59 0
 212              		.cfi_startproc
 213              		@ args = 0, pretend = 0, frame = 8
 214              		@ frame_needed = 0, uses_anonymous_args = 0
 215 0000 00B5     		push	{lr}
 216              		.cfi_def_cfa_offset 4
 217              		.cfi_offset 14, -4
 218 0002 83B0     		sub	sp, sp, #12
 219              		.cfi_def_cfa_offset 16
 220 0004 0190     		str	r0, [sp, #4]
 221 0006 0091     		str	r1, [sp]
 222              		.loc 2 61 0
 223 0008 09E0     		b	.L13
 224              	.L14:
 225              		.loc 2 62 0
 226 000a 009B     		ldr	r3, [sp]
ARM GAS  /tmp/ccHhvR3P.s 			page 5


 227 000c 1B68     		ldr	r3, [r3]
 228 000e 0198     		ldr	r0, [sp, #4]
 229 0010 0649     		ldr	r1, .L15
 230 0012 1A46     		mov	r2, r3
 231 0014 FFF7FEFF 		bl	chprintf
 232              		.loc 2 63 0
 233 0018 009B     		ldr	r3, [sp]
 234 001a 0833     		adds	r3, r3, #8
 235 001c 0093     		str	r3, [sp]
 236              	.L13:
 237              		.loc 2 61 0 discriminator 1
 238 001e 009B     		ldr	r3, [sp]
 239 0020 1B68     		ldr	r3, [r3]
 240 0022 002B     		cmp	r3, #0
 241 0024 F1D1     		bne	.L14
 242              		.loc 2 65 0
 243 0026 03B0     		add	sp, sp, #12
 244              		@ sp needed
 245 0028 5DF804FB 		ldr	pc, [sp], #4
 246              	.L16:
 247              		.align	2
 248              	.L15:
 249 002c 0C000000 		.word	.LC1
 250              		.cfi_endproc
 251              	.LFE121:
 252              		.size	list_commands, .-list_commands
 253              		.section	.rodata
 254              		.align	2
 255              	.LC2:
 256 0010 696E666F 		.ascii	"info\000"
 256      00
 257 0015 000000   		.align	2
 258              	.LC3:
 259 0018 4B65726E 		.ascii	"Kernel:       %s\015\012\000"
 259      656C3A20 
 259      20202020 
 259      20202573 
 259      0D0A00
 260 002b 00       		.align	2
 261              	.LC4:
 262 002c 322E362E 		.ascii	"2.6.5\000"
 262      3500
 263 0032 0000     		.align	2
 264              	.LC5:
 265 0034 436F6D70 		.ascii	"Compiler:     %s\015\012\000"
 265      696C6572 
 265      3A202020 
 265      20202573 
 265      0D0A00
 266 0047 00       		.align	2
 267              	.LC6:
 268 0048 47434320 		.ascii	"GCC 4.8.4 20141219 (release)\000"
 268      342E382E 
 268      34203230 
 268      31343132 
 268      31392028 
 269 0065 000000   		.align	2
ARM GAS  /tmp/ccHhvR3P.s 			page 6


 270              	.LC7:
 271 0068 41726368 		.ascii	"Architecture: %s\015\012\000"
 271      69746563 
 271      74757265 
 271      3A202573 
 271      0D0A00
 272 007b 00       		.align	2
 273              	.LC8:
 274 007c 41524D76 		.ascii	"ARMv7-ME\000"
 274      372D4D45 
 274      00
 275 0085 000000   		.align	2
 276              	.LC9:
 277 0088 436F7265 		.ascii	"Core Variant: %s\015\012\000"
 277      20566172 
 277      69616E74 
 277      3A202573 
 277      0D0A00
 278 009b 00       		.align	2
 279              	.LC10:
 280 009c 436F7274 		.ascii	"Cortex-M4F\000"
 280      65782D4D 
 280      344600
 281 00a7 00       		.align	2
 282              	.LC11:
 283 00a8 506F7274 		.ascii	"Port Info:    %s\015\012\000"
 283      20496E66 
 283      6F3A2020 
 283      20202573 
 283      0D0A00
 284 00bb 00       		.align	2
 285              	.LC12:
 286 00bc 41647661 		.ascii	"Advanced kernel mode\000"
 286      6E636564 
 286      206B6572 
 286      6E656C20 
 286      6D6F6465 
 287 00d1 000000   		.align	2
 288              	.LC13:
 289 00d4 506C6174 		.ascii	"Platform:     %s\015\012\000"
 289      666F726D 
 289      3A202020 
 289      20202573 
 289      0D0A00
 290 00e7 00       		.align	2
 291              	.LC14:
 292 00e8 53544D33 		.ascii	"STM32F30x Analog & DSP\000"
 292      32463330 
 292      7820416E 
 292      616C6F67 
 292      20262044 
 293 00ff 00       		.align	2
 294              	.LC15:
 295 0100 426F6172 		.ascii	"Board:        %s\015\012\000"
 295      643A2020 
 295      20202020 
 295      20202573 
ARM GAS  /tmp/ccHhvR3P.s 			page 7


 295      0D0A00
 296 0113 00       		.align	2
 297              	.LC16:
 298 0114 52325020 		.ascii	"R2P USB module\000"
 298      55534220 
 298      6D6F6475 
 298      6C6500
 299 0123 00       		.align	2
 300              	.LC17:
 301 0124 4275696C 		.ascii	"Build time:   %s%s%s\015\012\000"
 301      64207469 
 301      6D653A20 
 301      20202573 
 301      25732573 
 302 013b 00       		.align	2
 303              	.LC18:
 304 013c 4F637420 		.ascii	"Oct 27 2015\000"
 304      32372032 
 304      30313500 
 305              		.align	2
 306              	.LC19:
 307 0148 202D2000 		.ascii	" - \000"
 308              		.align	2
 309              	.LC20:
 310 014c 31343A35 		.ascii	"14:51:37\000"
 310      313A3337 
 310      00
 311              		.section	.text.cmd_info,"ax",%progbits
 312              		.align	2
 313              		.p2align 4,,15
 314              		.thumb
 315              		.thumb_func
 316              		.type	cmd_info, %function
 317              	cmd_info:
 318              	.LFB122:
 319              		.loc 2 67 0
 320              		.cfi_startproc
 321              		@ args = 0, pretend = 0, frame = 16
 322              		@ frame_needed = 0, uses_anonymous_args = 0
 323 0000 00B5     		push	{lr}
 324              		.cfi_def_cfa_offset 4
 325              		.cfi_offset 14, -4
 326 0002 87B0     		sub	sp, sp, #28
 327              		.cfi_def_cfa_offset 32
 328 0004 0590     		str	r0, [sp, #20]
 329 0006 0491     		str	r1, [sp, #16]
 330 0008 0392     		str	r2, [sp, #12]
 331              		.loc 2 70 0
 332 000a 049B     		ldr	r3, [sp, #16]
 333 000c 002B     		cmp	r3, #0
 334 000e 04DD     		ble	.L18
 335              		.loc 2 71 0
 336 0010 0598     		ldr	r0, [sp, #20]
 337 0012 1949     		ldr	r1, .L20
 338 0014 FFF7FEFF 		bl	usage
 339              		.loc 2 72 0
 340 0018 2AE0     		b	.L17
ARM GAS  /tmp/ccHhvR3P.s 			page 8


 341              	.L18:
 342              		.loc 2 75 0
 343 001a 0598     		ldr	r0, [sp, #20]
 344 001c 1749     		ldr	r1, .L20+4
 345 001e 184A     		ldr	r2, .L20+8
 346 0020 FFF7FEFF 		bl	chprintf
 347              		.loc 2 77 0
 348 0024 0598     		ldr	r0, [sp, #20]
 349 0026 1749     		ldr	r1, .L20+12
 350 0028 174A     		ldr	r2, .L20+16
 351 002a FFF7FEFF 		bl	chprintf
 352              		.loc 2 79 0
 353 002e 0598     		ldr	r0, [sp, #20]
 354 0030 1649     		ldr	r1, .L20+20
 355 0032 174A     		ldr	r2, .L20+24
 356 0034 FFF7FEFF 		bl	chprintf
 357              		.loc 2 81 0
 358 0038 0598     		ldr	r0, [sp, #20]
 359 003a 1649     		ldr	r1, .L20+28
 360 003c 164A     		ldr	r2, .L20+32
 361 003e FFF7FEFF 		bl	chprintf
 362              		.loc 2 84 0
 363 0042 0598     		ldr	r0, [sp, #20]
 364 0044 1549     		ldr	r1, .L20+36
 365 0046 164A     		ldr	r2, .L20+40
 366 0048 FFF7FEFF 		bl	chprintf
 367              		.loc 2 87 0
 368 004c 0598     		ldr	r0, [sp, #20]
 369 004e 1549     		ldr	r1, .L20+44
 370 0050 154A     		ldr	r2, .L20+48
 371 0052 FFF7FEFF 		bl	chprintf
 372              		.loc 2 90 0
 373 0056 0598     		ldr	r0, [sp, #20]
 374 0058 1449     		ldr	r1, .L20+52
 375 005a 154A     		ldr	r2, .L20+56
 376 005c FFF7FEFF 		bl	chprintf
 377              		.loc 2 94 0
 378 0060 144B     		ldr	r3, .L20+60
 379 0062 0093     		str	r3, [sp]
 380 0064 0598     		ldr	r0, [sp, #20]
 381 0066 1449     		ldr	r1, .L20+64
 382 0068 144A     		ldr	r2, .L20+68
 383 006a 154B     		ldr	r3, .L20+72
 384 006c FFF7FEFF 		bl	chprintf
 385              	.L17:
 386              		.loc 2 97 0
 387 0070 07B0     		add	sp, sp, #28
 388              		@ sp needed
 389 0072 5DF804FB 		ldr	pc, [sp], #4
 390              	.L21:
 391 0076 00BF     		.align	2
 392              	.L20:
 393 0078 10000000 		.word	.LC2
 394 007c 18000000 		.word	.LC3
 395 0080 2C000000 		.word	.LC4
 396 0084 34000000 		.word	.LC5
 397 0088 48000000 		.word	.LC6
ARM GAS  /tmp/ccHhvR3P.s 			page 9


 398 008c 68000000 		.word	.LC7
 399 0090 7C000000 		.word	.LC8
 400 0094 88000000 		.word	.LC9
 401 0098 9C000000 		.word	.LC10
 402 009c A8000000 		.word	.LC11
 403 00a0 BC000000 		.word	.LC12
 404 00a4 D4000000 		.word	.LC13
 405 00a8 E8000000 		.word	.LC14
 406 00ac 00010000 		.word	.LC15
 407 00b0 14010000 		.word	.LC16
 408 00b4 4C010000 		.word	.LC20
 409 00b8 24010000 		.word	.LC17
 410 00bc 3C010000 		.word	.LC18
 411 00c0 48010000 		.word	.LC19
 412              		.cfi_endproc
 413              	.LFE122:
 414              		.size	cmd_info, .-cmd_info
 415 00c4 AFF30080 		.section	.rodata
 415      AFF30080 
 415      AFF30080 
 416 0155 000000   		.align	2
 417              	.LC21:
 418 0158 73797374 		.ascii	"systime\000"
 418      696D6500 
 419              		.align	2
 420              	.LC22:
 421 0160 256C750D 		.ascii	"%lu\015\012\000"
 421      0A00
 422              		.section	.text.cmd_systime,"ax",%progbits
 423              		.align	2
 424              		.p2align 4,,15
 425              		.thumb
 426              		.thumb_func
 427              		.type	cmd_systime, %function
 428              	cmd_systime:
 429              	.LFB123:
 430              		.loc 2 99 0
 431              		.cfi_startproc
 432              		@ args = 0, pretend = 0, frame = 16
 433              		@ frame_needed = 0, uses_anonymous_args = 0
 434 0000 00B5     		push	{lr}
 435              		.cfi_def_cfa_offset 4
 436              		.cfi_offset 14, -4
 437 0002 85B0     		sub	sp, sp, #20
 438              		.cfi_def_cfa_offset 24
 439 0004 0390     		str	r0, [sp, #12]
 440 0006 0291     		str	r1, [sp, #8]
 441 0008 0192     		str	r2, [sp, #4]
 442              		.loc 2 102 0
 443 000a 029B     		ldr	r3, [sp, #8]
 444 000c 002B     		cmp	r3, #0
 445 000e 04DD     		ble	.L23
 446              		.loc 2 103 0
 447 0010 0398     		ldr	r0, [sp, #12]
 448 0012 0749     		ldr	r1, .L25
 449 0014 FFF7FEFF 		bl	usage
 450              		.loc 2 104 0
ARM GAS  /tmp/ccHhvR3P.s 			page 10


 451 0018 06E0     		b	.L22
 452              	.L23:
 453              		.loc 2 106 0
 454 001a 064B     		ldr	r3, .L25+4
 455 001c DB68     		ldr	r3, [r3, #12]
 456 001e 0398     		ldr	r0, [sp, #12]
 457 0020 0549     		ldr	r1, .L25+8
 458 0022 1A46     		mov	r2, r3
 459 0024 FFF7FEFF 		bl	chprintf
 460              	.L22:
 461              		.loc 2 107 0
 462 0028 05B0     		add	sp, sp, #20
 463              		@ sp needed
 464 002a 5DF804FB 		ldr	pc, [sp], #4
 465              	.L26:
 466 002e 00BF     		.align	2
 467              	.L25:
 468 0030 58010000 		.word	.LC21
 469 0034 00000000 		.word	vtlist
 470 0038 60010000 		.word	.LC22
 471              		.cfi_endproc
 472              	.LFE123:
 473              		.size	cmd_systime, .-cmd_systime
 474 003c AFF30080 		.section	.data.local_commands,"aw",%progbits
 475              		.align	2
 476              		.type	local_commands, %object
 477              		.size	local_commands, 24
 478              	local_commands:
 479 0000 10000000 		.word	.LC2
 480 0004 00000000 		.word	cmd_info
 481 0008 58010000 		.word	.LC21
 482 000c 00000000 		.word	cmd_systime
 483 0010 00000000 		.word	0
 484 0014 00000000 		.word	0
 485              		.section	.text.cmdexec,"ax",%progbits
 486              		.align	2
 487              		.p2align 4,,15
 488              		.thumb
 489              		.thumb_func
 490              		.type	cmdexec, %function
 491              	cmdexec:
 492              	.LFB124:
 493              		.loc 2 119 0
 494              		.cfi_startproc
 495              		@ args = 4, pretend = 0, frame = 16
 496              		@ frame_needed = 0, uses_anonymous_args = 0
 497 0000 00B5     		push	{lr}
 498              		.cfi_def_cfa_offset 4
 499              		.cfi_offset 14, -4
 500 0002 85B0     		sub	sp, sp, #20
 501              		.cfi_def_cfa_offset 24
 502 0004 0390     		str	r0, [sp, #12]
 503 0006 0291     		str	r1, [sp, #8]
 504 0008 0192     		str	r2, [sp, #4]
 505 000a 0093     		str	r3, [sp]
 506              		.loc 2 121 0
 507 000c 13E0     		b	.L28
ARM GAS  /tmp/ccHhvR3P.s 			page 11


 508              	.L31:
 509              		.loc 2 122 0
 510 000e 039B     		ldr	r3, [sp, #12]
 511 0010 1B68     		ldr	r3, [r3]
 512 0012 1846     		mov	r0, r3
 513 0014 0199     		ldr	r1, [sp, #4]
 514 0016 FFF7FEFF 		bl	strcasecmp
 515 001a 0346     		mov	r3, r0
 516 001c 002B     		cmp	r3, #0
 517 001e 07D1     		bne	.L29
 518              		.loc 2 123 0
 519 0020 039B     		ldr	r3, [sp, #12]
 520 0022 5B68     		ldr	r3, [r3, #4]
 521 0024 0298     		ldr	r0, [sp, #8]
 522 0026 0099     		ldr	r1, [sp]
 523 0028 069A     		ldr	r2, [sp, #24]
 524 002a 9847     		blx	r3
 525              		.loc 2 124 0
 526 002c 0023     		movs	r3, #0
 527 002e 07E0     		b	.L30
 528              	.L29:
 529              		.loc 2 126 0
 530 0030 039B     		ldr	r3, [sp, #12]
 531 0032 0833     		adds	r3, r3, #8
 532 0034 0393     		str	r3, [sp, #12]
 533              	.L28:
 534              		.loc 2 121 0 discriminator 1
 535 0036 039B     		ldr	r3, [sp, #12]
 536 0038 1B68     		ldr	r3, [r3]
 537 003a 002B     		cmp	r3, #0
 538 003c E7D1     		bne	.L31
 539              		.loc 2 128 0
 540 003e 0123     		movs	r3, #1
 541              	.L30:
 542              		.loc 2 129 0
 543 0040 1846     		mov	r0, r3
 544 0042 05B0     		add	sp, sp, #20
 545              		@ sp needed
 546 0044 5DF804FB 		ldr	pc, [sp], #4
 547              		.cfi_endproc
 548              	.LFE124:
 549              		.size	cmdexec, .-cmdexec
 550 0048 AFF30080 		.section	.rodata
 550      AFF30080 
 551 0166 0000     		.align	2
 552              	.LC23:
 553 0168 7368656C 		.ascii	"shell\000"
 553      6C00
 554 016e 0000     		.align	2
 555              	.LC24:
 556 0170 0D0A4368 		.ascii	"\015\012ChibiOS/RT Shell\015\012\000"
 556      6962694F 
 556      532F5254 
 556      20536865 
 556      6C6C0D0A 
 557 0185 000000   		.align	2
 558              	.LC25:
ARM GAS  /tmp/ccHhvR3P.s 			page 12


 559 0188 63683E20 		.ascii	"ch> \000"
 559      00
 560 018d 000000   		.align	2
 561              	.LC26:
 562 0190 0D0A6C6F 		.ascii	"\015\012logout\000"
 562      676F7574 
 562      00
 563 0199 000000   		.align	2
 564              	.LC27:
 565 019c 200900   		.ascii	" \011\000"
 566 019f 00       		.align	2
 567              	.LC28:
 568 01a0 746F6F20 		.ascii	"too many arguments\015\012\000"
 568      6D616E79 
 568      20617267 
 568      756D656E 
 568      74730D0A 
 569 01b5 000000   		.align	2
 570              	.LC29:
 571 01b8 65786974 		.ascii	"exit\000"
 571      00
 572 01bd 000000   		.align	2
 573              	.LC30:
 574 01c0 68656C70 		.ascii	"help\000"
 574      00
 575 01c5 000000   		.align	2
 576              	.LC31:
 577 01c8 436F6D6D 		.ascii	"Commands: help exit \000"
 577      616E6473 
 577      3A206865 
 577      6C702065 
 577      78697420 
 578 01dd 000000   		.align	2
 579              	.LC32:
 580 01e0 0D0A00   		.ascii	"\015\012\000"
 581 01e3 00       		.align	2
 582              	.LC33:
 583 01e4 257300   		.ascii	"%s\000"
 584 01e7 00       		.align	2
 585              	.LC34:
 586 01e8 203F0D0A 		.ascii	" ?\015\012\000"
 586      00
 587              		.section	.text.shell_thread,"ax",%progbits
 588              		.align	2
 589              		.p2align 4,,15
 590              		.thumb
 591              		.thumb_func
 592              		.type	shell_thread, %function
 593              	shell_thread:
 594              	.LFB125:
 595              		.loc 2 141 0
 596              		.cfi_startproc
 597              		@ args = 0, pretend = 0, frame = 120
 598              		@ frame_needed = 0, uses_anonymous_args = 0
 599 0000 00B5     		push	{lr}
 600              		.cfi_def_cfa_offset 4
 601              		.cfi_offset 14, -4
ARM GAS  /tmp/ccHhvR3P.s 			page 13


 602 0002 A1B0     		sub	sp, sp, #132
 603              		.cfi_def_cfa_offset 136
 604 0004 0390     		str	r0, [sp, #12]
 605              		.loc 2 143 0
 606 0006 039B     		ldr	r3, [sp, #12]
 607 0008 1B68     		ldr	r3, [r3]
 608 000a 1D93     		str	r3, [sp, #116]
 609              		.loc 2 144 0
 610 000c 039B     		ldr	r3, [sp, #12]
 611 000e 5B68     		ldr	r3, [r3, #4]
 612 0010 1C93     		str	r3, [sp, #112]
 613              		.loc 2 148 0
 614 0012 564B     		ldr	r3, .L48
 615 0014 9B69     		ldr	r3, [r3, #24]
 616 0016 564A     		ldr	r2, .L48+4
 617 0018 9A61     		str	r2, [r3, #24]
 618              		.loc 2 149 0
 619 001a 1D98     		ldr	r0, [sp, #116]
 620 001c 5549     		ldr	r1, .L48+8
 621 001e FFF7FEFF 		bl	chprintf
 622              	.L46:
 623              		.loc 2 151 0
 624 0022 1D98     		ldr	r0, [sp, #116]
 625 0024 5449     		ldr	r1, .L48+12
 626 0026 FFF7FEFF 		bl	chprintf
 627              		.loc 2 152 0
 628 002a 0AAB     		add	r3, sp, #40
 629 002c 1D98     		ldr	r0, [sp, #116]
 630 002e 1946     		mov	r1, r3
 631 0030 4022     		movs	r2, #64
 632 0032 FFF7FEFF 		bl	shellGetLine
 633 0036 0346     		mov	r3, r0
 634 0038 002B     		cmp	r3, #0
 635 003a 04D0     		beq	.L33
 636              		.loc 2 153 0
 637 003c 1D98     		ldr	r0, [sp, #116]
 638 003e 4F49     		ldr	r1, .L48+16
 639 0040 FFF7FEFF 		bl	chprintf
 640              		.loc 2 154 0
 641 0044 8AE0     		b	.L34
 642              	.L33:
 643              		.loc 2 156 0
 644 0046 0AAA     		add	r2, sp, #40
 645 0048 1AAB     		add	r3, sp, #104
 646 004a 1046     		mov	r0, r2
 647 004c 4C49     		ldr	r1, .L48+20
 648 004e 1A46     		mov	r2, r3
 649 0050 FFF7FEFF 		bl	_strtok
 650 0054 1B90     		str	r0, [sp, #108]
 651              		.loc 2 157 0
 652 0056 1B9B     		ldr	r3, [sp, #108]
 653 0058 1E93     		str	r3, [sp, #120]
 654              		.loc 2 158 0
 655 005a 0023     		movs	r3, #0
 656 005c 1F93     		str	r3, [sp, #124]
 657              		.loc 2 159 0
 658 005e 12E0     		b	.L35
ARM GAS  /tmp/ccHhvR3P.s 			page 14


 659              	.L38:
 660              		.loc 2 160 0
 661 0060 1F9B     		ldr	r3, [sp, #124]
 662 0062 032B     		cmp	r3, #3
 663 0064 06DD     		ble	.L36
 664              		.loc 2 161 0
 665 0066 1D98     		ldr	r0, [sp, #116]
 666 0068 4649     		ldr	r1, .L48+24
 667 006a FFF7FEFF 		bl	chprintf
 668              		.loc 2 162 0
 669 006e 0023     		movs	r3, #0
 670 0070 1E93     		str	r3, [sp, #120]
 671              		.loc 2 163 0
 672 0072 12E0     		b	.L37
 673              	.L36:
 674              		.loc 2 165 0
 675 0074 1F9B     		ldr	r3, [sp, #124]
 676 0076 5A1C     		adds	r2, r3, #1
 677 0078 1F92     		str	r2, [sp, #124]
 678 007a 9B00     		lsls	r3, r3, #2
 679 007c 20AA     		add	r2, sp, #128
 680 007e 1344     		add	r3, r3, r2
 681 0080 1B9A     		ldr	r2, [sp, #108]
 682 0082 43F86C2C 		str	r2, [r3, #-108]
 683              	.L35:
 684              		.loc 2 159 0 discriminator 1
 685 0086 1AAB     		add	r3, sp, #104
 686 0088 0020     		movs	r0, #0
 687 008a 3D49     		ldr	r1, .L48+20
 688 008c 1A46     		mov	r2, r3
 689 008e FFF7FEFF 		bl	_strtok
 690 0092 1B90     		str	r0, [sp, #108]
 691 0094 1B9B     		ldr	r3, [sp, #108]
 692 0096 002B     		cmp	r3, #0
 693 0098 E2D1     		bne	.L38
 694              	.L37:
 695              		.loc 2 167 0
 696 009a 1F9B     		ldr	r3, [sp, #124]
 697 009c 9B00     		lsls	r3, r3, #2
 698 009e 20AA     		add	r2, sp, #128
 699 00a0 1344     		add	r3, r3, r2
 700 00a2 0022     		movs	r2, #0
 701 00a4 43F86C2C 		str	r2, [r3, #-108]
 702              		.loc 2 168 0
 703 00a8 1E9B     		ldr	r3, [sp, #120]
 704 00aa 002B     		cmp	r3, #0
 705 00ac 55D0     		beq	.L39
 706              		.loc 2 169 0
 707 00ae 1E98     		ldr	r0, [sp, #120]
 708 00b0 3549     		ldr	r1, .L48+28
 709 00b2 FFF7FEFF 		bl	strcasecmp
 710 00b6 0346     		mov	r3, r0
 711 00b8 002B     		cmp	r3, #0
 712 00ba 08D1     		bne	.L40
 713              		.loc 2 170 0
 714 00bc 1F9B     		ldr	r3, [sp, #124]
 715 00be 002B     		cmp	r3, #0
ARM GAS  /tmp/ccHhvR3P.s 			page 15


 716 00c0 04DD     		ble	.L41
 717              		.loc 2 171 0
 718 00c2 1D98     		ldr	r0, [sp, #116]
 719 00c4 3049     		ldr	r1, .L48+28
 720 00c6 FFF7FEFF 		bl	usage
 721              		.loc 2 172 0
 722 00ca 46E0     		b	.L39
 723              	.L41:
 724              		.loc 2 174 0
 725 00cc 46E0     		b	.L34
 726              	.L40:
 727              		.loc 2 176 0
 728 00ce 1E98     		ldr	r0, [sp, #120]
 729 00d0 2E49     		ldr	r1, .L48+32
 730 00d2 FFF7FEFF 		bl	strcasecmp
 731 00d6 0346     		mov	r3, r0
 732 00d8 002B     		cmp	r3, #0
 733 00da 1BD1     		bne	.L42
 734              		.loc 2 177 0
 735 00dc 1F9B     		ldr	r3, [sp, #124]
 736 00de 002B     		cmp	r3, #0
 737 00e0 04DD     		ble	.L43
 738              		.loc 2 178 0
 739 00e2 1D98     		ldr	r0, [sp, #116]
 740 00e4 2949     		ldr	r1, .L48+32
 741 00e6 FFF7FEFF 		bl	usage
 742              		.loc 2 179 0
 743 00ea 36E0     		b	.L39
 744              	.L43:
 745              		.loc 2 181 0
 746 00ec 1D98     		ldr	r0, [sp, #116]
 747 00ee 2849     		ldr	r1, .L48+36
 748 00f0 FFF7FEFF 		bl	chprintf
 749              		.loc 2 182 0
 750 00f4 1D98     		ldr	r0, [sp, #116]
 751 00f6 2749     		ldr	r1, .L48+40
 752 00f8 FFF7FEFF 		bl	list_commands
 753              		.loc 2 183 0
 754 00fc 1C9B     		ldr	r3, [sp, #112]
 755 00fe 002B     		cmp	r3, #0
 756 0100 03D0     		beq	.L44
 757              		.loc 2 184 0
 758 0102 1D98     		ldr	r0, [sp, #116]
 759 0104 1C99     		ldr	r1, [sp, #112]
 760 0106 FFF7FEFF 		bl	list_commands
 761              	.L44:
 762              		.loc 2 185 0
 763 010a 1D98     		ldr	r0, [sp, #116]
 764 010c 2249     		ldr	r1, .L48+44
 765 010e FFF7FEFF 		bl	chprintf
 766 0112 22E0     		b	.L39
 767              	.L42:
 768              		.loc 2 187 0
 769 0114 05AB     		add	r3, sp, #20
 770 0116 0093     		str	r3, [sp]
 771 0118 1E48     		ldr	r0, .L48+40
 772 011a 1D99     		ldr	r1, [sp, #116]
ARM GAS  /tmp/ccHhvR3P.s 			page 16


 773 011c 1E9A     		ldr	r2, [sp, #120]
 774 011e 1F9B     		ldr	r3, [sp, #124]
 775 0120 FFF7FEFF 		bl	cmdexec
 776 0124 0346     		mov	r3, r0
 777 0126 002B     		cmp	r3, #0
 778 0128 17D0     		beq	.L39
 779              		.loc 2 187 0 is_stmt 0 discriminator 1
 780 012a 1C9B     		ldr	r3, [sp, #112]
 781 012c 002B     		cmp	r3, #0
 782 012e 0AD0     		beq	.L45
 783              		.loc 2 188 0 is_stmt 1
 784 0130 05AB     		add	r3, sp, #20
 785 0132 0093     		str	r3, [sp]
 786 0134 1C98     		ldr	r0, [sp, #112]
 787 0136 1D99     		ldr	r1, [sp, #116]
 788 0138 1E9A     		ldr	r2, [sp, #120]
 789 013a 1F9B     		ldr	r3, [sp, #124]
 790 013c FFF7FEFF 		bl	cmdexec
 791 0140 0346     		mov	r3, r0
 792 0142 002B     		cmp	r3, #0
 793 0144 09D0     		beq	.L39
 794              	.L45:
 795              		.loc 2 189 0
 796 0146 1D98     		ldr	r0, [sp, #116]
 797 0148 1449     		ldr	r1, .L48+48
 798 014a 1E9A     		ldr	r2, [sp, #120]
 799 014c FFF7FEFF 		bl	chprintf
 800              		.loc 2 190 0
 801 0150 1D98     		ldr	r0, [sp, #116]
 802 0152 1349     		ldr	r1, .L48+52
 803 0154 FFF7FEFF 		bl	chprintf
 804              		.loc 2 193 0
 805 0158 63E7     		b	.L46
 806              	.L39:
 807 015a 62E7     		b	.L46
 808              	.L34:
 809              		.loc 2 194 0
 810 015c 0020     		movs	r0, #0
 811 015e FFF7FEFF 		bl	shellExit
 812              		.loc 2 196 0
 813 0162 0023     		movs	r3, #0
 814              		.loc 2 197 0
 815 0164 1846     		mov	r0, r3
 816 0166 21B0     		add	sp, sp, #132
 817              		@ sp needed
 818 0168 5DF804FB 		ldr	pc, [sp], #4
 819              	.L49:
 820              		.align	2
 821              	.L48:
 822 016c 00000000 		.word	rlist
 823 0170 68010000 		.word	.LC23
 824 0174 70010000 		.word	.LC24
 825 0178 88010000 		.word	.LC25
 826 017c 90010000 		.word	.LC26
 827 0180 9C010000 		.word	.LC27
 828 0184 A0010000 		.word	.LC28
 829 0188 B8010000 		.word	.LC29
ARM GAS  /tmp/ccHhvR3P.s 			page 17


 830 018c C0010000 		.word	.LC30
 831 0190 C8010000 		.word	.LC31
 832 0194 00000000 		.word	local_commands
 833 0198 E0010000 		.word	.LC32
 834 019c E4010000 		.word	.LC33
 835 01a0 E8010000 		.word	.LC34
 836              		.cfi_endproc
 837              	.LFE125:
 838              		.size	shell_thread, .-shell_thread
 839 01a4 AFF30080 		.section	.text.shellInit,"ax",%progbits
 839      AFF30080 
 839      AFF30080 
 840              		.align	2
 841              		.p2align 4,,15
 842              		.global	shellInit
 843              		.thumb
 844              		.thumb_func
 845              		.type	shellInit, %function
 846              	shellInit:
 847              	.LFB126:
 848              		.loc 2 204 0
 849              		.cfi_startproc
 850              		@ args = 0, pretend = 0, frame = 0
 851              		@ frame_needed = 0, uses_anonymous_args = 0
 852              		@ link register save eliminated.
 853              		.loc 2 206 0
 854 0000 014B     		ldr	r3, .L51
 855 0002 014A     		ldr	r2, .L51
 856 0004 1A60     		str	r2, [r3]
 857              		.loc 2 207 0
 858 0006 7047     		bx	lr
 859              	.L52:
 860              		.align	2
 861              	.L51:
 862 0008 00000000 		.word	shell_terminated
 863              		.cfi_endproc
 864              	.LFE126:
 865              		.size	shellInit, .-shellInit
 866 000c AFF30080 		.section	.text.shellExit,"ax",%progbits
 867              		.align	2
 868              		.p2align 4,,15
 869              		.global	shellExit
 870              		.thumb
 871              		.thumb_func
 872              		.type	shellExit, %function
 873              	shellExit:
 874              	.LFB127:
 875              		.loc 2 218 0
 876              		.cfi_startproc
 877              		@ args = 0, pretend = 0, frame = 8
 878              		@ frame_needed = 0, uses_anonymous_args = 0
 879 0000 00B5     		push	{lr}
 880              		.cfi_def_cfa_offset 4
 881              		.cfi_offset 14, -4
 882 0002 83B0     		sub	sp, sp, #12
 883              		.cfi_def_cfa_offset 16
 884 0004 0190     		str	r0, [sp, #4]
ARM GAS  /tmp/ccHhvR3P.s 			page 18


 885              	.LBB2:
 886              		.loc 2 222 0
 887 0006 2023     		movs	r3, #32
 888              	@ 222 "/home/dave/r2p-sdk/core/ChibiOS/os/various/shell.c" 1
 889 0008 83F31188 		msr     BASEPRI, r3
 890              	@ 0 "" 2
 891              		.thumb
 892              	.LBE2:
 893 000c FFF7FEFF 		bl	dbg_check_lock
 894              		.loc 2 223 0
 895 0010 0448     		ldr	r0, .L54
 896 0012 0021     		movs	r1, #0
 897 0014 FFF7FEFF 		bl	chEvtBroadcastFlagsI
 898              		.loc 2 224 0
 899 0018 0198     		ldr	r0, [sp, #4]
 900 001a FFF7FEFF 		bl	chThdExitS
 901              		.loc 2 225 0
 902 001e 03B0     		add	sp, sp, #12
 903              		@ sp needed
 904 0020 5DF804FB 		ldr	pc, [sp], #4
 905              	.L55:
 906              		.align	2
 907              	.L54:
 908 0024 00000000 		.word	shell_terminated
 909              		.cfi_endproc
 910              	.LFE127:
 911              		.size	shellExit, .-shellExit
 912 0028 AFF30080 		.section	.text.shellCreate,"ax",%progbits
 912      AFF30080 
 913              		.align	2
 914              		.p2align 4,,15
 915              		.global	shellCreate
 916              		.thumb
 917              		.thumb_func
 918              		.type	shellCreate, %function
 919              	shellCreate:
 920              	.LFB128:
 921              		.loc 2 240 0
 922              		.cfi_startproc
 923              		@ args = 0, pretend = 0, frame = 16
 924              		@ frame_needed = 0, uses_anonymous_args = 0
 925 0000 00B5     		push	{lr}
 926              		.cfi_def_cfa_offset 4
 927              		.cfi_offset 14, -4
 928 0002 87B0     		sub	sp, sp, #28
 929              		.cfi_def_cfa_offset 32
 930 0004 0590     		str	r0, [sp, #20]
 931 0006 0491     		str	r1, [sp, #16]
 932 0008 0392     		str	r2, [sp, #12]
 933              		.loc 2 242 0
 934 000a 059B     		ldr	r3, [sp, #20]
 935 000c 0093     		str	r3, [sp]
 936 000e 0020     		movs	r0, #0
 937 0010 0499     		ldr	r1, [sp, #16]
 938 0012 039A     		ldr	r2, [sp, #12]
 939 0014 034B     		ldr	r3, .L58
 940 0016 FFF7FEFF 		bl	chThdCreateFromHeap
ARM GAS  /tmp/ccHhvR3P.s 			page 19


 941 001a 0346     		mov	r3, r0
 942              		.loc 2 243 0
 943 001c 1846     		mov	r0, r3
 944 001e 07B0     		add	sp, sp, #28
 945              		@ sp needed
 946 0020 5DF804FB 		ldr	pc, [sp], #4
 947              	.L59:
 948              		.align	2
 949              	.L58:
 950 0024 00000000 		.word	shell_thread
 951              		.cfi_endproc
 952              	.LFE128:
 953              		.size	shellCreate, .-shellCreate
 954 0028 AFF30080 		.section	.text.shellCreateStatic,"ax",%progbits
 954      AFF30080 
 955              		.align	2
 956              		.p2align 4,,15
 957              		.global	shellCreateStatic
 958              		.thumb
 959              		.thumb_func
 960              		.type	shellCreateStatic, %function
 961              	shellCreateStatic:
 962              	.LFB129:
 963              		.loc 2 258 0
 964              		.cfi_startproc
 965              		@ args = 0, pretend = 0, frame = 16
 966              		@ frame_needed = 0, uses_anonymous_args = 0
 967 0000 00B5     		push	{lr}
 968              		.cfi_def_cfa_offset 4
 969              		.cfi_offset 14, -4
 970 0002 87B0     		sub	sp, sp, #28
 971              		.cfi_def_cfa_offset 32
 972 0004 0590     		str	r0, [sp, #20]
 973 0006 0491     		str	r1, [sp, #16]
 974 0008 0392     		str	r2, [sp, #12]
 975 000a 0293     		str	r3, [sp, #8]
 976              		.loc 2 260 0
 977 000c 059B     		ldr	r3, [sp, #20]
 978 000e 0093     		str	r3, [sp]
 979 0010 0498     		ldr	r0, [sp, #16]
 980 0012 0399     		ldr	r1, [sp, #12]
 981 0014 029A     		ldr	r2, [sp, #8]
 982 0016 044B     		ldr	r3, .L62
 983 0018 FFF7FEFF 		bl	chThdCreateStatic
 984 001c 0346     		mov	r3, r0
 985              		.loc 2 261 0
 986 001e 1846     		mov	r0, r3
 987 0020 07B0     		add	sp, sp, #28
 988              		@ sp needed
 989 0022 5DF804FB 		ldr	pc, [sp], #4
 990              	.L63:
 991 0026 00BF     		.align	2
 992              	.L62:
 993 0028 00000000 		.word	shell_thread
 994              		.cfi_endproc
 995              	.LFE129:
 996              		.size	shellCreateStatic, .-shellCreateStatic
ARM GAS  /tmp/ccHhvR3P.s 			page 20


 997 002c AFF30080 		.section	.rodata
 998 01ed 000000   		.align	2
 999              	.LC35:
 1000 01f0 5E4400   		.ascii	"^D\000"
 1001 01f3 00       		.section	.text.shellGetLine,"ax",%progbits
 1002              		.align	2
 1003              		.p2align 4,,15
 1004              		.global	shellGetLine
 1005              		.thumb
 1006              		.thumb_func
 1007              		.type	shellGetLine, %function
 1008              	shellGetLine:
 1009              	.LFB130:
 1010              		.loc 2 275 0
 1011              		.cfi_startproc
 1012              		@ args = 0, pretend = 0, frame = 24
 1013              		@ frame_needed = 0, uses_anonymous_args = 0
 1014 0000 00B5     		push	{lr}
 1015              		.cfi_def_cfa_offset 4
 1016              		.cfi_offset 14, -4
 1017 0002 87B0     		sub	sp, sp, #28
 1018              		.cfi_def_cfa_offset 32
 1019 0004 0390     		str	r0, [sp, #12]
 1020 0006 0291     		str	r1, [sp, #8]
 1021 0008 0192     		str	r2, [sp, #4]
 1022              		.loc 2 276 0
 1023 000a 029B     		ldr	r3, [sp, #8]
 1024 000c 0593     		str	r3, [sp, #20]
 1025              	.L76:
 1026              	.LBB3:
 1027              		.loc 2 281 0
 1028 000e 039B     		ldr	r3, [sp, #12]
 1029 0010 1B68     		ldr	r3, [r3]
 1030 0012 5B68     		ldr	r3, [r3, #4]
 1031 0014 0DF11302 		add	r2, sp, #19
 1032 0018 0398     		ldr	r0, [sp, #12]
 1033 001a 1146     		mov	r1, r2
 1034 001c 0122     		movs	r2, #1
 1035 001e 9847     		blx	r3
 1036 0020 0346     		mov	r3, r0
 1037 0022 002B     		cmp	r3, #0
 1038 0024 01D1     		bne	.L65
 1039              		.loc 2 282 0
 1040 0026 0123     		movs	r3, #1
 1041 0028 55E0     		b	.L75
 1042              	.L65:
 1043              		.loc 2 283 0
 1044 002a 9DF81330 		ldrb	r3, [sp, #19]	@ zero_extendqisi2
 1045 002e 042B     		cmp	r3, #4
 1046 0030 05D1     		bne	.L67
 1047              		.loc 2 284 0
 1048 0032 0398     		ldr	r0, [sp, #12]
 1049 0034 2A49     		ldr	r1, .L77
 1050 0036 FFF7FEFF 		bl	chprintf
 1051              		.loc 2 285 0
 1052 003a 0123     		movs	r3, #1
 1053 003c 4BE0     		b	.L75
ARM GAS  /tmp/ccHhvR3P.s 			page 21


 1054              	.L67:
 1055              		.loc 2 287 0
 1056 003e 9DF81330 		ldrb	r3, [sp, #19]	@ zero_extendqisi2
 1057 0042 082B     		cmp	r3, #8
 1058 0044 1ED1     		bne	.L68
 1059              		.loc 2 288 0
 1060 0046 059A     		ldr	r2, [sp, #20]
 1061 0048 029B     		ldr	r3, [sp, #8]
 1062 004a 9A42     		cmp	r2, r3
 1063 004c 19D0     		beq	.L69
 1064              		.loc 2 289 0
 1065 004e 039B     		ldr	r3, [sp, #12]
 1066 0050 1B68     		ldr	r3, [r3]
 1067 0052 9B68     		ldr	r3, [r3, #8]
 1068 0054 9DF81320 		ldrb	r2, [sp, #19]	@ zero_extendqisi2
 1069 0058 0398     		ldr	r0, [sp, #12]
 1070 005a 1146     		mov	r1, r2
 1071 005c 9847     		blx	r3
 1072              		.loc 2 290 0
 1073 005e 039B     		ldr	r3, [sp, #12]
 1074 0060 1B68     		ldr	r3, [r3]
 1075 0062 9B68     		ldr	r3, [r3, #8]
 1076 0064 0398     		ldr	r0, [sp, #12]
 1077 0066 2021     		movs	r1, #32
 1078 0068 9847     		blx	r3
 1079              		.loc 2 291 0
 1080 006a 039B     		ldr	r3, [sp, #12]
 1081 006c 1B68     		ldr	r3, [r3]
 1082 006e 9B68     		ldr	r3, [r3, #8]
 1083 0070 9DF81320 		ldrb	r2, [sp, #19]	@ zero_extendqisi2
 1084 0074 0398     		ldr	r0, [sp, #12]
 1085 0076 1146     		mov	r1, r2
 1086 0078 9847     		blx	r3
 1087              		.loc 2 292 0
 1088 007a 059B     		ldr	r3, [sp, #20]
 1089 007c 013B     		subs	r3, r3, #1
 1090 007e 0593     		str	r3, [sp, #20]
 1091              		.loc 2 294 0
 1092 0080 28E0     		b	.L74
 1093              	.L69:
 1094 0082 27E0     		b	.L74
 1095              	.L68:
 1096              		.loc 2 296 0
 1097 0084 9DF81330 		ldrb	r3, [sp, #19]	@ zero_extendqisi2
 1098 0088 0D2B     		cmp	r3, #13
 1099 008a 08D1     		bne	.L71
 1100              		.loc 2 297 0
 1101 008c 0398     		ldr	r0, [sp, #12]
 1102 008e 1549     		ldr	r1, .L77+4
 1103 0090 FFF7FEFF 		bl	chprintf
 1104              		.loc 2 298 0
 1105 0094 059B     		ldr	r3, [sp, #20]
 1106 0096 0022     		movs	r2, #0
 1107 0098 1A70     		strb	r2, [r3]
 1108              		.loc 2 299 0
 1109 009a 0023     		movs	r3, #0
 1110 009c 1BE0     		b	.L75
ARM GAS  /tmp/ccHhvR3P.s 			page 22


 1111              	.L71:
 1112              		.loc 2 301 0
 1113 009e 9DF81330 		ldrb	r3, [sp, #19]	@ zero_extendqisi2
 1114 00a2 1F2B     		cmp	r3, #31
 1115 00a4 00D8     		bhi	.L72
 1116              		.loc 2 302 0
 1117 00a6 15E0     		b	.L74
 1118              	.L72:
 1119              		.loc 2 303 0
 1120 00a8 019B     		ldr	r3, [sp, #4]
 1121 00aa 013B     		subs	r3, r3, #1
 1122 00ac 029A     		ldr	r2, [sp, #8]
 1123 00ae 1A44     		add	r2, r2, r3
 1124 00b0 059B     		ldr	r3, [sp, #20]
 1125 00b2 9A42     		cmp	r2, r3
 1126 00b4 0ED9     		bls	.L74
 1127              		.loc 2 304 0
 1128 00b6 039B     		ldr	r3, [sp, #12]
 1129 00b8 1B68     		ldr	r3, [r3]
 1130 00ba 9B68     		ldr	r3, [r3, #8]
 1131 00bc 9DF81320 		ldrb	r2, [sp, #19]	@ zero_extendqisi2
 1132 00c0 0398     		ldr	r0, [sp, #12]
 1133 00c2 1146     		mov	r1, r2
 1134 00c4 9847     		blx	r3
 1135              		.loc 2 305 0
 1136 00c6 059B     		ldr	r3, [sp, #20]
 1137 00c8 5A1C     		adds	r2, r3, #1
 1138 00ca 0592     		str	r2, [sp, #20]
 1139 00cc 9DF81320 		ldrb	r2, [sp, #19]	@ zero_extendqisi2
 1140 00d0 1A70     		strb	r2, [r3]
 1141              	.LBE3:
 1142              		.loc 2 307 0
 1143 00d2 9CE7     		b	.L76
 1144              	.L74:
 1145 00d4 9BE7     		b	.L76
 1146              	.L75:
 1147              		.loc 2 308 0
 1148 00d6 1846     		mov	r0, r3
 1149 00d8 07B0     		add	sp, sp, #28
 1150              		@ sp needed
 1151 00da 5DF804FB 		ldr	pc, [sp], #4
 1152              	.L78:
 1153 00de 00BF     		.align	2
 1154              	.L77:
 1155 00e0 F0010000 		.word	.LC35
 1156 00e4 E0010000 		.word	.LC32
 1157              		.cfi_endproc
 1158              	.LFE130:
 1159              		.size	shellGetLine, .-shellGetLine
 1160 00e8 AFF30080 		.text
 1160      AFF30080 
 1161              	.Letext0:
 1162              		.file 3 "/usr/lib/gcc/arm-none-eabi/4.8/include/stddef.h"
 1163              		.file 4 "/usr/include/newlib/machine/_default_types.h"
 1164              		.file 5 "/usr/include/newlib/stdint.h"
 1165              		.file 6 "/home/dave/r2p-sdk/core/ChibiOS/os/ports/GCC/ARMCMx/chtypes.h"
 1166              		.file 7 "/home/dave/r2p-sdk/core/ChibiOS/os/kernel/include/chlists.h"
ARM GAS  /tmp/ccHhvR3P.s 			page 23


 1167              		.file 8 "/home/dave/r2p-sdk/core/ChibiOS/os/kernel/include/chthreads.h"
 1168              		.file 9 "/home/dave/r2p-sdk/core/ChibiOS/os/ports/GCC/ARMCMx/chcore_v7m.h"
 1169              		.file 10 "/home/dave/r2p-sdk/core/ChibiOS/os/kernel/include/chvt.h"
 1170              		.file 11 "/home/dave/r2p-sdk/core/ChibiOS/os/kernel/include/chschd.h"
 1171              		.file 12 "/home/dave/r2p-sdk/core/ChibiOS/os/kernel/include/chmtx.h"
 1172              		.file 13 "/home/dave/r2p-sdk/core/ChibiOS/os/kernel/include/chevents.h"
 1173              		.file 14 "/home/dave/r2p-sdk/core/ChibiOS/os/kernel/include/chstreams.h"
 1174              		.file 15 "/home/dave/r2p-sdk/core/ChibiOS/os/various/shell.h"
 1175              		.file 16 "/usr/lib/gcc/arm-none-eabi/4.8/include/stdarg.h"
 1176              		.file 17 "<built-in>"
 1177              		.file 18 "/home/dave/r2p-sdk/core/ChibiOS/os/ports/common/ARMCMx/CMSIS/include/core_cm4.h"