ARM GAS  /tmp/ccYbxHQF.s 			page 1


   1              		.syntax unified
   2              		.cpu cortex-m4
   3              		.eabi_attribute 27, 3
   4              		.eabi_attribute 28, 1
   5              		.fpu fpv4-sp-d16
   6              		.eabi_attribute 20, 1
   7              		.eabi_attribute 21, 1
   8              		.eabi_attribute 23, 3
   9              		.eabi_attribute 24, 1
  10              		.eabi_attribute 25, 1
  11              		.eabi_attribute 26, 1
  12              		.eabi_attribute 30, 6
  13              		.eabi_attribute 34, 1
  14              		.eabi_attribute 18, 4
  15              		.thumb
  16              		.file	"time.cpp"
  17              		.text
  18              	.Ltext0:
  19              		.cfi_sections	.debug_frame
  20              		.section	.text._ZN3ros16normalizeSecNSecERmS0_,"ax",%progbits
  21              		.align	2
  22              		.p2align 4,,15
  23              		.global	_ZN3ros16normalizeSecNSecERmS0_
  24              		.thumb
  25              		.thumb_func
  26              		.type	_ZN3ros16normalizeSecNSecERmS0_, %function
  27              	_ZN3ros16normalizeSecNSecERmS0_:
  28              	.LFB17:
  29              		.file 1 "ros_lib/time.cpp"
  30              		.loc 1 39 0
  31              		.cfi_startproc
  32              		@ args = 0, pretend = 0, frame = 16
  33              		@ frame_needed = 0, uses_anonymous_args = 0
  34              		@ link register save eliminated.
  35 0000 84B0     		sub	sp, sp, #16
  36              		.cfi_def_cfa_offset 16
  37 0002 0190     		str	r0, [sp, #4]
  38 0004 0091     		str	r1, [sp]
  39              	.LBB2:
  40              		.loc 1 40 0
  41 0006 009B     		ldr	r3, [sp]
  42 0008 1B68     		ldr	r3, [r3]
  43 000a 590A     		lsrs	r1, r3, #9
  44 000c 0D4A     		ldr	r2, .L2
  45 000e A2FB0102 		umull	r0, r2, r2, r1
  46 0012 D209     		lsrs	r2, r2, #7
  47 0014 0C49     		ldr	r1, .L2+4
  48 0016 01FB02F2 		mul	r2, r1, r2
  49 001a 9B1A     		subs	r3, r3, r2
  50 001c 0393     		str	r3, [sp, #12]
  51              		.loc 1 41 0
  52 001e 009B     		ldr	r3, [sp]
  53 0020 1B68     		ldr	r3, [r3]
  54 0022 5A0A     		lsrs	r2, r3, #9
  55 0024 074B     		ldr	r3, .L2
  56 0026 A3FB0213 		umull	r1, r3, r3, r2
  57 002a DB09     		lsrs	r3, r3, #7
ARM GAS  /tmp/ccYbxHQF.s 			page 2


  58 002c 0293     		str	r3, [sp, #8]
  59              		.loc 1 42 0
  60 002e 019B     		ldr	r3, [sp, #4]
  61 0030 1A68     		ldr	r2, [r3]
  62 0032 029B     		ldr	r3, [sp, #8]
  63 0034 1A44     		add	r2, r2, r3
  64 0036 019B     		ldr	r3, [sp, #4]
  65 0038 1A60     		str	r2, [r3]
  66              		.loc 1 43 0
  67 003a 009B     		ldr	r3, [sp]
  68 003c 039A     		ldr	r2, [sp, #12]
  69 003e 1A60     		str	r2, [r3]
  70              	.LBE2:
  71              		.loc 1 44 0
  72 0040 04B0     		add	sp, sp, #16
  73              		@ sp needed
  74 0042 7047     		bx	lr
  75              	.L3:
  76              		.align	2
  77              	.L2:
  78 0044 834B0400 		.word	281475
  79 0048 00CA9A3B 		.word	1000000000
  80              		.cfi_endproc
  81              	.LFE17:
  82              		.size	_ZN3ros16normalizeSecNSecERmS0_, .-_ZN3ros16normalizeSecNSecERmS0_
  83 004c AFF30080 		.section	.text._ZN3ros4Time8fromNSecEl,"ax",%progbits
  84              		.align	2
  85              		.p2align 4,,15
  86              		.global	_ZN3ros4Time8fromNSecEl
  87              		.thumb
  88              		.thumb_func
  89              		.type	_ZN3ros4Time8fromNSecEl, %function
  90              	_ZN3ros4Time8fromNSecEl:
  91              	.LFB18:
  92              		.loc 1 47 0
  93              		.cfi_startproc
  94              		@ args = 0, pretend = 0, frame = 8
  95              		@ frame_needed = 0, uses_anonymous_args = 0
  96 0000 00B5     		push	{lr}
  97              		.cfi_def_cfa_offset 4
  98              		.cfi_offset 14, -4
  99 0002 83B0     		sub	sp, sp, #12
 100              		.cfi_def_cfa_offset 16
 101 0004 0190     		str	r0, [sp, #4]
 102 0006 0091     		str	r1, [sp]
 103              		.loc 1 48 0
 104 0008 009B     		ldr	r3, [sp]
 105 000a 114A     		ldr	r2, .L6
 106 000c 82FB0312 		smull	r1, r2, r2, r3
 107 0010 1217     		asrs	r2, r2, #28
 108 0012 DB17     		asrs	r3, r3, #31
 109 0014 D31A     		subs	r3, r2, r3
 110 0016 1A46     		mov	r2, r3
 111 0018 019B     		ldr	r3, [sp, #4]
 112 001a 1A60     		str	r2, [r3]
 113              		.loc 1 49 0
 114 001c 009A     		ldr	r2, [sp]
ARM GAS  /tmp/ccYbxHQF.s 			page 3


 115 001e 0C4B     		ldr	r3, .L6
 116 0020 83FB0213 		smull	r1, r3, r3, r2
 117 0024 1917     		asrs	r1, r3, #28
 118 0026 D317     		asrs	r3, r2, #31
 119 0028 CB1A     		subs	r3, r1, r3
 120 002a 0A49     		ldr	r1, .L6+4
 121 002c 01FB03F3 		mul	r3, r1, r3
 122 0030 D31A     		subs	r3, r2, r3
 123 0032 1A46     		mov	r2, r3
 124 0034 019B     		ldr	r3, [sp, #4]
 125 0036 5A60     		str	r2, [r3, #4]
 126              		.loc 1 50 0
 127 0038 019A     		ldr	r2, [sp, #4]
 128 003a 019B     		ldr	r3, [sp, #4]
 129 003c 0433     		adds	r3, r3, #4
 130 003e 1046     		mov	r0, r2
 131 0040 1946     		mov	r1, r3
 132 0042 FFF7FEFF 		bl	_ZN3ros16normalizeSecNSecERmS0_
 133              		.loc 1 51 0
 134 0046 019B     		ldr	r3, [sp, #4]
 135              		.loc 1 52 0
 136 0048 1846     		mov	r0, r3
 137 004a 03B0     		add	sp, sp, #12
 138              		@ sp needed
 139 004c 5DF804FB 		ldr	pc, [sp], #4
 140              	.L7:
 141              		.align	2
 142              	.L6:
 143 0050 A12FB844 		.word	1152921505
 144 0054 00CA9A3B 		.word	1000000000
 145              		.cfi_endproc
 146              	.LFE18:
 147              		.size	_ZN3ros4Time8fromNSecEl, .-_ZN3ros4Time8fromNSecEl
 148 0058 AFF30080 		.section	.text._ZN3ros4TimepLERKNS_8DurationE,"ax",%progbits
 148      AFF30080 
 149              		.align	2
 150              		.p2align 4,,15
 151              		.global	_ZN3ros4TimepLERKNS_8DurationE
 152              		.thumb
 153              		.thumb_func
 154              		.type	_ZN3ros4TimepLERKNS_8DurationE, %function
 155              	_ZN3ros4TimepLERKNS_8DurationE:
 156              	.LFB19:
 157              		.loc 1 55 0
 158              		.cfi_startproc
 159              		@ args = 0, pretend = 0, frame = 8
 160              		@ frame_needed = 0, uses_anonymous_args = 0
 161 0000 00B5     		push	{lr}
 162              		.cfi_def_cfa_offset 4
 163              		.cfi_offset 14, -4
 164 0002 83B0     		sub	sp, sp, #12
 165              		.cfi_def_cfa_offset 16
 166 0004 0190     		str	r0, [sp, #4]
 167 0006 0091     		str	r1, [sp]
 168              		.loc 1 56 0
 169 0008 019B     		ldr	r3, [sp, #4]
 170 000a 1A68     		ldr	r2, [r3]
ARM GAS  /tmp/ccYbxHQF.s 			page 4


 171 000c 009B     		ldr	r3, [sp]
 172 000e 1B68     		ldr	r3, [r3]
 173 0010 1A44     		add	r2, r2, r3
 174 0012 019B     		ldr	r3, [sp, #4]
 175 0014 1A60     		str	r2, [r3]
 176              		.loc 1 57 0
 177 0016 019B     		ldr	r3, [sp, #4]
 178 0018 5A68     		ldr	r2, [r3, #4]
 179 001a 009B     		ldr	r3, [sp]
 180 001c 5B68     		ldr	r3, [r3, #4]
 181 001e 1A44     		add	r2, r2, r3
 182 0020 019B     		ldr	r3, [sp, #4]
 183 0022 5A60     		str	r2, [r3, #4]
 184              		.loc 1 58 0
 185 0024 019A     		ldr	r2, [sp, #4]
 186 0026 019B     		ldr	r3, [sp, #4]
 187 0028 0433     		adds	r3, r3, #4
 188 002a 1046     		mov	r0, r2
 189 002c 1946     		mov	r1, r3
 190 002e FFF7FEFF 		bl	_ZN3ros16normalizeSecNSecERmS0_
 191              		.loc 1 59 0
 192 0032 019B     		ldr	r3, [sp, #4]
 193              		.loc 1 60 0
 194 0034 1846     		mov	r0, r3
 195 0036 03B0     		add	sp, sp, #12
 196              		@ sp needed
 197 0038 5DF804FB 		ldr	pc, [sp], #4
 198              		.cfi_endproc
 199              	.LFE19:
 200              		.size	_ZN3ros4TimepLERKNS_8DurationE, .-_ZN3ros4TimepLERKNS_8DurationE
 201 003c AFF30080 		.section	.text._ZN3ros4TimemIERKNS_8DurationE,"ax",%progbits
 202              		.align	2
 203              		.p2align 4,,15
 204              		.global	_ZN3ros4TimemIERKNS_8DurationE
 205              		.thumb
 206              		.thumb_func
 207              		.type	_ZN3ros4TimemIERKNS_8DurationE, %function
 208              	_ZN3ros4TimemIERKNS_8DurationE:
 209              	.LFB20:
 210              		.loc 1 62 0
 211              		.cfi_startproc
 212              		@ args = 0, pretend = 0, frame = 8
 213              		@ frame_needed = 0, uses_anonymous_args = 0
 214 0000 00B5     		push	{lr}
 215              		.cfi_def_cfa_offset 4
 216              		.cfi_offset 14, -4
 217 0002 83B0     		sub	sp, sp, #12
 218              		.cfi_def_cfa_offset 16
 219 0004 0190     		str	r0, [sp, #4]
 220 0006 0091     		str	r1, [sp]
 221              		.loc 1 63 0
 222 0008 019B     		ldr	r3, [sp, #4]
 223 000a 1A68     		ldr	r2, [r3]
 224 000c 009B     		ldr	r3, [sp]
 225 000e 1B68     		ldr	r3, [r3]
 226 0010 D21A     		subs	r2, r2, r3
 227 0012 019B     		ldr	r3, [sp, #4]
ARM GAS  /tmp/ccYbxHQF.s 			page 5


 228 0014 1A60     		str	r2, [r3]
 229              		.loc 1 64 0
 230 0016 019B     		ldr	r3, [sp, #4]
 231 0018 5A68     		ldr	r2, [r3, #4]
 232 001a 009B     		ldr	r3, [sp]
 233 001c 5B68     		ldr	r3, [r3, #4]
 234 001e D21A     		subs	r2, r2, r3
 235 0020 019B     		ldr	r3, [sp, #4]
 236 0022 5A60     		str	r2, [r3, #4]
 237              		.loc 1 65 0
 238 0024 019A     		ldr	r2, [sp, #4]
 239 0026 019B     		ldr	r3, [sp, #4]
 240 0028 0433     		adds	r3, r3, #4
 241 002a 1046     		mov	r0, r2
 242 002c 1946     		mov	r1, r3
 243 002e FFF7FEFF 		bl	_ZN3ros16normalizeSecNSecERmS0_
 244              		.loc 1 66 0
 245 0032 019B     		ldr	r3, [sp, #4]
 246              		.loc 1 67 0
 247 0034 1846     		mov	r0, r3
 248 0036 03B0     		add	sp, sp, #12
 249              		@ sp needed
 250 0038 5DF804FB 		ldr	pc, [sp], #4
 251              		.cfi_endproc
 252              	.LFE20:
 253              		.size	_ZN3ros4TimemIERKNS_8DurationE, .-_ZN3ros4TimemIERKNS_8DurationE
 254 003c AFF30080 		.text
 255              	.Letext0:
 256              		.file 2 "ros_lib/ros/duration.h"
 257              		.file 3 "ros_lib/ros/time.h"