ARM GAS  /tmp/ccl0SayN.s 			page 1


   1              		.syntax unified
   2              		.cpu cortex-m4
   3              		.eabi_attribute 27, 3
   4              		.eabi_attribute 28, 1
   5              		.fpu fpv4-sp-d16
   6              		.eabi_attribute 20, 1
   7              		.eabi_attribute 21, 1
   8              		.eabi_attribute 23, 3
   9              		.eabi_attribute 24, 1
  10              		.eabi_attribute 25, 1
  11              		.eabi_attribute 26, 1
  12              		.eabi_attribute 30, 6
  13              		.eabi_attribute 34, 1
  14              		.eabi_attribute 18, 4
  15              		.thumb
  16              		.file	"Transport.cpp"
  17              		.text
  18              	.Ltext0:
  19              		.cfi_sections	.debug_frame
  20              		.section	.text._ZN3r2p10UncopyableC2Ev,"axG",%progbits,_ZN3r2p10UncopyableC5Ev,comdat
  21              		.align	2
  22              		.p2align 4,,15
  23              		.weak	_ZN3r2p10UncopyableC2Ev
  24              		.thumb
  25              		.thumb_func
  26              		.type	_ZN3r2p10UncopyableC2Ev, %function
  27              	_ZN3r2p10UncopyableC2Ev:
  28              	.LFB6:
  29              		.file 1 "/home/dave/r2p-sdk/core/Middleware/include/r2p/Uncopyable.hpp"
  30              		.loc 1 20 0
  31              		.cfi_startproc
  32              		@ args = 0, pretend = 0, frame = 8
  33              		@ frame_needed = 0, uses_anonymous_args = 0
  34              		@ link register save eliminated.
  35 0000 82B0     		sub	sp, sp, #8
  36              		.cfi_def_cfa_offset 8
  37 0002 0190     		str	r0, [sp, #4]
  38              		.loc 1 20 0
  39 0004 019B     		ldr	r3, [sp, #4]
  40 0006 1846     		mov	r0, r3
  41 0008 02B0     		add	sp, sp, #8
  42              		@ sp needed
  43 000a 7047     		bx	lr
  44              		.cfi_endproc
  45              	.LFE6:
  46              		.size	_ZN3r2p10UncopyableC2Ev, .-_ZN3r2p10UncopyableC2Ev
  47              		.weak	_ZN3r2p10UncopyableC1Ev
  48              		.thumb_set _ZN3r2p10UncopyableC1Ev,_ZN3r2p10UncopyableC2Ev
  49 000c AFF30080 		.section	.text._ZN3r2p10UncopyableD2Ev,"axG",%progbits,_ZN3r2p10UncopyableD5Ev,comdat
  50              		.align	2
  51              		.p2align 4,,15
  52              		.weak	_ZN3r2p10UncopyableD2Ev
  53              		.thumb
  54              		.thumb_func
  55              		.type	_ZN3r2p10UncopyableD2Ev, %function
  56              	_ZN3r2p10UncopyableD2Ev:
  57              	.LFB9:
ARM GAS  /tmp/ccl0SayN.s 			page 2


  58              		.loc 1 21 0
  59              		.cfi_startproc
  60              		@ args = 0, pretend = 0, frame = 8
  61              		@ frame_needed = 0, uses_anonymous_args = 0
  62              		@ link register save eliminated.
  63 0000 82B0     		sub	sp, sp, #8
  64              		.cfi_def_cfa_offset 8
  65 0002 0190     		str	r0, [sp, #4]
  66              		.loc 1 21 0
  67 0004 019B     		ldr	r3, [sp, #4]
  68 0006 1846     		mov	r0, r3
  69 0008 02B0     		add	sp, sp, #8
  70              		@ sp needed
  71 000a 7047     		bx	lr
  72              		.cfi_endproc
  73              	.LFE9:
  74              		.size	_ZN3r2p10UncopyableD2Ev, .-_ZN3r2p10UncopyableD2Ev
  75              		.weak	_ZN3r2p10UncopyableD1Ev
  76              		.thumb_set _ZN3r2p10UncopyableD1Ev,_ZN3r2p10UncopyableD2Ev
  77 000c AFF30080 		.section	.text._ZN3r2p8SysLock_7acquireEv,"axG",%progbits,_ZN3r2p8SysLock_7acquireEv,comdat
  78              		.align	2
  79              		.p2align 4,,15
  80              		.weak	_ZN3r2p8SysLock_7acquireEv
  81              		.thumb
  82              		.thumb_func
  83              		.type	_ZN3r2p8SysLock_7acquireEv, %function
  84              	_ZN3r2p8SysLock_7acquireEv:
  85              	.LFB18:
  86              		.file 2 "/home/dave/r2p-sdk/core/Middleware/port/chibios/include/r2p/impl/SysLock_.hpp"
  87              		.loc 2 20 0
  88              		.cfi_startproc
  89              		@ args = 0, pretend = 0, frame = 0
  90              		@ frame_needed = 0, uses_anonymous_args = 0
  91 0000 08B5     		push	{r3, lr}
  92              		.cfi_def_cfa_offset 8
  93              		.cfi_offset 3, -8
  94              		.cfi_offset 14, -4
  95              	.LBB2:
  96              	.LBB3:
  97              	.LBB4:
  98              		.loc 2 22 0
  99 0002 2023     		movs	r3, #32
 100              	@ 22 "/home/dave/r2p-sdk/core/Middleware/port/chibios/include/r2p/impl/SysLock_.hpp" 1
 101 0004 83F31188 		msr     BASEPRI, r3
 102              	@ 0 "" 2
 103              		.thumb
 104              	.LBE4:
 105 0008 FFF7FEFF 		bl	dbg_check_lock
 106              	.LBE3:
 107              	.LBE2:
 108              		.loc 2 23 0
 109 000c 08BD     		pop	{r3, pc}
 110              		.cfi_endproc
 111              	.LFE18:
 112              		.size	_ZN3r2p8SysLock_7acquireEv, .-_ZN3r2p8SysLock_7acquireEv
 113 000e 00BF     		.section	.text._ZN3r2p8SysLock_7releaseEv,"axG",%progbits,_ZN3r2p8SysLock_7releaseEv,comdat
 114              		.align	2
ARM GAS  /tmp/ccl0SayN.s 			page 3


 115              		.p2align 4,,15
 116              		.weak	_ZN3r2p8SysLock_7releaseEv
 117              		.thumb
 118              		.thumb_func
 119              		.type	_ZN3r2p8SysLock_7releaseEv, %function
 120              	_ZN3r2p8SysLock_7releaseEv:
 121              	.LFB19:
 122              		.loc 2 27 0
 123              		.cfi_startproc
 124              		@ args = 0, pretend = 0, frame = 0
 125              		@ frame_needed = 0, uses_anonymous_args = 0
 126 0000 08B5     		push	{r3, lr}
 127              		.cfi_def_cfa_offset 8
 128              		.cfi_offset 3, -8
 129              		.cfi_offset 14, -4
 130              	.LBB5:
 131              	.LBB6:
 132              		.loc 2 29 0
 133 0002 FFF7FEFF 		bl	dbg_check_unlock
 134              	.LBB7:
 135 0006 0023     		movs	r3, #0
 136              	@ 29 "/home/dave/r2p-sdk/core/Middleware/port/chibios/include/r2p/impl/SysLock_.hpp" 1
 137 0008 83F31188 		msr     BASEPRI, r3
 138              	@ 0 "" 2
 139              		.thumb
 140              	.LBE7:
 141              	.LBE6:
 142              	.LBE5:
 143              		.loc 2 30 0
 144 000c 08BD     		pop	{r3, pc}
 145              		.cfi_endproc
 146              	.LFE19:
 147              		.size	_ZN3r2p8SysLock_7releaseEv, .-_ZN3r2p8SysLock_7releaseEv
 148 000e 00BF     		.section	.text._ZN3r2p7SysLock7acquireEv,"axG",%progbits,_ZN3r2p7SysLock7acquireEv,comdat
 149              		.align	2
 150              		.p2align 4,,15
 151              		.weak	_ZN3r2p7SysLock7acquireEv
 152              		.thumb
 153              		.thumb_func
 154              		.type	_ZN3r2p7SysLock7acquireEv, %function
 155              	_ZN3r2p7SysLock7acquireEv:
 156              	.LFB26:
 157              		.file 3 "/home/dave/r2p-sdk/core/Middleware/include/r2p/SysLock.hpp"
 158              		.loc 3 27 0
 159              		.cfi_startproc
 160              		@ args = 0, pretend = 0, frame = 0
 161              		@ frame_needed = 0, uses_anonymous_args = 0
 162 0000 08B5     		push	{r3, lr}
 163              		.cfi_def_cfa_offset 8
 164              		.cfi_offset 3, -8
 165              		.cfi_offset 14, -4
 166              		.loc 3 29 0
 167 0002 FFF7FEFF 		bl	_ZN3r2p8SysLock_7acquireEv
 168              		.loc 3 30 0
 169 0006 08BD     		pop	{r3, pc}
 170              		.cfi_endproc
 171              	.LFE26:
ARM GAS  /tmp/ccl0SayN.s 			page 4


 172              		.size	_ZN3r2p7SysLock7acquireEv, .-_ZN3r2p7SysLock7acquireEv
 173 0008 AFF30080 		.section	.text._ZN3r2p7SysLock7releaseEv,"axG",%progbits,_ZN3r2p7SysLock7releaseEv,comdat
 173      AFF30080 
 174              		.align	2
 175              		.p2align 4,,15
 176              		.weak	_ZN3r2p7SysLock7releaseEv
 177              		.thumb
 178              		.thumb_func
 179              		.type	_ZN3r2p7SysLock7releaseEv, %function
 180              	_ZN3r2p7SysLock7releaseEv:
 181              	.LFB27:
 182              		.loc 3 34 0
 183              		.cfi_startproc
 184              		@ args = 0, pretend = 0, frame = 0
 185              		@ frame_needed = 0, uses_anonymous_args = 0
 186 0000 08B5     		push	{r3, lr}
 187              		.cfi_def_cfa_offset 8
 188              		.cfi_offset 3, -8
 189              		.cfi_offset 14, -4
 190              		.loc 3 36 0
 191 0002 FFF7FEFF 		bl	_ZN3r2p8SysLock_7releaseEv
 192              		.loc 3 37 0
 193 0006 08BD     		pop	{r3, pc}
 194              		.cfi_endproc
 195              	.LFE27:
 196              		.size	_ZN3r2p7SysLock7releaseEv, .-_ZN3r2p7SysLock7releaseEv
 197 0008 AFF30080 		.section	.text._ZN3r2p4TimeC2Ev,"axG",%progbits,_ZN3r2p4TimeC5Ev,comdat
 197      AFF30080 
 198              		.align	2
 199              		.p2align 4,,15
 200              		.weak	_ZN3r2p4TimeC2Ev
 201              		.thumb
 202              		.thumb_func
 203              		.type	_ZN3r2p4TimeC2Ev, %function
 204              	_ZN3r2p4TimeC2Ev:
 205              	.LFB144:
 206              		.file 4 "/home/dave/r2p-sdk/core/Middleware/include/r2p/Time.hpp"
 207              		.loc 4 155 0
 208              		.cfi_startproc
 209              		@ args = 0, pretend = 0, frame = 8
 210              		@ frame_needed = 0, uses_anonymous_args = 0
 211              		@ link register save eliminated.
 212 0000 82B0     		sub	sp, sp, #8
 213              		.cfi_def_cfa_offset 8
 214 0002 0190     		str	r0, [sp, #4]
 215              	.LBB8:
 216              		.loc 4 155 0
 217 0004 019B     		ldr	r3, [sp, #4]
 218 0006 0022     		movs	r2, #0
 219 0008 1A60     		str	r2, [r3]
 220              	.LBE8:
 221 000a 019B     		ldr	r3, [sp, #4]
 222 000c 1846     		mov	r0, r3
 223 000e 02B0     		add	sp, sp, #8
 224              		@ sp needed
 225 0010 7047     		bx	lr
 226              		.cfi_endproc
ARM GAS  /tmp/ccl0SayN.s 			page 5


 227              	.LFE144:
 228              		.size	_ZN3r2p4TimeC2Ev, .-_ZN3r2p4TimeC2Ev
 229              		.weak	_ZN3r2p4TimeC1Ev
 230              		.thumb_set _ZN3r2p4TimeC1Ev,_ZN3r2p4TimeC2Ev
 231 0012 00BFAFF3 		.section	.text._ZN3r2p22TimestampedMsgPtrQueue5EntryC2Ev,"axG",%progbits,_ZN3r2p22TimestampedMsgPt
 231      0080AFF3 
 231      0080AFF3 
 231      0080
 232              		.align	2
 233              		.p2align 4,,15
 234              		.weak	_ZN3r2p22TimestampedMsgPtrQueue5EntryC2Ev
 235              		.thumb
 236              		.thumb_func
 237              		.type	_ZN3r2p22TimestampedMsgPtrQueue5EntryC2Ev, %function
 238              	_ZN3r2p22TimestampedMsgPtrQueue5EntryC2Ev:
 239              	.LFB180:
 240              		.file 5 "/home/dave/r2p-sdk/core/Middleware/include/r2p/TimestampedMsgPtrQueue.hpp"
 241              		.loc 5 106 0
 242              		.cfi_startproc
 243              		@ args = 0, pretend = 0, frame = 8
 244              		@ frame_needed = 0, uses_anonymous_args = 0
 245 0000 00B5     		push	{lr}
 246              		.cfi_def_cfa_offset 4
 247              		.cfi_offset 14, -4
 248 0002 83B0     		sub	sp, sp, #12
 249              		.cfi_def_cfa_offset 16
 250 0004 0190     		str	r0, [sp, #4]
 251              	.LBB9:
 252              		.loc 5 108 0
 253 0006 019B     		ldr	r3, [sp, #4]
 254 0008 0022     		movs	r2, #0
 255 000a 1A60     		str	r2, [r3]
 256 000c 019B     		ldr	r3, [sp, #4]
 257 000e 0433     		adds	r3, r3, #4
 258 0010 1846     		mov	r0, r3
 259 0012 FFF7FEFF 		bl	_ZN3r2p4TimeC1Ev
 260              	.LBE9:
 261              		.loc 5 109 0
 262 0016 019B     		ldr	r3, [sp, #4]
 263 0018 1846     		mov	r0, r3
 264 001a 03B0     		add	sp, sp, #12
 265              		@ sp needed
 266 001c 5DF804FB 		ldr	pc, [sp], #4
 267              		.cfi_endproc
 268              	.LFE180:
 269              		.size	_ZN3r2p22TimestampedMsgPtrQueue5EntryC2Ev, .-_ZN3r2p22TimestampedMsgPtrQueue5EntryC2Ev
 270              		.weak	_ZN3r2p22TimestampedMsgPtrQueue5EntryC1Ev
 271              		.thumb_set _ZN3r2p22TimestampedMsgPtrQueue5EntryC1Ev,_ZN3r2p22TimestampedMsgPtrQueue5EntryC2Ev
 272              		.section	.text._ZN3r2p6Mutex_10initializeEv,"axG",%progbits,_ZN3r2p6Mutex_10initializeEv,comdat
 273              		.align	2
 274              		.p2align 4,,15
 275              		.weak	_ZN3r2p6Mutex_10initializeEv
 276              		.thumb
 277              		.thumb_func
 278              		.type	_ZN3r2p6Mutex_10initializeEv, %function
 279              	_ZN3r2p6Mutex_10initializeEv:
 280              	.LFB182:
ARM GAS  /tmp/ccl0SayN.s 			page 6


 281              		.file 6 "/home/dave/r2p-sdk/core/Middleware/port/chibios/include/r2p/impl/Mutex_.hpp"
 282              		.loc 6 31 0
 283              		.cfi_startproc
 284              		@ args = 0, pretend = 0, frame = 8
 285              		@ frame_needed = 0, uses_anonymous_args = 0
 286 0000 00B5     		push	{lr}
 287              		.cfi_def_cfa_offset 4
 288              		.cfi_offset 14, -4
 289 0002 83B0     		sub	sp, sp, #12
 290              		.cfi_def_cfa_offset 16
 291 0004 0190     		str	r0, [sp, #4]
 292              		.loc 6 33 0
 293 0006 019B     		ldr	r3, [sp, #4]
 294 0008 1846     		mov	r0, r3
 295 000a FFF7FEFF 		bl	chMtxInit
 296              		.loc 6 34 0
 297 000e 03B0     		add	sp, sp, #12
 298              		@ sp needed
 299 0010 5DF804FB 		ldr	pc, [sp], #4
 300              		.cfi_endproc
 301              	.LFE182:
 302              		.size	_ZN3r2p6Mutex_10initializeEv, .-_ZN3r2p6Mutex_10initializeEv
 303 0014 AFF30080 		.section	.text._ZN3r2p6Mutex_7acquireEv,"axG",%progbits,_ZN3r2p6Mutex_7acquireEv,comdat
 303      AFF30080 
 303      AFF30080 
 304              		.align	2
 305              		.p2align 4,,15
 306              		.weak	_ZN3r2p6Mutex_7acquireEv
 307              		.thumb
 308              		.thumb_func
 309              		.type	_ZN3r2p6Mutex_7acquireEv, %function
 310              	_ZN3r2p6Mutex_7acquireEv:
 311              	.LFB185:
 312              		.loc 6 52 0
 313              		.cfi_startproc
 314              		@ args = 0, pretend = 0, frame = 8
 315              		@ frame_needed = 0, uses_anonymous_args = 0
 316 0000 00B5     		push	{lr}
 317              		.cfi_def_cfa_offset 4
 318              		.cfi_offset 14, -4
 319 0002 83B0     		sub	sp, sp, #12
 320              		.cfi_def_cfa_offset 16
 321 0004 0190     		str	r0, [sp, #4]
 322              		.loc 6 54 0
 323 0006 019B     		ldr	r3, [sp, #4]
 324 0008 1846     		mov	r0, r3
 325 000a FFF7FEFF 		bl	chMtxLock
 326              		.loc 6 55 0
 327 000e 03B0     		add	sp, sp, #12
 328              		@ sp needed
 329 0010 5DF804FB 		ldr	pc, [sp], #4
 330              		.cfi_endproc
 331              	.LFE185:
 332              		.size	_ZN3r2p6Mutex_7acquireEv, .-_ZN3r2p6Mutex_7acquireEv
 333 0014 AFF30080 		.section	.text._ZN3r2p6Mutex_7releaseEv,"axG",%progbits,_ZN3r2p6Mutex_7releaseEv,comdat
 333      AFF30080 
 333      AFF30080 
ARM GAS  /tmp/ccl0SayN.s 			page 7


 334              		.align	2
 335              		.p2align 4,,15
 336              		.weak	_ZN3r2p6Mutex_7releaseEv
 337              		.thumb
 338              		.thumb_func
 339              		.type	_ZN3r2p6Mutex_7releaseEv, %function
 340              	_ZN3r2p6Mutex_7releaseEv:
 341              	.LFB186:
 342              		.loc 6 59 0
 343              		.cfi_startproc
 344              		@ args = 0, pretend = 0, frame = 8
 345              		@ frame_needed = 0, uses_anonymous_args = 0
 346 0000 00B5     		push	{lr}
 347              		.cfi_def_cfa_offset 4
 348              		.cfi_offset 14, -4
 349 0002 83B0     		sub	sp, sp, #12
 350              		.cfi_def_cfa_offset 16
 351 0004 0190     		str	r0, [sp, #4]
 352              		.loc 6 61 0
 353 0006 FFF7FEFF 		bl	chMtxUnlock
 354              		.loc 6 62 0
 355 000a 03B0     		add	sp, sp, #12
 356              		@ sp needed
 357 000c 5DF804FB 		ldr	pc, [sp], #4
 358              		.cfi_endproc
 359              	.LFE186:
 360              		.size	_ZN3r2p6Mutex_7releaseEv, .-_ZN3r2p6Mutex_7releaseEv
 361              		.section	.text._ZN3r2p6Mutex_C2Ev,"axG",%progbits,_ZN3r2p6Mutex_C5Ev,comdat
 362              		.align	2
 363              		.p2align 4,,15
 364              		.weak	_ZN3r2p6Mutex_C2Ev
 365              		.thumb
 366              		.thumb_func
 367              		.type	_ZN3r2p6Mutex_C2Ev, %function
 368              	_ZN3r2p6Mutex_C2Ev:
 369              	.LFB189:
 370              		.loc 6 73 0
 371              		.cfi_startproc
 372              		@ args = 0, pretend = 0, frame = 8
 373              		@ frame_needed = 0, uses_anonymous_args = 0
 374 0000 00B5     		push	{lr}
 375              		.cfi_def_cfa_offset 4
 376              		.cfi_offset 14, -4
 377 0002 83B0     		sub	sp, sp, #12
 378              		.cfi_def_cfa_offset 16
 379 0004 0190     		str	r0, [sp, #4]
 380              	.LBB10:
 381              		.loc 6 73 0
 382 0006 0198     		ldr	r0, [sp, #4]
 383 0008 FFF7FEFF 		bl	_ZN3r2p10UncopyableC2Ev
 384              		.loc 6 75 0
 385 000c 0198     		ldr	r0, [sp, #4]
 386 000e FFF7FEFF 		bl	_ZN3r2p6Mutex_10initializeEv
 387              	.LBE10:
 388              		.loc 6 76 0
 389 0012 019B     		ldr	r3, [sp, #4]
 390 0014 1846     		mov	r0, r3
ARM GAS  /tmp/ccl0SayN.s 			page 8


 391 0016 03B0     		add	sp, sp, #12
 392              		@ sp needed
 393 0018 5DF804FB 		ldr	pc, [sp], #4
 394              		.cfi_endproc
 395              	.LFE189:
 396              		.size	_ZN3r2p6Mutex_C2Ev, .-_ZN3r2p6Mutex_C2Ev
 397              		.weak	_ZN3r2p6Mutex_C1Ev
 398              		.thumb_set _ZN3r2p6Mutex_C1Ev,_ZN3r2p6Mutex_C2Ev
 399 001c AFF30080 		.section	.text._ZN3r2p5Mutex7acquireEv,"axG",%progbits,_ZN3r2p5Mutex7acquireEv,comdat
 400              		.align	2
 401              		.p2align 4,,15
 402              		.weak	_ZN3r2p5Mutex7acquireEv
 403              		.thumb
 404              		.thumb_func
 405              		.type	_ZN3r2p5Mutex7acquireEv, %function
 406              	_ZN3r2p5Mutex7acquireEv:
 407              	.LFB197:
 408              		.file 7 "/home/dave/r2p-sdk/core/Middleware/include/r2p/Mutex.hpp"
 409              		.loc 7 48 0
 410              		.cfi_startproc
 411              		@ args = 0, pretend = 0, frame = 8
 412              		@ frame_needed = 0, uses_anonymous_args = 0
 413 0000 00B5     		push	{lr}
 414              		.cfi_def_cfa_offset 4
 415              		.cfi_offset 14, -4
 416 0002 83B0     		sub	sp, sp, #12
 417              		.cfi_def_cfa_offset 16
 418 0004 0190     		str	r0, [sp, #4]
 419              		.loc 7 49 0
 420 0006 019B     		ldr	r3, [sp, #4]
 421 0008 0433     		adds	r3, r3, #4
 422 000a 1846     		mov	r0, r3
 423 000c FFF7FEFF 		bl	_ZN3r2p6Mutex_7acquireEv
 424              		.loc 7 50 0
 425 0010 03B0     		add	sp, sp, #12
 426              		@ sp needed
 427 0012 5DF804FB 		ldr	pc, [sp], #4
 428              		.cfi_endproc
 429              	.LFE197:
 430              		.size	_ZN3r2p5Mutex7acquireEv, .-_ZN3r2p5Mutex7acquireEv
 431 0016 00BFAFF3 		.section	.text._ZN3r2p5Mutex7releaseEv,"axG",%progbits,_ZN3r2p5Mutex7releaseEv,comdat
 431      0080AFF3 
 431      0080
 432              		.align	2
 433              		.p2align 4,,15
 434              		.weak	_ZN3r2p5Mutex7releaseEv
 435              		.thumb
 436              		.thumb_func
 437              		.type	_ZN3r2p5Mutex7releaseEv, %function
 438              	_ZN3r2p5Mutex7releaseEv:
 439              	.LFB198:
 440              		.loc 7 54 0
 441              		.cfi_startproc
 442              		@ args = 0, pretend = 0, frame = 8
 443              		@ frame_needed = 0, uses_anonymous_args = 0
 444 0000 00B5     		push	{lr}
 445              		.cfi_def_cfa_offset 4
ARM GAS  /tmp/ccl0SayN.s 			page 9


 446              		.cfi_offset 14, -4
 447 0002 83B0     		sub	sp, sp, #12
 448              		.cfi_def_cfa_offset 16
 449 0004 0190     		str	r0, [sp, #4]
 450              		.loc 7 55 0
 451 0006 019B     		ldr	r3, [sp, #4]
 452 0008 0433     		adds	r3, r3, #4
 453 000a 1846     		mov	r0, r3
 454 000c FFF7FEFF 		bl	_ZN3r2p6Mutex_7releaseEv
 455              		.loc 7 56 0
 456 0010 03B0     		add	sp, sp, #12
 457              		@ sp needed
 458 0012 5DF804FB 		ldr	pc, [sp], #4
 459              		.cfi_endproc
 460              	.LFE198:
 461              		.size	_ZN3r2p5Mutex7releaseEv, .-_ZN3r2p5Mutex7releaseEv
 462 0016 00BFAFF3 		.section	.text._ZN3r2p6Mutex_D2Ev,"axG",%progbits,_ZN3r2p6Mutex_D5Ev,comdat
 462      0080AFF3 
 462      0080
 463              		.align	2
 464              		.p2align 4,,15
 465              		.weak	_ZN3r2p6Mutex_D2Ev
 466              		.thumb
 467              		.thumb_func
 468              		.type	_ZN3r2p6Mutex_D2Ev, %function
 469              	_ZN3r2p6Mutex_D2Ev:
 470              	.LFB201:
 471              		.loc 6 9 0
 472              		.cfi_startproc
 473              		@ args = 0, pretend = 0, frame = 8
 474              		@ frame_needed = 0, uses_anonymous_args = 0
 475 0000 00B5     		push	{lr}
 476              		.cfi_def_cfa_offset 4
 477              		.cfi_offset 14, -4
 478 0002 83B0     		sub	sp, sp, #12
 479              		.cfi_def_cfa_offset 16
 480 0004 0190     		str	r0, [sp, #4]
 481              	.LBB11:
 482              		.loc 6 9 0
 483 0006 0198     		ldr	r0, [sp, #4]
 484 0008 FFF7FEFF 		bl	_ZN3r2p10UncopyableD2Ev
 485              	.LBE11:
 486 000c 019B     		ldr	r3, [sp, #4]
 487 000e 1846     		mov	r0, r3
 488 0010 03B0     		add	sp, sp, #12
 489              		@ sp needed
 490 0012 5DF804FB 		ldr	pc, [sp], #4
 491              		.cfi_endproc
 492              	.LFE201:
 493              		.size	_ZN3r2p6Mutex_D2Ev, .-_ZN3r2p6Mutex_D2Ev
 494              		.weak	_ZN3r2p6Mutex_D1Ev
 495              		.thumb_set _ZN3r2p6Mutex_D1Ev,_ZN3r2p6Mutex_D2Ev
 496 0016 00BFAFF3 		.section	.text._ZN3r2p5MutexC2Ev,"axG",%progbits,_ZN3r2p5MutexC5Ev,comdat
 496      0080AFF3 
 496      0080
 497              		.align	2
 498              		.p2align 4,,15
ARM GAS  /tmp/ccl0SayN.s 			page 10


 499              		.weak	_ZN3r2p5MutexC2Ev
 500              		.thumb
 501              		.thumb_func
 502              		.type	_ZN3r2p5MutexC2Ev, %function
 503              	_ZN3r2p5MutexC2Ev:
 504              	.LFB203:
 505              		.loc 7 60 0
 506              		.cfi_startproc
 507              		@ args = 0, pretend = 0, frame = 8
 508              		@ frame_needed = 0, uses_anonymous_args = 0
 509 0000 00B5     		push	{lr}
 510              		.cfi_def_cfa_offset 4
 511              		.cfi_offset 14, -4
 512 0002 83B0     		sub	sp, sp, #12
 513              		.cfi_def_cfa_offset 16
 514 0004 0190     		str	r0, [sp, #4]
 515              	.LBB12:
 516              		.loc 7 62 0
 517 0006 0198     		ldr	r0, [sp, #4]
 518 0008 FFF7FEFF 		bl	_ZN3r2p10UncopyableC2Ev
 519 000c 019B     		ldr	r3, [sp, #4]
 520 000e 0433     		adds	r3, r3, #4
 521 0010 1846     		mov	r0, r3
 522 0012 FFF7FEFF 		bl	_ZN3r2p6Mutex_C1Ev
 523              	.LBE12:
 524              		.loc 7 63 0
 525 0016 019B     		ldr	r3, [sp, #4]
 526 0018 1846     		mov	r0, r3
 527 001a 03B0     		add	sp, sp, #12
 528              		@ sp needed
 529 001c 5DF804FB 		ldr	pc, [sp], #4
 530              		.cfi_endproc
 531              	.LFE203:
 532              		.size	_ZN3r2p5MutexC2Ev, .-_ZN3r2p5MutexC2Ev
 533              		.weak	_ZN3r2p5MutexC1Ev
 534              		.thumb_set _ZN3r2p5MutexC1Ev,_ZN3r2p5MutexC2Ev
 535              		.section	.text._ZNK3r2p11MemoryPool_13get_item_sizeEv,"axG",%progbits,_ZNK3r2p11MemoryPool_13get_i
 536              		.align	2
 537              		.p2align 4,,15
 538              		.weak	_ZNK3r2p11MemoryPool_13get_item_sizeEv
 539              		.thumb
 540              		.thumb_func
 541              		.type	_ZNK3r2p11MemoryPool_13get_item_sizeEv, %function
 542              	_ZNK3r2p11MemoryPool_13get_item_sizeEv:
 543              	.LFB227:
 544              		.file 8 "/home/dave/r2p-sdk/core/Middleware/port/chibios/include/r2p/impl/MemoryPool_.hpp"
 545              		.loc 8 39 0
 546              		.cfi_startproc
 547              		@ args = 0, pretend = 0, frame = 8
 548              		@ frame_needed = 0, uses_anonymous_args = 0
 549              		@ link register save eliminated.
 550 0000 82B0     		sub	sp, sp, #8
 551              		.cfi_def_cfa_offset 8
 552 0002 0190     		str	r0, [sp, #4]
 553              		.loc 8 41 0
 554 0004 019B     		ldr	r3, [sp, #4]
 555 0006 5B68     		ldr	r3, [r3, #4]
ARM GAS  /tmp/ccl0SayN.s 			page 11


 556              		.loc 8 42 0
 557 0008 1846     		mov	r0, r3
 558 000a 02B0     		add	sp, sp, #8
 559              		@ sp needed
 560 000c 7047     		bx	lr
 561              		.cfi_endproc
 562              	.LFE227:
 563              		.size	_ZNK3r2p11MemoryPool_13get_item_sizeEv, .-_ZNK3r2p11MemoryPool_13get_item_sizeEv
 564 000e 00BF     		.section	.text._ZN3r2p11MemoryPool_6extendEPvj,"axG",%progbits,_ZN3r2p11MemoryPool_6extendEPvj,com
 565              		.align	2
 566              		.p2align 4,,15
 567              		.weak	_ZN3r2p11MemoryPool_6extendEPvj
 568              		.thumb
 569              		.thumb_func
 570              		.type	_ZN3r2p11MemoryPool_6extendEPvj, %function
 571              	_ZN3r2p11MemoryPool_6extendEPvj:
 572              	.LFB233:
 573              		.loc 8 85 0
 574              		.cfi_startproc
 575              		@ args = 0, pretend = 0, frame = 16
 576              		@ frame_needed = 0, uses_anonymous_args = 0
 577 0000 00B5     		push	{lr}
 578              		.cfi_def_cfa_offset 4
 579              		.cfi_offset 14, -4
 580 0002 85B0     		sub	sp, sp, #20
 581              		.cfi_def_cfa_offset 24
 582 0004 0390     		str	r0, [sp, #12]
 583 0006 0291     		str	r1, [sp, #8]
 584 0008 0192     		str	r2, [sp, #4]
 585              		.loc 8 87 0
 586 000a 039B     		ldr	r3, [sp, #12]
 587 000c 1846     		mov	r0, r3
 588 000e 0299     		ldr	r1, [sp, #8]
 589 0010 019A     		ldr	r2, [sp, #4]
 590 0012 FFF7FEFF 		bl	chPoolLoadArray
 591              		.loc 8 88 0
 592 0016 05B0     		add	sp, sp, #20
 593              		@ sp needed
 594 0018 5DF804FB 		ldr	pc, [sp], #4
 595              		.cfi_endproc
 596              	.LFE233:
 597              		.size	_ZN3r2p11MemoryPool_6extendEPvj, .-_ZN3r2p11MemoryPool_6extendEPvj
 598 001c AFF30080 		.section	.rodata
 599              		.align	2
 600              	.LC0:
 601 0000 5232505F 		.ascii	"R2P_ASSERT()\000"
 601      41535345 
 601      52542829 
 601      00
 602 000d 000000   		.section	.text._ZN3r2p13BasePublisher17notify_advertisedERNS_5TopicE,"axG",%progbits,_ZN3r2p13Base
 603              		.align	2
 604              		.p2align 4,,15
 605              		.weak	_ZN3r2p13BasePublisher17notify_advertisedERNS_5TopicE
 606              		.thumb
 607              		.thumb_func
 608              		.type	_ZN3r2p13BasePublisher17notify_advertisedERNS_5TopicE, %function
 609              	_ZN3r2p13BasePublisher17notify_advertisedERNS_5TopicE:
ARM GAS  /tmp/ccl0SayN.s 			page 12


 610              	.LFB248:
 611              		.file 9 "/home/dave/r2p-sdk/core/Middleware/include/r2p/BasePublisher.hpp"
 612              		.loc 9 55 0
 613              		.cfi_startproc
 614              		@ args = 0, pretend = 0, frame = 8
 615              		@ frame_needed = 0, uses_anonymous_args = 0
 616 0000 00B5     		push	{lr}
 617              		.cfi_def_cfa_offset 4
 618              		.cfi_offset 14, -4
 619 0002 83B0     		sub	sp, sp, #12
 620              		.cfi_def_cfa_offset 16
 621 0004 0190     		str	r0, [sp, #4]
 622 0006 0091     		str	r1, [sp]
 623              		.loc 9 57 0
 624 0008 019B     		ldr	r3, [sp, #4]
 625 000a 5B68     		ldr	r3, [r3, #4]
 626 000c 002B     		cmp	r3, #0
 627 000e 02D0     		beq	.L35
 628              		.loc 9 57 0 is_stmt 0 discriminator 1
 629 0010 0448     		ldr	r0, .L36
 630 0012 FFF7FEFF 		bl	chDbgPanic
 631              	.L35:
 632              		.loc 9 59 0 is_stmt 1
 633 0016 019B     		ldr	r3, [sp, #4]
 634 0018 009A     		ldr	r2, [sp]
 635 001a 5A60     		str	r2, [r3, #4]
 636              		.loc 9 60 0
 637 001c 03B0     		add	sp, sp, #12
 638              		@ sp needed
 639 001e 5DF804FB 		ldr	pc, [sp], #4
 640              	.L37:
 641 0022 00BF     		.align	2
 642              	.L36:
 643 0024 00000000 		.word	.LC0
 644              		.cfi_endproc
 645              	.LFE248:
 646              		.size	_ZN3r2p13BasePublisher17notify_advertisedERNS_5TopicE, .-_ZN3r2p13BasePublisher17notify_adve
 647 0028 AFF30080 		.section	.text._ZN3r2p13BasePublisher9has_topicERKS0_PKc,"axG",%progbits,_ZN3r2p13BasePublisher9ha
 647      AFF30080 
 648              		.align	2
 649              		.p2align 4,,15
 650              		.weak	_ZN3r2p13BasePublisher9has_topicERKS0_PKc
 651              		.thumb
 652              		.thumb_func
 653              		.type	_ZN3r2p13BasePublisher9has_topicERKS0_PKc, %function
 654              	_ZN3r2p13BasePublisher9has_topicERKS0_PKc:
 655              	.LFB253:
 656              		.loc 9 102 0
 657              		.cfi_startproc
 658              		@ args = 0, pretend = 0, frame = 8
 659              		@ frame_needed = 0, uses_anonymous_args = 0
 660 0000 00B5     		push	{lr}
 661              		.cfi_def_cfa_offset 4
 662              		.cfi_offset 14, -4
 663 0002 83B0     		sub	sp, sp, #12
 664              		.cfi_def_cfa_offset 16
 665 0004 0190     		str	r0, [sp, #4]
ARM GAS  /tmp/ccl0SayN.s 			page 13


 666 0006 0091     		str	r1, [sp]
 667              		.loc 9 104 0
 668 0008 019B     		ldr	r3, [sp, #4]
 669 000a 5B68     		ldr	r3, [r3, #4]
 670 000c 002B     		cmp	r3, #0
 671 000e 0AD0     		beq	.L39
 672              		.loc 9 104 0 is_stmt 0 discriminator 1
 673 0010 019B     		ldr	r3, [sp, #4]
 674 0012 5B68     		ldr	r3, [r3, #4]
 675 0014 1846     		mov	r0, r3
 676 0016 0099     		ldr	r1, [sp]
 677 0018 FFF7FEFF 		bl	_ZN3r2p5Topic8has_nameERKS0_PKc
 678 001c 0346     		mov	r3, r0
 679 001e 002B     		cmp	r3, #0
 680 0020 01D0     		beq	.L39
 681              		.loc 9 104 0 discriminator 3
 682 0022 0123     		movs	r3, #1
 683 0024 00E0     		b	.L40
 684              	.L39:
 685              		.loc 9 104 0 discriminator 2
 686 0026 0023     		movs	r3, #0
 687              	.L40:
 688              		.loc 9 105 0 is_stmt 1 discriminator 4
 689 0028 1846     		mov	r0, r3
 690 002a 03B0     		add	sp, sp, #12
 691              		@ sp needed
 692 002c 5DF804FB 		ldr	pc, [sp], #4
 693              		.cfi_endproc
 694              	.LFE253:
 695              		.size	_ZN3r2p13BasePublisher9has_topicERKS0_PKc, .-_ZN3r2p13BasePublisher9has_topicERKS0_PKc
 696              		.section	.text._ZN3r2p14BaseSubscriber17notify_subscribedERNS_5TopicE,"axG",%progbits,_ZN3r2p14Bas
 697              		.align	2
 698              		.p2align 4,,15
 699              		.weak	_ZN3r2p14BaseSubscriber17notify_subscribedERNS_5TopicE
 700              		.thumb
 701              		.thumb_func
 702              		.type	_ZN3r2p14BaseSubscriber17notify_subscribedERNS_5TopicE, %function
 703              	_ZN3r2p14BaseSubscriber17notify_subscribedERNS_5TopicE:
 704              	.LFB266:
 705              		.file 10 "/home/dave/r2p-sdk/core/Middleware/include/r2p/BaseSubscriber.hpp"
 706              		.loc 10 49 0
 707              		.cfi_startproc
 708              		@ args = 0, pretend = 0, frame = 8
 709              		@ frame_needed = 0, uses_anonymous_args = 0
 710 0000 00B5     		push	{lr}
 711              		.cfi_def_cfa_offset 4
 712              		.cfi_offset 14, -4
 713 0002 83B0     		sub	sp, sp, #12
 714              		.cfi_def_cfa_offset 16
 715 0004 0190     		str	r0, [sp, #4]
 716 0006 0091     		str	r1, [sp]
 717              		.loc 10 51 0
 718 0008 019B     		ldr	r3, [sp, #4]
 719 000a 5B68     		ldr	r3, [r3, #4]
 720 000c 002B     		cmp	r3, #0
 721 000e 02D0     		beq	.L43
 722              		.loc 10 51 0 is_stmt 0 discriminator 1
ARM GAS  /tmp/ccl0SayN.s 			page 14


 723 0010 0448     		ldr	r0, .L44
 724 0012 FFF7FEFF 		bl	chDbgPanic
 725              	.L43:
 726              		.loc 10 53 0 is_stmt 1
 727 0016 019B     		ldr	r3, [sp, #4]
 728 0018 009A     		ldr	r2, [sp]
 729 001a 5A60     		str	r2, [r3, #4]
 730              		.loc 10 54 0
 731 001c 03B0     		add	sp, sp, #12
 732              		@ sp needed
 733 001e 5DF804FB 		ldr	pc, [sp], #4
 734              	.L45:
 735 0022 00BF     		.align	2
 736              	.L44:
 737 0024 00000000 		.word	.LC0
 738              		.cfi_endproc
 739              	.LFE266:
 740              		.size	_ZN3r2p14BaseSubscriber17notify_subscribedERNS_5TopicE, .-_ZN3r2p14BaseSubscriber17notify_su
 741 0028 AFF30080 		.section	.text._ZNK3r2p5Topic8get_nameEv,"axG",%progbits,_ZNK3r2p5Topic8get_nameEv,comdat
 741      AFF30080 
 742              		.align	2
 743              		.p2align 4,,15
 744              		.weak	_ZNK3r2p5Topic8get_nameEv
 745              		.thumb
 746              		.thumb_func
 747              		.type	_ZNK3r2p5Topic8get_nameEv, %function
 748              	_ZNK3r2p5Topic8get_nameEv:
 749              	.LFB333:
 750              		.file 11 "/home/dave/r2p-sdk/core/Middleware/include/r2p/Topic.hpp"
 751              		.loc 11 131 0
 752              		.cfi_startproc
 753              		@ args = 0, pretend = 0, frame = 8
 754              		@ frame_needed = 0, uses_anonymous_args = 0
 755              		@ link register save eliminated.
 756 0000 82B0     		sub	sp, sp, #8
 757              		.cfi_def_cfa_offset 8
 758 0002 0190     		str	r0, [sp, #4]
 759              		.loc 11 133 0
 760 0004 019B     		ldr	r3, [sp, #4]
 761 0006 1B68     		ldr	r3, [r3]
 762              		.loc 11 134 0
 763 0008 1846     		mov	r0, r3
 764 000a 02B0     		add	sp, sp, #8
 765              		@ sp needed
 766 000c 7047     		bx	lr
 767              		.cfi_endproc
 768              	.LFE333:
 769              		.size	_ZNK3r2p5Topic8get_nameEv, .-_ZNK3r2p5Topic8get_nameEv
 770 000e 00BF     		.section	.text._ZNK3r2p5Topic13get_type_sizeEv,"axG",%progbits,_ZNK3r2p5Topic13get_type_sizeEv,com
 771              		.align	2
 772              		.p2align 4,,15
 773              		.weak	_ZNK3r2p5Topic13get_type_sizeEv
 774              		.thumb
 775              		.thumb_func
 776              		.type	_ZNK3r2p5Topic13get_type_sizeEv, %function
 777              	_ZNK3r2p5Topic13get_type_sizeEv:
 778              	.LFB335:
ARM GAS  /tmp/ccl0SayN.s 			page 15


 779              		.loc 11 145 0
 780              		.cfi_startproc
 781              		@ args = 0, pretend = 0, frame = 8
 782              		@ frame_needed = 0, uses_anonymous_args = 0
 783 0000 00B5     		push	{lr}
 784              		.cfi_def_cfa_offset 4
 785              		.cfi_offset 14, -4
 786 0002 83B0     		sub	sp, sp, #12
 787              		.cfi_def_cfa_offset 16
 788 0004 0190     		str	r0, [sp, #4]
 789              		.loc 11 147 0
 790 0006 019B     		ldr	r3, [sp, #4]
 791 0008 0833     		adds	r3, r3, #8
 792 000a 1846     		mov	r0, r3
 793 000c FFF7FEFF 		bl	_ZNK3r2p11MemoryPool_13get_item_sizeEv
 794 0010 0346     		mov	r3, r0
 795              		.loc 11 148 0
 796 0012 1846     		mov	r0, r3
 797 0014 03B0     		add	sp, sp, #12
 798              		@ sp needed
 799 0016 5DF804FB 		ldr	pc, [sp], #4
 800              		.cfi_endproc
 801              	.LFE335:
 802              		.size	_ZNK3r2p5Topic13get_type_sizeEv, .-_ZNK3r2p5Topic13get_type_sizeEv
 803 001a 00BFAFF3 		.section	.text._ZN3r2p5Topic11extend_poolEPNS_7MessageEj,"axG",%progbits,_ZN3r2p5Topic11extend_poo
 803      0080
 804              		.align	2
 805              		.p2align 4,,15
 806              		.weak	_ZN3r2p5Topic11extend_poolEPNS_7MessageEj
 807              		.thumb
 808              		.thumb_func
 809              		.type	_ZN3r2p5Topic11extend_poolEPNS_7MessageEj, %function
 810              	_ZN3r2p5Topic11extend_poolEPNS_7MessageEj:
 811              	.LFB358:
 812              		.loc 11 330 0
 813              		.cfi_startproc
 814              		@ args = 0, pretend = 0, frame = 16
 815              		@ frame_needed = 0, uses_anonymous_args = 0
 816 0000 00B5     		push	{lr}
 817              		.cfi_def_cfa_offset 4
 818              		.cfi_offset 14, -4
 819 0002 85B0     		sub	sp, sp, #20
 820              		.cfi_def_cfa_offset 24
 821 0004 0390     		str	r0, [sp, #12]
 822 0006 0291     		str	r1, [sp, #8]
 823 0008 0192     		str	r2, [sp, #4]
 824              		.loc 11 332 0
 825 000a 039B     		ldr	r3, [sp, #12]
 826 000c 0833     		adds	r3, r3, #8
 827 000e 1846     		mov	r0, r3
 828 0010 0299     		ldr	r1, [sp, #8]
 829 0012 019A     		ldr	r2, [sp, #4]
 830 0014 FFF7FEFF 		bl	_ZN3r2p11MemoryPool_6extendEPvj
 831              		.loc 11 333 0
 832 0018 05B0     		add	sp, sp, #20
 833              		@ sp needed
 834 001a 5DF804FB 		ldr	pc, [sp], #4
ARM GAS  /tmp/ccl0SayN.s 			page 16


 835              		.cfi_endproc
 836              	.LFE358:
 837              		.size	_ZN3r2p5Topic11extend_poolEPNS_7MessageEj, .-_ZN3r2p5Topic11extend_poolEPNS_7MessageEj
 838 001e 00BF     		.section	.text._ZN3r2p5Topic8has_nameERKS0_PKc,"axG",%progbits,_ZN3r2p5Topic8has_nameERKS0_PKc,com
 839              		.align	2
 840              		.p2align 4,,15
 841              		.weak	_ZN3r2p5Topic8has_nameERKS0_PKc
 842              		.thumb
 843              		.thumb_func
 844              		.type	_ZN3r2p5Topic8has_nameERKS0_PKc, %function
 845              	_ZN3r2p5Topic8has_nameERKS0_PKc:
 846              	.LFB359:
 847              		.loc 11 337 0
 848              		.cfi_startproc
 849              		@ args = 0, pretend = 0, frame = 8
 850              		@ frame_needed = 0, uses_anonymous_args = 0
 851 0000 00B5     		push	{lr}
 852              		.cfi_def_cfa_offset 4
 853              		.cfi_offset 14, -4
 854 0002 83B0     		sub	sp, sp, #12
 855              		.cfi_def_cfa_offset 16
 856 0004 0190     		str	r0, [sp, #4]
 857 0006 0091     		str	r1, [sp]
 858              		.loc 11 339 0
 859 0008 009B     		ldr	r3, [sp]
 860 000a 002B     		cmp	r3, #0
 861 000c 0DD0     		beq	.L52
 862              		.loc 11 340 0 discriminator 1
 863 000e 0198     		ldr	r0, [sp, #4]
 864 0010 FFF7FEFF 		bl	_ZNK3r2p5Topic8get_nameEv
 865 0014 0346     		mov	r3, r0
 866 0016 1846     		mov	r0, r3
 867 0018 0099     		ldr	r1, [sp]
 868 001a 1022     		movs	r2, #16
 869 001c FFF7FEFF 		bl	strncmp
 870 0020 0346     		mov	r3, r0
 871              		.loc 11 339 0 discriminator 1
 872 0022 002B     		cmp	r3, #0
 873 0024 01D1     		bne	.L52
 874              		.loc 11 339 0 is_stmt 0 discriminator 3
 875 0026 0123     		movs	r3, #1
 876 0028 00E0     		b	.L53
 877              	.L52:
 878              		.loc 11 339 0 discriminator 2
 879 002a 0023     		movs	r3, #0
 880              	.L53:
 881              		.loc 11 341 0 is_stmt 1
 882 002c 1846     		mov	r0, r3
 883 002e 03B0     		add	sp, sp, #12
 884              		@ sp needed
 885 0030 5DF804FB 		ldr	pc, [sp], #4
 886              		.cfi_endproc
 887              	.LFE359:
 888              		.size	_ZN3r2p5Topic8has_nameERKS0_PKc, .-_ZN3r2p5Topic8has_nameERKS0_PKc
 889 0034 AFF30080 		.section	.text._ZN3r2p5MutexD2Ev,"axG",%progbits,_ZN3r2p5MutexD5Ev,comdat
 889      AFF30080 
 889      AFF30080 
ARM GAS  /tmp/ccl0SayN.s 			page 17


 890              		.align	2
 891              		.p2align 4,,15
 892              		.weak	_ZN3r2p5MutexD2Ev
 893              		.thumb
 894              		.thumb_func
 895              		.type	_ZN3r2p5MutexD2Ev, %function
 896              	_ZN3r2p5MutexD2Ev:
 897              	.LFB384:
 898              		.loc 7 9 0
 899              		.cfi_startproc
 900              		@ args = 0, pretend = 0, frame = 8
 901              		@ frame_needed = 0, uses_anonymous_args = 0
 902 0000 00B5     		push	{lr}
 903              		.cfi_def_cfa_offset 4
 904              		.cfi_offset 14, -4
 905 0002 83B0     		sub	sp, sp, #12
 906              		.cfi_def_cfa_offset 16
 907 0004 0190     		str	r0, [sp, #4]
 908              	.LBB13:
 909              		.loc 7 9 0
 910 0006 019B     		ldr	r3, [sp, #4]
 911 0008 0433     		adds	r3, r3, #4
 912 000a 1846     		mov	r0, r3
 913 000c FFF7FEFF 		bl	_ZN3r2p6Mutex_D1Ev
 914 0010 0198     		ldr	r0, [sp, #4]
 915 0012 FFF7FEFF 		bl	_ZN3r2p10UncopyableD2Ev
 916              	.LBE13:
 917 0016 019B     		ldr	r3, [sp, #4]
 918 0018 1846     		mov	r0, r3
 919 001a 03B0     		add	sp, sp, #12
 920              		@ sp needed
 921 001c 5DF804FB 		ldr	pc, [sp], #4
 922              		.cfi_endproc
 923              	.LFE384:
 924              		.size	_ZN3r2p5MutexD2Ev, .-_ZN3r2p5MutexD2Ev
 925              		.weak	_ZN3r2p5MutexD1Ev
 926              		.thumb_set _ZN3r2p5MutexD1Ev,_ZN3r2p5MutexD2Ev
 927              		.section	.text._ZN3r2p9Transport15touch_publisherERNS_5TopicEPKh,"ax",%progbits
 928              		.align	2
 929              		.p2align 4,,15
 930              		.global	_ZN3r2p9Transport15touch_publisherERNS_5TopicEPKh
 931              		.thumb
 932              		.thumb_func
 933              		.type	_ZN3r2p9Transport15touch_publisherERNS_5TopicEPKh, %function
 934              	_ZN3r2p9Transport15touch_publisherERNS_5TopicEPKh:
 935              	.LFB598:
 936              		.file 12 "/home/dave/r2p-sdk/core/Middleware/src/Transport.cpp"
 937              		.loc 12 14 0
 938              		.cfi_startproc
 939              		@ args = 0, pretend = 0, frame = 24
 940              		@ frame_needed = 0, uses_anonymous_args = 0
 941 0000 10B5     		push	{r4, lr}
 942              		.cfi_def_cfa_offset 8
 943              		.cfi_offset 4, -8
 944              		.cfi_offset 14, -4
 945 0002 86B0     		sub	sp, sp, #24
 946              		.cfi_def_cfa_offset 32
ARM GAS  /tmp/ccl0SayN.s 			page 18


 947 0004 0390     		str	r0, [sp, #12]
 948 0006 0291     		str	r1, [sp, #8]
 949 0008 0192     		str	r2, [sp, #4]
 950              	.LBB14:
 951              		.loc 12 16 0
 952 000a 039B     		ldr	r3, [sp, #12]
 953 000c 1033     		adds	r3, r3, #16
 954 000e 04AA     		add	r2, sp, #16
 955 0010 1046     		mov	r0, r2
 956 0012 1946     		mov	r1, r3
 957 0014 FFF7FEFF 		bl	_ZN3r2p10ScopedLockINS_5MutexEEC1ERS1_
 958              		.loc 12 20 0
 959 0018 039B     		ldr	r3, [sp, #12]
 960 001a 03F10804 		add	r4, r3, #8
 961 001e 0298     		ldr	r0, [sp, #8]
 962 0020 FFF7FEFF 		bl	_ZNK3r2p5Topic8get_nameEv
 963 0024 0346     		mov	r3, r0
 964 0026 2046     		mov	r0, r4
 965 0028 1949     		ldr	r1, .L63
 966 002a 1A46     		mov	r2, r3
 967 002c FFF7FEFF 		bl	_ZNK3r2p10StaticListINS_15RemotePublisherEE10find_firstIPFbRKNS_13BasePublisherEPKcEcEEPS1_T_PK
 968 0030 0590     		str	r0, [sp, #20]
 969              		.loc 12 21 0
 970 0032 059B     		ldr	r3, [sp, #20]
 971 0034 002B     		cmp	r3, #0
 972 0036 01D0     		beq	.L59
 973              		.loc 12 21 0 is_stmt 0 discriminator 1
 974 0038 0124     		movs	r4, #1
 975 003a 21E0     		b	.L60
 976              	.L59:
 977              		.loc 12 24 0 is_stmt 1
 978 003c 039B     		ldr	r3, [sp, #12]
 979 003e 1B68     		ldr	r3, [r3]
 980 0040 0433     		adds	r3, r3, #4
 981 0042 1B68     		ldr	r3, [r3]
 982 0044 0398     		ldr	r0, [sp, #12]
 983 0046 0299     		ldr	r1, [sp, #8]
 984 0048 019A     		ldr	r2, [sp, #4]
 985 004a 9847     		blx	r3
 986 004c 0590     		str	r0, [sp, #20]
 987              		.loc 12 25 0
 988 004e 059B     		ldr	r3, [sp, #20]
 989 0050 002B     		cmp	r3, #0
 990 0052 01D1     		bne	.L61
 991              		.loc 12 25 0 is_stmt 0 discriminator 1
 992 0054 0024     		movs	r4, #0
 993 0056 13E0     		b	.L60
 994              	.L61:
 995              		.loc 12 27 0 is_stmt 1
 996 0058 059B     		ldr	r3, [sp, #20]
 997 005a 1846     		mov	r0, r3
 998 005c 0299     		ldr	r1, [sp, #8]
 999 005e FFF7FEFF 		bl	_ZN3r2p13BasePublisher17notify_advertisedERNS_5TopicE
 1000              		.loc 12 28 0
 1001 0062 0298     		ldr	r0, [sp, #8]
 1002 0064 0599     		ldr	r1, [sp, #20]
 1003 0066 0B4A     		ldr	r2, .L63+4
ARM GAS  /tmp/ccl0SayN.s 			page 19


 1004 0068 FFF7FEFF 		bl	_ZN3r2p5Topic9advertiseERNS_15RemotePublisherERKNS_4TimeE
 1005              		.loc 12 29 0
 1006 006c 039B     		ldr	r3, [sp, #12]
 1007 006e 03F10802 		add	r2, r3, #8
 1008 0072 059B     		ldr	r3, [sp, #20]
 1009 0074 0C33     		adds	r3, r3, #12
 1010 0076 1046     		mov	r0, r2
 1011 0078 1946     		mov	r1, r3
 1012 007a FFF7FEFF 		bl	_ZN3r2p10StaticListINS_15RemotePublisherEE4linkERNS2_4LinkE
 1013              		.loc 12 31 0
 1014 007e 0124     		movs	r4, #1
 1015              	.L60:
 1016              		.loc 12 31 0 is_stmt 0 discriminator 1
 1017 0080 04AB     		add	r3, sp, #16
 1018 0082 1846     		mov	r0, r3
 1019 0084 FFF7FEFF 		bl	_ZN3r2p10ScopedLockINS_5MutexEED1Ev
 1020 0088 2346     		mov	r3, r4
 1021              	.LBE14:
 1022              		.loc 12 32 0 is_stmt 1 discriminator 1
 1023 008a 1846     		mov	r0, r3
 1024 008c 06B0     		add	sp, sp, #24
 1025              		@ sp needed
 1026 008e 10BD     		pop	{r4, pc}
 1027              	.L64:
 1028              		.align	2
 1029              	.L63:
 1030 0090 00000000 		.word	_ZN3r2p13BasePublisher9has_topicERKS0_PKc
 1031 0094 00000000 		.word	_ZN3r2p4Time8INFINITEE
 1032              		.cfi_endproc
 1033              	.LFE598:
 1034              		.size	_ZN3r2p9Transport15touch_publisherERNS_5TopicEPKh, .-_ZN3r2p9Transport15touch_publisherERNS_
 1035 0098 AFF30080 		.section	.text._ZN3r2p9Transport16touch_subscriberERNS_5TopicEjPh,"ax",%progbits
 1035      AFF30080 
 1036              		.align	2
 1037              		.p2align 4,,15
 1038              		.global	_ZN3r2p9Transport16touch_subscriberERNS_5TopicEjPh
 1039              		.thumb
 1040              		.thumb_func
 1041              		.type	_ZN3r2p9Transport16touch_subscriberERNS_5TopicEjPh, %function
 1042              	_ZN3r2p9Transport16touch_subscriberERNS_5TopicEjPh:
 1043              	.LFB599:
 1044              		.loc 12 36 0
 1045              		.cfi_startproc
 1046              		@ args = 0, pretend = 0, frame = 32
 1047              		@ frame_needed = 0, uses_anonymous_args = 0
 1048 0000 70B5     		push	{r4, r5, r6, lr}
 1049              		.cfi_def_cfa_offset 16
 1050              		.cfi_offset 4, -16
 1051              		.cfi_offset 5, -12
 1052              		.cfi_offset 6, -8
 1053              		.cfi_offset 14, -4
 1054 0002 88B0     		sub	sp, sp, #32
 1055              		.cfi_def_cfa_offset 48
 1056 0004 0390     		str	r0, [sp, #12]
 1057 0006 0291     		str	r1, [sp, #8]
 1058 0008 0192     		str	r2, [sp, #4]
 1059 000a 0093     		str	r3, [sp]
ARM GAS  /tmp/ccl0SayN.s 			page 20


 1060              	.LBB15:
 1061              		.loc 12 38 0
 1062 000c 039B     		ldr	r3, [sp, #12]
 1063 000e 2433     		adds	r3, r3, #36
 1064 0010 04AA     		add	r2, sp, #16
 1065 0012 1046     		mov	r0, r2
 1066 0014 1946     		mov	r1, r3
 1067 0016 FFF7FEFF 		bl	_ZN3r2p10ScopedLockINS_5MutexEEC1ERS1_
 1068              		.loc 12 42 0
 1069 001a 039B     		ldr	r3, [sp, #12]
 1070 001c 03F10C04 		add	r4, r3, #12
 1071 0020 0298     		ldr	r0, [sp, #8]
 1072 0022 FFF7FEFF 		bl	_ZNK3r2p5Topic8get_nameEv
 1073 0026 0346     		mov	r3, r0
 1074 0028 2046     		mov	r0, r4
 1075 002a 4649     		ldr	r1, .L77
 1076 002c 1A46     		mov	r2, r3
 1077 002e FFF7FEFF 		bl	_ZNK3r2p10StaticListINS_16RemoteSubscriberEE10find_firstIPFbRKNS_14BaseSubscriberEPKcEcEEPS1_T_
 1078 0032 0790     		str	r0, [sp, #28]
 1079              		.loc 12 43 0
 1080 0034 079B     		ldr	r3, [sp, #28]
 1081 0036 002B     		cmp	r3, #0
 1082 0038 08D0     		beq	.L66
 1083              		.loc 12 44 0
 1084 003a 039B     		ldr	r3, [sp, #12]
 1085 003c 1B68     		ldr	r3, [r3]
 1086 003e 1B68     		ldr	r3, [r3]
 1087 0040 0398     		ldr	r0, [sp, #12]
 1088 0042 0299     		ldr	r1, [sp, #8]
 1089 0044 009A     		ldr	r2, [sp]
 1090 0046 9847     		blx	r3
 1091              		.loc 12 45 0
 1092 0048 0124     		movs	r4, #1
 1093 004a 72E0     		b	.L67
 1094              	.L66:
 1095              		.loc 12 49 0
 1096 004c 0023     		movs	r3, #0
 1097 004e 0593     		str	r3, [sp, #20]
 1098              		.loc 12 50 0
 1099 0050 0023     		movs	r3, #0
 1100 0052 0693     		str	r3, [sp, #24]
 1101              		.loc 12 53 0
 1102 0054 0298     		ldr	r0, [sp, #8]
 1103 0056 FFF7FEFF 		bl	_ZNK3r2p5Topic13get_type_sizeEv
 1104 005a 0346     		mov	r3, r0
 1105 005c 019A     		ldr	r2, [sp, #4]
 1106 005e 02FB03F3 		mul	r3, r2, r3
 1107              		.loc 12 54 0
 1108 0062 1846     		mov	r0, r3
 1109 0064 FFF7FEFF 		bl	_Znaj
 1110 0068 0590     		str	r0, [sp, #20]
 1111              		.loc 12 55 0
 1112 006a 059B     		ldr	r3, [sp, #20]
 1113 006c 002B     		cmp	r3, #0
 1114 006e 4AD0     		beq	.L68
 1115              		.loc 12 56 0
 1116 0070 019C     		ldr	r4, [sp, #4]
ARM GAS  /tmp/ccl0SayN.s 			page 21


 1117 0072 B4F17E6F 		cmp	r4, #266338304
 1118 0076 01D8     		bhi	.L69
 1119              		.loc 12 56 0 is_stmt 0 discriminator 1
 1120 0078 E300     		lsls	r3, r4, #3
 1121 007a 01E0     		b	.L70
 1122              	.L69:
 1123              		.loc 12 56 0 discriminator 2
 1124 007c 4FF0FF33 		mov	r3, #-1
 1125              	.L70:
 1126              		.loc 12 56 0 discriminator 3
 1127 0080 1846     		mov	r0, r3
 1128 0082 FFF7FEFF 		bl	_Znaj
 1129 0086 0646     		mov	r6, r0
 1130 0088 3346     		mov	r3, r6
 1131 008a 621E     		subs	r2, r4, #1
 1132 008c 1446     		mov	r4, r2
 1133 008e 1D46     		mov	r5, r3
 1134 0090 04E0     		b	.L71
 1135              	.L72:
 1136              		.loc 12 56 0 discriminator 5
 1137 0092 2846     		mov	r0, r5
 1138 0094 FFF7FEFF 		bl	_ZN3r2p22TimestampedMsgPtrQueue5EntryC1Ev
 1139 0098 0835     		adds	r5, r5, #8
 1140 009a 013C     		subs	r4, r4, #1
 1141              	.L71:
 1142              		.loc 12 56 0 discriminator 4
 1143 009c B4F1FF3F 		cmp	r4, #-1
 1144 00a0 F7D1     		bne	.L72
 1145              		.loc 12 56 0 discriminator 6
 1146 00a2 0696     		str	r6, [sp, #24]
 1147              		.loc 12 57 0 is_stmt 1 discriminator 6
 1148 00a4 069B     		ldr	r3, [sp, #24]
 1149 00a6 002B     		cmp	r3, #0
 1150 00a8 2DD0     		beq	.L68
 1151              		.loc 12 58 0
 1152 00aa 039B     		ldr	r3, [sp, #12]
 1153 00ac 1B68     		ldr	r3, [r3]
 1154 00ae 0833     		adds	r3, r3, #8
 1155 00b0 1C68     		ldr	r4, [r3]
 1156 00b2 0398     		ldr	r0, [sp, #12]
 1157 00b4 0299     		ldr	r1, [sp, #8]
 1158 00b6 069A     		ldr	r2, [sp, #24]
 1159 00b8 019B     		ldr	r3, [sp, #4]
 1160 00ba A047     		blx	r4
 1161 00bc 0790     		str	r0, [sp, #28]
 1162              		.loc 12 59 0
 1163 00be 079B     		ldr	r3, [sp, #28]
 1164 00c0 002B     		cmp	r3, #0
 1165 00c2 20D0     		beq	.L68
 1166              		.loc 12 60 0
 1167 00c4 0298     		ldr	r0, [sp, #8]
 1168 00c6 0599     		ldr	r1, [sp, #20]
 1169 00c8 019A     		ldr	r2, [sp, #4]
 1170 00ca FFF7FEFF 		bl	_ZN3r2p5Topic11extend_poolEPNS_7MessageEj
 1171              		.loc 12 61 0
 1172 00ce 079B     		ldr	r3, [sp, #28]
 1173 00d0 1846     		mov	r0, r3
ARM GAS  /tmp/ccl0SayN.s 			page 22


 1174 00d2 0299     		ldr	r1, [sp, #8]
 1175 00d4 FFF7FEFF 		bl	_ZN3r2p14BaseSubscriber17notify_subscribedERNS_5TopicE
 1176              		.loc 12 62 0
 1177 00d8 0298     		ldr	r0, [sp, #8]
 1178 00da 0799     		ldr	r1, [sp, #28]
 1179 00dc 019A     		ldr	r2, [sp, #4]
 1180 00de FFF7FEFF 		bl	_ZN3r2p5Topic9subscribeERNS_16RemoteSubscriberEj
 1181              		.loc 12 63 0
 1182 00e2 039B     		ldr	r3, [sp, #12]
 1183 00e4 03F10C02 		add	r2, r3, #12
 1184 00e8 079B     		ldr	r3, [sp, #28]
 1185 00ea 0C33     		adds	r3, r3, #12
 1186 00ec 1046     		mov	r0, r2
 1187 00ee 1946     		mov	r1, r3
 1188 00f0 FFF7FEFF 		bl	_ZN3r2p10StaticListINS_16RemoteSubscriberEE4linkERNS2_4LinkE
 1189              		.loc 12 64 0
 1190 00f4 039B     		ldr	r3, [sp, #12]
 1191 00f6 1B68     		ldr	r3, [r3]
 1192 00f8 1B68     		ldr	r3, [r3]
 1193 00fa 0398     		ldr	r0, [sp, #12]
 1194 00fc 0299     		ldr	r1, [sp, #8]
 1195 00fe 009A     		ldr	r2, [sp]
 1196 0100 9847     		blx	r3
 1197              		.loc 12 65 0
 1198 0102 0124     		movs	r4, #1
 1199 0104 15E0     		b	.L67
 1200              	.L68:
 1201              		.loc 12 69 0
 1202 0106 059B     		ldr	r3, [sp, #20]
 1203 0108 002B     		cmp	r3, #0
 1204 010a 05D0     		beq	.L73
 1205              		.loc 12 69 0 is_stmt 0 discriminator 1
 1206 010c 069B     		ldr	r3, [sp, #24]
 1207 010e 002B     		cmp	r3, #0
 1208 0110 02D0     		beq	.L73
 1209 0112 079B     		ldr	r3, [sp, #28]
 1210 0114 002B     		cmp	r3, #0
 1211 0116 0BD1     		bne	.L74
 1212              	.L73:
 1213              		.loc 12 70 0 is_stmt 1
 1214 0118 069B     		ldr	r3, [sp, #24]
 1215 011a 002B     		cmp	r3, #0
 1216 011c 02D0     		beq	.L75
 1217              		.loc 12 70 0 is_stmt 0 discriminator 1
 1218 011e 0698     		ldr	r0, [sp, #24]
 1219 0120 FFF7FEFF 		bl	_ZdaPv
 1220              	.L75:
 1221              		.loc 12 71 0 is_stmt 1
 1222 0124 059B     		ldr	r3, [sp, #20]
 1223 0126 002B     		cmp	r3, #0
 1224 0128 02D0     		beq	.L74
 1225              		.loc 12 71 0 is_stmt 0 discriminator 1
 1226 012a 0598     		ldr	r0, [sp, #20]
 1227 012c FFF7FEFF 		bl	_ZdaPv
 1228              	.L74:
 1229              		.loc 12 73 0 is_stmt 1
 1230 0130 0024     		movs	r4, #0
ARM GAS  /tmp/ccl0SayN.s 			page 23


 1231              	.L67:
 1232              		.loc 12 73 0 is_stmt 0 discriminator 1
 1233 0132 04AB     		add	r3, sp, #16
 1234 0134 1846     		mov	r0, r3
 1235 0136 FFF7FEFF 		bl	_ZN3r2p10ScopedLockINS_5MutexEED1Ev
 1236 013a 2346     		mov	r3, r4
 1237              	.LBE15:
 1238              		.loc 12 74 0 is_stmt 1 discriminator 1
 1239 013c 1846     		mov	r0, r3
 1240 013e 08B0     		add	sp, sp, #32
 1241              		@ sp needed
 1242 0140 70BD     		pop	{r4, r5, r6, pc}
 1243              	.L78:
 1244 0142 00BF     		.align	2
 1245              	.L77:
 1246 0144 00000000 		.word	_ZN3r2p14BaseSubscriber9has_topicERKS0_PKc
 1247              		.cfi_endproc
 1248              	.LFE599:
 1249              		.size	_ZN3r2p9Transport16touch_subscriberERNS_5TopicEjPh, .-_ZN3r2p9Transport16touch_subscriberERN
 1250 0148 AFF30080 		.section	.text._ZN3r2p9Transport12advertise_cbERNS_5TopicEPKh,"ax",%progbits
 1250      AFF30080 
 1251              		.align	2
 1252              		.p2align 4,,15
 1253              		.global	_ZN3r2p9Transport12advertise_cbERNS_5TopicEPKh
 1254              		.thumb
 1255              		.thumb_func
 1256              		.type	_ZN3r2p9Transport12advertise_cbERNS_5TopicEPKh, %function
 1257              	_ZN3r2p9Transport12advertise_cbERNS_5TopicEPKh:
 1258              	.LFB600:
 1259              		.loc 12 77 0
 1260              		.cfi_startproc
 1261              		@ args = 0, pretend = 0, frame = 16
 1262              		@ frame_needed = 0, uses_anonymous_args = 0
 1263 0000 00B5     		push	{lr}
 1264              		.cfi_def_cfa_offset 4
 1265              		.cfi_offset 14, -4
 1266 0002 85B0     		sub	sp, sp, #20
 1267              		.cfi_def_cfa_offset 24
 1268 0004 0390     		str	r0, [sp, #12]
 1269 0006 0291     		str	r1, [sp, #8]
 1270 0008 0192     		str	r2, [sp, #4]
 1271              		.loc 12 79 0
 1272 000a 0398     		ldr	r0, [sp, #12]
 1273 000c 0299     		ldr	r1, [sp, #8]
 1274 000e 019A     		ldr	r2, [sp, #4]
 1275 0010 FFF7FEFF 		bl	_ZN3r2p9Transport15touch_publisherERNS_5TopicEPKh
 1276 0014 0346     		mov	r3, r0
 1277              		.loc 12 80 0
 1278 0016 1846     		mov	r0, r3
 1279 0018 05B0     		add	sp, sp, #20
 1280              		@ sp needed
 1281 001a 5DF804FB 		ldr	pc, [sp], #4
 1282              		.cfi_endproc
 1283              	.LFE600:
 1284              		.size	_ZN3r2p9Transport12advertise_cbERNS_5TopicEPKh, .-_ZN3r2p9Transport12advertise_cbERNS_5Topic
 1285 001e 00BF     		.section	.text._ZN3r2p9Transport12subscribe_cbERNS_5TopicEjPh,"ax",%progbits
 1286              		.align	2
ARM GAS  /tmp/ccl0SayN.s 			page 24


 1287              		.p2align 4,,15
 1288              		.global	_ZN3r2p9Transport12subscribe_cbERNS_5TopicEjPh
 1289              		.thumb
 1290              		.thumb_func
 1291              		.type	_ZN3r2p9Transport12subscribe_cbERNS_5TopicEjPh, %function
 1292              	_ZN3r2p9Transport12subscribe_cbERNS_5TopicEjPh:
 1293              	.LFB601:
 1294              		.loc 12 84 0
 1295              		.cfi_startproc
 1296              		@ args = 0, pretend = 0, frame = 16
 1297              		@ frame_needed = 0, uses_anonymous_args = 0
 1298 0000 00B5     		push	{lr}
 1299              		.cfi_def_cfa_offset 4
 1300              		.cfi_offset 14, -4
 1301 0002 85B0     		sub	sp, sp, #20
 1302              		.cfi_def_cfa_offset 24
 1303 0004 0390     		str	r0, [sp, #12]
 1304 0006 0291     		str	r1, [sp, #8]
 1305 0008 0192     		str	r2, [sp, #4]
 1306 000a 0093     		str	r3, [sp]
 1307              		.loc 12 86 0
 1308 000c 0398     		ldr	r0, [sp, #12]
 1309 000e 0299     		ldr	r1, [sp, #8]
 1310 0010 019A     		ldr	r2, [sp, #4]
 1311 0012 009B     		ldr	r3, [sp]
 1312 0014 FFF7FEFF 		bl	_ZN3r2p9Transport16touch_subscriberERNS_5TopicEjPh
 1313 0018 0346     		mov	r3, r0
 1314              		.loc 12 87 0
 1315 001a 1846     		mov	r0, r3
 1316 001c 05B0     		add	sp, sp, #20
 1317              		@ sp needed
 1318 001e 5DF804FB 		ldr	pc, [sp], #4
 1319              		.cfi_endproc
 1320              	.LFE601:
 1321              		.size	_ZN3r2p9Transport12subscribe_cbERNS_5TopicEjPh, .-_ZN3r2p9Transport12subscribe_cbERNS_5Topic
 1322 0022 00BFAFF3 		.section	.text._ZN3r2p9Transport9advertiseERNS_15RemotePublisherEPKcRKNS_4TimeEj,"ax",%progbits
 1322      0080AFF3 
 1322      0080AFF3 
 1322      0080
 1323              		.align	2
 1324              		.p2align 4,,15
 1325              		.global	_ZN3r2p9Transport9advertiseERNS_15RemotePublisherEPKcRKNS_4TimeEj
 1326              		.thumb
 1327              		.thumb_func
 1328              		.type	_ZN3r2p9Transport9advertiseERNS_15RemotePublisherEPKcRKNS_4TimeEj, %function
 1329              	_ZN3r2p9Transport9advertiseERNS_15RemotePublisherEPKcRKNS_4TimeEj:
 1330              	.LFB602:
 1331              		.loc 12 91 0
 1332              		.cfi_startproc
 1333              		@ args = 4, pretend = 0, frame = 16
 1334              		@ frame_needed = 0, uses_anonymous_args = 0
 1335 0000 00B5     		push	{lr}
 1336              		.cfi_def_cfa_offset 4
 1337              		.cfi_offset 14, -4
 1338 0002 87B0     		sub	sp, sp, #28
 1339              		.cfi_def_cfa_offset 32
 1340 0004 0590     		str	r0, [sp, #20]
ARM GAS  /tmp/ccl0SayN.s 			page 25


 1341 0006 0491     		str	r1, [sp, #16]
 1342 0008 0392     		str	r2, [sp, #12]
 1343 000a 0293     		str	r3, [sp, #8]
 1344              		.loc 12 93 0
 1345 000c 059B     		ldr	r3, [sp, #20]
 1346 000e 1033     		adds	r3, r3, #16
 1347 0010 1846     		mov	r0, r3
 1348 0012 FFF7FEFF 		bl	_ZN3r2p5Mutex7acquireEv
 1349              		.loc 12 94 0
 1350 0016 089B     		ldr	r3, [sp, #32]
 1351 0018 0093     		str	r3, [sp]
 1352 001a 1148     		ldr	r0, .L86
 1353 001c 0499     		ldr	r1, [sp, #16]
 1354 001e 039A     		ldr	r2, [sp, #12]
 1355 0020 029B     		ldr	r3, [sp, #8]
 1356 0022 FFF7FEFF 		bl	_ZN3r2p10Middleware9advertiseERNS_15RemotePublisherEPKcRKNS_4TimeEj
 1357 0026 0346     		mov	r3, r0
 1358 0028 002B     		cmp	r3, #0
 1359 002a 0FD0     		beq	.L84
 1360              		.loc 12 95 0
 1361 002c 059B     		ldr	r3, [sp, #20]
 1362 002e 03F10802 		add	r2, r3, #8
 1363 0032 049B     		ldr	r3, [sp, #16]
 1364 0034 0C33     		adds	r3, r3, #12
 1365 0036 1046     		mov	r0, r2
 1366 0038 1946     		mov	r1, r3
 1367 003a FFF7FEFF 		bl	_ZN3r2p10StaticListINS_15RemotePublisherEE4linkERNS2_4LinkE
 1368              		.loc 12 96 0
 1369 003e 059B     		ldr	r3, [sp, #20]
 1370 0040 1033     		adds	r3, r3, #16
 1371 0042 1846     		mov	r0, r3
 1372 0044 FFF7FEFF 		bl	_ZN3r2p5Mutex7releaseEv
 1373              		.loc 12 97 0
 1374 0048 0123     		movs	r3, #1
 1375 004a 05E0     		b	.L85
 1376              	.L84:
 1377              		.loc 12 99 0
 1378 004c 059B     		ldr	r3, [sp, #20]
 1379 004e 1033     		adds	r3, r3, #16
 1380 0050 1846     		mov	r0, r3
 1381 0052 FFF7FEFF 		bl	_ZN3r2p5Mutex7releaseEv
 1382              		.loc 12 100 0
 1383 0056 0023     		movs	r3, #0
 1384              	.L85:
 1385              		.loc 12 102 0
 1386 0058 1846     		mov	r0, r3
 1387 005a 07B0     		add	sp, sp, #28
 1388              		@ sp needed
 1389 005c 5DF804FB 		ldr	pc, [sp], #4
 1390              	.L87:
 1391              		.align	2
 1392              	.L86:
 1393 0060 00000000 		.word	_ZN3r2p10Middleware8instanceE
 1394              		.cfi_endproc
 1395              	.LFE602:
 1396              		.size	_ZN3r2p9Transport9advertiseERNS_15RemotePublisherEPKcRKNS_4TimeEj, .-_ZN3r2p9Transport9adver
 1397 0064 AFF30080 		.section	.text._ZN3r2p9Transport9subscribeERNS_16RemoteSubscriberEPKcPNS_7MessageEjj,"ax",%progbit
ARM GAS  /tmp/ccl0SayN.s 			page 26


 1397      AFF30080 
 1397      AFF30080 
 1398              		.align	2
 1399              		.p2align 4,,15
 1400              		.global	_ZN3r2p9Transport9subscribeERNS_16RemoteSubscriberEPKcPNS_7MessageEjj
 1401              		.thumb
 1402              		.thumb_func
 1403              		.type	_ZN3r2p9Transport9subscribeERNS_16RemoteSubscriberEPKcPNS_7MessageEjj, %function
 1404              	_ZN3r2p9Transport9subscribeERNS_16RemoteSubscriberEPKcPNS_7MessageEjj:
 1405              	.LFB603:
 1406              		.loc 12 107 0
 1407              		.cfi_startproc
 1408              		@ args = 8, pretend = 0, frame = 16
 1409              		@ frame_needed = 0, uses_anonymous_args = 0
 1410 0000 00B5     		push	{lr}
 1411              		.cfi_def_cfa_offset 4
 1412              		.cfi_offset 14, -4
 1413 0002 87B0     		sub	sp, sp, #28
 1414              		.cfi_def_cfa_offset 32
 1415 0004 0590     		str	r0, [sp, #20]
 1416 0006 0491     		str	r1, [sp, #16]
 1417 0008 0392     		str	r2, [sp, #12]
 1418 000a 0293     		str	r3, [sp, #8]
 1419              		.loc 12 109 0
 1420 000c 059B     		ldr	r3, [sp, #20]
 1421 000e 2433     		adds	r3, r3, #36
 1422 0010 1846     		mov	r0, r3
 1423 0012 FFF7FEFF 		bl	_ZN3r2p5Mutex7acquireEv
 1424              		.loc 12 110 0
 1425 0016 089B     		ldr	r3, [sp, #32]
 1426 0018 0093     		str	r3, [sp]
 1427 001a 099B     		ldr	r3, [sp, #36]
 1428 001c 0193     		str	r3, [sp, #4]
 1429 001e 1148     		ldr	r0, .L91
 1430 0020 0499     		ldr	r1, [sp, #16]
 1431 0022 039A     		ldr	r2, [sp, #12]
 1432 0024 029B     		ldr	r3, [sp, #8]
 1433 0026 FFF7FEFF 		bl	_ZN3r2p10Middleware9subscribeERNS_16RemoteSubscriberEPKcPNS_7MessageEjj
 1434 002a 0346     		mov	r3, r0
 1435 002c 002B     		cmp	r3, #0
 1436 002e 0FD0     		beq	.L89
 1437              		.loc 12 112 0
 1438 0030 059B     		ldr	r3, [sp, #20]
 1439 0032 03F10C02 		add	r2, r3, #12
 1440 0036 049B     		ldr	r3, [sp, #16]
 1441 0038 0C33     		adds	r3, r3, #12
 1442 003a 1046     		mov	r0, r2
 1443 003c 1946     		mov	r1, r3
 1444 003e FFF7FEFF 		bl	_ZN3r2p10StaticListINS_16RemoteSubscriberEE4linkERNS2_4LinkE
 1445              		.loc 12 113 0
 1446 0042 059B     		ldr	r3, [sp, #20]
 1447 0044 2433     		adds	r3, r3, #36
 1448 0046 1846     		mov	r0, r3
 1449 0048 FFF7FEFF 		bl	_ZN3r2p5Mutex7releaseEv
 1450              		.loc 12 114 0
 1451 004c 0123     		movs	r3, #1
 1452 004e 05E0     		b	.L90
ARM GAS  /tmp/ccl0SayN.s 			page 27


 1453              	.L89:
 1454              		.loc 12 116 0
 1455 0050 059B     		ldr	r3, [sp, #20]
 1456 0052 2433     		adds	r3, r3, #36
 1457 0054 1846     		mov	r0, r3
 1458 0056 FFF7FEFF 		bl	_ZN3r2p5Mutex7releaseEv
 1459              		.loc 12 117 0
 1460 005a 0023     		movs	r3, #0
 1461              	.L90:
 1462              		.loc 12 119 0
 1463 005c 1846     		mov	r0, r3
 1464 005e 07B0     		add	sp, sp, #28
 1465              		@ sp needed
 1466 0060 5DF804FB 		ldr	pc, [sp], #4
 1467              	.L92:
 1468              		.align	2
 1469              	.L91:
 1470 0064 00000000 		.word	_ZN3r2p10Middleware8instanceE
 1471              		.cfi_endproc
 1472              	.LFE603:
 1473              		.size	_ZN3r2p9Transport9subscribeERNS_16RemoteSubscriberEPKcPNS_7MessageEjj, .-_ZN3r2p9Transport9s
 1474 0068 AFF30080 		.section	.text._ZN3r2p9Transport15fill_raw_paramsERKNS_5TopicEPh,"ax",%progbits
 1474      AFF30080 
 1475              		.align	2
 1476              		.p2align 4,,15
 1477              		.global	_ZN3r2p9Transport15fill_raw_paramsERKNS_5TopicEPh
 1478              		.thumb
 1479              		.thumb_func
 1480              		.type	_ZN3r2p9Transport15fill_raw_paramsERKNS_5TopicEPh, %function
 1481              	_ZN3r2p9Transport15fill_raw_paramsERKNS_5TopicEPh:
 1482              	.LFB604:
 1483              		.loc 12 122 0
 1484              		.cfi_startproc
 1485              		@ args = 0, pretend = 0, frame = 16
 1486              		@ frame_needed = 0, uses_anonymous_args = 0
 1487 0000 00B5     		push	{lr}
 1488              		.cfi_def_cfa_offset 4
 1489              		.cfi_offset 14, -4
 1490 0002 85B0     		sub	sp, sp, #20
 1491              		.cfi_def_cfa_offset 24
 1492 0004 0390     		str	r0, [sp, #12]
 1493 0006 0291     		str	r1, [sp, #8]
 1494 0008 0192     		str	r2, [sp, #4]
 1495              		.loc 12 127 0
 1496 000a 0198     		ldr	r0, [sp, #4]
 1497 000c CC21     		movs	r1, #204
 1498 000e 0A22     		movs	r2, #10
 1499 0010 FFF7FEFF 		bl	memset
 1500              		.loc 12 128 0
 1501 0014 05B0     		add	sp, sp, #20
 1502              		@ sp needed
 1503 0016 5DF804FB 		ldr	pc, [sp], #4
 1504              		.cfi_endproc
 1505              	.LFE604:
 1506              		.size	_ZN3r2p9Transport15fill_raw_paramsERKNS_5TopicEPh, .-_ZN3r2p9Transport15fill_raw_paramsERKNS
 1507 001a 00BFAFF3 		.section	.text._ZN3r2p10StaticListINS_15RemotePublisherEED2Ev,"axG",%progbits,_ZN3r2p10StaticListI
 1507      0080
ARM GAS  /tmp/ccl0SayN.s 			page 28


 1508              		.align	2
 1509              		.p2align 4,,15
 1510              		.weak	_ZN3r2p10StaticListINS_15RemotePublisherEED2Ev
 1511              		.thumb
 1512              		.thumb_func
 1513              		.type	_ZN3r2p10StaticListINS_15RemotePublisherEED2Ev, %function
 1514              	_ZN3r2p10StaticListINS_15RemotePublisherEED2Ev:
 1515              	.LFB607:
 1516              		.file 13 "/home/dave/r2p-sdk/core/Middleware/include/r2p/StaticList.hpp"
 1517              		.loc 13 15 0
 1518              		.cfi_startproc
 1519              		@ args = 0, pretend = 0, frame = 8
 1520              		@ frame_needed = 0, uses_anonymous_args = 0
 1521 0000 00B5     		push	{lr}
 1522              		.cfi_def_cfa_offset 4
 1523              		.cfi_offset 14, -4
 1524 0002 83B0     		sub	sp, sp, #12
 1525              		.cfi_def_cfa_offset 16
 1526 0004 0190     		str	r0, [sp, #4]
 1527              	.LBB16:
 1528              		.loc 13 15 0
 1529 0006 0198     		ldr	r0, [sp, #4]
 1530 0008 FFF7FEFF 		bl	_ZN3r2p10UncopyableD2Ev
 1531              	.LBE16:
 1532 000c 019B     		ldr	r3, [sp, #4]
 1533 000e 1846     		mov	r0, r3
 1534 0010 03B0     		add	sp, sp, #12
 1535              		@ sp needed
 1536 0012 5DF804FB 		ldr	pc, [sp], #4
 1537              		.cfi_endproc
 1538              	.LFE607:
 1539              		.size	_ZN3r2p10StaticListINS_15RemotePublisherEED2Ev, .-_ZN3r2p10StaticListINS_15RemotePublisherEE
 1540              		.weak	_ZN3r2p10StaticListINS_15RemotePublisherEED1Ev
 1541              		.thumb_set _ZN3r2p10StaticListINS_15RemotePublisherEED1Ev,_ZN3r2p10StaticListINS_15RemotePublisher
 1542 0016 00BFAFF3 		.section	.text._ZN3r2p10StaticListINS_16RemoteSubscriberEED2Ev,"axG",%progbits,_ZN3r2p10StaticList
 1542      0080AFF3 
 1542      0080
 1543              		.align	2
 1544              		.p2align 4,,15
 1545              		.weak	_ZN3r2p10StaticListINS_16RemoteSubscriberEED2Ev
 1546              		.thumb
 1547              		.thumb_func
 1548              		.type	_ZN3r2p10StaticListINS_16RemoteSubscriberEED2Ev, %function
 1549              	_ZN3r2p10StaticListINS_16RemoteSubscriberEED2Ev:
 1550              	.LFB610:
 1551              		.loc 13 15 0
 1552              		.cfi_startproc
 1553              		@ args = 0, pretend = 0, frame = 8
 1554              		@ frame_needed = 0, uses_anonymous_args = 0
 1555 0000 00B5     		push	{lr}
 1556              		.cfi_def_cfa_offset 4
 1557              		.cfi_offset 14, -4
 1558 0002 83B0     		sub	sp, sp, #12
 1559              		.cfi_def_cfa_offset 16
 1560 0004 0190     		str	r0, [sp, #4]
 1561              	.LBB17:
 1562              		.loc 13 15 0
ARM GAS  /tmp/ccl0SayN.s 			page 29


 1563 0006 0198     		ldr	r0, [sp, #4]
 1564 0008 FFF7FEFF 		bl	_ZN3r2p10UncopyableD2Ev
 1565              	.LBE17:
 1566 000c 019B     		ldr	r3, [sp, #4]
 1567 000e 1846     		mov	r0, r3
 1568 0010 03B0     		add	sp, sp, #12
 1569              		@ sp needed
 1570 0012 5DF804FB 		ldr	pc, [sp], #4
 1571              		.cfi_endproc
 1572              	.LFE610:
 1573              		.size	_ZN3r2p10StaticListINS_16RemoteSubscriberEED2Ev, .-_ZN3r2p10StaticListINS_16RemoteSubscriber
 1574              		.weak	_ZN3r2p10StaticListINS_16RemoteSubscriberEED1Ev
 1575              		.thumb_set _ZN3r2p10StaticListINS_16RemoteSubscriberEED1Ev,_ZN3r2p10StaticListINS_16RemoteSubscrib
 1576 0016 00BFAFF3 		.section	.text._ZN3r2p9TransportC2EPKc,"ax",%progbits
 1576      0080AFF3 
 1576      0080
 1577              		.align	2
 1578              		.p2align 4,,15
 1579              		.global	_ZN3r2p9TransportC2EPKc
 1580              		.thumb
 1581              		.thumb_func
 1582              		.type	_ZN3r2p9TransportC2EPKc, %function
 1583              	_ZN3r2p9TransportC2EPKc:
 1584              	.LFB612:
 1585              		.loc 12 131 0
 1586              		.cfi_startproc
 1587              		@ args = 0, pretend = 0, frame = 8
 1588              		@ frame_needed = 0, uses_anonymous_args = 0
 1589 0000 00B5     		push	{lr}
 1590              		.cfi_def_cfa_offset 4
 1591              		.cfi_offset 14, -4
 1592 0002 83B0     		sub	sp, sp, #12
 1593              		.cfi_def_cfa_offset 16
 1594 0004 0190     		str	r0, [sp, #4]
 1595 0006 0091     		str	r1, [sp]
 1596              	.LBB18:
 1597              		.loc 12 134 0
 1598 0008 0198     		ldr	r0, [sp, #4]
 1599 000a FFF7FEFF 		bl	_ZN3r2p10UncopyableC2Ev
 1600 000e 019B     		ldr	r3, [sp, #4]
 1601 0010 184A     		ldr	r2, .L103
 1602 0012 1A60     		str	r2, [r3]
 1603 0014 019B     		ldr	r3, [sp, #4]
 1604 0016 009A     		ldr	r2, [sp]
 1605 0018 5A60     		str	r2, [r3, #4]
 1606 001a 019B     		ldr	r3, [sp, #4]
 1607 001c 0833     		adds	r3, r3, #8
 1608 001e 1846     		mov	r0, r3
 1609 0020 FFF7FEFF 		bl	_ZN3r2p10StaticListINS_15RemotePublisherEEC1Ev
 1610 0024 019B     		ldr	r3, [sp, #4]
 1611 0026 0C33     		adds	r3, r3, #12
 1612 0028 1846     		mov	r0, r3
 1613 002a FFF7FEFF 		bl	_ZN3r2p10StaticListINS_16RemoteSubscriberEEC1Ev
 1614 002e 019B     		ldr	r3, [sp, #4]
 1615 0030 1033     		adds	r3, r3, #16
 1616 0032 1846     		mov	r0, r3
 1617 0034 FFF7FEFF 		bl	_ZN3r2p5MutexC1Ev
ARM GAS  /tmp/ccl0SayN.s 			page 30


 1618 0038 019B     		ldr	r3, [sp, #4]
 1619 003a 2433     		adds	r3, r3, #36
 1620 003c 1846     		mov	r0, r3
 1621 003e FFF7FEFF 		bl	_ZN3r2p5MutexC1Ev
 1622 0042 019B     		ldr	r3, [sp, #4]
 1623 0044 3833     		adds	r3, r3, #56
 1624 0046 1846     		mov	r0, r3
 1625 0048 0199     		ldr	r1, [sp, #4]
 1626 004a FFF7FEFF 		bl	_ZN3r2p10StaticListINS_9TransportEE4LinkC1ERS1_
 1627              		.loc 12 136 0
 1628 004e 0098     		ldr	r0, [sp]
 1629 0050 0821     		movs	r1, #8
 1630 0052 FFF7FEFF 		bl	_ZN3r2p13is_identifierEPKcj
 1631 0056 0346     		mov	r3, r0
 1632 0058 83F00103 		eor	r3, r3, #1
 1633 005c DBB2     		uxtb	r3, r3
 1634 005e 002B     		cmp	r3, #0
 1635 0060 02D0     		beq	.L101
 1636              		.loc 12 136 0 is_stmt 0 discriminator 1
 1637 0062 0548     		ldr	r0, .L103+4
 1638 0064 FFF7FEFF 		bl	chDbgPanic
 1639              	.L101:
 1640              	.LBE18:
 1641              		.loc 12 137 0 is_stmt 1
 1642 0068 019B     		ldr	r3, [sp, #4]
 1643 006a 1846     		mov	r0, r3
 1644 006c 03B0     		add	sp, sp, #12
 1645              		@ sp needed
 1646 006e 5DF804FB 		ldr	pc, [sp], #4
 1647              	.L104:
 1648 0072 00BF     		.align	2
 1649              	.L103:
 1650 0074 08000000 		.word	_ZTVN3r2p9TransportE+8
 1651 0078 00000000 		.word	.LC0
 1652              		.cfi_endproc
 1653              	.LFE612:
 1654              		.size	_ZN3r2p9TransportC2EPKc, .-_ZN3r2p9TransportC2EPKc
 1655              		.global	_ZN3r2p9TransportC1EPKc
 1656              		.thumb_set _ZN3r2p9TransportC1EPKc,_ZN3r2p9TransportC2EPKc
 1657 007c AFF30080 		.section	.text._ZN3r2p9TransportD2Ev,"ax",%progbits
 1658              		.align	2
 1659              		.p2align 4,,15
 1660              		.global	_ZN3r2p9TransportD2Ev
 1661              		.thumb
 1662              		.thumb_func
 1663              		.type	_ZN3r2p9TransportD2Ev, %function
 1664              	_ZN3r2p9TransportD2Ev:
 1665              	.LFB615:
 1666              		.loc 12 140 0
 1667              		.cfi_startproc
 1668              		@ args = 0, pretend = 0, frame = 8
 1669              		@ frame_needed = 0, uses_anonymous_args = 0
 1670 0000 00B5     		push	{lr}
 1671              		.cfi_def_cfa_offset 4
 1672              		.cfi_offset 14, -4
 1673 0002 83B0     		sub	sp, sp, #12
 1674              		.cfi_def_cfa_offset 16
ARM GAS  /tmp/ccl0SayN.s 			page 31


 1675 0004 0190     		str	r0, [sp, #4]
 1676              	.LBB19:
 1677              		.loc 12 140 0
 1678 0006 019B     		ldr	r3, [sp, #4]
 1679 0008 114A     		ldr	r2, .L109
 1680 000a 1A60     		str	r2, [r3]
 1681 000c 019B     		ldr	r3, [sp, #4]
 1682 000e 2433     		adds	r3, r3, #36
 1683 0010 1846     		mov	r0, r3
 1684 0012 FFF7FEFF 		bl	_ZN3r2p5MutexD1Ev
 1685 0016 019B     		ldr	r3, [sp, #4]
 1686 0018 1033     		adds	r3, r3, #16
 1687 001a 1846     		mov	r0, r3
 1688 001c FFF7FEFF 		bl	_ZN3r2p5MutexD1Ev
 1689 0020 019B     		ldr	r3, [sp, #4]
 1690 0022 0C33     		adds	r3, r3, #12
 1691 0024 1846     		mov	r0, r3
 1692 0026 FFF7FEFF 		bl	_ZN3r2p10StaticListINS_16RemoteSubscriberEED1Ev
 1693 002a 019B     		ldr	r3, [sp, #4]
 1694 002c 0833     		adds	r3, r3, #8
 1695 002e 1846     		mov	r0, r3
 1696 0030 FFF7FEFF 		bl	_ZN3r2p10StaticListINS_15RemotePublisherEED1Ev
 1697 0034 0198     		ldr	r0, [sp, #4]
 1698 0036 FFF7FEFF 		bl	_ZN3r2p10UncopyableD2Ev
 1699              	.LBE19:
 1700 003a 0023     		movs	r3, #0
 1701 003c 002B     		cmp	r3, #0
 1702 003e 02D0     		beq	.L107
 1703              		.loc 12 140 0 is_stmt 0 discriminator 1
 1704 0040 0198     		ldr	r0, [sp, #4]
 1705 0042 FFF7FEFF 		bl	_ZdlPv
 1706              	.L107:
 1707              		.loc 12 140 0 discriminator 2
 1708 0046 019B     		ldr	r3, [sp, #4]
 1709 0048 1846     		mov	r0, r3
 1710 004a 03B0     		add	sp, sp, #12
 1711              		@ sp needed
 1712 004c 5DF804FB 		ldr	pc, [sp], #4
 1713              	.L110:
 1714              		.align	2
 1715              	.L109:
 1716 0050 08000000 		.word	_ZTVN3r2p9TransportE+8
 1717              		.cfi_endproc
 1718              	.LFE615:
 1719              		.size	_ZN3r2p9TransportD2Ev, .-_ZN3r2p9TransportD2Ev
 1720              		.global	_ZN3r2p9TransportD1Ev
 1721              		.thumb_set _ZN3r2p9TransportD1Ev,_ZN3r2p9TransportD2Ev
 1722 0054 AFF30080 		.section	.text._ZN3r2p9TransportD0Ev,"ax",%progbits
 1722      AFF30080 
 1722      AFF30080 
 1723              		.align	2
 1724              		.p2align 4,,15
 1725              		.global	_ZN3r2p9TransportD0Ev
 1726              		.thumb
 1727              		.thumb_func
 1728              		.type	_ZN3r2p9TransportD0Ev, %function
 1729              	_ZN3r2p9TransportD0Ev:
ARM GAS  /tmp/ccl0SayN.s 			page 32


 1730              	.LFB617:
 1731              		.loc 12 140 0 is_stmt 1
 1732              		.cfi_startproc
 1733              		@ args = 0, pretend = 0, frame = 8
 1734              		@ frame_needed = 0, uses_anonymous_args = 0
 1735 0000 00B5     		push	{lr}
 1736              		.cfi_def_cfa_offset 4
 1737              		.cfi_offset 14, -4
 1738 0002 83B0     		sub	sp, sp, #12
 1739              		.cfi_def_cfa_offset 16
 1740 0004 0190     		str	r0, [sp, #4]
 1741              		.loc 12 140 0
 1742 0006 0198     		ldr	r0, [sp, #4]
 1743 0008 FFF7FEFF 		bl	_ZN3r2p9TransportD1Ev
 1744 000c 0198     		ldr	r0, [sp, #4]
 1745 000e FFF7FEFF 		bl	_ZdlPv
 1746 0012 019B     		ldr	r3, [sp, #4]
 1747 0014 1846     		mov	r0, r3
 1748 0016 03B0     		add	sp, sp, #12
 1749              		@ sp needed
 1750 0018 5DF804FB 		ldr	pc, [sp], #4
 1751              		.cfi_endproc
 1752              	.LFE617:
 1753              		.size	_ZN3r2p9TransportD0Ev, .-_ZN3r2p9TransportD0Ev
 1754 001c AFF30080 		.section	.text._ZNK3r2p10StaticListINS_16RemoteSubscriberEE15is_empty_unsafeEv,"axG",%progbits,_ZN
 1755              		.align	2
 1756              		.p2align 4,,15
 1757              		.weak	_ZNK3r2p10StaticListINS_16RemoteSubscriberEE15is_empty_unsafeEv
 1758              		.thumb
 1759              		.thumb_func
 1760              		.type	_ZNK3r2p10StaticListINS_16RemoteSubscriberEE15is_empty_unsafeEv, %function
 1761              	_ZNK3r2p10StaticListINS_16RemoteSubscriberEE15is_empty_unsafeEv:
 1762              	.LFB637:
 1763              		.loc 13 401 0
 1764              		.cfi_startproc
 1765              		@ args = 0, pretend = 0, frame = 8
 1766              		@ frame_needed = 0, uses_anonymous_args = 0
 1767              		@ link register save eliminated.
 1768 0000 82B0     		sub	sp, sp, #8
 1769              		.cfi_def_cfa_offset 8
 1770 0002 0190     		str	r0, [sp, #4]
 1771              		.loc 13 402 0
 1772 0004 019B     		ldr	r3, [sp, #4]
 1773 0006 1B68     		ldr	r3, [r3]
 1774 0008 002B     		cmp	r3, #0
 1775 000a 14BF     		ite	ne
 1776 000c 0023     		movne	r3, #0
 1777 000e 0123     		moveq	r3, #1
 1778 0010 DBB2     		uxtb	r3, r3
 1779              		.loc 13 403 0
 1780 0012 1846     		mov	r0, r3
 1781 0014 02B0     		add	sp, sp, #8
 1782              		@ sp needed
 1783 0016 7047     		bx	lr
 1784              		.cfi_endproc
 1785              	.LFE637:
 1786              		.size	_ZNK3r2p10StaticListINS_16RemoteSubscriberEE15is_empty_unsafeEv, .-_ZNK3r2p10StaticListINS_1
ARM GAS  /tmp/ccl0SayN.s 			page 33


 1787 0018 AFF30080 		.section	.text._ZN3r2p10ScopedLockINS_5MutexEEC2ERS1_,"axG",%progbits,_ZN3r2p10ScopedLockINS_5Mute
 1787      AFF30080 
 1788              		.align	2
 1789              		.p2align 4,,15
 1790              		.weak	_ZN3r2p10ScopedLockINS_5MutexEEC2ERS1_
 1791              		.thumb
 1792              		.thumb_func
 1793              		.type	_ZN3r2p10ScopedLockINS_5MutexEEC2ERS1_, %function
 1794              	_ZN3r2p10ScopedLockINS_5MutexEEC2ERS1_:
 1795              	.LFB640:
 1796              		.file 14 "/home/dave/r2p-sdk/core/Middleware/include/r2p/ScopedLock.hpp"
 1797              		.loc 14 20 0
 1798              		.cfi_startproc
 1799              		@ args = 0, pretend = 0, frame = 8
 1800              		@ frame_needed = 0, uses_anonymous_args = 0
 1801 0000 00B5     		push	{lr}
 1802              		.cfi_def_cfa_offset 4
 1803              		.cfi_offset 14, -4
 1804 0002 83B0     		sub	sp, sp, #12
 1805              		.cfi_def_cfa_offset 16
 1806 0004 0190     		str	r0, [sp, #4]
 1807 0006 0091     		str	r1, [sp]
 1808              	.LBB20:
 1809              		.loc 14 22 0
 1810 0008 0198     		ldr	r0, [sp, #4]
 1811 000a FFF7FEFF 		bl	_ZN3r2p10UncopyableC2Ev
 1812 000e 019B     		ldr	r3, [sp, #4]
 1813 0010 009A     		ldr	r2, [sp]
 1814 0012 1A60     		str	r2, [r3]
 1815              		.loc 14 24 0
 1816 0014 019B     		ldr	r3, [sp, #4]
 1817 0016 1B68     		ldr	r3, [r3]
 1818 0018 1846     		mov	r0, r3
 1819 001a FFF7FEFF 		bl	_ZN3r2p5Mutex7acquireEv
 1820              	.LBE20:
 1821              		.loc 14 25 0
 1822 001e 019B     		ldr	r3, [sp, #4]
 1823 0020 1846     		mov	r0, r3
 1824 0022 03B0     		add	sp, sp, #12
 1825              		@ sp needed
 1826 0024 5DF804FB 		ldr	pc, [sp], #4
 1827              		.cfi_endproc
 1828              	.LFE640:
 1829              		.size	_ZN3r2p10ScopedLockINS_5MutexEEC2ERS1_, .-_ZN3r2p10ScopedLockINS_5MutexEEC2ERS1_
 1830              		.weak	_ZN3r2p10ScopedLockINS_5MutexEEC1ERS1_
 1831              		.thumb_set _ZN3r2p10ScopedLockINS_5MutexEEC1ERS1_,_ZN3r2p10ScopedLockINS_5MutexEEC2ERS1_
 1832 0028 AFF30080 		.section	.text._ZN3r2p10ScopedLockINS_5MutexEED2Ev,"axG",%progbits,_ZN3r2p10ScopedLockINS_5MutexEE
 1832      AFF30080 
 1833              		.align	2
 1834              		.p2align 4,,15
 1835              		.weak	_ZN3r2p10ScopedLockINS_5MutexEED2Ev
 1836              		.thumb
 1837              		.thumb_func
 1838              		.type	_ZN3r2p10ScopedLockINS_5MutexEED2Ev, %function
 1839              	_ZN3r2p10ScopedLockINS_5MutexEED2Ev:
 1840              	.LFB643:
 1841              		.loc 14 29 0
ARM GAS  /tmp/ccl0SayN.s 			page 34


 1842              		.cfi_startproc
 1843              		@ args = 0, pretend = 0, frame = 8
 1844              		@ frame_needed = 0, uses_anonymous_args = 0
 1845 0000 00B5     		push	{lr}
 1846              		.cfi_def_cfa_offset 4
 1847              		.cfi_offset 14, -4
 1848 0002 83B0     		sub	sp, sp, #12
 1849              		.cfi_def_cfa_offset 16
 1850 0004 0190     		str	r0, [sp, #4]
 1851              	.LBB21:
 1852              		.loc 14 31 0
 1853 0006 019B     		ldr	r3, [sp, #4]
 1854 0008 1B68     		ldr	r3, [r3]
 1855 000a 1846     		mov	r0, r3
 1856 000c FFF7FEFF 		bl	_ZN3r2p5Mutex7releaseEv
 1857              		.loc 14 32 0
 1858 0010 0198     		ldr	r0, [sp, #4]
 1859 0012 FFF7FEFF 		bl	_ZN3r2p10UncopyableD2Ev
 1860              	.LBE21:
 1861 0016 019B     		ldr	r3, [sp, #4]
 1862 0018 1846     		mov	r0, r3
 1863 001a 03B0     		add	sp, sp, #12
 1864              		@ sp needed
 1865 001c 5DF804FB 		ldr	pc, [sp], #4
 1866              		.cfi_endproc
 1867              	.LFE643:
 1868              		.size	_ZN3r2p10ScopedLockINS_5MutexEED2Ev, .-_ZN3r2p10ScopedLockINS_5MutexEED2Ev
 1869              		.weak	_ZN3r2p10ScopedLockINS_5MutexEED1Ev
 1870              		.thumb_set _ZN3r2p10ScopedLockINS_5MutexEED1Ev,_ZN3r2p10ScopedLockINS_5MutexEED2Ev
 1871              		.section	.text._ZNK3r2p10StaticListINS_15RemotePublisherEE10find_firstIPFbRKNS_13BasePublisherEPKc
 1872              		.align	2
 1873              		.p2align 4,,15
 1874              		.weak	_ZNK3r2p10StaticListINS_15RemotePublisherEE10find_firstIPFbRKNS_13BasePublisherEPKcEcEEPS1_T
 1875              		.thumb
 1876              		.thumb_func
 1877              		.type	_ZNK3r2p10StaticListINS_15RemotePublisherEE10find_firstIPFbRKNS_13BasePublisherEPKcEcEEPS1_T
 1878              	_ZNK3r2p10StaticListINS_15RemotePublisherEE10find_firstIPFbRKNS_13BasePublisherEPKcEcEEPS1_T_PKT0_:
 1879              	.LFB645:
 1880              		.loc 13 475 0
 1881              		.cfi_startproc
 1882              		@ args = 0, pretend = 0, frame = 16
 1883              		@ frame_needed = 0, uses_anonymous_args = 0
 1884 0000 00B5     		push	{lr}
 1885              		.cfi_def_cfa_offset 4
 1886              		.cfi_offset 14, -4
 1887 0002 85B0     		sub	sp, sp, #20
 1888              		.cfi_def_cfa_offset 24
 1889 0004 0390     		str	r0, [sp, #12]
 1890 0006 0291     		str	r1, [sp, #8]
 1891 0008 0192     		str	r2, [sp, #4]
 1892              		.loc 13 477 0
 1893 000a 0398     		ldr	r0, [sp, #12]
 1894 000c 0299     		ldr	r1, [sp, #8]
 1895 000e 019A     		ldr	r2, [sp, #4]
 1896 0010 FFF7FEFF 		bl	_ZNK3r2p10StaticListINS_15RemotePublisherEE10find_firstEPFbRKS1_PKvES6_
 1897 0014 0346     		mov	r3, r0
 1898              		.loc 13 478 0
ARM GAS  /tmp/ccl0SayN.s 			page 35


 1899 0016 1846     		mov	r0, r3
 1900 0018 05B0     		add	sp, sp, #20
 1901              		@ sp needed
 1902 001a 5DF804FB 		ldr	pc, [sp], #4
 1903              		.cfi_endproc
 1904              	.LFE645:
 1905              		.size	_ZNK3r2p10StaticListINS_15RemotePublisherEE10find_firstIPFbRKNS_13BasePublisherEPKcEcEEPS1_T
 1906 001e 00BF     		.section	.text._ZN3r2p10StaticListINS_15RemotePublisherEE4linkERNS2_4LinkE,"axG",%progbits,_ZN3r2p
 1907              		.align	2
 1908              		.p2align 4,,15
 1909              		.weak	_ZN3r2p10StaticListINS_15RemotePublisherEE4linkERNS2_4LinkE
 1910              		.thumb
 1911              		.thumb_func
 1912              		.type	_ZN3r2p10StaticListINS_15RemotePublisherEE4linkERNS2_4LinkE, %function
 1913              	_ZN3r2p10StaticListINS_15RemotePublisherEE4linkERNS2_4LinkE:
 1914              	.LFB646:
 1915              		.loc 13 630 0
 1916              		.cfi_startproc
 1917              		@ args = 0, pretend = 0, frame = 8
 1918              		@ frame_needed = 0, uses_anonymous_args = 0
 1919 0000 00B5     		push	{lr}
 1920              		.cfi_def_cfa_offset 4
 1921              		.cfi_offset 14, -4
 1922 0002 83B0     		sub	sp, sp, #12
 1923              		.cfi_def_cfa_offset 16
 1924 0004 0190     		str	r0, [sp, #4]
 1925 0006 0091     		str	r1, [sp]
 1926              		.loc 13 632 0
 1927 0008 FFF7FEFF 		bl	_ZN3r2p7SysLock7acquireEv
 1928              		.loc 13 633 0
 1929 000c 0198     		ldr	r0, [sp, #4]
 1930 000e 0099     		ldr	r1, [sp]
 1931 0010 FFF7FEFF 		bl	_ZN3r2p10StaticListINS_15RemotePublisherEE16link_tail_unsafeERNS2_4LinkE
 1932              		.loc 13 635 0
 1933 0014 FFF7FEFF 		bl	_ZN3r2p7SysLock7releaseEv
 1934              		.loc 13 636 0
 1935 0018 03B0     		add	sp, sp, #12
 1936              		@ sp needed
 1937 001a 5DF804FB 		ldr	pc, [sp], #4
 1938              		.cfi_endproc
 1939              	.LFE646:
 1940              		.size	_ZN3r2p10StaticListINS_15RemotePublisherEE4linkERNS2_4LinkE, .-_ZN3r2p10StaticListINS_15Remo
 1941 001e 00BF     		.section	.text._ZNK3r2p10StaticListINS_16RemoteSubscriberEE10find_firstIPFbRKNS_14BaseSubscriberEP
 1942              		.align	2
 1943              		.p2align 4,,15
 1944              		.weak	_ZNK3r2p10StaticListINS_16RemoteSubscriberEE10find_firstIPFbRKNS_14BaseSubscriberEPKcEcEEPS1
 1945              		.thumb
 1946              		.thumb_func
 1947              		.type	_ZNK3r2p10StaticListINS_16RemoteSubscriberEE10find_firstIPFbRKNS_14BaseSubscriberEPKcEcEEPS1
 1948              	_ZNK3r2p10StaticListINS_16RemoteSubscriberEE10find_firstIPFbRKNS_14BaseSubscriberEPKcEcEEPS1_T_PKT0
 1949              	.LFB647:
 1950              		.loc 13 475 0
 1951              		.cfi_startproc
 1952              		@ args = 0, pretend = 0, frame = 16
 1953              		@ frame_needed = 0, uses_anonymous_args = 0
 1954 0000 00B5     		push	{lr}
 1955              		.cfi_def_cfa_offset 4
ARM GAS  /tmp/ccl0SayN.s 			page 36


 1956              		.cfi_offset 14, -4
 1957 0002 85B0     		sub	sp, sp, #20
 1958              		.cfi_def_cfa_offset 24
 1959 0004 0390     		str	r0, [sp, #12]
 1960 0006 0291     		str	r1, [sp, #8]
 1961 0008 0192     		str	r2, [sp, #4]
 1962              		.loc 13 477 0
 1963 000a 0398     		ldr	r0, [sp, #12]
 1964 000c 0299     		ldr	r1, [sp, #8]
 1965 000e 019A     		ldr	r2, [sp, #4]
 1966 0010 FFF7FEFF 		bl	_ZNK3r2p10StaticListINS_16RemoteSubscriberEE10find_firstEPFbRKS1_PKvES6_
 1967 0014 0346     		mov	r3, r0
 1968              		.loc 13 478 0
 1969 0016 1846     		mov	r0, r3
 1970 0018 05B0     		add	sp, sp, #20
 1971              		@ sp needed
 1972 001a 5DF804FB 		ldr	pc, [sp], #4
 1973              		.cfi_endproc
 1974              	.LFE647:
 1975              		.size	_ZNK3r2p10StaticListINS_16RemoteSubscriberEE10find_firstIPFbRKNS_14BaseSubscriberEPKcEcEEPS1
 1976 001e 00BF     		.section	.text._ZN3r2p10StaticListINS_16RemoteSubscriberEE4linkERNS2_4LinkE,"axG",%progbits,_ZN3r2
 1977              		.align	2
 1978              		.p2align 4,,15
 1979              		.weak	_ZN3r2p10StaticListINS_16RemoteSubscriberEE4linkERNS2_4LinkE
 1980              		.thumb
 1981              		.thumb_func
 1982              		.type	_ZN3r2p10StaticListINS_16RemoteSubscriberEE4linkERNS2_4LinkE, %function
 1983              	_ZN3r2p10StaticListINS_16RemoteSubscriberEE4linkERNS2_4LinkE:
 1984              	.LFB648:
 1985              		.loc 13 630 0
 1986              		.cfi_startproc
 1987              		@ args = 0, pretend = 0, frame = 8
 1988              		@ frame_needed = 0, uses_anonymous_args = 0
 1989 0000 00B5     		push	{lr}
 1990              		.cfi_def_cfa_offset 4
 1991              		.cfi_offset 14, -4
 1992 0002 83B0     		sub	sp, sp, #12
 1993              		.cfi_def_cfa_offset 16
 1994 0004 0190     		str	r0, [sp, #4]
 1995 0006 0091     		str	r1, [sp]
 1996              		.loc 13 632 0
 1997 0008 FFF7FEFF 		bl	_ZN3r2p7SysLock7acquireEv
 1998              		.loc 13 633 0
 1999 000c 0198     		ldr	r0, [sp, #4]
 2000 000e 0099     		ldr	r1, [sp]
 2001 0010 FFF7FEFF 		bl	_ZN3r2p10StaticListINS_16RemoteSubscriberEE16link_tail_unsafeERNS2_4LinkE
 2002              		.loc 13 635 0
 2003 0014 FFF7FEFF 		bl	_ZN3r2p7SysLock7releaseEv
 2004              		.loc 13 636 0
 2005 0018 03B0     		add	sp, sp, #12
 2006              		@ sp needed
 2007 001a 5DF804FB 		ldr	pc, [sp], #4
 2008              		.cfi_endproc
 2009              	.LFE648:
 2010              		.size	_ZN3r2p10StaticListINS_16RemoteSubscriberEE4linkERNS2_4LinkE, .-_ZN3r2p10StaticListINS_16Rem
 2011 001e 00BF     		.section	.text._ZN3r2p10StaticListINS_15RemotePublisherEEC2Ev,"axG",%progbits,_ZN3r2p10StaticListI
 2012              		.align	2
ARM GAS  /tmp/ccl0SayN.s 			page 37


 2013              		.p2align 4,,15
 2014              		.weak	_ZN3r2p10StaticListINS_15RemotePublisherEEC2Ev
 2015              		.thumb
 2016              		.thumb_func
 2017              		.type	_ZN3r2p10StaticListINS_15RemotePublisherEEC2Ev, %function
 2018              	_ZN3r2p10StaticListINS_15RemotePublisherEEC2Ev:
 2019              	.LFB650:
 2020              		.loc 13 506 0
 2021              		.cfi_startproc
 2022              		@ args = 0, pretend = 0, frame = 8
 2023              		@ frame_needed = 0, uses_anonymous_args = 0
 2024 0000 00B5     		push	{lr}
 2025              		.cfi_def_cfa_offset 4
 2026              		.cfi_offset 14, -4
 2027 0002 83B0     		sub	sp, sp, #12
 2028              		.cfi_def_cfa_offset 16
 2029 0004 0190     		str	r0, [sp, #4]
 2030              	.LBB22:
 2031              		.loc 13 506 0
 2032 0006 0198     		ldr	r0, [sp, #4]
 2033 0008 FFF7FEFF 		bl	_ZN3r2p10UncopyableC2Ev
 2034 000c 019B     		ldr	r3, [sp, #4]
 2035 000e 0022     		movs	r2, #0
 2036 0010 1A60     		str	r2, [r3]
 2037              	.LBE22:
 2038 0012 019B     		ldr	r3, [sp, #4]
 2039 0014 1846     		mov	r0, r3
 2040 0016 03B0     		add	sp, sp, #12
 2041              		@ sp needed
 2042 0018 5DF804FB 		ldr	pc, [sp], #4
 2043              		.cfi_endproc
 2044              	.LFE650:
 2045              		.size	_ZN3r2p10StaticListINS_15RemotePublisherEEC2Ev, .-_ZN3r2p10StaticListINS_15RemotePublisherEE
 2046              		.weak	_ZN3r2p10StaticListINS_15RemotePublisherEEC1Ev
 2047              		.thumb_set _ZN3r2p10StaticListINS_15RemotePublisherEEC1Ev,_ZN3r2p10StaticListINS_15RemotePublisher
 2048 001c AFF30080 		.section	.text._ZN3r2p10StaticListINS_16RemoteSubscriberEEC2Ev,"axG",%progbits,_ZN3r2p10StaticList
 2049              		.align	2
 2050              		.p2align 4,,15
 2051              		.weak	_ZN3r2p10StaticListINS_16RemoteSubscriberEEC2Ev
 2052              		.thumb
 2053              		.thumb_func
 2054              		.type	_ZN3r2p10StaticListINS_16RemoteSubscriberEEC2Ev, %function
 2055              	_ZN3r2p10StaticListINS_16RemoteSubscriberEEC2Ev:
 2056              	.LFB653:
 2057              		.loc 13 506 0
 2058              		.cfi_startproc
 2059              		@ args = 0, pretend = 0, frame = 8
 2060              		@ frame_needed = 0, uses_anonymous_args = 0
 2061 0000 00B5     		push	{lr}
 2062              		.cfi_def_cfa_offset 4
 2063              		.cfi_offset 14, -4
 2064 0002 83B0     		sub	sp, sp, #12
 2065              		.cfi_def_cfa_offset 16
 2066 0004 0190     		str	r0, [sp, #4]
 2067              	.LBB23:
 2068              		.loc 13 506 0
 2069 0006 0198     		ldr	r0, [sp, #4]
ARM GAS  /tmp/ccl0SayN.s 			page 38


 2070 0008 FFF7FEFF 		bl	_ZN3r2p10UncopyableC2Ev
 2071 000c 019B     		ldr	r3, [sp, #4]
 2072 000e 0022     		movs	r2, #0
 2073 0010 1A60     		str	r2, [r3]
 2074              	.LBE23:
 2075 0012 019B     		ldr	r3, [sp, #4]
 2076 0014 1846     		mov	r0, r3
 2077 0016 03B0     		add	sp, sp, #12
 2078              		@ sp needed
 2079 0018 5DF804FB 		ldr	pc, [sp], #4
 2080              		.cfi_endproc
 2081              	.LFE653:
 2082              		.size	_ZN3r2p10StaticListINS_16RemoteSubscriberEEC2Ev, .-_ZN3r2p10StaticListINS_16RemoteSubscriber
 2083              		.weak	_ZN3r2p10StaticListINS_16RemoteSubscriberEEC1Ev
 2084              		.thumb_set _ZN3r2p10StaticListINS_16RemoteSubscriberEEC1Ev,_ZN3r2p10StaticListINS_16RemoteSubscrib
 2085 001c AFF30080 		.section	.text._ZN3r2p10StaticListINS_9TransportEE4LinkC2ERS1_,"axG",%progbits,_ZN3r2p10StaticList
 2086              		.align	2
 2087              		.p2align 4,,15
 2088              		.weak	_ZN3r2p10StaticListINS_9TransportEE4LinkC2ERS1_
 2089              		.thumb
 2090              		.thumb_func
 2091              		.type	_ZN3r2p10StaticListINS_9TransportEE4LinkC2ERS1_, %function
 2092              	_ZN3r2p10StaticListINS_9TransportEE4LinkC2ERS1_:
 2093              	.LFB656:
 2094              		.loc 13 21 0
 2095              		.cfi_startproc
 2096              		@ args = 0, pretend = 0, frame = 8
 2097              		@ frame_needed = 0, uses_anonymous_args = 0
 2098              		@ link register save eliminated.
 2099 0000 82B0     		sub	sp, sp, #8
 2100              		.cfi_def_cfa_offset 8
 2101 0002 0190     		str	r0, [sp, #4]
 2102 0004 0091     		str	r1, [sp]
 2103              	.LBB24:
 2104              		.loc 13 21 0
 2105 0006 019B     		ldr	r3, [sp, #4]
 2106 0008 0022     		movs	r2, #0
 2107 000a 1A60     		str	r2, [r3]
 2108 000c 019B     		ldr	r3, [sp, #4]
 2109 000e 009A     		ldr	r2, [sp]
 2110 0010 5A60     		str	r2, [r3, #4]
 2111              	.LBE24:
 2112 0012 019B     		ldr	r3, [sp, #4]
 2113 0014 1846     		mov	r0, r3
 2114 0016 02B0     		add	sp, sp, #8
 2115              		@ sp needed
 2116 0018 7047     		bx	lr
 2117              		.cfi_endproc
 2118              	.LFE656:
 2119              		.size	_ZN3r2p10StaticListINS_9TransportEE4LinkC2ERS1_, .-_ZN3r2p10StaticListINS_9TransportEE4LinkC
 2120              		.weak	_ZN3r2p10StaticListINS_9TransportEE4LinkC1ERS1_
 2121              		.thumb_set _ZN3r2p10StaticListINS_9TransportEE4LinkC1ERS1_,_ZN3r2p10StaticListINS_9TransportEE4Lin
 2122              		.section	.text._ZNK3r2p10StaticListINS_15RemotePublisherEE10find_firstEPFbRKS1_PKvES6_,"axG",%prog
 2123              		.align	2
 2124              		.p2align 4,,15
 2125              		.weak	_ZNK3r2p10StaticListINS_15RemotePublisherEE10find_firstEPFbRKS1_PKvES6_
 2126              		.thumb
ARM GAS  /tmp/ccl0SayN.s 			page 39


 2127              		.thumb_func
 2128              		.type	_ZNK3r2p10StaticListINS_15RemotePublisherEE10find_firstEPFbRKS1_PKvES6_, %function
 2129              	_ZNK3r2p10StaticListINS_15RemotePublisherEE10find_firstEPFbRKS1_PKvES6_:
 2130              	.LFB658:
 2131              		.loc 13 700 0
 2132              		.cfi_startproc
 2133              		@ args = 0, pretend = 0, frame = 24
 2134              		@ frame_needed = 0, uses_anonymous_args = 0
 2135 0000 00B5     		push	{lr}
 2136              		.cfi_def_cfa_offset 4
 2137              		.cfi_offset 14, -4
 2138 0002 87B0     		sub	sp, sp, #28
 2139              		.cfi_def_cfa_offset 32
 2140 0004 0390     		str	r0, [sp, #12]
 2141 0006 0291     		str	r1, [sp, #8]
 2142 0008 0192     		str	r2, [sp, #4]
 2143              	.LBB25:
 2144              		.loc 13 703 0
 2145 000a 019B     		ldr	r3, [sp, #4]
 2146 000c 002B     		cmp	r3, #0
 2147 000e 02D1     		bne	.L138
 2148              		.loc 13 703 0 is_stmt 0 discriminator 1
 2149 0010 1248     		ldr	r0, .L143
 2150 0012 FFF7FEFF 		bl	chDbgPanic
 2151              	.L138:
 2152              		.loc 13 705 0 is_stmt 1
 2153 0016 FFF7FEFF 		bl	_ZN3r2p7SysLock7acquireEv
 2154              	.LBB26:
 2155              		.loc 13 706 0
 2156 001a 039B     		ldr	r3, [sp, #12]
 2157 001c 1B68     		ldr	r3, [r3]
 2158 001e 0593     		str	r3, [sp, #20]
 2159 0020 12E0     		b	.L139
 2160              	.L142:
 2161              		.loc 13 707 0
 2162 0022 FFF7FEFF 		bl	_ZN3r2p7SysLock7releaseEv
 2163              		.loc 13 708 0
 2164 0026 059B     		ldr	r3, [sp, #20]
 2165 0028 5A68     		ldr	r2, [r3, #4]
 2166 002a 029B     		ldr	r3, [sp, #8]
 2167 002c 1046     		mov	r0, r2
 2168 002e 0199     		ldr	r1, [sp, #4]
 2169 0030 9847     		blx	r3
 2170 0032 0346     		mov	r3, r0
 2171 0034 002B     		cmp	r3, #0
 2172 0036 02D0     		beq	.L140
 2173              		.loc 13 709 0
 2174 0038 059B     		ldr	r3, [sp, #20]
 2175 003a 5B68     		ldr	r3, [r3, #4]
 2176 003c 0AE0     		b	.L141
 2177              	.L140:
 2178              		.loc 13 711 0
 2179 003e FFF7FEFF 		bl	_ZN3r2p7SysLock7acquireEv
 2180              		.loc 13 706 0
 2181 0042 059B     		ldr	r3, [sp, #20]
 2182 0044 1B68     		ldr	r3, [r3]
 2183 0046 0593     		str	r3, [sp, #20]
ARM GAS  /tmp/ccl0SayN.s 			page 40


 2184              	.L139:
 2185              		.loc 13 706 0 is_stmt 0 discriminator 1
 2186 0048 059B     		ldr	r3, [sp, #20]
 2187 004a 002B     		cmp	r3, #0
 2188 004c E9D1     		bne	.L142
 2189              	.LBE26:
 2190              		.loc 13 713 0 is_stmt 1
 2191 004e FFF7FEFF 		bl	_ZN3r2p7SysLock7releaseEv
 2192              		.loc 13 714 0
 2193 0052 0023     		movs	r3, #0
 2194              	.L141:
 2195              	.LBE25:
 2196              		.loc 13 715 0
 2197 0054 1846     		mov	r0, r3
 2198 0056 07B0     		add	sp, sp, #28
 2199              		@ sp needed
 2200 0058 5DF804FB 		ldr	pc, [sp], #4
 2201              	.L144:
 2202              		.align	2
 2203              	.L143:
 2204 005c 00000000 		.word	.LC0
 2205              		.cfi_endproc
 2206              	.LFE658:
 2207              		.size	_ZNK3r2p10StaticListINS_15RemotePublisherEE10find_firstEPFbRKS1_PKvES6_, .-_ZNK3r2p10StaticL
 2208              		.section	.text._ZN3r2p10StaticListINS_15RemotePublisherEE16link_tail_unsafeERNS2_4LinkE,"axG",%pro
 2209              		.align	2
 2210              		.p2align 4,,15
 2211              		.weak	_ZN3r2p10StaticListINS_15RemotePublisherEE16link_tail_unsafeERNS2_4LinkE
 2212              		.thumb
 2213              		.thumb_func
 2214              		.type	_ZN3r2p10StaticListINS_15RemotePublisherEE16link_tail_unsafeERNS2_4LinkE, %function
 2215              	_ZN3r2p10StaticListINS_15RemotePublisherEE16link_tail_unsafeERNS2_4LinkE:
 2216              	.LFB659:
 2217              		.loc 13 415 0
 2218              		.cfi_startproc
 2219              		@ args = 0, pretend = 0, frame = 16
 2220              		@ frame_needed = 0, uses_anonymous_args = 0
 2221 0000 00B5     		push	{lr}
 2222              		.cfi_def_cfa_offset 4
 2223              		.cfi_offset 14, -4
 2224 0002 85B0     		sub	sp, sp, #20
 2225              		.cfi_def_cfa_offset 24
 2226 0004 0190     		str	r0, [sp, #4]
 2227 0006 0091     		str	r1, [sp]
 2228              	.LBB27:
 2229              		.loc 13 416 0
 2230 0008 019B     		ldr	r3, [sp, #4]
 2231 000a 1B68     		ldr	r3, [r3]
 2232 000c 0393     		str	r3, [sp, #12]
 2233              		.loc 13 418 0
 2234 000e 009B     		ldr	r3, [sp]
 2235 0010 1B68     		ldr	r3, [r3]
 2236 0012 002B     		cmp	r3, #0
 2237 0014 02D0     		beq	.L146
 2238              		.loc 13 418 0 is_stmt 0 discriminator 1
 2239 0016 1248     		ldr	r0, .L152
 2240 0018 FFF7FEFF 		bl	chDbgPanic
ARM GAS  /tmp/ccl0SayN.s 			page 41


 2241              	.L146:
 2242              		.loc 13 419 0 is_stmt 1
 2243 001c 0198     		ldr	r0, [sp, #4]
 2244 001e 0099     		ldr	r1, [sp]
 2245 0020 FFF7FEFF 		bl	_ZN3r2p10StaticListINS_15RemotePublisherEE13unlink_unsafeERNS2_4LinkE
 2246 0024 0346     		mov	r3, r0
 2247 0026 002B     		cmp	r3, #0
 2248 0028 02D0     		beq	.L147
 2249              		.loc 13 419 0 is_stmt 0 discriminator 1
 2250 002a 0D48     		ldr	r0, .L152
 2251 002c FFF7FEFF 		bl	chDbgPanic
 2252              	.L147:
 2253              		.loc 13 421 0 is_stmt 1
 2254 0030 0198     		ldr	r0, [sp, #4]
 2255 0032 FFF7FEFF 		bl	_ZNK3r2p10StaticListINS_15RemotePublisherEE15is_empty_unsafeEv
 2256 0036 0346     		mov	r3, r0
 2257 0038 002B     		cmp	r3, #0
 2258 003a 03D0     		beq	.L148
 2259              		.loc 13 422 0
 2260 003c 019B     		ldr	r3, [sp, #4]
 2261 003e 009A     		ldr	r2, [sp]
 2262 0040 1A60     		str	r2, [r3]
 2263 0042 0AE0     		b	.L145
 2264              	.L148:
 2265              		.loc 13 424 0
 2266 0044 02E0     		b	.L150
 2267              	.L151:
 2268              		.loc 13 424 0 is_stmt 0 discriminator 2
 2269 0046 039B     		ldr	r3, [sp, #12]
 2270 0048 1B68     		ldr	r3, [r3]
 2271 004a 0393     		str	r3, [sp, #12]
 2272              	.L150:
 2273              		.loc 13 424 0 discriminator 1
 2274 004c 039B     		ldr	r3, [sp, #12]
 2275 004e 1B68     		ldr	r3, [r3]
 2276 0050 002B     		cmp	r3, #0
 2277 0052 F8D1     		bne	.L151
 2278              		.loc 13 425 0 is_stmt 1
 2279 0054 039B     		ldr	r3, [sp, #12]
 2280 0056 009A     		ldr	r2, [sp]
 2281 0058 1A60     		str	r2, [r3]
 2282              	.L145:
 2283              	.LBE27:
 2284              		.loc 13 427 0
 2285 005a 05B0     		add	sp, sp, #20
 2286              		@ sp needed
 2287 005c 5DF804FB 		ldr	pc, [sp], #4
 2288              	.L153:
 2289              		.align	2
 2290              	.L152:
 2291 0060 00000000 		.word	.LC0
 2292              		.cfi_endproc
 2293              	.LFE659:
 2294              		.size	_ZN3r2p10StaticListINS_15RemotePublisherEE16link_tail_unsafeERNS2_4LinkE, .-_ZN3r2p10StaticL
 2295 0064 AFF30080 		.section	.text._ZNK3r2p10StaticListINS_16RemoteSubscriberEE10find_firstEPFbRKS1_PKvES6_,"axG",%pro
 2295      AFF30080 
 2295      AFF30080 
ARM GAS  /tmp/ccl0SayN.s 			page 42


 2296              		.align	2
 2297              		.p2align 4,,15
 2298              		.weak	_ZNK3r2p10StaticListINS_16RemoteSubscriberEE10find_firstEPFbRKS1_PKvES6_
 2299              		.thumb
 2300              		.thumb_func
 2301              		.type	_ZNK3r2p10StaticListINS_16RemoteSubscriberEE10find_firstEPFbRKS1_PKvES6_, %function
 2302              	_ZNK3r2p10StaticListINS_16RemoteSubscriberEE10find_firstEPFbRKS1_PKvES6_:
 2303              	.LFB660:
 2304              		.loc 13 700 0
 2305              		.cfi_startproc
 2306              		@ args = 0, pretend = 0, frame = 24
 2307              		@ frame_needed = 0, uses_anonymous_args = 0
 2308 0000 00B5     		push	{lr}
 2309              		.cfi_def_cfa_offset 4
 2310              		.cfi_offset 14, -4
 2311 0002 87B0     		sub	sp, sp, #28
 2312              		.cfi_def_cfa_offset 32
 2313 0004 0390     		str	r0, [sp, #12]
 2314 0006 0291     		str	r1, [sp, #8]
 2315 0008 0192     		str	r2, [sp, #4]
 2316              	.LBB28:
 2317              		.loc 13 703 0
 2318 000a 019B     		ldr	r3, [sp, #4]
 2319 000c 002B     		cmp	r3, #0
 2320 000e 02D1     		bne	.L155
 2321              		.loc 13 703 0 is_stmt 0 discriminator 1
 2322 0010 1248     		ldr	r0, .L160
 2323 0012 FFF7FEFF 		bl	chDbgPanic
 2324              	.L155:
 2325              		.loc 13 705 0 is_stmt 1
 2326 0016 FFF7FEFF 		bl	_ZN3r2p7SysLock7acquireEv
 2327              	.LBB29:
 2328              		.loc 13 706 0
 2329 001a 039B     		ldr	r3, [sp, #12]
 2330 001c 1B68     		ldr	r3, [r3]
 2331 001e 0593     		str	r3, [sp, #20]
 2332 0020 12E0     		b	.L156
 2333              	.L159:
 2334              		.loc 13 707 0
 2335 0022 FFF7FEFF 		bl	_ZN3r2p7SysLock7releaseEv
 2336              		.loc 13 708 0
 2337 0026 059B     		ldr	r3, [sp, #20]
 2338 0028 5A68     		ldr	r2, [r3, #4]
 2339 002a 029B     		ldr	r3, [sp, #8]
 2340 002c 1046     		mov	r0, r2
 2341 002e 0199     		ldr	r1, [sp, #4]
 2342 0030 9847     		blx	r3
 2343 0032 0346     		mov	r3, r0
 2344 0034 002B     		cmp	r3, #0
 2345 0036 02D0     		beq	.L157
 2346              		.loc 13 709 0
 2347 0038 059B     		ldr	r3, [sp, #20]
 2348 003a 5B68     		ldr	r3, [r3, #4]
 2349 003c 0AE0     		b	.L158
 2350              	.L157:
 2351              		.loc 13 711 0
 2352 003e FFF7FEFF 		bl	_ZN3r2p7SysLock7acquireEv
ARM GAS  /tmp/ccl0SayN.s 			page 43


 2353              		.loc 13 706 0
 2354 0042 059B     		ldr	r3, [sp, #20]
 2355 0044 1B68     		ldr	r3, [r3]
 2356 0046 0593     		str	r3, [sp, #20]
 2357              	.L156:
 2358              		.loc 13 706 0 is_stmt 0 discriminator 1
 2359 0048 059B     		ldr	r3, [sp, #20]
 2360 004a 002B     		cmp	r3, #0
 2361 004c E9D1     		bne	.L159
 2362              	.LBE29:
 2363              		.loc 13 713 0 is_stmt 1
 2364 004e FFF7FEFF 		bl	_ZN3r2p7SysLock7releaseEv
 2365              		.loc 13 714 0
 2366 0052 0023     		movs	r3, #0
 2367              	.L158:
 2368              	.LBE28:
 2369              		.loc 13 715 0
 2370 0054 1846     		mov	r0, r3
 2371 0056 07B0     		add	sp, sp, #28
 2372              		@ sp needed
 2373 0058 5DF804FB 		ldr	pc, [sp], #4
 2374              	.L161:
 2375              		.align	2
 2376              	.L160:
 2377 005c 00000000 		.word	.LC0
 2378              		.cfi_endproc
 2379              	.LFE660:
 2380              		.size	_ZNK3r2p10StaticListINS_16RemoteSubscriberEE10find_firstEPFbRKS1_PKvES6_, .-_ZNK3r2p10Static
 2381              		.section	.text._ZN3r2p10StaticListINS_16RemoteSubscriberEE16link_tail_unsafeERNS2_4LinkE,"axG",%pr
 2382              		.align	2
 2383              		.p2align 4,,15
 2384              		.weak	_ZN3r2p10StaticListINS_16RemoteSubscriberEE16link_tail_unsafeERNS2_4LinkE
 2385              		.thumb
 2386              		.thumb_func
 2387              		.type	_ZN3r2p10StaticListINS_16RemoteSubscriberEE16link_tail_unsafeERNS2_4LinkE, %function
 2388              	_ZN3r2p10StaticListINS_16RemoteSubscriberEE16link_tail_unsafeERNS2_4LinkE:
 2389              	.LFB661:
 2390              		.loc 13 415 0
 2391              		.cfi_startproc
 2392              		@ args = 0, pretend = 0, frame = 16
 2393              		@ frame_needed = 0, uses_anonymous_args = 0
 2394 0000 00B5     		push	{lr}
 2395              		.cfi_def_cfa_offset 4
 2396              		.cfi_offset 14, -4
 2397 0002 85B0     		sub	sp, sp, #20
 2398              		.cfi_def_cfa_offset 24
 2399 0004 0190     		str	r0, [sp, #4]
 2400 0006 0091     		str	r1, [sp]
 2401              	.LBB30:
 2402              		.loc 13 416 0
 2403 0008 019B     		ldr	r3, [sp, #4]
 2404 000a 1B68     		ldr	r3, [r3]
 2405 000c 0393     		str	r3, [sp, #12]
 2406              		.loc 13 418 0
 2407 000e 009B     		ldr	r3, [sp]
 2408 0010 1B68     		ldr	r3, [r3]
 2409 0012 002B     		cmp	r3, #0
ARM GAS  /tmp/ccl0SayN.s 			page 44


 2410 0014 02D0     		beq	.L163
 2411              		.loc 13 418 0 is_stmt 0 discriminator 1
 2412 0016 1248     		ldr	r0, .L169
 2413 0018 FFF7FEFF 		bl	chDbgPanic
 2414              	.L163:
 2415              		.loc 13 419 0 is_stmt 1
 2416 001c 0198     		ldr	r0, [sp, #4]
 2417 001e 0099     		ldr	r1, [sp]
 2418 0020 FFF7FEFF 		bl	_ZN3r2p10StaticListINS_16RemoteSubscriberEE13unlink_unsafeERNS2_4LinkE
 2419 0024 0346     		mov	r3, r0
 2420 0026 002B     		cmp	r3, #0
 2421 0028 02D0     		beq	.L164
 2422              		.loc 13 419 0 is_stmt 0 discriminator 1
 2423 002a 0D48     		ldr	r0, .L169
 2424 002c FFF7FEFF 		bl	chDbgPanic
 2425              	.L164:
 2426              		.loc 13 421 0 is_stmt 1
 2427 0030 0198     		ldr	r0, [sp, #4]
 2428 0032 FFF7FEFF 		bl	_ZNK3r2p10StaticListINS_16RemoteSubscriberEE15is_empty_unsafeEv
 2429 0036 0346     		mov	r3, r0
 2430 0038 002B     		cmp	r3, #0
 2431 003a 03D0     		beq	.L165
 2432              		.loc 13 422 0
 2433 003c 019B     		ldr	r3, [sp, #4]
 2434 003e 009A     		ldr	r2, [sp]
 2435 0040 1A60     		str	r2, [r3]
 2436 0042 0AE0     		b	.L162
 2437              	.L165:
 2438              		.loc 13 424 0
 2439 0044 02E0     		b	.L167
 2440              	.L168:
 2441              		.loc 13 424 0 is_stmt 0 discriminator 2
 2442 0046 039B     		ldr	r3, [sp, #12]
 2443 0048 1B68     		ldr	r3, [r3]
 2444 004a 0393     		str	r3, [sp, #12]
 2445              	.L167:
 2446              		.loc 13 424 0 discriminator 1
 2447 004c 039B     		ldr	r3, [sp, #12]
 2448 004e 1B68     		ldr	r3, [r3]
 2449 0050 002B     		cmp	r3, #0
 2450 0052 F8D1     		bne	.L168
 2451              		.loc 13 425 0 is_stmt 1
 2452 0054 039B     		ldr	r3, [sp, #12]
 2453 0056 009A     		ldr	r2, [sp]
 2454 0058 1A60     		str	r2, [r3]
 2455              	.L162:
 2456              	.LBE30:
 2457              		.loc 13 427 0
 2458 005a 05B0     		add	sp, sp, #20
 2459              		@ sp needed
 2460 005c 5DF804FB 		ldr	pc, [sp], #4
 2461              	.L170:
 2462              		.align	2
 2463              	.L169:
 2464 0060 00000000 		.word	.LC0
 2465              		.cfi_endproc
 2466              	.LFE661:
ARM GAS  /tmp/ccl0SayN.s 			page 45


 2467              		.size	_ZN3r2p10StaticListINS_16RemoteSubscriberEE16link_tail_unsafeERNS2_4LinkE, .-_ZN3r2p10Static
 2468 0064 AFF30080 		.section	.text._ZN3r2p10StaticListINS_15RemotePublisherEE13unlink_unsafeERNS2_4LinkE,"axG",%progbi
 2468      AFF30080 
 2468      AFF30080 
 2469              		.align	2
 2470              		.p2align 4,,15
 2471              		.weak	_ZN3r2p10StaticListINS_15RemotePublisherEE13unlink_unsafeERNS2_4LinkE
 2472              		.thumb
 2473              		.thumb_func
 2474              		.type	_ZN3r2p10StaticListINS_15RemotePublisherEE13unlink_unsafeERNS2_4LinkE, %function
 2475              	_ZN3r2p10StaticListINS_15RemotePublisherEE13unlink_unsafeERNS2_4LinkE:
 2476              	.LFB662:
 2477              		.loc 13 526 0
 2478              		.cfi_startproc
 2479              		@ args = 0, pretend = 0, frame = 16
 2480              		@ frame_needed = 0, uses_anonymous_args = 0
 2481              		@ link register save eliminated.
 2482 0000 84B0     		sub	sp, sp, #16
 2483              		.cfi_def_cfa_offset 16
 2484 0002 0190     		str	r0, [sp, #4]
 2485 0004 0091     		str	r1, [sp]
 2486              	.LBB31:
 2487              	.LBB32:
 2488              		.loc 13 528 0
 2489 0006 019B     		ldr	r3, [sp, #4]
 2490 0008 1B68     		ldr	r3, [r3]
 2491 000a 0393     		str	r3, [sp, #12]
 2492 000c 0023     		movs	r3, #0
 2493 000e 0293     		str	r3, [sp, #8]
 2494 0010 19E0     		b	.L172
 2495              	.L177:
 2496              		.loc 13 531 0
 2497 0012 039A     		ldr	r2, [sp, #12]
 2498 0014 009B     		ldr	r3, [sp]
 2499 0016 9A42     		cmp	r2, r3
 2500 0018 10D1     		bne	.L173
 2501              		.loc 13 532 0
 2502 001a 029B     		ldr	r3, [sp, #8]
 2503 001c 002B     		cmp	r3, #0
 2504 001e 04D0     		beq	.L174
 2505              		.loc 13 532 0 is_stmt 0 discriminator 1
 2506 0020 039B     		ldr	r3, [sp, #12]
 2507 0022 1A68     		ldr	r2, [r3]
 2508 0024 029B     		ldr	r3, [sp, #8]
 2509 0026 1A60     		str	r2, [r3]
 2510 0028 03E0     		b	.L175
 2511              	.L174:
 2512              		.loc 13 533 0 is_stmt 1
 2513 002a 039B     		ldr	r3, [sp, #12]
 2514 002c 1A68     		ldr	r2, [r3]
 2515 002e 019B     		ldr	r3, [sp, #4]
 2516 0030 1A60     		str	r2, [r3]
 2517              	.L175:
 2518              		.loc 13 534 0
 2519 0032 039B     		ldr	r3, [sp, #12]
 2520 0034 0022     		movs	r2, #0
 2521 0036 1A60     		str	r2, [r3]
ARM GAS  /tmp/ccl0SayN.s 			page 46


 2522              		.loc 13 535 0
 2523 0038 0123     		movs	r3, #1
 2524 003a 08E0     		b	.L176
 2525              	.L173:
 2526              		.loc 13 528 0
 2527 003c 039B     		ldr	r3, [sp, #12]
 2528 003e 0293     		str	r3, [sp, #8]
 2529 0040 039B     		ldr	r3, [sp, #12]
 2530 0042 1B68     		ldr	r3, [r3]
 2531 0044 0393     		str	r3, [sp, #12]
 2532              	.L172:
 2533              		.loc 13 528 0 is_stmt 0 discriminator 1
 2534 0046 039B     		ldr	r3, [sp, #12]
 2535 0048 002B     		cmp	r3, #0
 2536 004a E2D1     		bne	.L177
 2537              	.LBE32:
 2538              		.loc 13 538 0 is_stmt 1
 2539 004c 0023     		movs	r3, #0
 2540              	.L176:
 2541              	.LBE31:
 2542              		.loc 13 539 0
 2543 004e 1846     		mov	r0, r3
 2544 0050 04B0     		add	sp, sp, #16
 2545              		@ sp needed
 2546 0052 7047     		bx	lr
 2547              		.cfi_endproc
 2548              	.LFE662:
 2549              		.size	_ZN3r2p10StaticListINS_15RemotePublisherEE13unlink_unsafeERNS2_4LinkE, .-_ZN3r2p10StaticList
 2550 0054 AFF30080 		.section	.text._ZNK3r2p10StaticListINS_15RemotePublisherEE15is_empty_unsafeEv,"axG",%progbits,_ZNK
 2550      AFF30080 
 2550      AFF30080 
 2551              		.align	2
 2552              		.p2align 4,,15
 2553              		.weak	_ZNK3r2p10StaticListINS_15RemotePublisherEE15is_empty_unsafeEv
 2554              		.thumb
 2555              		.thumb_func
 2556              		.type	_ZNK3r2p10StaticListINS_15RemotePublisherEE15is_empty_unsafeEv, %function
 2557              	_ZNK3r2p10StaticListINS_15RemotePublisherEE15is_empty_unsafeEv:
 2558              	.LFB663:
 2559              		.loc 13 401 0
 2560              		.cfi_startproc
 2561              		@ args = 0, pretend = 0, frame = 8
 2562              		@ frame_needed = 0, uses_anonymous_args = 0
 2563              		@ link register save eliminated.
 2564 0000 82B0     		sub	sp, sp, #8
 2565              		.cfi_def_cfa_offset 8
 2566 0002 0190     		str	r0, [sp, #4]
 2567              		.loc 13 402 0
 2568 0004 019B     		ldr	r3, [sp, #4]
 2569 0006 1B68     		ldr	r3, [r3]
 2570 0008 002B     		cmp	r3, #0
 2571 000a 14BF     		ite	ne
 2572 000c 0023     		movne	r3, #0
 2573 000e 0123     		moveq	r3, #1
 2574 0010 DBB2     		uxtb	r3, r3
 2575              		.loc 13 403 0
 2576 0012 1846     		mov	r0, r3
ARM GAS  /tmp/ccl0SayN.s 			page 47


 2577 0014 02B0     		add	sp, sp, #8
 2578              		@ sp needed
 2579 0016 7047     		bx	lr
 2580              		.cfi_endproc
 2581              	.LFE663:
 2582              		.size	_ZNK3r2p10StaticListINS_15RemotePublisherEE15is_empty_unsafeEv, .-_ZNK3r2p10StaticListINS_15
 2583 0018 AFF30080 		.section	.text._ZN3r2p10StaticListINS_16RemoteSubscriberEE13unlink_unsafeERNS2_4LinkE,"axG",%progb
 2583      AFF30080 
 2584              		.align	2
 2585              		.p2align 4,,15
 2586              		.weak	_ZN3r2p10StaticListINS_16RemoteSubscriberEE13unlink_unsafeERNS2_4LinkE
 2587              		.thumb
 2588              		.thumb_func
 2589              		.type	_ZN3r2p10StaticListINS_16RemoteSubscriberEE13unlink_unsafeERNS2_4LinkE, %function
 2590              	_ZN3r2p10StaticListINS_16RemoteSubscriberEE13unlink_unsafeERNS2_4LinkE:
 2591              	.LFB664:
 2592              		.loc 13 526 0
 2593              		.cfi_startproc
 2594              		@ args = 0, pretend = 0, frame = 16
 2595              		@ frame_needed = 0, uses_anonymous_args = 0
 2596              		@ link register save eliminated.
 2597 0000 84B0     		sub	sp, sp, #16
 2598              		.cfi_def_cfa_offset 16
 2599 0002 0190     		str	r0, [sp, #4]
 2600 0004 0091     		str	r1, [sp]
 2601              	.LBB33:
 2602              	.LBB34:
 2603              		.loc 13 528 0
 2604 0006 019B     		ldr	r3, [sp, #4]
 2605 0008 1B68     		ldr	r3, [r3]
 2606 000a 0393     		str	r3, [sp, #12]
 2607 000c 0023     		movs	r3, #0
 2608 000e 0293     		str	r3, [sp, #8]
 2609 0010 19E0     		b	.L181
 2610              	.L186:
 2611              		.loc 13 531 0
 2612 0012 039A     		ldr	r2, [sp, #12]
 2613 0014 009B     		ldr	r3, [sp]
 2614 0016 9A42     		cmp	r2, r3
 2615 0018 10D1     		bne	.L182
 2616              		.loc 13 532 0
 2617 001a 029B     		ldr	r3, [sp, #8]
 2618 001c 002B     		cmp	r3, #0
 2619 001e 04D0     		beq	.L183
 2620              		.loc 13 532 0 is_stmt 0 discriminator 1
 2621 0020 039B     		ldr	r3, [sp, #12]
 2622 0022 1A68     		ldr	r2, [r3]
 2623 0024 029B     		ldr	r3, [sp, #8]
 2624 0026 1A60     		str	r2, [r3]
 2625 0028 03E0     		b	.L184
 2626              	.L183:
 2627              		.loc 13 533 0 is_stmt 1
 2628 002a 039B     		ldr	r3, [sp, #12]
 2629 002c 1A68     		ldr	r2, [r3]
 2630 002e 019B     		ldr	r3, [sp, #4]
 2631 0030 1A60     		str	r2, [r3]
 2632              	.L184:
ARM GAS  /tmp/ccl0SayN.s 			page 48


 2633              		.loc 13 534 0
 2634 0032 039B     		ldr	r3, [sp, #12]
 2635 0034 0022     		movs	r2, #0
 2636 0036 1A60     		str	r2, [r3]
 2637              		.loc 13 535 0
 2638 0038 0123     		movs	r3, #1
 2639 003a 08E0     		b	.L185
 2640              	.L182:
 2641              		.loc 13 528 0
 2642 003c 039B     		ldr	r3, [sp, #12]
 2643 003e 0293     		str	r3, [sp, #8]
 2644 0040 039B     		ldr	r3, [sp, #12]
 2645 0042 1B68     		ldr	r3, [r3]
 2646 0044 0393     		str	r3, [sp, #12]
 2647              	.L181:
 2648              		.loc 13 528 0 is_stmt 0 discriminator 1
 2649 0046 039B     		ldr	r3, [sp, #12]
 2650 0048 002B     		cmp	r3, #0
 2651 004a E2D1     		bne	.L186
 2652              	.LBE34:
 2653              		.loc 13 538 0 is_stmt 1
 2654 004c 0023     		movs	r3, #0
 2655              	.L185:
 2656              	.LBE33:
 2657              		.loc 13 539 0
 2658 004e 1846     		mov	r0, r3
 2659 0050 04B0     		add	sp, sp, #16
 2660              		@ sp needed
 2661 0052 7047     		bx	lr
 2662              		.cfi_endproc
 2663              	.LFE664:
 2664              		.size	_ZN3r2p10StaticListINS_16RemoteSubscriberEE13unlink_unsafeERNS2_4LinkE, .-_ZN3r2p10StaticLis
 2665              		.global	_ZTVN3r2p9TransportE
 2666 0054 AFF30080 		.section	.rodata._ZTVN3r2p9TransportE,"a",%progbits
 2666      AFF30080 
 2666      AFF30080 
 2667              		.align	3
 2668              		.type	_ZTVN3r2p9TransportE, %object
 2669              		.size	_ZTVN3r2p9TransportE, 28
 2670              	_ZTVN3r2p9TransportE:
 2671 0000 00000000 		.word	0
 2672 0004 00000000 		.word	0
 2673 0008 00000000 		.word	_ZN3r2p9Transport15fill_raw_paramsERKNS_5TopicEPh
 2674 000c 00000000 		.word	__cxa_pure_virtual
 2675 0010 00000000 		.word	__cxa_pure_virtual
 2676 0014 00000000 		.word	__cxa_pure_virtual
 2677 0018 00000000 		.word	__cxa_pure_virtual
 2678 001c 00000000 		.text
 2679              	.Letext0:
 2680              		.file 15 "/usr/lib/gcc/arm-none-eabi/4.8/include/stddef.h"
 2681              		.file 16 "/usr/include/newlib/machine/_default_types.h"
 2682              		.file 17 "/usr/include/newlib/c++/4.8/cstring"
 2683              		.file 18 "/usr/include/newlib/string.h"
 2684              		.file 19 "<built-in>"
 2685              		.file 20 "/home/dave/r2p-sdk/core/Middleware/include/r2p/Message.hpp"
 2686              		.file 21 "/home/dave/r2p-sdk/core/Middleware/include/r2p/ArrayQueue.hpp"
 2687              		.file 22 "/home/dave/r2p-sdk/core/Middleware/include/r2p/Transport.hpp"
ARM GAS  /tmp/ccl0SayN.s 			page 49


 2688              		.file 23 "/usr/include/newlib/stdint.h"
 2689              		.file 24 "/home/dave/r2p-sdk/core/ChibiOS/os/ports/GCC/ARMCMx/chtypes.h"
 2690              		.file 25 "/home/dave/r2p-sdk/core/ChibiOS/os/kernel/include/chlists.h"
 2691              		.file 26 "/home/dave/r2p-sdk/core/ChibiOS/os/kernel/include/chthreads.h"
 2692              		.file 27 "/home/dave/r2p-sdk/core/ChibiOS/os/ports/GCC/ARMCMx/chcore_v7m.h"
 2693              		.file 28 "/home/dave/r2p-sdk/core/ChibiOS/os/kernel/include/chschd.h"
 2694              		.file 29 "/home/dave/r2p-sdk/core/ChibiOS/os/kernel/include/chmtx.h"
 2695              		.file 30 "/home/dave/r2p-sdk/core/ChibiOS/os/kernel/include/chmemcore.h"
 2696              		.file 31 "/home/dave/r2p-sdk/core/ChibiOS/os/kernel/include/chmempools.h"
 2697              		.file 32 "/home/dave/r2p-sdk/core/ChibiOS/os/ports/common/ARMCMx/CMSIS/include/core_cm4.h"