ARM GAS  /tmp/ccn3EBwB.s 			page 1


   1              		.syntax unified
   2              		.cpu cortex-m4
   3              		.eabi_attribute 27, 3
   4              		.eabi_attribute 28, 1
   5              		.fpu fpv4-sp-d16
   6              		.eabi_attribute 20, 1
   7              		.eabi_attribute 21, 1
   8              		.eabi_attribute 23, 3
   9              		.eabi_attribute 24, 1
  10              		.eabi_attribute 25, 1
  11              		.eabi_attribute 26, 1
  12              		.eabi_attribute 30, 6
  13              		.eabi_attribute 34, 1
  14              		.eabi_attribute 18, 4
  15              		.thumb
  16              		.file	"uart_lld.c"
  17              		.text
  18              	.Ltext0:
  19              		.cfi_sections	.debug_frame
  20              		.global	UARTD3
  21              		.section	.bss.UARTD3,"aw",%nobits
  22              		.align	2
  23              		.type	UARTD3, %object
  24              		.size	UARTD3, 28
  25              	UARTD3:
  26 0000 00000000 		.space	28
  26      00000000 
  26      00000000 
  26      00000000 
  26      00000000 
  27              		.section	.text.translate_errors,"ax",%progbits
  28              		.align	2
  29              		.p2align 4,,15
  30              		.thumb
  31              		.thumb_func
  32              		.type	translate_errors, %function
  33              	translate_errors:
  34              	.LFB118:
  35              		.file 1 "/home/dave/r2p-sdk/core/ChibiOS/os/hal/platforms/STM32/USARTv2/uart_lld.c"
  36              		.loc 1 92 0
  37              		.cfi_startproc
  38              		@ args = 0, pretend = 0, frame = 16
  39              		@ frame_needed = 0, uses_anonymous_args = 0
  40              		@ link register save eliminated.
  41 0000 84B0     		sub	sp, sp, #16
  42              		.cfi_def_cfa_offset 16
  43 0002 0190     		str	r0, [sp, #4]
  44              		.loc 1 93 0
  45 0004 0023     		movs	r3, #0
  46 0006 0393     		str	r3, [sp, #12]
  47              		.loc 1 95 0
  48 0008 019B     		ldr	r3, [sp, #4]
  49 000a 03F00803 		and	r3, r3, #8
  50 000e 002B     		cmp	r3, #0
  51 0010 03D0     		beq	.L2
  52              		.loc 1 96 0
  53 0012 039B     		ldr	r3, [sp, #12]
ARM GAS  /tmp/ccn3EBwB.s 			page 2


  54 0014 43F01003 		orr	r3, r3, #16
  55 0018 0393     		str	r3, [sp, #12]
  56              	.L2:
  57              		.loc 1 97 0
  58 001a 019B     		ldr	r3, [sp, #4]
  59 001c 03F00103 		and	r3, r3, #1
  60 0020 002B     		cmp	r3, #0
  61 0022 03D0     		beq	.L3
  62              		.loc 1 98 0
  63 0024 039B     		ldr	r3, [sp, #12]
  64 0026 43F00403 		orr	r3, r3, #4
  65 002a 0393     		str	r3, [sp, #12]
  66              	.L3:
  67              		.loc 1 99 0
  68 002c 019B     		ldr	r3, [sp, #4]
  69 002e 03F00203 		and	r3, r3, #2
  70 0032 002B     		cmp	r3, #0
  71 0034 03D0     		beq	.L4
  72              		.loc 1 100 0
  73 0036 039B     		ldr	r3, [sp, #12]
  74 0038 43F00803 		orr	r3, r3, #8
  75 003c 0393     		str	r3, [sp, #12]
  76              	.L4:
  77              		.loc 1 101 0
  78 003e 019B     		ldr	r3, [sp, #4]
  79 0040 03F00403 		and	r3, r3, #4
  80 0044 002B     		cmp	r3, #0
  81 0046 03D0     		beq	.L5
  82              		.loc 1 102 0
  83 0048 039B     		ldr	r3, [sp, #12]
  84 004a 43F02003 		orr	r3, r3, #32
  85 004e 0393     		str	r3, [sp, #12]
  86              	.L5:
  87              		.loc 1 103 0
  88 0050 019B     		ldr	r3, [sp, #4]
  89 0052 03F48073 		and	r3, r3, #256
  90 0056 002B     		cmp	r3, #0
  91 0058 03D0     		beq	.L6
  92              		.loc 1 104 0
  93 005a 039B     		ldr	r3, [sp, #12]
  94 005c 43F04003 		orr	r3, r3, #64
  95 0060 0393     		str	r3, [sp, #12]
  96              	.L6:
  97              		.loc 1 105 0
  98 0062 039B     		ldr	r3, [sp, #12]
  99              		.loc 1 106 0
 100 0064 1846     		mov	r0, r3
 101 0066 04B0     		add	sp, sp, #16
 102              		@ sp needed
 103 0068 7047     		bx	lr
 104              		.cfi_endproc
 105              	.LFE118:
 106              		.size	translate_errors, .-translate_errors
 107 006a 00BFAFF3 		.section	.text.set_rx_idle_loop,"ax",%progbits
 107      0080
 108              		.align	2
 109              		.p2align 4,,15
ARM GAS  /tmp/ccn3EBwB.s 			page 3


 110              		.thumb
 111              		.thumb_func
 112              		.type	set_rx_idle_loop, %function
 113              	set_rx_idle_loop:
 114              	.LFB119:
 115              		.loc 1 113 0
 116              		.cfi_startproc
 117              		@ args = 0, pretend = 0, frame = 16
 118              		@ frame_needed = 0, uses_anonymous_args = 0
 119              		@ link register save eliminated.
 120 0000 84B0     		sub	sp, sp, #16
 121              		.cfi_def_cfa_offset 16
 122 0002 0190     		str	r0, [sp, #4]
 123              		.loc 1 118 0
 124 0004 019B     		ldr	r3, [sp, #4]
 125 0006 5B68     		ldr	r3, [r3, #4]
 126 0008 DB68     		ldr	r3, [r3, #12]
 127 000a 002B     		cmp	r3, #0
 128 000c 02D1     		bne	.L9
 129              		.loc 1 119 0
 130 000e 2023     		movs	r3, #32
 131 0010 0393     		str	r3, [sp, #12]
 132 0012 01E0     		b	.L10
 133              	.L9:
 134              		.loc 1 121 0
 135 0014 2223     		movs	r3, #34
 136 0016 0393     		str	r3, [sp, #12]
 137              	.L10:
 138              		.loc 1 122 0
 139 0018 019B     		ldr	r3, [sp, #4]
 140 001a 1B69     		ldr	r3, [r3, #16]
 141 001c 1B68     		ldr	r3, [r3]
 142 001e 019A     		ldr	r2, [sp, #4]
 143 0020 1832     		adds	r2, r2, #24
 144 0022 DA60     		str	r2, [r3, #12]
 145              		.loc 1 123 0
 146 0024 019B     		ldr	r3, [sp, #4]
 147 0026 1B69     		ldr	r3, [r3, #16]
 148 0028 1B68     		ldr	r3, [r3]
 149 002a 0122     		movs	r2, #1
 150 002c 5A60     		str	r2, [r3, #4]
 151              		.loc 1 124 0
 152 002e 019B     		ldr	r3, [sp, #4]
 153 0030 1B69     		ldr	r3, [r3, #16]
 154 0032 1B68     		ldr	r3, [r3]
 155 0034 019A     		ldr	r2, [sp, #4]
 156 0036 D168     		ldr	r1, [r2, #12]
 157 0038 039A     		ldr	r2, [sp, #12]
 158 003a 0A43     		orrs	r2, r2, r1
 159 003c 1A60     		str	r2, [r3]
 160              		.loc 1 125 0
 161 003e 019B     		ldr	r3, [sp, #4]
 162 0040 1B69     		ldr	r3, [r3, #16]
 163 0042 1B68     		ldr	r3, [r3]
 164 0044 019A     		ldr	r2, [sp, #4]
 165 0046 1269     		ldr	r2, [r2, #16]
 166 0048 1268     		ldr	r2, [r2]
ARM GAS  /tmp/ccn3EBwB.s 			page 4


 167 004a 1268     		ldr	r2, [r2]
 168 004c 42F00102 		orr	r2, r2, #1
 169 0050 1A60     		str	r2, [r3]
 170              		.loc 1 126 0
 171 0052 04B0     		add	sp, sp, #16
 172              		@ sp needed
 173 0054 7047     		bx	lr
 174              		.cfi_endproc
 175              	.LFE119:
 176              		.size	set_rx_idle_loop, .-set_rx_idle_loop
 177 0056 00BFAFF3 		.section	.text.usart_stop,"ax",%progbits
 177      0080AFF3 
 177      0080
 178              		.align	2
 179              		.p2align 4,,15
 180              		.thumb
 181              		.thumb_func
 182              		.type	usart_stop, %function
 183              	usart_stop:
 184              	.LFB120:
 185              		.loc 1 134 0
 186              		.cfi_startproc
 187              		@ args = 0, pretend = 0, frame = 8
 188              		@ frame_needed = 0, uses_anonymous_args = 0
 189              		@ link register save eliminated.
 190 0000 82B0     		sub	sp, sp, #8
 191              		.cfi_def_cfa_offset 8
 192 0002 0190     		str	r0, [sp, #4]
 193              		.loc 1 137 0
 194 0004 019B     		ldr	r3, [sp, #4]
 195 0006 1B69     		ldr	r3, [r3, #16]
 196 0008 1B68     		ldr	r3, [r3]
 197 000a 019A     		ldr	r2, [sp, #4]
 198 000c 1269     		ldr	r2, [r2, #16]
 199 000e 1268     		ldr	r2, [r2]
 200 0010 1268     		ldr	r2, [r2]
 201 0012 22F00F02 		bic	r2, r2, #15
 202 0016 1A60     		str	r2, [r3]
 203 0018 019B     		ldr	r3, [sp, #4]
 204 001a 1B69     		ldr	r3, [r3, #16]
 205 001c 5B68     		ldr	r3, [r3, #4]
 206 001e 019A     		ldr	r2, [sp, #4]
 207 0020 1269     		ldr	r2, [r2, #16]
 208 0022 127A     		ldrb	r2, [r2, #8]	@ zero_extendqisi2
 209 0024 0F21     		movs	r1, #15
 210 0026 01FA02F2 		lsl	r2, r1, r2
 211 002a 1A60     		str	r2, [r3]
 212              		.loc 1 138 0
 213 002c 019B     		ldr	r3, [sp, #4]
 214 002e 5B69     		ldr	r3, [r3, #20]
 215 0030 1B68     		ldr	r3, [r3]
 216 0032 019A     		ldr	r2, [sp, #4]
 217 0034 5269     		ldr	r2, [r2, #20]
 218 0036 1268     		ldr	r2, [r2]
 219 0038 1268     		ldr	r2, [r2]
 220 003a 22F00F02 		bic	r2, r2, #15
 221 003e 1A60     		str	r2, [r3]
ARM GAS  /tmp/ccn3EBwB.s 			page 5


 222 0040 019B     		ldr	r3, [sp, #4]
 223 0042 5B69     		ldr	r3, [r3, #20]
 224 0044 5B68     		ldr	r3, [r3, #4]
 225 0046 019A     		ldr	r2, [sp, #4]
 226 0048 5269     		ldr	r2, [r2, #20]
 227 004a 127A     		ldrb	r2, [r2, #8]	@ zero_extendqisi2
 228 004c 0F21     		movs	r1, #15
 229 004e 01FA02F2 		lsl	r2, r1, r2
 230 0052 1A60     		str	r2, [r3]
 231              		.loc 1 141 0
 232 0054 019B     		ldr	r3, [sp, #4]
 233 0056 9B68     		ldr	r3, [r3, #8]
 234 0058 0022     		movs	r2, #0
 235 005a 1A60     		str	r2, [r3]
 236              		.loc 1 142 0
 237 005c 019B     		ldr	r3, [sp, #4]
 238 005e 9B68     		ldr	r3, [r3, #8]
 239 0060 0022     		movs	r2, #0
 240 0062 5A60     		str	r2, [r3, #4]
 241              		.loc 1 143 0
 242 0064 019B     		ldr	r3, [sp, #4]
 243 0066 9B68     		ldr	r3, [r3, #8]
 244 0068 0022     		movs	r2, #0
 245 006a 9A60     		str	r2, [r3, #8]
 246              		.loc 1 144 0
 247 006c 02B0     		add	sp, sp, #8
 248              		@ sp needed
 249 006e 7047     		bx	lr
 250              		.cfi_endproc
 251              	.LFE120:
 252              		.size	usart_stop, .-usart_stop
 253              		.section	.text.usart_start,"ax",%progbits
 254              		.align	2
 255              		.p2align 4,,15
 256              		.thumb
 257              		.thumb_func
 258              		.type	usart_start, %function
 259              	usart_start:
 260              	.LFB121:
 261              		.loc 1 152 0
 262              		.cfi_startproc
 263              		@ args = 0, pretend = 0, frame = 16
 264              		@ frame_needed = 0, uses_anonymous_args = 0
 265 0000 00B5     		push	{lr}
 266              		.cfi_def_cfa_offset 4
 267              		.cfi_offset 14, -4
 268 0002 85B0     		sub	sp, sp, #20
 269              		.cfi_def_cfa_offset 24
 270 0004 0190     		str	r0, [sp, #4]
 271              		.loc 1 154 0
 272 0006 019B     		ldr	r3, [sp, #4]
 273 0008 9B68     		ldr	r3, [r3, #8]
 274 000a 0293     		str	r3, [sp, #8]
 275              		.loc 1 157 0
 276 000c 0198     		ldr	r0, [sp, #4]
 277 000e FFF7FEFF 		bl	usart_stop
 278              		.loc 1 166 0
ARM GAS  /tmp/ccn3EBwB.s 			page 6


 279 0012 019B     		ldr	r3, [sp, #4]
 280 0014 9A68     		ldr	r2, [r3, #8]
 281 0016 204B     		ldr	r3, .L17
 282 0018 9A42     		cmp	r2, r3
 283 001a 09D1     		bne	.L13
 284              		.loc 1 167 0
 285 001c 019B     		ldr	r3, [sp, #4]
 286 001e 5B68     		ldr	r3, [r3, #4]
 287 0020 5B69     		ldr	r3, [r3, #20]
 288 0022 1E4A     		ldr	r2, .L17+4
 289 0024 B2FBF3F3 		udiv	r3, r2, r3
 290 0028 9AB2     		uxth	r2, r3
 291 002a 029B     		ldr	r3, [sp, #8]
 292 002c 9A81     		strh	r2, [r3, #12]	@ movhi
 293 002e 08E0     		b	.L14
 294              	.L13:
 295              		.loc 1 169 0
 296 0030 019B     		ldr	r3, [sp, #4]
 297 0032 5B68     		ldr	r3, [r3, #4]
 298 0034 5B69     		ldr	r3, [r3, #20]
 299 0036 194A     		ldr	r2, .L17+4
 300 0038 B2FBF3F3 		udiv	r3, r2, r3
 301 003c 9AB2     		uxth	r2, r3
 302 003e 029B     		ldr	r3, [sp, #8]
 303 0040 9A81     		strh	r2, [r3, #12]	@ movhi
 304              	.L14:
 305              		.loc 1 173 0
 306 0042 029B     		ldr	r3, [sp, #8]
 307 0044 4FF0FF32 		mov	r2, #-1
 308 0048 1A62     		str	r2, [r3, #32]
 309              		.loc 1 177 0
 310 004a 019B     		ldr	r3, [sp, #4]
 311 004c 5B68     		ldr	r3, [r3, #4]
 312 004e DB69     		ldr	r3, [r3, #28]
 313 0050 43F04002 		orr	r2, r3, #64
 314 0054 029B     		ldr	r3, [sp, #8]
 315 0056 5A60     		str	r2, [r3, #4]
 316              		.loc 1 178 0
 317 0058 019B     		ldr	r3, [sp, #4]
 318 005a 5B68     		ldr	r3, [r3, #4]
 319 005c 1B6A     		ldr	r3, [r3, #32]
 320 005e 43F0C102 		orr	r2, r3, #193
 321 0062 029B     		ldr	r3, [sp, #8]
 322 0064 9A60     		str	r2, [r3, #8]
 323              		.loc 1 180 0
 324 0066 019B     		ldr	r3, [sp, #4]
 325 0068 5B68     		ldr	r3, [r3, #4]
 326 006a 5B68     		ldr	r3, [r3, #4]
 327 006c 002B     		cmp	r3, #0
 328 006e 03D1     		bne	.L15
 329              		.loc 1 181 0
 330 0070 40F20D13 		movw	r3, #269
 331 0074 0393     		str	r3, [sp, #12]
 332 0076 02E0     		b	.L16
 333              	.L15:
 334              		.loc 1 183 0
 335 0078 40F24D13 		movw	r3, #333
ARM GAS  /tmp/ccn3EBwB.s 			page 7


 336 007c 0393     		str	r3, [sp, #12]
 337              	.L16:
 338              		.loc 1 185 0
 339 007e 019B     		ldr	r3, [sp, #4]
 340 0080 5B68     		ldr	r3, [r3, #4]
 341 0082 9A69     		ldr	r2, [r3, #24]
 342 0084 039B     		ldr	r3, [sp, #12]
 343 0086 1A43     		orrs	r2, r2, r3
 344 0088 029B     		ldr	r3, [sp, #8]
 345 008a 1A60     		str	r2, [r3]
 346              		.loc 1 188 0
 347 008c 0198     		ldr	r0, [sp, #4]
 348 008e FFF7FEFF 		bl	set_rx_idle_loop
 349              		.loc 1 189 0
 350 0092 05B0     		add	sp, sp, #20
 351              		@ sp needed
 352 0094 5DF804FB 		ldr	pc, [sp], #4
 353              	.L18:
 354              		.align	2
 355              	.L17:
 356 0098 00380140 		.word	1073821696
 357 009c 00512502 		.word	36000000
 358              		.cfi_endproc
 359              	.LFE121:
 360              		.size	usart_start, .-usart_start
 361              		.section	.text.uart_lld_serve_rx_end_irq,"ax",%progbits
 362              		.align	2
 363              		.p2align 4,,15
 364              		.thumb
 365              		.thumb_func
 366              		.type	uart_lld_serve_rx_end_irq, %function
 367              	uart_lld_serve_rx_end_irq:
 368              	.LFB122:
 369              		.loc 1 197 0
 370              		.cfi_startproc
 371              		@ args = 0, pretend = 0, frame = 8
 372              		@ frame_needed = 0, uses_anonymous_args = 0
 373 0000 00B5     		push	{lr}
 374              		.cfi_def_cfa_offset 4
 375              		.cfi_offset 14, -4
 376 0002 83B0     		sub	sp, sp, #12
 377              		.cfi_def_cfa_offset 16
 378 0004 0190     		str	r0, [sp, #4]
 379 0006 0091     		str	r1, [sp]
 380              		.loc 1 201 0
 381 0008 009B     		ldr	r3, [sp]
 382 000a 03F00803 		and	r3, r3, #8
 383 000e 002B     		cmp	r3, #0
 384 0010 01D0     		beq	.L20
 385              		.loc 1 202 0
 386 0012 FFF7FEFF 		bl	port_halt
 387              	.L20:
 388              		.loc 1 208 0
 389 0016 019B     		ldr	r3, [sp, #4]
 390 0018 9B78     		ldrb	r3, [r3, #2]	@ zero_extendqisi2
 391 001a 002B     		cmp	r3, #0
 392 001c 0ED1     		bne	.L21
ARM GAS  /tmp/ccn3EBwB.s 			page 8


 393              		.loc 1 211 0
 394 001e 019B     		ldr	r3, [sp, #4]
 395 0020 5B68     		ldr	r3, [r3, #4]
 396 0022 DB68     		ldr	r3, [r3, #12]
 397 0024 002B     		cmp	r3, #0
 398 0026 34D0     		beq	.L19
 399              		.loc 1 212 0
 400 0028 019B     		ldr	r3, [sp, #4]
 401 002a 5B68     		ldr	r3, [r3, #4]
 402 002c DB68     		ldr	r3, [r3, #12]
 403 002e 019A     		ldr	r2, [sp, #4]
 404 0030 128B     		ldrh	r2, [r2, #24]	@ movhi
 405 0032 92B2     		uxth	r2, r2
 406 0034 0198     		ldr	r0, [sp, #4]
 407 0036 1146     		mov	r1, r2
 408 0038 9847     		blx	r3
 409 003a 2AE0     		b	.L19
 410              	.L21:
 411              		.loc 1 217 0
 412 003c 019B     		ldr	r3, [sp, #4]
 413 003e 1B69     		ldr	r3, [r3, #16]
 414 0040 1B68     		ldr	r3, [r3]
 415 0042 019A     		ldr	r2, [sp, #4]
 416 0044 1269     		ldr	r2, [r2, #16]
 417 0046 1268     		ldr	r2, [r2]
 418 0048 1268     		ldr	r2, [r2]
 419 004a 22F00F02 		bic	r2, r2, #15
 420 004e 1A60     		str	r2, [r3]
 421 0050 019B     		ldr	r3, [sp, #4]
 422 0052 1B69     		ldr	r3, [r3, #16]
 423 0054 5B68     		ldr	r3, [r3, #4]
 424 0056 019A     		ldr	r2, [sp, #4]
 425 0058 1269     		ldr	r2, [r2, #16]
 426 005a 127A     		ldrb	r2, [r2, #8]	@ zero_extendqisi2
 427 005c 0F21     		movs	r1, #15
 428 005e 01FA02F2 		lsl	r2, r1, r2
 429 0062 1A60     		str	r2, [r3]
 430              		.loc 1 218 0
 431 0064 019B     		ldr	r3, [sp, #4]
 432 0066 0222     		movs	r2, #2
 433 0068 9A70     		strb	r2, [r3, #2]
 434              		.loc 1 219 0
 435 006a 019B     		ldr	r3, [sp, #4]
 436 006c 5B68     		ldr	r3, [r3, #4]
 437 006e 9B68     		ldr	r3, [r3, #8]
 438 0070 002B     		cmp	r3, #0
 439 0072 04D0     		beq	.L24
 440              		.loc 1 220 0
 441 0074 019B     		ldr	r3, [sp, #4]
 442 0076 5B68     		ldr	r3, [r3, #4]
 443 0078 9B68     		ldr	r3, [r3, #8]
 444 007a 0198     		ldr	r0, [sp, #4]
 445 007c 9847     		blx	r3
 446              	.L24:
 447              		.loc 1 224 0
 448 007e 019B     		ldr	r3, [sp, #4]
 449 0080 9B78     		ldrb	r3, [r3, #2]	@ zero_extendqisi2
ARM GAS  /tmp/ccn3EBwB.s 			page 9


 450 0082 022B     		cmp	r3, #2
 451 0084 05D1     		bne	.L19
 452              		.loc 1 225 0
 453 0086 019B     		ldr	r3, [sp, #4]
 454 0088 0022     		movs	r2, #0
 455 008a 9A70     		strb	r2, [r3, #2]
 456              		.loc 1 226 0
 457 008c 0198     		ldr	r0, [sp, #4]
 458 008e FFF7FEFF 		bl	set_rx_idle_loop
 459              	.L19:
 460              		.loc 1 229 0
 461 0092 03B0     		add	sp, sp, #12
 462              		@ sp needed
 463 0094 5DF804FB 		ldr	pc, [sp], #4
 464              		.cfi_endproc
 465              	.LFE122:
 466              		.size	uart_lld_serve_rx_end_irq, .-uart_lld_serve_rx_end_irq
 467 0098 AFF30080 		.section	.text.uart_lld_serve_tx_end_irq,"ax",%progbits
 467      AFF30080 
 468              		.align	2
 469              		.p2align 4,,15
 470              		.thumb
 471              		.thumb_func
 472              		.type	uart_lld_serve_tx_end_irq, %function
 473              	uart_lld_serve_tx_end_irq:
 474              	.LFB123:
 475              		.loc 1 237 0
 476              		.cfi_startproc
 477              		@ args = 0, pretend = 0, frame = 8
 478              		@ frame_needed = 0, uses_anonymous_args = 0
 479 0000 00B5     		push	{lr}
 480              		.cfi_def_cfa_offset 4
 481              		.cfi_offset 14, -4
 482 0002 83B0     		sub	sp, sp, #12
 483              		.cfi_def_cfa_offset 16
 484 0004 0190     		str	r0, [sp, #4]
 485 0006 0091     		str	r1, [sp]
 486              		.loc 1 241 0
 487 0008 009B     		ldr	r3, [sp]
 488 000a 03F00803 		and	r3, r3, #8
 489 000e 002B     		cmp	r3, #0
 490 0010 01D0     		beq	.L26
 491              		.loc 1 242 0
 492 0012 FFF7FEFF 		bl	port_halt
 493              	.L26:
 494              		.loc 1 248 0
 495 0016 019B     		ldr	r3, [sp, #4]
 496 0018 5B69     		ldr	r3, [r3, #20]
 497 001a 1B68     		ldr	r3, [r3]
 498 001c 019A     		ldr	r2, [sp, #4]
 499 001e 5269     		ldr	r2, [r2, #20]
 500 0020 1268     		ldr	r2, [r2]
 501 0022 1268     		ldr	r2, [r2]
 502 0024 22F00F02 		bic	r2, r2, #15
 503 0028 1A60     		str	r2, [r3]
 504 002a 019B     		ldr	r3, [sp, #4]
 505 002c 5B69     		ldr	r3, [r3, #20]
ARM GAS  /tmp/ccn3EBwB.s 			page 10


 506 002e 5B68     		ldr	r3, [r3, #4]
 507 0030 019A     		ldr	r2, [sp, #4]
 508 0032 5269     		ldr	r2, [r2, #20]
 509 0034 127A     		ldrb	r2, [r2, #8]	@ zero_extendqisi2
 510 0036 0F21     		movs	r1, #15
 511 0038 01FA02F2 		lsl	r2, r1, r2
 512 003c 1A60     		str	r2, [r3]
 513              		.loc 1 251 0
 514 003e 019B     		ldr	r3, [sp, #4]
 515 0040 0222     		movs	r2, #2
 516 0042 5A70     		strb	r2, [r3, #1]
 517              		.loc 1 252 0
 518 0044 019B     		ldr	r3, [sp, #4]
 519 0046 5B68     		ldr	r3, [r3, #4]
 520 0048 1B68     		ldr	r3, [r3]
 521 004a 002B     		cmp	r3, #0
 522 004c 04D0     		beq	.L27
 523              		.loc 1 253 0
 524 004e 019B     		ldr	r3, [sp, #4]
 525 0050 5B68     		ldr	r3, [r3, #4]
 526 0052 1B68     		ldr	r3, [r3]
 527 0054 0198     		ldr	r0, [sp, #4]
 528 0056 9847     		blx	r3
 529              	.L27:
 530              		.loc 1 257 0
 531 0058 019B     		ldr	r3, [sp, #4]
 532 005a 5B78     		ldrb	r3, [r3, #1]	@ zero_extendqisi2
 533 005c 022B     		cmp	r3, #2
 534 005e 02D1     		bne	.L25
 535              		.loc 1 258 0
 536 0060 019B     		ldr	r3, [sp, #4]
 537 0062 0022     		movs	r2, #0
 538 0064 5A70     		strb	r2, [r3, #1]
 539              	.L25:
 540              		.loc 1 259 0
 541 0066 03B0     		add	sp, sp, #12
 542              		@ sp needed
 543 0068 5DF804FB 		ldr	pc, [sp], #4
 544              		.cfi_endproc
 545              	.LFE123:
 546              		.size	uart_lld_serve_tx_end_irq, .-uart_lld_serve_tx_end_irq
 547 006c AFF30080 		.section	.text.serve_usart_irq,"ax",%progbits
 548              		.align	2
 549              		.p2align 4,,15
 550              		.thumb
 551              		.thumb_func
 552              		.type	serve_usart_irq, %function
 553              	serve_usart_irq:
 554              	.LFB124:
 555              		.loc 1 266 0
 556              		.cfi_startproc
 557              		@ args = 0, pretend = 0, frame = 16
 558              		@ frame_needed = 0, uses_anonymous_args = 0
 559 0000 10B5     		push	{r4, lr}
 560              		.cfi_def_cfa_offset 8
 561              		.cfi_offset 4, -8
 562              		.cfi_offset 14, -4
ARM GAS  /tmp/ccn3EBwB.s 			page 11


 563 0002 84B0     		sub	sp, sp, #16
 564              		.cfi_def_cfa_offset 24
 565 0004 0190     		str	r0, [sp, #4]
 566              		.loc 1 268 0
 567 0006 019B     		ldr	r3, [sp, #4]
 568 0008 9B68     		ldr	r3, [r3, #8]
 569 000a 0393     		str	r3, [sp, #12]
 570              		.loc 1 271 0
 571 000c 039B     		ldr	r3, [sp, #12]
 572 000e DB69     		ldr	r3, [r3, #28]
 573 0010 0293     		str	r3, [sp, #8]
 574              		.loc 1 272 0
 575 0012 039B     		ldr	r3, [sp, #12]
 576 0014 029A     		ldr	r2, [sp, #8]
 577 0016 1A62     		str	r2, [r3, #32]
 578              		.loc 1 274 0
 579 0018 029A     		ldr	r2, [sp, #8]
 580 001a 40F20F13 		movw	r3, #271
 581 001e 1340     		ands	r3, r3, r2
 582 0020 002B     		cmp	r3, #0
 583 0022 0ED0     		beq	.L30
 584              		.loc 1 276 0
 585 0024 019B     		ldr	r3, [sp, #4]
 586 0026 5B68     		ldr	r3, [r3, #4]
 587 0028 1B69     		ldr	r3, [r3, #16]
 588 002a 002B     		cmp	r3, #0
 589 002c 09D0     		beq	.L30
 590              		.loc 1 277 0
 591 002e 019B     		ldr	r3, [sp, #4]
 592 0030 5B68     		ldr	r3, [r3, #4]
 593 0032 1C69     		ldr	r4, [r3, #16]
 594 0034 0298     		ldr	r0, [sp, #8]
 595 0036 FFF7FEFF 		bl	translate_errors
 596 003a 0346     		mov	r3, r0
 597 003c 0198     		ldr	r0, [sp, #4]
 598 003e 1946     		mov	r1, r3
 599 0040 A047     		blx	r4
 600              	.L30:
 601              		.loc 1 279 0
 602 0042 029B     		ldr	r3, [sp, #8]
 603 0044 03F04003 		and	r3, r3, #64
 604 0048 002B     		cmp	r3, #0
 605 004a 09D0     		beq	.L29
 606              		.loc 1 281 0
 607 004c 019B     		ldr	r3, [sp, #4]
 608 004e 5B68     		ldr	r3, [r3, #4]
 609 0050 5B68     		ldr	r3, [r3, #4]
 610 0052 002B     		cmp	r3, #0
 611 0054 04D0     		beq	.L29
 612              		.loc 1 282 0
 613 0056 019B     		ldr	r3, [sp, #4]
 614 0058 5B68     		ldr	r3, [r3, #4]
 615 005a 5B68     		ldr	r3, [r3, #4]
 616 005c 0198     		ldr	r0, [sp, #4]
 617 005e 9847     		blx	r3
 618              	.L29:
 619              		.loc 1 284 0
ARM GAS  /tmp/ccn3EBwB.s 			page 12


 620 0060 04B0     		add	sp, sp, #16
 621              		@ sp needed
 622 0062 10BD     		pop	{r4, pc}
 623              		.cfi_endproc
 624              	.LFE124:
 625              		.size	serve_usart_irq, .-serve_usart_irq
 626 0064 AFF30080 		.section	.text.VectorDC,"ax",%progbits
 626      AFF30080 
 626      AFF30080 
 627              		.align	2
 628              		.p2align 4,,15
 629              		.global	VectorDC
 630              		.thumb
 631              		.thumb_func
 632              		.type	VectorDC, %function
 633              	VectorDC:
 634              	.LFB125:
 635              		.loc 1 337 0
 636              		.cfi_startproc
 637              		@ args = 0, pretend = 0, frame = 0
 638              		@ frame_needed = 0, uses_anonymous_args = 0
 639 0000 08B5     		push	{r3, lr}
 640              		.cfi_def_cfa_offset 8
 641              		.cfi_offset 3, -8
 642              		.cfi_offset 14, -4
 643              		.loc 1 339 0
 644 0002 FFF7FEFF 		bl	dbg_check_enter_isr
 645              		.loc 1 341 0
 646 0006 0448     		ldr	r0, .L33
 647 0008 FFF7FEFF 		bl	serve_usart_irq
 648              		.loc 1 343 0
 649 000c FFF7FEFF 		bl	dbg_check_leave_isr
 650 0010 FFF7FEFF 		bl	_port_irq_epilogue
 651              		.loc 1 344 0
 652 0014 08BD     		pop	{r3, pc}
 653              	.L34:
 654 0016 00BF     		.align	2
 655              	.L33:
 656 0018 00000000 		.word	UARTD3
 657              		.cfi_endproc
 658              	.LFE125:
 659              		.size	VectorDC, .-VectorDC
 660 001c AFF30080 		.section	.text.uart_lld_init,"ax",%progbits
 661              		.align	2
 662              		.p2align 4,,15
 663              		.global	uart_lld_init
 664              		.thumb
 665              		.thumb_func
 666              		.type	uart_lld_init, %function
 667              	uart_lld_init:
 668              	.LFB126:
 669              		.loc 1 356 0
 670              		.cfi_startproc
 671              		@ args = 0, pretend = 0, frame = 0
 672              		@ frame_needed = 0, uses_anonymous_args = 0
 673 0000 08B5     		push	{r3, lr}
 674              		.cfi_def_cfa_offset 8
ARM GAS  /tmp/ccn3EBwB.s 			page 13


 675              		.cfi_offset 3, -8
 676              		.cfi_offset 14, -4
 677              		.loc 1 375 0
 678 0002 0848     		ldr	r0, .L36
 679 0004 FFF7FEFF 		bl	uartObjectInit
 680              		.loc 1 376 0
 681 0008 064B     		ldr	r3, .L36
 682 000a 074A     		ldr	r2, .L36+4
 683 000c 9A60     		str	r2, [r3, #8]
 684              		.loc 1 377 0
 685 000e 054B     		ldr	r3, .L36
 686 0010 0822     		movs	r2, #8
 687 0012 DA60     		str	r2, [r3, #12]
 688              		.loc 1 378 0
 689 0014 034B     		ldr	r3, .L36
 690 0016 054A     		ldr	r2, .L36+8
 691 0018 1A61     		str	r2, [r3, #16]
 692              		.loc 1 379 0
 693 001a 024B     		ldr	r3, .L36
 694 001c 044A     		ldr	r2, .L36+12
 695 001e 5A61     		str	r2, [r3, #20]
 696              		.loc 1 381 0
 697 0020 08BD     		pop	{r3, pc}
 698              	.L37:
 699 0022 00BF     		.align	2
 700              	.L36:
 701 0024 00000000 		.word	UARTD3
 702 0028 00480040 		.word	1073760256
 703 002c 18000000 		.word	_stm32_dma_streams+24
 704 0030 0C000000 		.word	_stm32_dma_streams+12
 705              		.cfi_endproc
 706              	.LFE126:
 707              		.size	uart_lld_init, .-uart_lld_init
 708 0034 AFF30080 		.section	.rodata
 708      AFF30080 
 708      AFF30080 
 709              		.align	2
 710              	.LC0:
 711 0000 75617274 		.ascii	"uart_lld_start(), #5\000"
 711      5F6C6C64 
 711      5F737461 
 711      72742829 
 711      2C202335 
 712 0015 000000   		.align	2
 713              	.LC1:
 714 0018 75617274 		.ascii	"uart_lld_start(), #6\000"
 714      5F6C6C64 
 714      5F737461 
 714      72742829 
 714      2C202336 
 715 002d 000000   		.section	.text.uart_lld_start,"ax",%progbits
 716              		.align	2
 717              		.p2align 4,,15
 718              		.global	uart_lld_start
 719              		.thumb
 720              		.thumb_func
 721              		.type	uart_lld_start, %function
ARM GAS  /tmp/ccn3EBwB.s 			page 14


 722              	uart_lld_start:
 723              	.LFB127:
 724              		.loc 1 390 0
 725              		.cfi_startproc
 726              		@ args = 0, pretend = 0, frame = 16
 727              		@ frame_needed = 0, uses_anonymous_args = 0
 728 0000 00B5     		push	{lr}
 729              		.cfi_def_cfa_offset 4
 730              		.cfi_offset 14, -4
 731 0002 85B0     		sub	sp, sp, #20
 732              		.cfi_def_cfa_offset 24
 733 0004 0190     		str	r0, [sp, #4]
 734              		.loc 1 392 0
 735 0006 019B     		ldr	r3, [sp, #4]
 736 0008 1B78     		ldrb	r3, [r3]	@ zero_extendqisi2
 737 000a 012B     		cmp	r3, #1
 738 000c 54D1     		bne	.L39
 739              		.loc 1 436 0
 740 000e 019A     		ldr	r2, [sp, #4]
 741 0010 2F4B     		ldr	r3, .L44
 742 0012 9A42     		cmp	r2, r3
 743 0014 31D1     		bne	.L40
 744              	.LBB2:
 745              		.loc 1 438 0
 746 0016 019B     		ldr	r3, [sp, #4]
 747 0018 1B69     		ldr	r3, [r3, #16]
 748 001a 1846     		mov	r0, r3
 749 001c 0C21     		movs	r1, #12
 750 001e 2D4A     		ldr	r2, .L44+4
 751 0020 019B     		ldr	r3, [sp, #4]
 752 0022 FFF7FEFF 		bl	dmaStreamAllocate
 753 0026 0346     		mov	r3, r0
 754 0028 8DF80F30 		strb	r3, [sp, #15]
 755              		.loc 1 442 0
 756 002c 9DF80F30 		ldrb	r3, [sp, #15]	@ zero_extendqisi2
 757 0030 002B     		cmp	r3, #0
 758 0032 02D0     		beq	.L41
 759              		.loc 1 442 0 is_stmt 0 discriminator 1
 760 0034 2848     		ldr	r0, .L44+8
 761 0036 FFF7FEFF 		bl	chDbgPanic
 762              	.L41:
 763              		.loc 1 443 0 is_stmt 1
 764 003a 019B     		ldr	r3, [sp, #4]
 765 003c 5B69     		ldr	r3, [r3, #20]
 766 003e 1846     		mov	r0, r3
 767 0040 0C21     		movs	r1, #12
 768 0042 264A     		ldr	r2, .L44+12
 769 0044 019B     		ldr	r3, [sp, #4]
 770 0046 FFF7FEFF 		bl	dmaStreamAllocate
 771 004a 0346     		mov	r3, r0
 772 004c 8DF80F30 		strb	r3, [sp, #15]
 773              		.loc 1 447 0
 774 0050 9DF80F30 		ldrb	r3, [sp, #15]	@ zero_extendqisi2
 775 0054 002B     		cmp	r3, #0
 776 0056 02D0     		beq	.L42
 777              		.loc 1 447 0 is_stmt 0 discriminator 1
 778 0058 2148     		ldr	r0, .L44+16
ARM GAS  /tmp/ccn3EBwB.s 			page 15


 779 005a FFF7FEFF 		bl	chDbgPanic
 780              	.L42:
 781              		.loc 1 448 0 is_stmt 1
 782 005e 214B     		ldr	r3, .L44+20
 783 0060 204A     		ldr	r2, .L44+20
 784 0062 D269     		ldr	r2, [r2, #28]
 785 0064 42F48022 		orr	r2, r2, #262144
 786 0068 DA61     		str	r2, [r3, #28]
 787              		.loc 1 449 0
 788 006a 2720     		movs	r0, #39
 789 006c C021     		movs	r1, #192
 790 006e FFF7FEFF 		bl	nvicEnableVector
 791              		.loc 1 451 0
 792 0072 019B     		ldr	r3, [sp, #4]
 793 0074 DA68     		ldr	r2, [r3, #12]
 794 0076 019B     		ldr	r3, [sp, #4]
 795 0078 DA60     		str	r2, [r3, #12]
 796              	.L40:
 797              	.LBE2:
 798              		.loc 1 458 0
 799 007a 019B     		ldr	r3, [sp, #4]
 800 007c 5B68     		ldr	r3, [r3, #4]
 801 007e 9B69     		ldr	r3, [r3, #24]
 802 0080 03F4A053 		and	r3, r3, #5120
 803 0084 B3F5805F 		cmp	r3, #4096
 804 0088 05D1     		bne	.L43
 805              		.loc 1 459 0
 806 008a 019B     		ldr	r3, [sp, #4]
 807 008c DB68     		ldr	r3, [r3, #12]
 808 008e 43F4A062 		orr	r2, r3, #1280
 809 0092 019B     		ldr	r3, [sp, #4]
 810 0094 DA60     		str	r2, [r3, #12]
 811              	.L43:
 812              		.loc 1 460 0
 813 0096 019B     		ldr	r3, [sp, #4]
 814 0098 1B69     		ldr	r3, [r3, #16]
 815 009a 1B68     		ldr	r3, [r3]
 816 009c 019A     		ldr	r2, [sp, #4]
 817 009e 9268     		ldr	r2, [r2, #8]
 818 00a0 2432     		adds	r2, r2, #36
 819 00a2 9A60     		str	r2, [r3, #8]
 820              		.loc 1 461 0
 821 00a4 019B     		ldr	r3, [sp, #4]
 822 00a6 5B69     		ldr	r3, [r3, #20]
 823 00a8 1B68     		ldr	r3, [r3]
 824 00aa 019A     		ldr	r2, [sp, #4]
 825 00ac 9268     		ldr	r2, [r2, #8]
 826 00ae 2832     		adds	r2, r2, #40
 827 00b0 9A60     		str	r2, [r3, #8]
 828              		.loc 1 462 0
 829 00b2 019B     		ldr	r3, [sp, #4]
 830 00b4 0022     		movs	r2, #0
 831 00b6 1A83     		strh	r2, [r3, #24]	@ movhi
 832              	.L39:
 833              		.loc 1 465 0
 834 00b8 019B     		ldr	r3, [sp, #4]
 835 00ba 0022     		movs	r2, #0
ARM GAS  /tmp/ccn3EBwB.s 			page 16


 836 00bc 9A70     		strb	r2, [r3, #2]
 837              		.loc 1 466 0
 838 00be 019B     		ldr	r3, [sp, #4]
 839 00c0 0022     		movs	r2, #0
 840 00c2 5A70     		strb	r2, [r3, #1]
 841              		.loc 1 467 0
 842 00c4 0198     		ldr	r0, [sp, #4]
 843 00c6 FFF7FEFF 		bl	usart_start
 844              		.loc 1 468 0
 845 00ca 05B0     		add	sp, sp, #20
 846              		@ sp needed
 847 00cc 5DF804FB 		ldr	pc, [sp], #4
 848              	.L45:
 849              		.align	2
 850              	.L44:
 851 00d0 00000000 		.word	UARTD3
 852 00d4 00000000 		.word	uart_lld_serve_rx_end_irq
 853 00d8 00000000 		.word	.LC0
 854 00dc 00000000 		.word	uart_lld_serve_tx_end_irq
 855 00e0 18000000 		.word	.LC1
 856 00e4 00100240 		.word	1073876992
 857              		.cfi_endproc
 858              	.LFE127:
 859              		.size	uart_lld_start, .-uart_lld_start
 860 00e8 AFF30080 		.section	.text.uart_lld_stop,"ax",%progbits
 860      AFF30080 
 861              		.align	2
 862              		.p2align 4,,15
 863              		.global	uart_lld_stop
 864              		.thumb
 865              		.thumb_func
 866              		.type	uart_lld_stop, %function
 867              	uart_lld_stop:
 868              	.LFB128:
 869              		.loc 1 477 0
 870              		.cfi_startproc
 871              		@ args = 0, pretend = 0, frame = 8
 872              		@ frame_needed = 0, uses_anonymous_args = 0
 873 0000 00B5     		push	{lr}
 874              		.cfi_def_cfa_offset 4
 875              		.cfi_offset 14, -4
 876 0002 83B0     		sub	sp, sp, #12
 877              		.cfi_def_cfa_offset 16
 878 0004 0190     		str	r0, [sp, #4]
 879              		.loc 1 479 0
 880 0006 019B     		ldr	r3, [sp, #4]
 881 0008 1B78     		ldrb	r3, [r3]	@ zero_extendqisi2
 882 000a 022B     		cmp	r3, #2
 883 000c 1AD1     		bne	.L46
 884              		.loc 1 480 0
 885 000e 0198     		ldr	r0, [sp, #4]
 886 0010 FFF7FEFF 		bl	usart_stop
 887              		.loc 1 481 0
 888 0014 019B     		ldr	r3, [sp, #4]
 889 0016 1B69     		ldr	r3, [r3, #16]
 890 0018 1846     		mov	r0, r3
 891 001a FFF7FEFF 		bl	dmaStreamRelease
ARM GAS  /tmp/ccn3EBwB.s 			page 17


 892              		.loc 1 482 0
 893 001e 019B     		ldr	r3, [sp, #4]
 894 0020 5B69     		ldr	r3, [r3, #20]
 895 0022 1846     		mov	r0, r3
 896 0024 FFF7FEFF 		bl	dmaStreamRelease
 897              		.loc 1 501 0
 898 0028 019A     		ldr	r2, [sp, #4]
 899 002a 084B     		ldr	r3, .L48
 900 002c 9A42     		cmp	r2, r3
 901 002e 09D1     		bne	.L46
 902              		.loc 1 502 0
 903 0030 2720     		movs	r0, #39
 904 0032 FFF7FEFF 		bl	nvicDisableVector
 905              		.loc 1 503 0
 906 0036 064B     		ldr	r3, .L48+4
 907 0038 054A     		ldr	r2, .L48+4
 908 003a D269     		ldr	r2, [r2, #28]
 909 003c 22F48022 		bic	r2, r2, #262144
 910 0040 DA61     		str	r2, [r3, #28]
 911              		.loc 1 504 0
 912 0042 00BF     		nop
 913              	.L46:
 914              		.loc 1 508 0
 915 0044 03B0     		add	sp, sp, #12
 916              		@ sp needed
 917 0046 5DF804FB 		ldr	pc, [sp], #4
 918              	.L49:
 919 004a 00BF     		.align	2
 920              	.L48:
 921 004c 00000000 		.word	UARTD3
 922 0050 00100240 		.word	1073876992
 923              		.cfi_endproc
 924              	.LFE128:
 925              		.size	uart_lld_stop, .-uart_lld_stop
 926 0054 AFF30080 		.section	.text.uart_lld_start_send,"ax",%progbits
 926      AFF30080 
 926      AFF30080 
 927              		.align	2
 928              		.p2align 4,,15
 929              		.global	uart_lld_start_send
 930              		.thumb
 931              		.thumb_func
 932              		.type	uart_lld_start_send, %function
 933              	uart_lld_start_send:
 934              	.LFB129:
 935              		.loc 1 521 0
 936              		.cfi_startproc
 937              		@ args = 0, pretend = 0, frame = 16
 938              		@ frame_needed = 0, uses_anonymous_args = 0
 939              		@ link register save eliminated.
 940 0000 84B0     		sub	sp, sp, #16
 941              		.cfi_def_cfa_offset 16
 942 0002 0390     		str	r0, [sp, #12]
 943 0004 0291     		str	r1, [sp, #8]
 944 0006 0192     		str	r2, [sp, #4]
 945              		.loc 1 524 0
 946 0008 039B     		ldr	r3, [sp, #12]
ARM GAS  /tmp/ccn3EBwB.s 			page 18


 947 000a 5B69     		ldr	r3, [r3, #20]
 948 000c 1B68     		ldr	r3, [r3]
 949 000e 019A     		ldr	r2, [sp, #4]
 950 0010 DA60     		str	r2, [r3, #12]
 951              		.loc 1 525 0
 952 0012 039B     		ldr	r3, [sp, #12]
 953 0014 5B69     		ldr	r3, [r3, #20]
 954 0016 1B68     		ldr	r3, [r3]
 955 0018 029A     		ldr	r2, [sp, #8]
 956 001a 5A60     		str	r2, [r3, #4]
 957              		.loc 1 526 0
 958 001c 039B     		ldr	r3, [sp, #12]
 959 001e 5B69     		ldr	r3, [r3, #20]
 960 0020 1B68     		ldr	r3, [r3]
 961 0022 039A     		ldr	r2, [sp, #12]
 962 0024 D268     		ldr	r2, [r2, #12]
 963 0026 42F09202 		orr	r2, r2, #146
 964 002a 1A60     		str	r2, [r3]
 965              		.loc 1 528 0
 966 002c 039B     		ldr	r3, [sp, #12]
 967 002e 5B69     		ldr	r3, [r3, #20]
 968 0030 1B68     		ldr	r3, [r3]
 969 0032 039A     		ldr	r2, [sp, #12]
 970 0034 5269     		ldr	r2, [r2, #20]
 971 0036 1268     		ldr	r2, [r2]
 972 0038 1268     		ldr	r2, [r2]
 973 003a 42F00102 		orr	r2, r2, #1
 974 003e 1A60     		str	r2, [r3]
 975              		.loc 1 529 0
 976 0040 04B0     		add	sp, sp, #16
 977              		@ sp needed
 978 0042 7047     		bx	lr
 979              		.cfi_endproc
 980              	.LFE129:
 981              		.size	uart_lld_start_send, .-uart_lld_start_send
 982 0044 AFF30080 		.section	.text.uart_lld_stop_send,"ax",%progbits
 982      AFF30080 
 982      AFF30080 
 983              		.align	2
 984              		.p2align 4,,15
 985              		.global	uart_lld_stop_send
 986              		.thumb
 987              		.thumb_func
 988              		.type	uart_lld_stop_send, %function
 989              	uart_lld_stop_send:
 990              	.LFB130:
 991              		.loc 1 542 0
 992              		.cfi_startproc
 993              		@ args = 0, pretend = 0, frame = 8
 994              		@ frame_needed = 0, uses_anonymous_args = 0
 995              		@ link register save eliminated.
 996 0000 82B0     		sub	sp, sp, #8
 997              		.cfi_def_cfa_offset 8
 998 0002 0190     		str	r0, [sp, #4]
 999              		.loc 1 544 0
 1000 0004 019B     		ldr	r3, [sp, #4]
 1001 0006 5B69     		ldr	r3, [r3, #20]
ARM GAS  /tmp/ccn3EBwB.s 			page 19


 1002 0008 1B68     		ldr	r3, [r3]
 1003 000a 019A     		ldr	r2, [sp, #4]
 1004 000c 5269     		ldr	r2, [r2, #20]
 1005 000e 1268     		ldr	r2, [r2]
 1006 0010 1268     		ldr	r2, [r2]
 1007 0012 22F00F02 		bic	r2, r2, #15
 1008 0016 1A60     		str	r2, [r3]
 1009 0018 019B     		ldr	r3, [sp, #4]
 1010 001a 5B69     		ldr	r3, [r3, #20]
 1011 001c 5B68     		ldr	r3, [r3, #4]
 1012 001e 019A     		ldr	r2, [sp, #4]
 1013 0020 5269     		ldr	r2, [r2, #20]
 1014 0022 127A     		ldrb	r2, [r2, #8]	@ zero_extendqisi2
 1015 0024 0F21     		movs	r1, #15
 1016 0026 01FA02F2 		lsl	r2, r1, r2
 1017 002a 1A60     		str	r2, [r3]
 1018              		.loc 1 545 0
 1019 002c 019B     		ldr	r3, [sp, #4]
 1020 002e 5B69     		ldr	r3, [r3, #20]
 1021 0030 1B68     		ldr	r3, [r3]
 1022 0032 5B68     		ldr	r3, [r3, #4]
 1023              		.loc 1 546 0
 1024 0034 1846     		mov	r0, r3
 1025 0036 02B0     		add	sp, sp, #8
 1026              		@ sp needed
 1027 0038 7047     		bx	lr
 1028              		.cfi_endproc
 1029              	.LFE130:
 1030              		.size	uart_lld_stop_send, .-uart_lld_stop_send
 1031 003a 00BFAFF3 		.section	.text.uart_lld_start_receive,"ax",%progbits
 1031      0080
 1032              		.align	2
 1033              		.p2align 4,,15
 1034              		.global	uart_lld_start_receive
 1035              		.thumb
 1036              		.thumb_func
 1037              		.type	uart_lld_start_receive, %function
 1038              	uart_lld_start_receive:
 1039              	.LFB131:
 1040              		.loc 1 559 0
 1041              		.cfi_startproc
 1042              		@ args = 0, pretend = 0, frame = 16
 1043              		@ frame_needed = 0, uses_anonymous_args = 0
 1044              		@ link register save eliminated.
 1045 0000 84B0     		sub	sp, sp, #16
 1046              		.cfi_def_cfa_offset 16
 1047 0002 0390     		str	r0, [sp, #12]
 1048 0004 0291     		str	r1, [sp, #8]
 1049 0006 0192     		str	r2, [sp, #4]
 1050              		.loc 1 562 0
 1051 0008 039B     		ldr	r3, [sp, #12]
 1052 000a 1B69     		ldr	r3, [r3, #16]
 1053 000c 1B68     		ldr	r3, [r3]
 1054 000e 039A     		ldr	r2, [sp, #12]
 1055 0010 1269     		ldr	r2, [r2, #16]
 1056 0012 1268     		ldr	r2, [r2]
 1057 0014 1268     		ldr	r2, [r2]
ARM GAS  /tmp/ccn3EBwB.s 			page 20


 1058 0016 22F00F02 		bic	r2, r2, #15
 1059 001a 1A60     		str	r2, [r3]
 1060 001c 039B     		ldr	r3, [sp, #12]
 1061 001e 1B69     		ldr	r3, [r3, #16]
 1062 0020 5B68     		ldr	r3, [r3, #4]
 1063 0022 039A     		ldr	r2, [sp, #12]
 1064 0024 1269     		ldr	r2, [r2, #16]
 1065 0026 127A     		ldrb	r2, [r2, #8]	@ zero_extendqisi2
 1066 0028 0F21     		movs	r1, #15
 1067 002a 01FA02F2 		lsl	r2, r1, r2
 1068 002e 1A60     		str	r2, [r3]
 1069              		.loc 1 565 0
 1070 0030 039B     		ldr	r3, [sp, #12]
 1071 0032 1B69     		ldr	r3, [r3, #16]
 1072 0034 1B68     		ldr	r3, [r3]
 1073 0036 019A     		ldr	r2, [sp, #4]
 1074 0038 DA60     		str	r2, [r3, #12]
 1075              		.loc 1 566 0
 1076 003a 039B     		ldr	r3, [sp, #12]
 1077 003c 1B69     		ldr	r3, [r3, #16]
 1078 003e 1B68     		ldr	r3, [r3]
 1079 0040 029A     		ldr	r2, [sp, #8]
 1080 0042 5A60     		str	r2, [r3, #4]
 1081              		.loc 1 567 0
 1082 0044 039B     		ldr	r3, [sp, #12]
 1083 0046 1B69     		ldr	r3, [r3, #16]
 1084 0048 1B68     		ldr	r3, [r3]
 1085 004a 039A     		ldr	r2, [sp, #12]
 1086 004c D268     		ldr	r2, [r2, #12]
 1087 004e 42F08202 		orr	r2, r2, #130
 1088 0052 1A60     		str	r2, [r3]
 1089              		.loc 1 569 0
 1090 0054 039B     		ldr	r3, [sp, #12]
 1091 0056 1B69     		ldr	r3, [r3, #16]
 1092 0058 1B68     		ldr	r3, [r3]
 1093 005a 039A     		ldr	r2, [sp, #12]
 1094 005c 1269     		ldr	r2, [r2, #16]
 1095 005e 1268     		ldr	r2, [r2]
 1096 0060 1268     		ldr	r2, [r2]
 1097 0062 42F00102 		orr	r2, r2, #1
 1098 0066 1A60     		str	r2, [r3]
 1099              		.loc 1 570 0
 1100 0068 04B0     		add	sp, sp, #16
 1101              		@ sp needed
 1102 006a 7047     		bx	lr
 1103              		.cfi_endproc
 1104              	.LFE131:
 1105              		.size	uart_lld_start_receive, .-uart_lld_start_receive
 1106 006c AFF30080 		.section	.text.uart_lld_stop_receive,"ax",%progbits
 1107              		.align	2
 1108              		.p2align 4,,15
 1109              		.global	uart_lld_stop_receive
 1110              		.thumb
 1111              		.thumb_func
 1112              		.type	uart_lld_stop_receive, %function
 1113              	uart_lld_stop_receive:
 1114              	.LFB132:
ARM GAS  /tmp/ccn3EBwB.s 			page 21


 1115              		.loc 1 583 0
 1116              		.cfi_startproc
 1117              		@ args = 0, pretend = 0, frame = 16
 1118              		@ frame_needed = 0, uses_anonymous_args = 0
 1119 0000 00B5     		push	{lr}
 1120              		.cfi_def_cfa_offset 4
 1121              		.cfi_offset 14, -4
 1122 0002 85B0     		sub	sp, sp, #20
 1123              		.cfi_def_cfa_offset 24
 1124 0004 0190     		str	r0, [sp, #4]
 1125              		.loc 1 586 0
 1126 0006 019B     		ldr	r3, [sp, #4]
 1127 0008 1B69     		ldr	r3, [r3, #16]
 1128 000a 1B68     		ldr	r3, [r3]
 1129 000c 019A     		ldr	r2, [sp, #4]
 1130 000e 1269     		ldr	r2, [r2, #16]
 1131 0010 1268     		ldr	r2, [r2]
 1132 0012 1268     		ldr	r2, [r2]
 1133 0014 22F00F02 		bic	r2, r2, #15
 1134 0018 1A60     		str	r2, [r3]
 1135 001a 019B     		ldr	r3, [sp, #4]
 1136 001c 1B69     		ldr	r3, [r3, #16]
 1137 001e 5B68     		ldr	r3, [r3, #4]
 1138 0020 019A     		ldr	r2, [sp, #4]
 1139 0022 1269     		ldr	r2, [r2, #16]
 1140 0024 127A     		ldrb	r2, [r2, #8]	@ zero_extendqisi2
 1141 0026 0F21     		movs	r1, #15
 1142 0028 01FA02F2 		lsl	r2, r1, r2
 1143 002c 1A60     		str	r2, [r3]
 1144              		.loc 1 587 0
 1145 002e 019B     		ldr	r3, [sp, #4]
 1146 0030 1B69     		ldr	r3, [r3, #16]
 1147 0032 1B68     		ldr	r3, [r3]
 1148 0034 5B68     		ldr	r3, [r3, #4]
 1149 0036 0393     		str	r3, [sp, #12]
 1150              		.loc 1 588 0
 1151 0038 0198     		ldr	r0, [sp, #4]
 1152 003a FFF7FEFF 		bl	set_rx_idle_loop
 1153              		.loc 1 589 0
 1154 003e 039B     		ldr	r3, [sp, #12]
 1155              		.loc 1 590 0
 1156 0040 1846     		mov	r0, r3
 1157 0042 05B0     		add	sp, sp, #20
 1158              		@ sp needed
 1159 0044 5DF804FB 		ldr	pc, [sp], #4
 1160              		.cfi_endproc
 1161              	.LFE132:
 1162              		.size	uart_lld_stop_receive, .-uart_lld_stop_receive
 1163 0048 AFF30080 		.text
 1163      AFF30080 
 1164              	.Letext0:
 1165              		.file 2 "/usr/lib/gcc/arm-none-eabi/4.8/include/stddef.h"
 1166              		.file 3 "/usr/include/newlib/machine/_default_types.h"
 1167              		.file 4 "/usr/include/newlib/stdint.h"
 1168              		.file 5 "/home/dave/r2p-sdk/core/ChibiOS/os/ports/GCC/ARMCMx/chtypes.h"
 1169              		.file 6 "/home/dave/r2p-sdk/core/ChibiOS/os/hal/platforms/STM32F30x/stm32f30x.h"
 1170              		.file 7 "/home/dave/r2p-sdk/core/ChibiOS/os/hal/platforms/STM32F30x/stm32_dma.h"
ARM GAS  /tmp/ccn3EBwB.s 			page 22


 1171              		.file 8 "/home/dave/r2p-sdk/core/ChibiOS/os/hal/include/uart.h"
 1172              		.file 9 "/home/dave/r2p-sdk/core/ChibiOS/os/hal/platforms/STM32/USARTv2/uart_lld.h"
 1173              		.file 10 "/home/dave/r2p-sdk/core/ChibiOS/os/ports/common/ARMCMx/CMSIS/include/core_cm4.h"