ARM GAS  /tmp/ccyM3aPD.s 			page 1


   1              		.syntax unified
   2              		.cpu cortex-m4
   3              		.eabi_attribute 27, 3
   4              		.eabi_attribute 28, 1
   5              		.fpu fpv4-sp-d16
   6              		.eabi_attribute 20, 1
   7              		.eabi_attribute 21, 1
   8              		.eabi_attribute 23, 3
   9              		.eabi_attribute 24, 1
  10              		.eabi_attribute 25, 1
  11              		.eabi_attribute 26, 1
  12              		.eabi_attribute 30, 6
  13              		.eabi_attribute 34, 1
  14              		.eabi_attribute 18, 4
  15              		.thumb
  16              		.file	"usb_lld.c"
  17              		.text
  18              	.Ltext0:
  19              		.cfi_sections	.debug_frame
  20              		.section	.text.fifo_remove,"ax",%progbits
  21              		.align	2
  22              		.p2align 4,,15
  23              		.thumb
  24              		.thumb_func
  25              		.type	fifo_remove, %function
  26              	fifo_remove:
  27              	.LFB2:
  28              		.file 1 "/home/dave/r2p-sdk/core/ChibiOS/os/kernel/include/chinline.h"
  29              		.loc 1 59 0
  30              		.cfi_startproc
  31              		@ args = 0, pretend = 0, frame = 16
  32              		@ frame_needed = 0, uses_anonymous_args = 0
  33              		@ link register save eliminated.
  34 0000 84B0     		sub	sp, sp, #16
  35              		.cfi_def_cfa_offset 16
  36 0002 0190     		str	r0, [sp, #4]
  37              		.loc 1 60 0
  38 0004 019B     		ldr	r3, [sp, #4]
  39 0006 1B68     		ldr	r3, [r3]
  40 0008 0393     		str	r3, [sp, #12]
  41              		.loc 1 62 0
  42 000a 039B     		ldr	r3, [sp, #12]
  43 000c 1A68     		ldr	r2, [r3]
  44 000e 019B     		ldr	r3, [sp, #4]
  45 0010 1A60     		str	r2, [r3]
  46 0012 019B     		ldr	r3, [sp, #4]
  47 0014 1B68     		ldr	r3, [r3]
  48 0016 019A     		ldr	r2, [sp, #4]
  49 0018 5A60     		str	r2, [r3, #4]
  50              		.loc 1 63 0
  51 001a 039B     		ldr	r3, [sp, #12]
  52              		.loc 1 64 0
  53 001c 1846     		mov	r0, r3
  54 001e 04B0     		add	sp, sp, #16
  55              		@ sp needed
  56 0020 7047     		bx	lr
  57              		.cfi_endproc
ARM GAS  /tmp/ccyM3aPD.s 			page 2


  58              	.LFE2:
  59              		.size	fifo_remove, .-fifo_remove
  60              		.global	USBD1
  61 0022 00BFAFF3 		.section	.bss.USBD1,"aw",%nobits
  61      0080AFF3 
  61      0080AFF3 
  61      0080
  62              		.align	2
  63              		.type	USBD1, %object
  64              		.size	USBD1, 132
  65              	USBD1:
  66 0000 00000000 		.space	132
  66      00000000 
  66      00000000 
  66      00000000 
  66      00000000 
  67              		.section	.bss.ep0_state,"aw",%nobits
  68              		.align	2
  69              		.type	ep0_state, %object
  70              		.size	ep0_state, 20
  71              	ep0_state:
  72 0000 00000000 		.space	20
  72      00000000 
  72      00000000 
  72      00000000 
  72      00000000 
  73              		.section	.bss.ep0setup_buffer,"aw",%nobits
  74              		.align	2
  75              		.type	ep0setup_buffer, %object
  76              		.size	ep0setup_buffer, 8
  77              	ep0setup_buffer:
  78 0000 00000000 		.space	8
  78      00000000 
  79              		.section	.rodata.ep0config,"a",%progbits
  80              		.align	2
  81              		.type	ep0config, %object
  82              		.size	ep0config, 36
  83              	ep0config:
  84 0000 00000000 		.word	0
  85 0004 00000000 		.word	_usb_ep0setup
  86 0008 00000000 		.word	_usb_ep0in
  87 000c 00000000 		.word	_usb_ep0out
  88 0010 4000     		.short	64
  89 0012 4000     		.short	64
  90 0014 00000000 		.word	ep0_state
  91 0018 00000000 		.word	ep0_state
  92 001c 0100     		.short	1
  93 001e 0000     		.space	2
  94 0020 00000000 		.word	ep0setup_buffer
  95              		.section	.text.usb_pm_reset,"ax",%progbits
  96              		.align	2
  97              		.p2align 4,,15
  98              		.thumb
  99              		.thumb_func
 100              		.type	usb_pm_reset, %function
 101              	usb_pm_reset:
 102              	.LFB118:
ARM GAS  /tmp/ccyM3aPD.s 			page 3


 103              		.file 2 "/home/dave/r2p-sdk/core/ChibiOS/os/hal/platforms/STM32/USBv1/usb_lld.c"
 104              		.loc 2 97 0
 105              		.cfi_startproc
 106              		@ args = 0, pretend = 0, frame = 8
 107              		@ frame_needed = 0, uses_anonymous_args = 0
 108              		@ link register save eliminated.
 109 0000 82B0     		sub	sp, sp, #8
 110              		.cfi_def_cfa_offset 8
 111 0002 0190     		str	r0, [sp, #4]
 112              		.loc 2 101 0
 113 0004 019B     		ldr	r3, [sp, #4]
 114 0006 4022     		movs	r2, #64
 115 0008 C3F88020 		str	r2, [r3, #128]
 116              		.loc 2 102 0
 117 000c 02B0     		add	sp, sp, #8
 118              		@ sp needed
 119 000e 7047     		bx	lr
 120              		.cfi_endproc
 121              	.LFE118:
 122              		.size	usb_pm_reset, .-usb_pm_reset
 123              		.section	.rodata
 124              		.align	2
 125              	.LC0:
 126 0000 7573625F 		.ascii	"usb_pm_alloc(), #1\000"
 126      706D5F61 
 126      6C6C6F63 
 126      28292C20 
 126      233100
 127 0013 00       		.section	.text.usb_pm_alloc,"ax",%progbits
 128              		.align	2
 129              		.p2align 4,,15
 130              		.thumb
 131              		.thumb_func
 132              		.type	usb_pm_alloc, %function
 133              	usb_pm_alloc:
 134              	.LFB119:
 135              		.loc 2 110 0
 136              		.cfi_startproc
 137              		@ args = 0, pretend = 0, frame = 16
 138              		@ frame_needed = 0, uses_anonymous_args = 0
 139 0000 00B5     		push	{lr}
 140              		.cfi_def_cfa_offset 4
 141              		.cfi_offset 14, -4
 142 0002 85B0     		sub	sp, sp, #20
 143              		.cfi_def_cfa_offset 24
 144 0004 0190     		str	r0, [sp, #4]
 145 0006 0091     		str	r1, [sp]
 146              		.loc 2 113 0
 147 0008 019B     		ldr	r3, [sp, #4]
 148 000a D3F88030 		ldr	r3, [r3, #128]
 149 000e 0393     		str	r3, [sp, #12]
 150              		.loc 2 114 0
 151 0010 019B     		ldr	r3, [sp, #4]
 152 0012 D3F88020 		ldr	r2, [r3, #128]
 153 0016 009B     		ldr	r3, [sp]
 154 0018 1A44     		add	r2, r2, r3
 155 001a 019B     		ldr	r3, [sp, #4]
ARM GAS  /tmp/ccyM3aPD.s 			page 4


 156 001c C3F88020 		str	r2, [r3, #128]
 157              		.loc 2 115 0
 158 0020 019B     		ldr	r3, [sp, #4]
 159 0022 D3F88030 		ldr	r3, [r3, #128]
 160 0026 B3F5007F 		cmp	r3, #512
 161 002a 02D9     		bls	.L5
 162              		.loc 2 115 0 is_stmt 0 discriminator 1
 163 002c 0348     		ldr	r0, .L7
 164 002e FFF7FEFF 		bl	chDbgPanic
 165              	.L5:
 166              		.loc 2 116 0 is_stmt 1
 167 0032 039B     		ldr	r3, [sp, #12]
 168              		.loc 2 117 0
 169 0034 1846     		mov	r0, r3
 170 0036 05B0     		add	sp, sp, #20
 171              		@ sp needed
 172 0038 5DF804FB 		ldr	pc, [sp], #4
 173              	.L8:
 174              		.align	2
 175              	.L7:
 176 003c 00000000 		.word	.LC0
 177              		.cfi_endproc
 178              	.LFE119:
 179              		.size	usb_pm_alloc, .-usb_pm_alloc
 180              		.section	.text.usb_packet_read_to_buffer,"ax",%progbits
 181              		.align	2
 182              		.p2align 4,,15
 183              		.thumb
 184              		.thumb_func
 185              		.type	usb_packet_read_to_buffer, %function
 186              	usb_packet_read_to_buffer:
 187              	.LFB120:
 188              		.loc 2 130 0
 189              		.cfi_startproc
 190              		@ args = 0, pretend = 0, frame = 24
 191              		@ frame_needed = 0, uses_anonymous_args = 0
 192              		@ link register save eliminated.
 193 0000 86B0     		sub	sp, sp, #24
 194              		.cfi_def_cfa_offset 24
 195 0002 0390     		str	r0, [sp, #12]
 196 0004 0291     		str	r1, [sp, #8]
 197 0006 0192     		str	r2, [sp, #4]
 198              		.loc 2 131 0
 199 0008 039B     		ldr	r3, [sp, #12]
 200 000a 9B68     		ldr	r3, [r3, #8]
 201 000c 03F10053 		add	r3, r3, #536870912
 202 0010 03F54053 		add	r3, r3, #12288
 203 0014 5B00     		lsls	r3, r3, #1
 204 0016 0593     		str	r3, [sp, #20]
 205              		.loc 2 133 0
 206 0018 019B     		ldr	r3, [sp, #4]
 207 001a 0133     		adds	r3, r3, #1
 208 001c 5B08     		lsrs	r3, r3, #1
 209 001e 0193     		str	r3, [sp, #4]
 210              		.loc 2 134 0
 211 0020 0CE0     		b	.L10
 212              	.L11:
ARM GAS  /tmp/ccyM3aPD.s 			page 5


 213              		.loc 2 137 0
 214 0022 059B     		ldr	r3, [sp, #20]
 215 0024 1A1D     		adds	r2, r3, #4
 216 0026 0592     		str	r2, [sp, #20]
 217 0028 1B68     		ldr	r3, [r3]
 218 002a 9AB2     		uxth	r2, r3
 219 002c 029B     		ldr	r3, [sp, #8]
 220 002e 1A80     		strh	r2, [r3]	@ movhi
 221              		.loc 2 138 0
 222 0030 029B     		ldr	r3, [sp, #8]
 223 0032 0233     		adds	r3, r3, #2
 224 0034 0293     		str	r3, [sp, #8]
 225              		.loc 2 139 0
 226 0036 019B     		ldr	r3, [sp, #4]
 227 0038 013B     		subs	r3, r3, #1
 228 003a 0193     		str	r3, [sp, #4]
 229              	.L10:
 230              		.loc 2 134 0 discriminator 1
 231 003c 019B     		ldr	r3, [sp, #4]
 232 003e 002B     		cmp	r3, #0
 233 0040 EFD1     		bne	.L11
 234              		.loc 2 141 0
 235 0042 06B0     		add	sp, sp, #24
 236              		@ sp needed
 237 0044 7047     		bx	lr
 238              		.cfi_endproc
 239              	.LFE120:
 240              		.size	usb_packet_read_to_buffer, .-usb_packet_read_to_buffer
 241 0046 00BFAFF3 		.section	.text.usb_packet_read_to_queue,"ax",%progbits
 241      0080AFF3 
 241      0080
 242              		.align	2
 243              		.p2align 4,,15
 244              		.thumb
 245              		.thumb_func
 246              		.type	usb_packet_read_to_queue, %function
 247              	usb_packet_read_to_queue:
 248              	.LFB121:
 249              		.loc 2 154 0
 250              		.cfi_startproc
 251              		@ args = 0, pretend = 0, frame = 32
 252              		@ frame_needed = 0, uses_anonymous_args = 0
 253 0000 00B5     		push	{lr}
 254              		.cfi_def_cfa_offset 4
 255              		.cfi_offset 14, -4
 256 0002 89B0     		sub	sp, sp, #36
 257              		.cfi_def_cfa_offset 40
 258 0004 0390     		str	r0, [sp, #12]
 259 0006 0291     		str	r1, [sp, #8]
 260 0008 0192     		str	r2, [sp, #4]
 261              		.loc 2 156 0
 262 000a 039B     		ldr	r3, [sp, #12]
 263 000c 9B68     		ldr	r3, [r3, #8]
 264 000e 03F10053 		add	r3, r3, #536870912
 265 0012 03F54053 		add	r3, r3, #12288
 266 0016 5B00     		lsls	r3, r3, #1
 267 0018 0693     		str	r3, [sp, #24]
ARM GAS  /tmp/ccyM3aPD.s 			page 6


 268              		.loc 2 158 0
 269 001a 019B     		ldr	r3, [sp, #4]
 270 001c 5B08     		lsrs	r3, r3, #1
 271 001e 0793     		str	r3, [sp, #28]
 272              		.loc 2 159 0
 273 0020 2CE0     		b	.L13
 274              	.L16:
 275              	.LBB2:
 276              		.loc 2 162 0
 277 0022 069B     		ldr	r3, [sp, #24]
 278 0024 1A1D     		adds	r2, r3, #4
 279 0026 0692     		str	r2, [sp, #24]
 280 0028 1B68     		ldr	r3, [r3]
 281 002a 0593     		str	r3, [sp, #20]
 282              		.loc 2 163 0
 283 002c 029B     		ldr	r3, [sp, #8]
 284 002e 5B69     		ldr	r3, [r3, #20]
 285 0030 591C     		adds	r1, r3, #1
 286 0032 029A     		ldr	r2, [sp, #8]
 287 0034 5161     		str	r1, [r2, #20]
 288 0036 059A     		ldr	r2, [sp, #20]
 289 0038 D2B2     		uxtb	r2, r2
 290 003a 1A70     		strb	r2, [r3]
 291              		.loc 2 164 0
 292 003c 029B     		ldr	r3, [sp, #8]
 293 003e 5A69     		ldr	r2, [r3, #20]
 294 0040 029B     		ldr	r3, [sp, #8]
 295 0042 1B69     		ldr	r3, [r3, #16]
 296 0044 9A42     		cmp	r2, r3
 297 0046 03D3     		bcc	.L14
 298              		.loc 2 165 0
 299 0048 029B     		ldr	r3, [sp, #8]
 300 004a DA68     		ldr	r2, [r3, #12]
 301 004c 029B     		ldr	r3, [sp, #8]
 302 004e 5A61     		str	r2, [r3, #20]
 303              	.L14:
 304              		.loc 2 166 0
 305 0050 029B     		ldr	r3, [sp, #8]
 306 0052 5B69     		ldr	r3, [r3, #20]
 307 0054 591C     		adds	r1, r3, #1
 308 0056 029A     		ldr	r2, [sp, #8]
 309 0058 5161     		str	r1, [r2, #20]
 310 005a 059A     		ldr	r2, [sp, #20]
 311 005c 120A     		lsrs	r2, r2, #8
 312 005e D2B2     		uxtb	r2, r2
 313 0060 1A70     		strb	r2, [r3]
 314              		.loc 2 167 0
 315 0062 029B     		ldr	r3, [sp, #8]
 316 0064 5A69     		ldr	r2, [r3, #20]
 317 0066 029B     		ldr	r3, [sp, #8]
 318 0068 1B69     		ldr	r3, [r3, #16]
 319 006a 9A42     		cmp	r2, r3
 320 006c 03D3     		bcc	.L15
 321              		.loc 2 168 0
 322 006e 029B     		ldr	r3, [sp, #8]
 323 0070 DA68     		ldr	r2, [r3, #12]
 324 0072 029B     		ldr	r3, [sp, #8]
ARM GAS  /tmp/ccyM3aPD.s 			page 7


 325 0074 5A61     		str	r2, [r3, #20]
 326              	.L15:
 327              		.loc 2 169 0
 328 0076 079B     		ldr	r3, [sp, #28]
 329 0078 013B     		subs	r3, r3, #1
 330 007a 0793     		str	r3, [sp, #28]
 331              	.L13:
 332              	.LBE2:
 333              		.loc 2 159 0 discriminator 1
 334 007c 079B     		ldr	r3, [sp, #28]
 335 007e 002B     		cmp	r3, #0
 336 0080 CFD1     		bne	.L16
 337              		.loc 2 172 0
 338 0082 019B     		ldr	r3, [sp, #4]
 339 0084 03F00103 		and	r3, r3, #1
 340 0088 002B     		cmp	r3, #0
 341 008a 12D0     		beq	.L17
 342              		.loc 2 173 0
 343 008c 029B     		ldr	r3, [sp, #8]
 344 008e 5B69     		ldr	r3, [r3, #20]
 345 0090 591C     		adds	r1, r3, #1
 346 0092 029A     		ldr	r2, [sp, #8]
 347 0094 5161     		str	r1, [r2, #20]
 348 0096 069A     		ldr	r2, [sp, #24]
 349 0098 1268     		ldr	r2, [r2]
 350 009a D2B2     		uxtb	r2, r2
 351 009c 1A70     		strb	r2, [r3]
 352              		.loc 2 174 0
 353 009e 029B     		ldr	r3, [sp, #8]
 354 00a0 5A69     		ldr	r2, [r3, #20]
 355 00a2 029B     		ldr	r3, [sp, #8]
 356 00a4 1B69     		ldr	r3, [r3, #16]
 357 00a6 9A42     		cmp	r2, r3
 358 00a8 03D3     		bcc	.L17
 359              		.loc 2 175 0
 360 00aa 029B     		ldr	r3, [sp, #8]
 361 00ac DA68     		ldr	r2, [r3, #12]
 362 00ae 029B     		ldr	r3, [sp, #8]
 363 00b0 5A61     		str	r2, [r3, #20]
 364              	.L17:
 365              	.LBB3:
 366              		.loc 2 179 0
 367 00b2 2023     		movs	r3, #32
 368              	@ 179 "/home/dave/r2p-sdk/core/ChibiOS/os/hal/platforms/STM32/USBv1/usb_lld.c" 1
 369 00b4 83F31188 		msr     BASEPRI, r3
 370              	@ 0 "" 2
 371              		.thumb
 372              	.LBE3:
 373 00b8 FFF7FEFF 		bl	dbg_check_lock_from_isr
 374              		.loc 2 180 0
 375 00bc 029B     		ldr	r3, [sp, #8]
 376 00be 9A68     		ldr	r2, [r3, #8]
 377 00c0 019B     		ldr	r3, [sp, #4]
 378 00c2 1A44     		add	r2, r2, r3
 379 00c4 029B     		ldr	r3, [sp, #8]
 380 00c6 9A60     		str	r2, [r3, #8]
 381              		.loc 2 181 0
ARM GAS  /tmp/ccyM3aPD.s 			page 8


 382 00c8 0AE0     		b	.L18
 383              	.L19:
 384              		.loc 2 182 0
 385 00ca 029B     		ldr	r3, [sp, #8]
 386 00cc 1846     		mov	r0, r3
 387 00ce FFF7FEFF 		bl	fifo_remove
 388 00d2 0346     		mov	r3, r0
 389 00d4 1846     		mov	r0, r3
 390 00d6 FFF7FEFF 		bl	chSchReadyI
 391 00da 0346     		mov	r3, r0
 392 00dc 0022     		movs	r2, #0
 393 00de 9A62     		str	r2, [r3, #40]
 394              	.L18:
 395              		.loc 2 181 0 discriminator 1
 396 00e0 029B     		ldr	r3, [sp, #8]
 397 00e2 1A68     		ldr	r2, [r3]
 398 00e4 029B     		ldr	r3, [sp, #8]
 399 00e6 9A42     		cmp	r2, r3
 400 00e8 EFD1     		bne	.L19
 401              		.loc 2 183 0
 402 00ea FFF7FEFF 		bl	dbg_check_unlock_from_isr
 403              	.LBB4:
 404 00ee 0023     		movs	r3, #0
 405              	@ 183 "/home/dave/r2p-sdk/core/ChibiOS/os/hal/platforms/STM32/USBv1/usb_lld.c" 1
 406 00f0 83F31188 		msr     BASEPRI, r3
 407              	@ 0 "" 2
 408              		.thumb
 409              	.LBE4:
 410              		.loc 2 184 0
 411 00f4 09B0     		add	sp, sp, #36
 412              		@ sp needed
 413 00f6 5DF804FB 		ldr	pc, [sp], #4
 414              		.cfi_endproc
 415              	.LFE121:
 416              		.size	usb_packet_read_to_queue, .-usb_packet_read_to_queue
 417 00fa 00BFAFF3 		.section	.text.usb_packet_write_from_buffer,"ax",%progbits
 417      0080
 418              		.align	2
 419              		.p2align 4,,15
 420              		.thumb
 421              		.thumb_func
 422              		.type	usb_packet_write_from_buffer, %function
 423              	usb_packet_write_from_buffer:
 424              	.LFB122:
 425              		.loc 2 198 0
 426              		.cfi_startproc
 427              		@ args = 0, pretend = 0, frame = 24
 428              		@ frame_needed = 0, uses_anonymous_args = 0
 429              		@ link register save eliminated.
 430 0000 86B0     		sub	sp, sp, #24
 431              		.cfi_def_cfa_offset 24
 432 0002 0390     		str	r0, [sp, #12]
 433 0004 0291     		str	r1, [sp, #8]
 434 0006 0192     		str	r2, [sp, #4]
 435              		.loc 2 199 0
 436 0008 039B     		ldr	r3, [sp, #12]
 437 000a 1B68     		ldr	r3, [r3]
ARM GAS  /tmp/ccyM3aPD.s 			page 9


 438 000c 03F10053 		add	r3, r3, #536870912
 439 0010 03F54053 		add	r3, r3, #12288
 440 0014 5B00     		lsls	r3, r3, #1
 441 0016 0593     		str	r3, [sp, #20]
 442              		.loc 2 201 0
 443 0018 019B     		ldr	r3, [sp, #4]
 444 001a 9AB2     		uxth	r2, r3
 445 001c 039B     		ldr	r3, [sp, #12]
 446 001e 9A80     		strh	r2, [r3, #4]	@ movhi
 447              		.loc 2 202 0
 448 0020 019B     		ldr	r3, [sp, #4]
 449 0022 0133     		adds	r3, r3, #1
 450 0024 5B08     		lsrs	r3, r3, #1
 451 0026 0193     		str	r3, [sp, #4]
 452              		.loc 2 203 0
 453 0028 0BE0     		b	.L21
 454              	.L22:
 455              		.loc 2 206 0
 456 002a 059B     		ldr	r3, [sp, #20]
 457 002c 1A1D     		adds	r2, r3, #4
 458 002e 0592     		str	r2, [sp, #20]
 459 0030 029A     		ldr	r2, [sp, #8]
 460 0032 1288     		ldrh	r2, [r2]
 461 0034 1A60     		str	r2, [r3]
 462              		.loc 2 207 0
 463 0036 029B     		ldr	r3, [sp, #8]
 464 0038 0233     		adds	r3, r3, #2
 465 003a 0293     		str	r3, [sp, #8]
 466              		.loc 2 208 0
 467 003c 019B     		ldr	r3, [sp, #4]
 468 003e 013B     		subs	r3, r3, #1
 469 0040 0193     		str	r3, [sp, #4]
 470              	.L21:
 471              		.loc 2 203 0 discriminator 1
 472 0042 019B     		ldr	r3, [sp, #4]
 473 0044 002B     		cmp	r3, #0
 474 0046 F0D1     		bne	.L22
 475              		.loc 2 210 0
 476 0048 06B0     		add	sp, sp, #24
 477              		@ sp needed
 478 004a 7047     		bx	lr
 479              		.cfi_endproc
 480              	.LFE122:
 481              		.size	usb_packet_write_from_buffer, .-usb_packet_write_from_buffer
 482 004c AFF30080 		.section	.text.usb_packet_write_from_queue,"ax",%progbits
 483              		.align	2
 484              		.p2align 4,,15
 485              		.thumb
 486              		.thumb_func
 487              		.type	usb_packet_write_from_queue, %function
 488              	usb_packet_write_from_queue:
 489              	.LFB123:
 490              		.loc 2 223 0
 491              		.cfi_startproc
 492              		@ args = 0, pretend = 0, frame = 32
 493              		@ frame_needed = 0, uses_anonymous_args = 0
 494 0000 00B5     		push	{lr}
ARM GAS  /tmp/ccyM3aPD.s 			page 10


 495              		.cfi_def_cfa_offset 4
 496              		.cfi_offset 14, -4
 497 0002 89B0     		sub	sp, sp, #36
 498              		.cfi_def_cfa_offset 40
 499 0004 0390     		str	r0, [sp, #12]
 500 0006 0291     		str	r1, [sp, #8]
 501 0008 0192     		str	r2, [sp, #4]
 502              		.loc 2 225 0
 503 000a 039B     		ldr	r3, [sp, #12]
 504 000c 1B68     		ldr	r3, [r3]
 505 000e 03F10053 		add	r3, r3, #536870912
 506 0012 03F54053 		add	r3, r3, #12288
 507 0016 5B00     		lsls	r3, r3, #1
 508 0018 0693     		str	r3, [sp, #24]
 509              		.loc 2 227 0
 510 001a 019B     		ldr	r3, [sp, #4]
 511 001c 9AB2     		uxth	r2, r3
 512 001e 039B     		ldr	r3, [sp, #12]
 513 0020 9A80     		strh	r2, [r3, #4]	@ movhi
 514              		.loc 2 228 0
 515 0022 019B     		ldr	r3, [sp, #4]
 516 0024 5B08     		lsrs	r3, r3, #1
 517 0026 0793     		str	r3, [sp, #28]
 518              		.loc 2 229 0
 519 0028 2CE0     		b	.L24
 520              	.L27:
 521              	.LBB5:
 522              		.loc 2 232 0
 523 002a 029B     		ldr	r3, [sp, #8]
 524 002c 9B69     		ldr	r3, [r3, #24]
 525 002e 591C     		adds	r1, r3, #1
 526 0030 029A     		ldr	r2, [sp, #8]
 527 0032 9161     		str	r1, [r2, #24]
 528 0034 1B78     		ldrb	r3, [r3]	@ zero_extendqisi2
 529 0036 0593     		str	r3, [sp, #20]
 530              		.loc 2 233 0
 531 0038 029B     		ldr	r3, [sp, #8]
 532 003a 9A69     		ldr	r2, [r3, #24]
 533 003c 029B     		ldr	r3, [sp, #8]
 534 003e 1B69     		ldr	r3, [r3, #16]
 535 0040 9A42     		cmp	r2, r3
 536 0042 03D3     		bcc	.L25
 537              		.loc 2 234 0
 538 0044 029B     		ldr	r3, [sp, #8]
 539 0046 DA68     		ldr	r2, [r3, #12]
 540 0048 029B     		ldr	r3, [sp, #8]
 541 004a 9A61     		str	r2, [r3, #24]
 542              	.L25:
 543              		.loc 2 235 0
 544 004c 029B     		ldr	r3, [sp, #8]
 545 004e 9B69     		ldr	r3, [r3, #24]
 546 0050 591C     		adds	r1, r3, #1
 547 0052 029A     		ldr	r2, [sp, #8]
 548 0054 9161     		str	r1, [r2, #24]
 549 0056 1B78     		ldrb	r3, [r3]	@ zero_extendqisi2
 550 0058 1B02     		lsls	r3, r3, #8
 551 005a 059A     		ldr	r2, [sp, #20]
ARM GAS  /tmp/ccyM3aPD.s 			page 11


 552 005c 1343     		orrs	r3, r3, r2
 553 005e 0593     		str	r3, [sp, #20]
 554              		.loc 2 236 0
 555 0060 029B     		ldr	r3, [sp, #8]
 556 0062 9A69     		ldr	r2, [r3, #24]
 557 0064 029B     		ldr	r3, [sp, #8]
 558 0066 1B69     		ldr	r3, [r3, #16]
 559 0068 9A42     		cmp	r2, r3
 560 006a 03D3     		bcc	.L26
 561              		.loc 2 237 0
 562 006c 029B     		ldr	r3, [sp, #8]
 563 006e DA68     		ldr	r2, [r3, #12]
 564 0070 029B     		ldr	r3, [sp, #8]
 565 0072 9A61     		str	r2, [r3, #24]
 566              	.L26:
 567              		.loc 2 238 0
 568 0074 069B     		ldr	r3, [sp, #24]
 569 0076 1A1D     		adds	r2, r3, #4
 570 0078 0692     		str	r2, [sp, #24]
 571 007a 059A     		ldr	r2, [sp, #20]
 572 007c 1A60     		str	r2, [r3]
 573              		.loc 2 239 0
 574 007e 079B     		ldr	r3, [sp, #28]
 575 0080 013B     		subs	r3, r3, #1
 576 0082 0793     		str	r3, [sp, #28]
 577              	.L24:
 578              	.LBE5:
 579              		.loc 2 229 0 discriminator 1
 580 0084 079B     		ldr	r3, [sp, #28]
 581 0086 002B     		cmp	r3, #0
 582 0088 CFD1     		bne	.L27
 583              		.loc 2 243 0
 584 008a 019B     		ldr	r3, [sp, #4]
 585 008c 03F00103 		and	r3, r3, #1
 586 0090 002B     		cmp	r3, #0
 587 0092 12D0     		beq	.L28
 588              		.loc 2 244 0
 589 0094 029B     		ldr	r3, [sp, #8]
 590 0096 9B69     		ldr	r3, [r3, #24]
 591 0098 591C     		adds	r1, r3, #1
 592 009a 029A     		ldr	r2, [sp, #8]
 593 009c 9161     		str	r1, [r2, #24]
 594 009e 1B78     		ldrb	r3, [r3]	@ zero_extendqisi2
 595 00a0 1A46     		mov	r2, r3
 596 00a2 069B     		ldr	r3, [sp, #24]
 597 00a4 1A60     		str	r2, [r3]
 598              		.loc 2 245 0
 599 00a6 029B     		ldr	r3, [sp, #8]
 600 00a8 9A69     		ldr	r2, [r3, #24]
 601 00aa 029B     		ldr	r3, [sp, #8]
 602 00ac 1B69     		ldr	r3, [r3, #16]
 603 00ae 9A42     		cmp	r2, r3
 604 00b0 03D3     		bcc	.L28
 605              		.loc 2 246 0
 606 00b2 029B     		ldr	r3, [sp, #8]
 607 00b4 DA68     		ldr	r2, [r3, #12]
 608 00b6 029B     		ldr	r3, [sp, #8]
ARM GAS  /tmp/ccyM3aPD.s 			page 12


 609 00b8 9A61     		str	r2, [r3, #24]
 610              	.L28:
 611              	.LBB6:
 612              		.loc 2 252 0
 613 00ba 2023     		movs	r3, #32
 614              	@ 252 "/home/dave/r2p-sdk/core/ChibiOS/os/hal/platforms/STM32/USBv1/usb_lld.c" 1
 615 00bc 83F31188 		msr     BASEPRI, r3
 616              	@ 0 "" 2
 617              		.thumb
 618              	.LBE6:
 619              		.loc 2 253 0
 620 00c0 114B     		ldr	r3, .L31
 621 00c2 0122     		movs	r2, #1
 622 00c4 1A60     		str	r2, [r3]
 623              		.loc 2 255 0
 624 00c6 029B     		ldr	r3, [sp, #8]
 625 00c8 9A68     		ldr	r2, [r3, #8]
 626 00ca 019B     		ldr	r3, [sp, #4]
 627 00cc 1A44     		add	r2, r2, r3
 628 00ce 029B     		ldr	r3, [sp, #8]
 629 00d0 9A60     		str	r2, [r3, #8]
 630              		.loc 2 256 0
 631 00d2 0AE0     		b	.L29
 632              	.L30:
 633              		.loc 2 257 0
 634 00d4 029B     		ldr	r3, [sp, #8]
 635 00d6 1846     		mov	r0, r3
 636 00d8 FFF7FEFF 		bl	fifo_remove
 637 00dc 0346     		mov	r3, r0
 638 00de 1846     		mov	r0, r3
 639 00e0 FFF7FEFF 		bl	chSchReadyI
 640 00e4 0346     		mov	r3, r0
 641 00e6 0022     		movs	r2, #0
 642 00e8 9A62     		str	r2, [r3, #40]
 643              	.L29:
 644              		.loc 2 256 0 discriminator 1
 645 00ea 029B     		ldr	r3, [sp, #8]
 646 00ec 1A68     		ldr	r2, [r3]
 647 00ee 029B     		ldr	r3, [sp, #8]
 648 00f0 9A42     		cmp	r2, r3
 649 00f2 EFD1     		bne	.L30
 650              		.loc 2 259 0
 651 00f4 044B     		ldr	r3, .L31
 652 00f6 0022     		movs	r2, #0
 653 00f8 1A60     		str	r2, [r3]
 654              	.LBB7:
 655              		.loc 2 260 0
 656 00fa 0023     		movs	r3, #0
 657              	@ 260 "/home/dave/r2p-sdk/core/ChibiOS/os/hal/platforms/STM32/USBv1/usb_lld.c" 1
 658 00fc 83F31188 		msr     BASEPRI, r3
 659              	@ 0 "" 2
 660              		.thumb
 661              	.LBE7:
 662              		.loc 2 261 0
 663 0100 09B0     		add	sp, sp, #36
 664              		@ sp needed
 665 0102 5DF804FB 		ldr	pc, [sp], #4
ARM GAS  /tmp/ccyM3aPD.s 			page 13


 666              	.L32:
 667 0106 00BF     		.align	2
 668              	.L31:
 669 0108 00000000 		.word	dbg_lock_cnt
 670              		.cfi_endproc
 671              	.LFE123:
 672              		.size	usb_packet_write_from_queue, .-usb_packet_write_from_queue
 673 010c AFF30080 		.section	.text.Vector168,"ax",%progbits
 674              		.align	2
 675              		.p2align 4,,15
 676              		.global	Vector168
 677              		.thumb
 678              		.thumb_func
 679              		.type	Vector168, %function
 680              	Vector168:
 681              	.LFB124:
 682              		.loc 2 276 0
 683              		.cfi_startproc
 684              		@ args = 0, pretend = 0, frame = 0
 685              		@ frame_needed = 0, uses_anonymous_args = 0
 686 0000 08B5     		push	{r3, lr}
 687              		.cfi_def_cfa_offset 8
 688              		.cfi_offset 3, -8
 689              		.cfi_offset 14, -4
 690              		.loc 2 278 0
 691 0002 FFF7FEFF 		bl	dbg_check_enter_isr
 692              		.loc 2 280 0
 693 0006 FFF7FEFF 		bl	dbg_check_leave_isr
 694 000a FFF7FEFF 		bl	_port_irq_epilogue
 695              		.loc 2 281 0
 696 000e 08BD     		pop	{r3, pc}
 697              		.cfi_endproc
 698              	.LFE124:
 699              		.size	Vector168, .-Vector168
 700              		.section	.text.Vector16C,"ax",%progbits
 701              		.align	2
 702              		.p2align 4,,15
 703              		.global	Vector16C
 704              		.thumb
 705              		.thumb_func
 706              		.type	Vector16C, %function
 707              	Vector16C:
 708              	.LFB125:
 709              		.loc 2 291 0
 710              		.cfi_startproc
 711              		@ args = 0, pretend = 0, frame = 40
 712              		@ frame_needed = 0, uses_anonymous_args = 0
 713 0000 00B5     		push	{lr}
 714              		.cfi_def_cfa_offset 4
 715              		.cfi_offset 14, -4
 716 0002 8BB0     		sub	sp, sp, #44
 717              		.cfi_def_cfa_offset 48
 718              		.loc 2 293 0
 719 0004 9E4B     		ldr	r3, .L56
 720 0006 0793     		str	r3, [sp, #28]
 721              		.loc 2 295 0
 722 0008 FFF7FEFF 		bl	dbg_check_enter_isr
ARM GAS  /tmp/ccyM3aPD.s 			page 14


 723              		.loc 2 297 0
 724 000c 9D4B     		ldr	r3, .L56+4
 725 000e 5B6C     		ldr	r3, [r3, #68]
 726 0010 0993     		str	r3, [sp, #36]
 727              		.loc 2 300 0
 728 0012 099B     		ldr	r3, [sp, #36]
 729 0014 03F48063 		and	r3, r3, #1024
 730 0018 002B     		cmp	r3, #0
 731 001a 11D0     		beq	.L35
 732              		.loc 2 301 0
 733 001c 0798     		ldr	r0, [sp, #28]
 734 001e FFF7FEFF 		bl	_usb_reset
 735              		.loc 2 302 0
 736 0022 079B     		ldr	r3, [sp, #28]
 737 0024 5B68     		ldr	r3, [r3, #4]
 738 0026 1B68     		ldr	r3, [r3]
 739 0028 002B     		cmp	r3, #0
 740 002a 05D0     		beq	.L36
 741              		.loc 2 302 0 is_stmt 0 discriminator 1
 742 002c 079B     		ldr	r3, [sp, #28]
 743 002e 5B68     		ldr	r3, [r3, #4]
 744 0030 1B68     		ldr	r3, [r3]
 745 0032 0798     		ldr	r0, [sp, #28]
 746 0034 0021     		movs	r1, #0
 747 0036 9847     		blx	r3
 748              	.L36:
 749              		.loc 2 303 0 is_stmt 1
 750 0038 924B     		ldr	r3, .L56+4
 751 003a 6FF48062 		mvn	r2, #1024
 752 003e 5A64     		str	r2, [r3, #68]
 753              	.L35:
 754              		.loc 2 307 0
 755 0040 099B     		ldr	r3, [sp, #36]
 756 0042 03F40063 		and	r3, r3, #2048
 757 0046 002B     		cmp	r3, #0
 758 0048 14D0     		beq	.L37
 759              		.loc 2 308 0
 760 004a 8E4B     		ldr	r3, .L56+4
 761 004c 8D4A     		ldr	r2, .L56+4
 762 004e 126C     		ldr	r2, [r2, #64]
 763 0050 42F00802 		orr	r2, r2, #8
 764 0054 1A64     		str	r2, [r3, #64]
 765              		.loc 2 309 0
 766 0056 079B     		ldr	r3, [sp, #28]
 767 0058 5B68     		ldr	r3, [r3, #4]
 768 005a 1B68     		ldr	r3, [r3]
 769 005c 002B     		cmp	r3, #0
 770 005e 05D0     		beq	.L38
 771              		.loc 2 309 0 is_stmt 0 discriminator 1
 772 0060 079B     		ldr	r3, [sp, #28]
 773 0062 5B68     		ldr	r3, [r3, #4]
 774 0064 1B68     		ldr	r3, [r3]
 775 0066 0798     		ldr	r0, [sp, #28]
 776 0068 0321     		movs	r1, #3
 777 006a 9847     		blx	r3
 778              	.L38:
 779              		.loc 2 313 0 is_stmt 1
ARM GAS  /tmp/ccyM3aPD.s 			page 15


 780 006c 854B     		ldr	r3, .L56+4
 781 006e 6FF40062 		mvn	r2, #2048
 782 0072 5A64     		str	r2, [r3, #68]
 783              	.L37:
 784              		.loc 2 317 0
 785 0074 099B     		ldr	r3, [sp, #36]
 786 0076 03F48053 		and	r3, r3, #4096
 787 007a 002B     		cmp	r3, #0
 788 007c 1CD0     		beq	.L39
 789              	.LBB8:
 790              		.loc 2 318 0
 791 007e 814B     		ldr	r3, .L56+4
 792 0080 9B6C     		ldr	r3, [r3, #72]
 793 0082 0693     		str	r3, [sp, #24]
 794              		.loc 2 319 0
 795 0084 069B     		ldr	r3, [sp, #24]
 796 0086 03F40043 		and	r3, r3, #32768
 797 008a 002B     		cmp	r3, #0
 798 008c 10D1     		bne	.L40
 799              		.loc 2 320 0
 800 008e 7D4B     		ldr	r3, .L56+4
 801 0090 7C4A     		ldr	r2, .L56+4
 802 0092 126C     		ldr	r2, [r2, #64]
 803 0094 22F00802 		bic	r2, r2, #8
 804 0098 1A64     		str	r2, [r3, #64]
 805              		.loc 2 321 0
 806 009a 079B     		ldr	r3, [sp, #28]
 807 009c 5B68     		ldr	r3, [r3, #4]
 808 009e 1B68     		ldr	r3, [r3]
 809 00a0 002B     		cmp	r3, #0
 810 00a2 05D0     		beq	.L40
 811              		.loc 2 321 0 is_stmt 0 discriminator 1
 812 00a4 079B     		ldr	r3, [sp, #28]
 813 00a6 5B68     		ldr	r3, [r3, #4]
 814 00a8 1B68     		ldr	r3, [r3]
 815 00aa 0798     		ldr	r0, [sp, #28]
 816 00ac 0421     		movs	r1, #4
 817 00ae 9847     		blx	r3
 818              	.L40:
 819              		.loc 2 330 0 is_stmt 1
 820 00b0 744B     		ldr	r3, .L56+4
 821 00b2 6FF48052 		mvn	r2, #4096
 822 00b6 5A64     		str	r2, [r3, #68]
 823              	.L39:
 824              	.LBE8:
 825              		.loc 2 334 0
 826 00b8 099B     		ldr	r3, [sp, #36]
 827 00ba 03F40073 		and	r3, r3, #512
 828 00be 002B     		cmp	r3, #0
 829 00c0 0ED0     		beq	.L41
 830              		.loc 2 335 0
 831 00c2 079B     		ldr	r3, [sp, #28]
 832 00c4 5B68     		ldr	r3, [r3, #4]
 833 00c6 DB68     		ldr	r3, [r3, #12]
 834 00c8 002B     		cmp	r3, #0
 835 00ca 04D0     		beq	.L42
 836              		.loc 2 335 0 is_stmt 0 discriminator 1
ARM GAS  /tmp/ccyM3aPD.s 			page 16


 837 00cc 079B     		ldr	r3, [sp, #28]
 838 00ce 5B68     		ldr	r3, [r3, #4]
 839 00d0 DB68     		ldr	r3, [r3, #12]
 840 00d2 0798     		ldr	r0, [sp, #28]
 841 00d4 9847     		blx	r3
 842              	.L42:
 843              		.loc 2 336 0 is_stmt 1
 844 00d6 6B4B     		ldr	r3, .L56+4
 845 00d8 6FF40072 		mvn	r2, #512
 846 00dc 5A64     		str	r2, [r3, #68]
 847              		.loc 2 340 0
 848 00de 52E1     		b	.L43
 849              	.L41:
 850 00e0 51E1     		b	.L43
 851              	.L55:
 852              	.LBB9:
 853              		.loc 2 343 0
 854 00e2 684B     		ldr	r3, .L56+4
 855 00e4 099A     		ldr	r2, [sp, #36]
 856 00e6 02F00F02 		and	r2, r2, #15
 857 00ea 0592     		str	r2, [sp, #20]
 858 00ec 059A     		ldr	r2, [sp, #20]
 859 00ee 53F82230 		ldr	r3, [r3, r2, lsl #2]
 860 00f2 0493     		str	r3, [sp, #16]
 861              		.loc 2 344 0
 862 00f4 079A     		ldr	r2, [sp, #28]
 863 00f6 059B     		ldr	r3, [sp, #20]
 864 00f8 0233     		adds	r3, r3, #2
 865 00fa 9B00     		lsls	r3, r3, #2
 866 00fc 1344     		add	r3, r3, r2
 867 00fe 5B68     		ldr	r3, [r3, #4]
 868 0100 0393     		str	r3, [sp, #12]
 869              		.loc 2 346 0
 870 0102 049B     		ldr	r3, [sp, #16]
 871 0104 03F08003 		and	r3, r3, #128
 872 0108 002B     		cmp	r3, #0
 873 010a 00F09580 		beq	.L44
 874              	.LBB10:
 875              		.loc 2 349 0
 876 010e 5D4A     		ldr	r2, .L56+4
 877 0110 5C4B     		ldr	r3, .L56+4
 878 0112 0599     		ldr	r1, [sp, #20]
 879 0114 53F82130 		ldr	r3, [r3, r1, lsl #2]
 880 0118 23F4F143 		bic	r3, r3, #30848
 881 011c 23F07003 		bic	r3, r3, #112
 882 0120 0599     		ldr	r1, [sp, #20]
 883 0122 42F82130 		str	r3, [r2, r1, lsl #2]
 884              		.loc 2 351 0
 885 0126 574B     		ldr	r3, .L56+4
 886 0128 1A6D     		ldr	r2, [r3, #80]
 887 012a 059B     		ldr	r3, [sp, #20]
 888 012c DB00     		lsls	r3, r3, #3
 889 012e 1344     		add	r3, r3, r2
 890 0130 03F10053 		add	r3, r3, #536870912
 891 0134 03F54053 		add	r3, r3, #12288
 892 0138 5B00     		lsls	r3, r3, #1
 893 013a 9B88     		ldrh	r3, [r3, #4]	@ movhi
ARM GAS  /tmp/ccyM3aPD.s 			page 17


 894 013c 9BB2     		uxth	r3, r3
 895 013e 0293     		str	r3, [sp, #8]
 896              		.loc 2 352 0
 897 0140 039B     		ldr	r3, [sp, #12]
 898 0142 5B69     		ldr	r3, [r3, #20]
 899 0144 039A     		ldr	r2, [sp, #12]
 900 0146 5269     		ldr	r2, [r2, #20]
 901 0148 9168     		ldr	r1, [r2, #8]
 902 014a 029A     		ldr	r2, [sp, #8]
 903 014c 0A44     		add	r2, r2, r1
 904 014e 9A60     		str	r2, [r3, #8]
 905              		.loc 2 353 0
 906 0150 039B     		ldr	r3, [sp, #12]
 907 0152 5B69     		ldr	r3, [r3, #20]
 908 0154 5A68     		ldr	r2, [r3, #4]
 909 0156 039B     		ldr	r3, [sp, #12]
 910 0158 5B69     		ldr	r3, [r3, #20]
 911 015a 9B68     		ldr	r3, [r3, #8]
 912 015c D31A     		subs	r3, r2, r3
 913 015e 0893     		str	r3, [sp, #32]
 914              		.loc 2 354 0
 915 0160 089B     		ldr	r3, [sp, #32]
 916 0162 002B     		cmp	r3, #0
 917 0164 4DD0     		beq	.L45
 918              		.loc 2 356 0
 919 0166 039B     		ldr	r3, [sp, #12]
 920 0168 1B8A     		ldrh	r3, [r3, #16]
 921 016a 1A46     		mov	r2, r3
 922 016c 089B     		ldr	r3, [sp, #32]
 923 016e 9A42     		cmp	r2, r3
 924 0170 02D2     		bcs	.L46
 925              		.loc 2 357 0
 926 0172 039B     		ldr	r3, [sp, #12]
 927 0174 1B8A     		ldrh	r3, [r3, #16]
 928 0176 0893     		str	r3, [sp, #32]
 929              	.L46:
 930              		.loc 2 359 0
 931 0178 039B     		ldr	r3, [sp, #12]
 932 017a 5B69     		ldr	r3, [r3, #20]
 933 017c 1B78     		ldrb	r3, [r3]	@ zero_extendqisi2
 934 017e 002B     		cmp	r3, #0
 935 0180 13D0     		beq	.L47
 936              		.loc 2 360 0
 937 0182 404B     		ldr	r3, .L56+4
 938 0184 1A6D     		ldr	r2, [r3, #80]
 939 0186 059B     		ldr	r3, [sp, #20]
 940 0188 DB00     		lsls	r3, r3, #3
 941 018a 1344     		add	r3, r3, r2
 942 018c 03F10053 		add	r3, r3, #536870912
 943 0190 03F54053 		add	r3, r3, #12288
 944 0194 5B00     		lsls	r3, r3, #1
 945 0196 1A46     		mov	r2, r3
 946              		.loc 2 361 0
 947 0198 039B     		ldr	r3, [sp, #12]
 948 019a 5B69     		ldr	r3, [r3, #20]
 949              		.loc 2 360 0
 950 019c DB68     		ldr	r3, [r3, #12]
ARM GAS  /tmp/ccyM3aPD.s 			page 18


 951 019e 1046     		mov	r0, r2
 952 01a0 1946     		mov	r1, r3
 953 01a2 089A     		ldr	r2, [sp, #32]
 954 01a4 FFF7FEFF 		bl	usb_packet_write_from_queue
 955 01a8 1AE0     		b	.L48
 956              	.L47:
 957              		.loc 2 364 0
 958 01aa 039B     		ldr	r3, [sp, #12]
 959 01ac 5B69     		ldr	r3, [r3, #20]
 960 01ae 039A     		ldr	r2, [sp, #12]
 961 01b0 5269     		ldr	r2, [r2, #20]
 962 01b2 D168     		ldr	r1, [r2, #12]
 963 01b4 029A     		ldr	r2, [sp, #8]
 964 01b6 0A44     		add	r2, r2, r1
 965 01b8 DA60     		str	r2, [r3, #12]
 966              		.loc 2 365 0
 967 01ba 324B     		ldr	r3, .L56+4
 968 01bc 1A6D     		ldr	r2, [r3, #80]
 969 01be 059B     		ldr	r3, [sp, #20]
 970 01c0 DB00     		lsls	r3, r3, #3
 971 01c2 1344     		add	r3, r3, r2
 972 01c4 03F10053 		add	r3, r3, #536870912
 973 01c8 03F54053 		add	r3, r3, #12288
 974 01cc 5B00     		lsls	r3, r3, #1
 975 01ce 1A46     		mov	r2, r3
 976              		.loc 2 366 0
 977 01d0 039B     		ldr	r3, [sp, #12]
 978 01d2 5B69     		ldr	r3, [r3, #20]
 979              		.loc 2 365 0
 980 01d4 DB68     		ldr	r3, [r3, #12]
 981 01d6 1046     		mov	r0, r2
 982 01d8 1946     		mov	r1, r3
 983 01da 089A     		ldr	r2, [sp, #32]
 984 01dc FFF7FEFF 		bl	usb_packet_write_from_buffer
 985              	.L48:
 986              	.LBB11:
 987              		.loc 2 369 0 discriminator 1
 988 01e0 2023     		movs	r3, #32
 989              	@ 369 "/home/dave/r2p-sdk/core/ChibiOS/os/hal/platforms/STM32/USBv1/usb_lld.c" 1
 990 01e2 83F31188 		msr     BASEPRI, r3
 991              	@ 0 "" 2
 992              		.thumb
 993              	.LBE11:
 994 01e6 FFF7FEFF 		bl	dbg_check_lock_from_isr
 995              		.loc 2 370 0 discriminator 1
 996 01ea 059B     		ldr	r3, [sp, #20]
 997 01ec DBB2     		uxtb	r3, r3
 998 01ee 0798     		ldr	r0, [sp, #28]
 999 01f0 1946     		mov	r1, r3
 1000 01f2 FFF7FEFF 		bl	usb_lld_start_in
 1001              		.loc 2 371 0 discriminator 1
 1002 01f6 FFF7FEFF 		bl	dbg_check_unlock_from_isr
 1003              	.LBB12:
 1004 01fa 0023     		movs	r3, #0
 1005              	@ 371 "/home/dave/r2p-sdk/core/ChibiOS/os/hal/platforms/STM32/USBv1/usb_lld.c" 1
 1006 01fc 83F31188 		msr     BASEPRI, r3
 1007              	@ 0 "" 2
ARM GAS  /tmp/ccyM3aPD.s 			page 19


 1008              		.thumb
 1009              	.LBE12:
 1010 0200 1AE0     		b	.L44
 1011              	.L45:
 1012              		.loc 2 375 0
 1013 0202 079B     		ldr	r3, [sp, #28]
 1014 0204 1B89     		ldrh	r3, [r3, #8]
 1015 0206 9AB2     		uxth	r2, r3
 1016 0208 059B     		ldr	r3, [sp, #20]
 1017 020a 0121     		movs	r1, #1
 1018 020c 01FA03F3 		lsl	r3, r1, r3
 1019 0210 9BB2     		uxth	r3, r3
 1020 0212 DB43     		mvns	r3, r3
 1021 0214 9BB2     		uxth	r3, r3
 1022 0216 1340     		ands	r3, r3, r2
 1023 0218 9BB2     		uxth	r3, r3
 1024 021a 9AB2     		uxth	r2, r3
 1025 021c 079B     		ldr	r3, [sp, #28]
 1026 021e 1A81     		strh	r2, [r3, #8]	@ movhi
 1027 0220 079A     		ldr	r2, [sp, #28]
 1028 0222 059B     		ldr	r3, [sp, #20]
 1029 0224 0233     		adds	r3, r3, #2
 1030 0226 9B00     		lsls	r3, r3, #2
 1031 0228 1344     		add	r3, r3, r2
 1032 022a 5B68     		ldr	r3, [r3, #4]
 1033 022c 9B68     		ldr	r3, [r3, #8]
 1034 022e 059A     		ldr	r2, [sp, #20]
 1035 0230 D2B2     		uxtb	r2, r2
 1036 0232 0798     		ldr	r0, [sp, #28]
 1037 0234 1146     		mov	r1, r2
 1038 0236 9847     		blx	r3
 1039              	.L44:
 1040              	.LBE10:
 1041              		.loc 2 378 0
 1042 0238 049B     		ldr	r3, [sp, #16]
 1043 023a 03F40043 		and	r3, r3, #32768
 1044 023e 002B     		cmp	r3, #0
 1045 0240 00F09E80 		beq	.L49
 1046              		.loc 2 379 0
 1047 0244 0F4A     		ldr	r2, .L56+4
 1048 0246 0F4B     		ldr	r3, .L56+4
 1049 0248 0599     		ldr	r1, [sp, #20]
 1050 024a 53F82130 		ldr	r3, [r3, r1, lsl #2]
 1051 024e 23F47843 		bic	r3, r3, #63488
 1052 0252 23F07003 		bic	r3, r3, #112
 1053 0256 0599     		ldr	r1, [sp, #20]
 1054 0258 42F82130 		str	r3, [r2, r1, lsl #2]
 1055              		.loc 2 381 0
 1056 025c 049B     		ldr	r3, [sp, #16]
 1057 025e 03F40063 		and	r3, r3, #2048
 1058 0262 002B     		cmp	r3, #0
 1059 0264 10D0     		beq	.L50
 1060              		.loc 2 384 0
 1061 0266 079A     		ldr	r2, [sp, #28]
 1062 0268 059B     		ldr	r3, [sp, #20]
 1063 026a 0233     		adds	r3, r3, #2
 1064 026c 9B00     		lsls	r3, r3, #2
ARM GAS  /tmp/ccyM3aPD.s 			page 20


 1065 026e 1344     		add	r3, r3, r2
 1066 0270 5B68     		ldr	r3, [r3, #4]
 1067 0272 5B68     		ldr	r3, [r3, #4]
 1068 0274 059A     		ldr	r2, [sp, #20]
 1069 0276 D2B2     		uxtb	r2, r2
 1070 0278 0798     		ldr	r0, [sp, #28]
 1071 027a 1146     		mov	r1, r2
 1072 027c 9847     		blx	r3
 1073 027e 7FE0     		b	.L49
 1074              	.L57:
 1075              		.align	2
 1076              	.L56:
 1077 0280 00000000 		.word	USBD1
 1078 0284 005C0040 		.word	1073765376
 1079              	.L50:
 1080              	.LBB13:
 1081              		.loc 2 387 0
 1082 0288 454B     		ldr	r3, .L58
 1083 028a 1A6D     		ldr	r2, [r3, #80]
 1084 028c 059B     		ldr	r3, [sp, #20]
 1085 028e DB00     		lsls	r3, r3, #3
 1086 0290 1344     		add	r3, r3, r2
 1087 0292 03F10053 		add	r3, r3, #536870912
 1088 0296 03F54053 		add	r3, r3, #12288
 1089 029a 5B00     		lsls	r3, r3, #1
 1090 029c 0193     		str	r3, [sp, #4]
 1091              		.loc 2 388 0
 1092 029e 019B     		ldr	r3, [sp, #4]
 1093 02a0 9B89     		ldrh	r3, [r3, #12]	@ movhi
 1094 02a2 9BB2     		uxth	r3, r3
 1095 02a4 C3F30903 		ubfx	r3, r3, #0, #10
 1096 02a8 0893     		str	r3, [sp, #32]
 1097              		.loc 2 391 0
 1098 02aa 039B     		ldr	r3, [sp, #12]
 1099 02ac 9B69     		ldr	r3, [r3, #24]
 1100 02ae 1B78     		ldrb	r3, [r3]	@ zero_extendqisi2
 1101 02b0 002B     		cmp	r3, #0
 1102 02b2 08D0     		beq	.L51
 1103              		.loc 2 393 0
 1104 02b4 039B     		ldr	r3, [sp, #12]
 1105 02b6 9B69     		ldr	r3, [r3, #24]
 1106              		.loc 2 392 0
 1107 02b8 DB68     		ldr	r3, [r3, #12]
 1108 02ba 0198     		ldr	r0, [sp, #4]
 1109 02bc 1946     		mov	r1, r3
 1110 02be 089A     		ldr	r2, [sp, #32]
 1111 02c0 FFF7FEFF 		bl	usb_packet_read_to_queue
 1112 02c4 0FE0     		b	.L52
 1113              	.L51:
 1114              		.loc 2 397 0
 1115 02c6 039B     		ldr	r3, [sp, #12]
 1116 02c8 9B69     		ldr	r3, [r3, #24]
 1117              		.loc 2 396 0
 1118 02ca DB68     		ldr	r3, [r3, #12]
 1119 02cc 0198     		ldr	r0, [sp, #4]
 1120 02ce 1946     		mov	r1, r3
 1121 02d0 089A     		ldr	r2, [sp, #32]
ARM GAS  /tmp/ccyM3aPD.s 			page 21


 1122 02d2 FFF7FEFF 		bl	usb_packet_read_to_buffer
 1123              		.loc 2 399 0
 1124 02d6 039B     		ldr	r3, [sp, #12]
 1125 02d8 9B69     		ldr	r3, [r3, #24]
 1126 02da 039A     		ldr	r2, [sp, #12]
 1127 02dc 9269     		ldr	r2, [r2, #24]
 1128 02de D168     		ldr	r1, [r2, #12]
 1129 02e0 089A     		ldr	r2, [sp, #32]
 1130 02e2 0A44     		add	r2, r2, r1
 1131 02e4 DA60     		str	r2, [r3, #12]
 1132              	.L52:
 1133              		.loc 2 402 0
 1134 02e6 039B     		ldr	r3, [sp, #12]
 1135 02e8 9B69     		ldr	r3, [r3, #24]
 1136 02ea 039A     		ldr	r2, [sp, #12]
 1137 02ec 9269     		ldr	r2, [r2, #24]
 1138 02ee 9168     		ldr	r1, [r2, #8]
 1139 02f0 089A     		ldr	r2, [sp, #32]
 1140 02f2 0A44     		add	r2, r2, r1
 1141 02f4 9A60     		str	r2, [r3, #8]
 1142              		.loc 2 403 0
 1143 02f6 039B     		ldr	r3, [sp, #12]
 1144 02f8 9B69     		ldr	r3, [r3, #24]
 1145 02fa 039A     		ldr	r2, [sp, #12]
 1146 02fc 9269     		ldr	r2, [r2, #24]
 1147 02fe 5168     		ldr	r1, [r2, #4]
 1148 0300 089A     		ldr	r2, [sp, #32]
 1149 0302 8A1A     		subs	r2, r1, r2
 1150 0304 5A60     		str	r2, [r3, #4]
 1151              		.loc 2 404 0
 1152 0306 039B     		ldr	r3, [sp, #12]
 1153 0308 9B69     		ldr	r3, [r3, #24]
 1154 030a 039A     		ldr	r2, [sp, #12]
 1155 030c 9269     		ldr	r2, [r2, #24]
 1156 030e 128A     		ldrh	r2, [r2, #16]
 1157 0310 013A     		subs	r2, r2, #1
 1158 0312 92B2     		uxth	r2, r2
 1159 0314 1A82     		strh	r2, [r3, #16]	@ movhi
 1160              		.loc 2 408 0
 1161 0316 039B     		ldr	r3, [sp, #12]
 1162 0318 5B8A     		ldrh	r3, [r3, #18]
 1163 031a 1A46     		mov	r2, r3
 1164 031c 089B     		ldr	r3, [sp, #32]
 1165 031e 9A42     		cmp	r2, r3
 1166 0320 04D8     		bhi	.L53
 1167              		.loc 2 408 0 is_stmt 0 discriminator 1
 1168 0322 039B     		ldr	r3, [sp, #12]
 1169 0324 9B69     		ldr	r3, [r3, #24]
 1170 0326 1B8A     		ldrh	r3, [r3, #16]
 1171 0328 002B     		cmp	r3, #0
 1172 032a 1BD1     		bne	.L54
 1173              	.L53:
 1174              		.loc 2 410 0 is_stmt 1
 1175 032c 079B     		ldr	r3, [sp, #28]
 1176 032e 5B89     		ldrh	r3, [r3, #10]
 1177 0330 9AB2     		uxth	r2, r3
 1178 0332 059B     		ldr	r3, [sp, #20]
ARM GAS  /tmp/ccyM3aPD.s 			page 22


 1179 0334 0121     		movs	r1, #1
 1180 0336 01FA03F3 		lsl	r3, r1, r3
 1181 033a 9BB2     		uxth	r3, r3
 1182 033c DB43     		mvns	r3, r3
 1183 033e 9BB2     		uxth	r3, r3
 1184 0340 1340     		ands	r3, r3, r2
 1185 0342 9BB2     		uxth	r3, r3
 1186 0344 9AB2     		uxth	r2, r3
 1187 0346 079B     		ldr	r3, [sp, #28]
 1188 0348 5A81     		strh	r2, [r3, #10]	@ movhi
 1189 034a 079A     		ldr	r2, [sp, #28]
 1190 034c 059B     		ldr	r3, [sp, #20]
 1191 034e 0233     		adds	r3, r3, #2
 1192 0350 9B00     		lsls	r3, r3, #2
 1193 0352 1344     		add	r3, r3, r2
 1194 0354 5B68     		ldr	r3, [r3, #4]
 1195 0356 DB68     		ldr	r3, [r3, #12]
 1196 0358 059A     		ldr	r2, [sp, #20]
 1197 035a D2B2     		uxtb	r2, r2
 1198 035c 0798     		ldr	r0, [sp, #28]
 1199 035e 1146     		mov	r1, r2
 1200 0360 9847     		blx	r3
 1201 0362 0DE0     		b	.L49
 1202              	.L54:
 1203              		.loc 2 414 0
 1204 0364 0E4A     		ldr	r2, .L58
 1205 0366 0E4B     		ldr	r3, .L58
 1206 0368 0599     		ldr	r1, [sp, #20]
 1207 036a 53F82130 		ldr	r3, [r3, r1, lsl #2]
 1208 036e 23F49043 		bic	r3, r3, #18432
 1209 0372 23F07003 		bic	r3, r3, #112
 1210 0376 83F44051 		eor	r1, r3, #12288
 1211 037a 059B     		ldr	r3, [sp, #20]
 1212 037c 42F82310 		str	r1, [r2, r3, lsl #2]
 1213              	.L49:
 1214              	.LBE13:
 1215              		.loc 2 418 0
 1216 0380 074B     		ldr	r3, .L58
 1217 0382 5B6C     		ldr	r3, [r3, #68]
 1218 0384 0993     		str	r3, [sp, #36]
 1219              	.L43:
 1220              	.LBE9:
 1221              		.loc 2 340 0 discriminator 1
 1222 0386 099B     		ldr	r3, [sp, #36]
 1223 0388 03F40043 		and	r3, r3, #32768
 1224 038c 002B     		cmp	r3, #0
 1225 038e 7FF4A8AE 		bne	.L55
 1226              		.loc 2 421 0
 1227 0392 FFF7FEFF 		bl	dbg_check_leave_isr
 1228 0396 FFF7FEFF 		bl	_port_irq_epilogue
 1229              		.loc 2 422 0
 1230 039a 0BB0     		add	sp, sp, #44
 1231              		@ sp needed
 1232 039c 5DF804FB 		ldr	pc, [sp], #4
 1233              	.L59:
 1234              		.align	2
 1235              	.L58:
ARM GAS  /tmp/ccyM3aPD.s 			page 23


 1236 03a0 005C0040 		.word	1073765376
 1237              		.cfi_endproc
 1238              	.LFE125:
 1239              		.size	Vector16C, .-Vector16C
 1240 03a4 AFF30080 		.section	.text.usb_lld_init,"ax",%progbits
 1240      AFF30080 
 1240      AFF30080 
 1241              		.align	2
 1242              		.p2align 4,,15
 1243              		.global	usb_lld_init
 1244              		.thumb
 1245              		.thumb_func
 1246              		.type	usb_lld_init, %function
 1247              	usb_lld_init:
 1248              	.LFB126:
 1249              		.loc 2 434 0
 1250              		.cfi_startproc
 1251              		@ args = 0, pretend = 0, frame = 0
 1252              		@ frame_needed = 0, uses_anonymous_args = 0
 1253 0000 08B5     		push	{r3, lr}
 1254              		.cfi_def_cfa_offset 8
 1255              		.cfi_offset 3, -8
 1256              		.cfi_offset 14, -4
 1257              		.loc 2 437 0
 1258 0002 0248     		ldr	r0, .L61
 1259 0004 FFF7FEFF 		bl	usbObjectInit
 1260              		.loc 2 438 0
 1261 0008 08BD     		pop	{r3, pc}
 1262              	.L62:
 1263 000a 00BF     		.align	2
 1264              	.L61:
 1265 000c 00000000 		.word	USBD1
 1266              		.cfi_endproc
 1267              	.LFE126:
 1268              		.size	usb_lld_init, .-usb_lld_init
 1269              		.section	.text.usb_lld_start,"ax",%progbits
 1270              		.align	2
 1271              		.p2align 4,,15
 1272              		.global	usb_lld_start
 1273              		.thumb
 1274              		.thumb_func
 1275              		.type	usb_lld_start, %function
 1276              	usb_lld_start:
 1277              	.LFB127:
 1278              		.loc 2 447 0
 1279              		.cfi_startproc
 1280              		@ args = 0, pretend = 0, frame = 8
 1281              		@ frame_needed = 0, uses_anonymous_args = 0
 1282 0000 00B5     		push	{lr}
 1283              		.cfi_def_cfa_offset 4
 1284              		.cfi_offset 14, -4
 1285 0002 83B0     		sub	sp, sp, #12
 1286              		.cfi_def_cfa_offset 16
 1287 0004 0190     		str	r0, [sp, #4]
 1288              		.loc 2 449 0
 1289 0006 019B     		ldr	r3, [sp, #4]
 1290 0008 1B78     		ldrb	r3, [r3]	@ zero_extendqisi2
ARM GAS  /tmp/ccyM3aPD.s 			page 24


 1291 000a 012B     		cmp	r3, #1
 1292 000c 1AD1     		bne	.L63
 1293              		.loc 2 452 0
 1294 000e 019A     		ldr	r2, [sp, #4]
 1295 0010 0E4B     		ldr	r3, .L66
 1296 0012 9A42     		cmp	r2, r3
 1297 0014 13D1     		bne	.L65
 1298              		.loc 2 454 0
 1299 0016 0E4B     		ldr	r3, .L66+4
 1300 0018 0D4A     		ldr	r2, .L66+4
 1301 001a D269     		ldr	r2, [r2, #28]
 1302 001c 42F40002 		orr	r2, r2, #8388608
 1303 0020 DA61     		str	r2, [r3, #28]
 1304              		.loc 2 456 0
 1305 0022 0C4B     		ldr	r3, .L66+8
 1306 0024 0122     		movs	r2, #1
 1307 0026 1A64     		str	r2, [r3, #64]
 1308              		.loc 2 459 0
 1309 0028 4A20     		movs	r0, #74
 1310 002a D021     		movs	r1, #208
 1311 002c FFF7FEFF 		bl	nvicEnableVector
 1312              		.loc 2 461 0
 1313 0030 4B20     		movs	r0, #75
 1314 0032 E021     		movs	r1, #224
 1315 0034 FFF7FEFF 		bl	nvicEnableVector
 1316              		.loc 2 464 0
 1317 0038 064B     		ldr	r3, .L66+8
 1318 003a 0022     		movs	r2, #0
 1319 003c 1A64     		str	r2, [r3, #64]
 1320              	.L65:
 1321              		.loc 2 468 0
 1322 003e 0198     		ldr	r0, [sp, #4]
 1323 0040 FFF7FEFF 		bl	_usb_reset
 1324              	.L63:
 1325              		.loc 2 471 0
 1326 0044 03B0     		add	sp, sp, #12
 1327              		@ sp needed
 1328 0046 5DF804FB 		ldr	pc, [sp], #4
 1329              	.L67:
 1330 004a 00BF     		.align	2
 1331              	.L66:
 1332 004c 00000000 		.word	USBD1
 1333 0050 00100240 		.word	1073876992
 1334 0054 005C0040 		.word	1073765376
 1335              		.cfi_endproc
 1336              	.LFE127:
 1337              		.size	usb_lld_start, .-usb_lld_start
 1338 0058 AFF30080 		.section	.text.usb_lld_stop,"ax",%progbits
 1338      AFF30080 
 1339              		.align	2
 1340              		.p2align 4,,15
 1341              		.global	usb_lld_stop
 1342              		.thumb
 1343              		.thumb_func
 1344              		.type	usb_lld_stop, %function
 1345              	usb_lld_stop:
 1346              	.LFB128:
ARM GAS  /tmp/ccyM3aPD.s 			page 25


 1347              		.loc 2 480 0
 1348              		.cfi_startproc
 1349              		@ args = 0, pretend = 0, frame = 8
 1350              		@ frame_needed = 0, uses_anonymous_args = 0
 1351 0000 00B5     		push	{lr}
 1352              		.cfi_def_cfa_offset 4
 1353              		.cfi_offset 14, -4
 1354 0002 83B0     		sub	sp, sp, #12
 1355              		.cfi_def_cfa_offset 16
 1356 0004 0190     		str	r0, [sp, #4]
 1357              		.loc 2 483 0
 1358 0006 019B     		ldr	r3, [sp, #4]
 1359 0008 1B78     		ldrb	r3, [r3]	@ zero_extendqisi2
 1360 000a 012B     		cmp	r3, #1
 1361 000c 12D1     		bne	.L68
 1362              		.loc 2 485 0
 1363 000e 019A     		ldr	r2, [sp, #4]
 1364 0010 0A4B     		ldr	r3, .L70
 1365 0012 9A42     		cmp	r2, r3
 1366 0014 0ED1     		bne	.L68
 1367              		.loc 2 486 0
 1368 0016 4A20     		movs	r0, #74
 1369 0018 FFF7FEFF 		bl	nvicDisableVector
 1370              		.loc 2 487 0
 1371 001c 4B20     		movs	r0, #75
 1372 001e FFF7FEFF 		bl	nvicDisableVector
 1373              		.loc 2 488 0
 1374 0022 074B     		ldr	r3, .L70+4
 1375 0024 0322     		movs	r2, #3
 1376 0026 1A64     		str	r2, [r3, #64]
 1377              		.loc 2 489 0
 1378 0028 064B     		ldr	r3, .L70+8
 1379 002a 064A     		ldr	r2, .L70+8
 1380 002c D269     		ldr	r2, [r2, #28]
 1381 002e 22F40002 		bic	r2, r2, #8388608
 1382 0032 DA61     		str	r2, [r3, #28]
 1383              	.L68:
 1384              		.loc 2 493 0
 1385 0034 03B0     		add	sp, sp, #12
 1386              		@ sp needed
 1387 0036 5DF804FB 		ldr	pc, [sp], #4
 1388              	.L71:
 1389 003a 00BF     		.align	2
 1390              	.L70:
 1391 003c 00000000 		.word	USBD1
 1392 0040 005C0040 		.word	1073765376
 1393 0044 00100240 		.word	1073876992
 1394              		.cfi_endproc
 1395              	.LFE128:
 1396              		.size	usb_lld_stop, .-usb_lld_stop
 1397 0048 AFF30080 		.section	.text.usb_lld_reset,"ax",%progbits
 1397      AFF30080 
 1398              		.align	2
 1399              		.p2align 4,,15
 1400              		.global	usb_lld_reset
 1401              		.thumb
 1402              		.thumb_func
ARM GAS  /tmp/ccyM3aPD.s 			page 26


 1403              		.type	usb_lld_reset, %function
 1404              	usb_lld_reset:
 1405              	.LFB129:
 1406              		.loc 2 502 0
 1407              		.cfi_startproc
 1408              		@ args = 0, pretend = 0, frame = 16
 1409              		@ frame_needed = 0, uses_anonymous_args = 0
 1410 0000 00B5     		push	{lr}
 1411              		.cfi_def_cfa_offset 4
 1412              		.cfi_offset 14, -4
 1413 0002 85B0     		sub	sp, sp, #20
 1414              		.cfi_def_cfa_offset 24
 1415 0004 0190     		str	r0, [sp, #4]
 1416              		.loc 2 506 0
 1417 0006 124B     		ldr	r3, .L74
 1418 0008 0022     		movs	r2, #0
 1419 000a 1A65     		str	r2, [r3, #80]
 1420              		.loc 2 507 0
 1421 000c 104B     		ldr	r3, .L74
 1422 000e 0022     		movs	r2, #0
 1423 0010 5A64     		str	r2, [r3, #68]
 1424              		.loc 2 508 0
 1425 0012 0F4B     		ldr	r3, .L74
 1426 0014 8022     		movs	r2, #128
 1427 0016 DA64     		str	r2, [r3, #76]
 1428              		.loc 2 509 0
 1429 0018 4FF41C43 		mov	r3, #39936
 1430 001c 0393     		str	r3, [sp, #12]
 1431              		.loc 2 513 0
 1432 001e 019B     		ldr	r3, [sp, #4]
 1433 0020 5B68     		ldr	r3, [r3, #4]
 1434 0022 DB68     		ldr	r3, [r3, #12]
 1435 0024 002B     		cmp	r3, #0
 1436 0026 03D0     		beq	.L73
 1437              		.loc 2 514 0
 1438 0028 039B     		ldr	r3, [sp, #12]
 1439 002a 43F40073 		orr	r3, r3, #512
 1440 002e 0393     		str	r3, [sp, #12]
 1441              	.L73:
 1442              		.loc 2 515 0
 1443 0030 074B     		ldr	r3, .L74
 1444 0032 039A     		ldr	r2, [sp, #12]
 1445 0034 1A64     		str	r2, [r3, #64]
 1446              		.loc 2 518 0
 1447 0036 0198     		ldr	r0, [sp, #4]
 1448 0038 FFF7FEFF 		bl	usb_pm_reset
 1449              		.loc 2 521 0
 1450 003c 019B     		ldr	r3, [sp, #4]
 1451 003e 054A     		ldr	r2, .L74+4
 1452 0040 DA60     		str	r2, [r3, #12]
 1453              		.loc 2 522 0
 1454 0042 0198     		ldr	r0, [sp, #4]
 1455 0044 0021     		movs	r1, #0
 1456 0046 FFF7FEFF 		bl	usb_lld_init_endpoint
 1457              		.loc 2 523 0
 1458 004a 05B0     		add	sp, sp, #20
 1459              		@ sp needed
ARM GAS  /tmp/ccyM3aPD.s 			page 27


 1460 004c 5DF804FB 		ldr	pc, [sp], #4
 1461              	.L75:
 1462              		.align	2
 1463              	.L74:
 1464 0050 005C0040 		.word	1073765376
 1465 0054 00000000 		.word	ep0config
 1466              		.cfi_endproc
 1467              	.LFE129:
 1468              		.size	usb_lld_reset, .-usb_lld_reset
 1469 0058 AFF30080 		.section	.text.usb_lld_set_address,"ax",%progbits
 1469      AFF30080 
 1470              		.align	2
 1471              		.p2align 4,,15
 1472              		.global	usb_lld_set_address
 1473              		.thumb
 1474              		.thumb_func
 1475              		.type	usb_lld_set_address, %function
 1476              	usb_lld_set_address:
 1477              	.LFB130:
 1478              		.loc 2 532 0
 1479              		.cfi_startproc
 1480              		@ args = 0, pretend = 0, frame = 8
 1481              		@ frame_needed = 0, uses_anonymous_args = 0
 1482              		@ link register save eliminated.
 1483 0000 82B0     		sub	sp, sp, #8
 1484              		.cfi_def_cfa_offset 8
 1485 0002 0190     		str	r0, [sp, #4]
 1486              		.loc 2 534 0
 1487 0004 044B     		ldr	r3, .L77
 1488 0006 019A     		ldr	r2, [sp, #4]
 1489 0008 92F87E20 		ldrb	r2, [r2, #126]	@ zero_extendqisi2
 1490 000c 62F07F02 		orn	r2, r2, #127
 1491 0010 D2B2     		uxtb	r2, r2
 1492 0012 DA64     		str	r2, [r3, #76]
 1493              		.loc 2 535 0
 1494 0014 02B0     		add	sp, sp, #8
 1495              		@ sp needed
 1496 0016 7047     		bx	lr
 1497              	.L78:
 1498              		.align	2
 1499              	.L77:
 1500 0018 005C0040 		.word	1073765376
 1501              		.cfi_endproc
 1502              	.LFE130:
 1503              		.size	usb_lld_set_address, .-usb_lld_set_address
 1504 001c AFF30080 		.section	.text.usb_lld_init_endpoint,"ax",%progbits
 1505              		.align	2
 1506              		.p2align 4,,15
 1507              		.global	usb_lld_init_endpoint
 1508              		.thumb
 1509              		.thumb_func
 1510              		.type	usb_lld_init_endpoint, %function
 1511              	usb_lld_init_endpoint:
 1512              	.LFB131:
 1513              		.loc 2 545 0
 1514              		.cfi_startproc
 1515              		@ args = 0, pretend = 0, frame = 24
ARM GAS  /tmp/ccyM3aPD.s 			page 28


 1516              		@ frame_needed = 0, uses_anonymous_args = 0
 1517 0000 10B5     		push	{r4, lr}
 1518              		.cfi_def_cfa_offset 8
 1519              		.cfi_offset 4, -8
 1520              		.cfi_offset 14, -4
 1521 0002 86B0     		sub	sp, sp, #24
 1522              		.cfi_def_cfa_offset 32
 1523 0004 0190     		str	r0, [sp, #4]
 1524 0006 0B46     		mov	r3, r1
 1525 0008 8DF80330 		strb	r3, [sp, #3]
 1526              		.loc 2 548 0
 1527 000c 9DF80330 		ldrb	r3, [sp, #3]	@ zero_extendqisi2
 1528 0010 019A     		ldr	r2, [sp, #4]
 1529 0012 0233     		adds	r3, r3, #2
 1530 0014 9B00     		lsls	r3, r3, #2
 1531 0016 1344     		add	r3, r3, r2
 1532 0018 5B68     		ldr	r3, [r3, #4]
 1533 001a 0493     		str	r3, [sp, #16]
 1534              		.loc 2 551 0
 1535 001c 049B     		ldr	r3, [sp, #16]
 1536 001e 1B68     		ldr	r3, [r3]
 1537 0020 03F00303 		and	r3, r3, #3
 1538 0024 022B     		cmp	r3, #2
 1539 0026 08D0     		beq	.L81
 1540 0028 032B     		cmp	r3, #3
 1541 002a 0AD0     		beq	.L82
 1542 002c 012B     		cmp	r3, #1
 1543 002e 0DD1     		bne	.L90
 1544              		.loc 2 553 0
 1545 0030 4FF48063 		mov	r3, #1024
 1546 0034 ADF81430 		strh	r3, [sp, #20]	@ movhi
 1547              		.loc 2 554 0
 1548 0038 0CE0     		b	.L84
 1549              	.L81:
 1550              		.loc 2 556 0
 1551 003a 0023     		movs	r3, #0
 1552 003c ADF81430 		strh	r3, [sp, #20]	@ movhi
 1553              		.loc 2 557 0
 1554 0040 08E0     		b	.L84
 1555              	.L82:
 1556              		.loc 2 559 0
 1557 0042 4FF4C063 		mov	r3, #1536
 1558 0046 ADF81430 		strh	r3, [sp, #20]	@ movhi
 1559              		.loc 2 560 0
 1560 004a 03E0     		b	.L84
 1561              	.L90:
 1562              		.loc 2 562 0
 1563 004c 4FF40073 		mov	r3, #512
 1564 0050 ADF81430 		strh	r3, [sp, #20]	@ movhi
 1565              	.L84:
 1566              		.loc 2 566 0
 1567 0054 049B     		ldr	r3, [sp, #16]
 1568 0056 9B68     		ldr	r3, [r3, #8]
 1569 0058 002B     		cmp	r3, #0
 1570 005a 05D0     		beq	.L85
 1571              		.loc 2 567 0
 1572 005c BDF81430 		ldrh	r3, [sp, #20]	@ movhi
ARM GAS  /tmp/ccyM3aPD.s 			page 29


 1573 0060 43F02003 		orr	r3, r3, #32
 1574 0064 ADF81430 		strh	r3, [sp, #20]	@ movhi
 1575              	.L85:
 1576              		.loc 2 570 0
 1577 0068 049B     		ldr	r3, [sp, #16]
 1578 006a DB68     		ldr	r3, [r3, #12]
 1579 006c 002B     		cmp	r3, #0
 1580 006e 05D0     		beq	.L86
 1581              		.loc 2 571 0
 1582 0070 BDF81430 		ldrh	r3, [sp, #20]	@ movhi
 1583 0074 43F40053 		orr	r3, r3, #8192
 1584 0078 ADF81430 		strh	r3, [sp, #20]	@ movhi
 1585              	.L86:
 1586              		.loc 2 574 0
 1587 007c 344A     		ldr	r2, .L91
 1588 007e 9DF80310 		ldrb	r1, [sp, #3]	@ zero_extendqisi2
 1589 0082 BDF81400 		ldrh	r0, [sp, #20]
 1590 0086 9DF80330 		ldrb	r3, [sp, #3]	@ zero_extendqisi2
 1591 008a 0343     		orrs	r3, r3, r0
 1592 008c 23F4F043 		bic	r3, r3, #30720
 1593 0090 23F07003 		bic	r3, r3, #112
 1594 0094 42F82130 		str	r3, [r2, r1, lsl #2]
 1595              		.loc 2 575 0
 1596 0098 2D4A     		ldr	r2, .L91
 1597 009a 9DF80310 		ldrb	r1, [sp, #3]	@ zero_extendqisi2
 1598 009e 2C4B     		ldr	r3, .L91
 1599 00a0 9DF80300 		ldrb	r0, [sp, #3]	@ zero_extendqisi2
 1600 00a4 53F82000 		ldr	r0, [r3, r0, lsl #2]
 1601 00a8 BDF81440 		ldrh	r4, [sp, #20]
 1602 00ac 47F67003 		movw	r3, #30832
 1603 00b0 2340     		ands	r3, r3, r4
 1604 00b2 4340     		eors	r3, r3, r0
 1605 00b4 42F82130 		str	r3, [r2, r1, lsl #2]
 1606              		.loc 2 578 0
 1607 00b8 049B     		ldr	r3, [sp, #16]
 1608 00ba 5B8A     		ldrh	r3, [r3, #18]
 1609 00bc 3E2B     		cmp	r3, #62
 1610 00be 13D9     		bls	.L87
 1611              		.loc 2 579 0
 1612 00c0 049B     		ldr	r3, [sp, #16]
 1613 00c2 5B8A     		ldrh	r3, [r3, #18]
 1614 00c4 013B     		subs	r3, r3, #1
 1615 00c6 43F01F03 		orr	r3, r3, #31
 1616 00ca 0133     		adds	r3, r3, #1
 1617 00cc 002B     		cmp	r3, #0
 1618 00ce 00DA     		bge	.L88
 1619 00d0 1F33     		adds	r3, r3, #31
 1620              	.L88:
 1621 00d2 5B11     		asrs	r3, r3, #5
 1622 00d4 9B02     		lsls	r3, r3, #10
 1623 00d6 9BB2     		uxth	r3, r3
 1624 00d8 6FEA4343 		mvn	r3, r3, lsl #17
 1625 00dc 6FEA5343 		mvn	r3, r3, lsr #17
 1626 00e0 9BB2     		uxth	r3, r3
 1627 00e2 ADF81630 		strh	r3, [sp, #22]	@ movhi
 1628 00e6 0CE0     		b	.L89
 1629              	.L87:
ARM GAS  /tmp/ccyM3aPD.s 			page 30


 1630              		.loc 2 582 0
 1631 00e8 049B     		ldr	r3, [sp, #16]
 1632 00ea 5B8A     		ldrh	r3, [r3, #18]
 1633 00ec 013B     		subs	r3, r3, #1
 1634 00ee 43F00103 		orr	r3, r3, #1
 1635 00f2 0133     		adds	r3, r3, #1
 1636 00f4 DA0F     		lsrs	r2, r3, #31
 1637 00f6 1344     		add	r3, r3, r2
 1638 00f8 5B10     		asrs	r3, r3, #1
 1639 00fa 9BB2     		uxth	r3, r3
 1640 00fc 9B02     		lsls	r3, r3, #10
 1641 00fe ADF81630 		strh	r3, [sp, #22]	@ movhi
 1642              	.L89:
 1643              		.loc 2 583 0
 1644 0102 134B     		ldr	r3, .L91
 1645 0104 1A6D     		ldr	r2, [r3, #80]
 1646 0106 9DF80330 		ldrb	r3, [sp, #3]	@ zero_extendqisi2
 1647 010a DB00     		lsls	r3, r3, #3
 1648 010c 1344     		add	r3, r3, r2
 1649 010e 03F10053 		add	r3, r3, #536870912
 1650 0112 03F54053 		add	r3, r3, #12288
 1651 0116 5B00     		lsls	r3, r3, #1
 1652 0118 0393     		str	r3, [sp, #12]
 1653              		.loc 2 584 0
 1654 011a 039B     		ldr	r3, [sp, #12]
 1655 011c 0022     		movs	r2, #0
 1656 011e 9A80     		strh	r2, [r3, #4]	@ movhi
 1657              		.loc 2 585 0
 1658 0120 039B     		ldr	r3, [sp, #12]
 1659 0122 BDF81620 		ldrh	r2, [sp, #22]	@ movhi
 1660 0126 9A81     		strh	r2, [r3, #12]	@ movhi
 1661              		.loc 2 586 0
 1662 0128 049B     		ldr	r3, [sp, #16]
 1663 012a 1B8A     		ldrh	r3, [r3, #16]
 1664 012c 0198     		ldr	r0, [sp, #4]
 1665 012e 1946     		mov	r1, r3
 1666 0130 FFF7FEFF 		bl	usb_pm_alloc
 1667 0134 0246     		mov	r2, r0
 1668 0136 039B     		ldr	r3, [sp, #12]
 1669 0138 1A60     		str	r2, [r3]
 1670              		.loc 2 587 0
 1671 013a 049B     		ldr	r3, [sp, #16]
 1672 013c 5B8A     		ldrh	r3, [r3, #18]
 1673 013e 0198     		ldr	r0, [sp, #4]
 1674 0140 1946     		mov	r1, r3
 1675 0142 FFF7FEFF 		bl	usb_pm_alloc
 1676 0146 0246     		mov	r2, r0
 1677 0148 039B     		ldr	r3, [sp, #12]
 1678 014a 9A60     		str	r2, [r3, #8]
 1679              		.loc 2 588 0
 1680 014c 06B0     		add	sp, sp, #24
 1681              		@ sp needed
 1682 014e 10BD     		pop	{r4, pc}
 1683              	.L92:
 1684              		.align	2
 1685              	.L91:
 1686 0150 005C0040 		.word	1073765376
ARM GAS  /tmp/ccyM3aPD.s 			page 31


 1687              		.cfi_endproc
 1688              	.LFE131:
 1689              		.size	usb_lld_init_endpoint, .-usb_lld_init_endpoint
 1690 0154 AFF30080 		.section	.text.usb_lld_disable_endpoints,"ax",%progbits
 1690      AFF30080 
 1690      AFF30080 
 1691              		.align	2
 1692              		.p2align 4,,15
 1693              		.global	usb_lld_disable_endpoints
 1694              		.thumb
 1695              		.thumb_func
 1696              		.type	usb_lld_disable_endpoints, %function
 1697              	usb_lld_disable_endpoints:
 1698              	.LFB132:
 1699              		.loc 2 597 0
 1700              		.cfi_startproc
 1701              		@ args = 0, pretend = 0, frame = 16
 1702              		@ frame_needed = 0, uses_anonymous_args = 0
 1703 0000 00B5     		push	{lr}
 1704              		.cfi_def_cfa_offset 4
 1705              		.cfi_offset 14, -4
 1706 0002 85B0     		sub	sp, sp, #20
 1707              		.cfi_def_cfa_offset 24
 1708 0004 0190     		str	r0, [sp, #4]
 1709              		.loc 2 601 0
 1710 0006 0198     		ldr	r0, [sp, #4]
 1711 0008 FFF7FEFF 		bl	usb_pm_reset
 1712              		.loc 2 604 0
 1713 000c 0123     		movs	r3, #1
 1714 000e 0393     		str	r3, [sp, #12]
 1715 0010 0FE0     		b	.L94
 1716              	.L95:
 1717              		.loc 2 605 0 discriminator 2
 1718 0012 0B4B     		ldr	r3, .L96
 1719 0014 0A4A     		ldr	r2, .L96
 1720 0016 0399     		ldr	r1, [sp, #12]
 1721 0018 52F82110 		ldr	r1, [r2, r1, lsl #2]
 1722 001c 039A     		ldr	r2, [sp, #12]
 1723 001e 43F82210 		str	r1, [r3, r2, lsl #2]
 1724              		.loc 2 606 0 discriminator 2
 1725 0022 074B     		ldr	r3, .L96
 1726 0024 039A     		ldr	r2, [sp, #12]
 1727 0026 0021     		movs	r1, #0
 1728 0028 43F82210 		str	r1, [r3, r2, lsl #2]
 1729              		.loc 2 604 0 discriminator 2
 1730 002c 039B     		ldr	r3, [sp, #12]
 1731 002e 0133     		adds	r3, r3, #1
 1732 0030 0393     		str	r3, [sp, #12]
 1733              	.L94:
 1734              		.loc 2 604 0 is_stmt 0 discriminator 1
 1735 0032 039B     		ldr	r3, [sp, #12]
 1736 0034 072B     		cmp	r3, #7
 1737 0036 ECD9     		bls	.L95
 1738              		.loc 2 608 0 is_stmt 1
 1739 0038 05B0     		add	sp, sp, #20
 1740              		@ sp needed
 1741 003a 5DF804FB 		ldr	pc, [sp], #4
ARM GAS  /tmp/ccyM3aPD.s 			page 32


 1742              	.L97:
 1743 003e 00BF     		.align	2
 1744              	.L96:
 1745 0040 005C0040 		.word	1073765376
 1746              		.cfi_endproc
 1747              	.LFE132:
 1748              		.size	usb_lld_disable_endpoints, .-usb_lld_disable_endpoints
 1749 0044 AFF30080 		.section	.text.usb_lld_get_status_out,"ax",%progbits
 1749      AFF30080 
 1749      AFF30080 
 1750              		.align	2
 1751              		.p2align 4,,15
 1752              		.global	usb_lld_get_status_out
 1753              		.thumb
 1754              		.thumb_func
 1755              		.type	usb_lld_get_status_out, %function
 1756              	usb_lld_get_status_out:
 1757              	.LFB133:
 1758              		.loc 2 622 0
 1759              		.cfi_startproc
 1760              		@ args = 0, pretend = 0, frame = 8
 1761              		@ frame_needed = 0, uses_anonymous_args = 0
 1762              		@ link register save eliminated.
 1763 0000 82B0     		sub	sp, sp, #8
 1764              		.cfi_def_cfa_offset 8
 1765 0002 0190     		str	r0, [sp, #4]
 1766 0004 0B46     		mov	r3, r1
 1767 0006 8DF80330 		strb	r3, [sp, #3]
 1768              		.loc 2 625 0
 1769 000a 0A4B     		ldr	r3, .L104
 1770 000c 9DF80320 		ldrb	r2, [sp, #3]	@ zero_extendqisi2
 1771 0010 53F82230 		ldr	r3, [r3, r2, lsl #2]
 1772 0014 03F44053 		and	r3, r3, #12288
 1773 0018 002B     		cmp	r3, #0
 1774 001a 03D0     		beq	.L100
 1775 001c B3F5805F 		cmp	r3, #4096
 1776 0020 02D0     		beq	.L101
 1777 0022 03E0     		b	.L103
 1778              	.L100:
 1779              		.loc 2 627 0
 1780 0024 0023     		movs	r3, #0
 1781 0026 02E0     		b	.L102
 1782              	.L101:
 1783              		.loc 2 629 0
 1784 0028 0123     		movs	r3, #1
 1785 002a 00E0     		b	.L102
 1786              	.L103:
 1787              		.loc 2 631 0
 1788 002c 0223     		movs	r3, #2
 1789              	.L102:
 1790              		.loc 2 633 0
 1791 002e 1846     		mov	r0, r3
 1792 0030 02B0     		add	sp, sp, #8
 1793              		@ sp needed
 1794 0032 7047     		bx	lr
 1795              	.L105:
 1796              		.align	2
ARM GAS  /tmp/ccyM3aPD.s 			page 33


 1797              	.L104:
 1798 0034 005C0040 		.word	1073765376
 1799              		.cfi_endproc
 1800              	.LFE133:
 1801              		.size	usb_lld_get_status_out, .-usb_lld_get_status_out
 1802 0038 AFF30080 		.section	.text.usb_lld_get_status_in,"ax",%progbits
 1802      AFF30080 
 1803              		.align	2
 1804              		.p2align 4,,15
 1805              		.global	usb_lld_get_status_in
 1806              		.thumb
 1807              		.thumb_func
 1808              		.type	usb_lld_get_status_in, %function
 1809              	usb_lld_get_status_in:
 1810              	.LFB134:
 1811              		.loc 2 647 0
 1812              		.cfi_startproc
 1813              		@ args = 0, pretend = 0, frame = 8
 1814              		@ frame_needed = 0, uses_anonymous_args = 0
 1815              		@ link register save eliminated.
 1816 0000 82B0     		sub	sp, sp, #8
 1817              		.cfi_def_cfa_offset 8
 1818 0002 0190     		str	r0, [sp, #4]
 1819 0004 0B46     		mov	r3, r1
 1820 0006 8DF80330 		strb	r3, [sp, #3]
 1821              		.loc 2 650 0
 1822 000a 0A4B     		ldr	r3, .L112
 1823 000c 9DF80320 		ldrb	r2, [sp, #3]	@ zero_extendqisi2
 1824 0010 53F82230 		ldr	r3, [r3, r2, lsl #2]
 1825 0014 03F03003 		and	r3, r3, #48
 1826 0018 002B     		cmp	r3, #0
 1827 001a 02D0     		beq	.L108
 1828 001c 102B     		cmp	r3, #16
 1829 001e 02D0     		beq	.L109
 1830 0020 03E0     		b	.L111
 1831              	.L108:
 1832              		.loc 2 652 0
 1833 0022 0023     		movs	r3, #0
 1834 0024 02E0     		b	.L110
 1835              	.L109:
 1836              		.loc 2 654 0
 1837 0026 0123     		movs	r3, #1
 1838 0028 00E0     		b	.L110
 1839              	.L111:
 1840              		.loc 2 656 0
 1841 002a 0223     		movs	r3, #2
 1842              	.L110:
 1843              		.loc 2 658 0
 1844 002c 1846     		mov	r0, r3
 1845 002e 02B0     		add	sp, sp, #8
 1846              		@ sp needed
 1847 0030 7047     		bx	lr
 1848              	.L113:
 1849 0032 00BF     		.align	2
 1850              	.L112:
 1851 0034 005C0040 		.word	1073765376
 1852              		.cfi_endproc
ARM GAS  /tmp/ccyM3aPD.s 			page 34


 1853              	.LFE134:
 1854              		.size	usb_lld_get_status_in, .-usb_lld_get_status_in
 1855 0038 AFF30080 		.section	.text.usb_lld_read_setup,"ax",%progbits
 1855      AFF30080 
 1856              		.align	2
 1857              		.p2align 4,,15
 1858              		.global	usb_lld_read_setup
 1859              		.thumb
 1860              		.thumb_func
 1861              		.type	usb_lld_read_setup, %function
 1862              	usb_lld_read_setup:
 1863              	.LFB135:
 1864              		.loc 2 674 0
 1865              		.cfi_startproc
 1866              		@ args = 0, pretend = 0, frame = 32
 1867              		@ frame_needed = 0, uses_anonymous_args = 0
 1868              		@ link register save eliminated.
 1869 0000 88B0     		sub	sp, sp, #32
 1870              		.cfi_def_cfa_offset 32
 1871 0002 0390     		str	r0, [sp, #12]
 1872 0004 0B46     		mov	r3, r1
 1873 0006 0192     		str	r2, [sp, #4]
 1874 0008 8DF80B30 		strb	r3, [sp, #11]
 1875              		.loc 2 680 0
 1876 000c 144B     		ldr	r3, .L117
 1877 000e 1A6D     		ldr	r2, [r3, #80]
 1878 0010 9DF80B30 		ldrb	r3, [sp, #11]	@ zero_extendqisi2
 1879 0014 DB00     		lsls	r3, r3, #3
 1880 0016 1344     		add	r3, r3, r2
 1881 0018 03F10053 		add	r3, r3, #536870912
 1882 001c 03F54053 		add	r3, r3, #12288
 1883 0020 5B00     		lsls	r3, r3, #1
 1884 0022 0593     		str	r3, [sp, #20]
 1885              		.loc 2 681 0
 1886 0024 059B     		ldr	r3, [sp, #20]
 1887 0026 9B68     		ldr	r3, [r3, #8]
 1888 0028 03F10053 		add	r3, r3, #536870912
 1889 002c 03F54053 		add	r3, r3, #12288
 1890 0030 5B00     		lsls	r3, r3, #1
 1891 0032 0793     		str	r3, [sp, #28]
 1892              		.loc 2 682 0
 1893 0034 0023     		movs	r3, #0
 1894 0036 0693     		str	r3, [sp, #24]
 1895 0038 0CE0     		b	.L115
 1896              	.L116:
 1897              		.loc 2 683 0 discriminator 2
 1898 003a 079B     		ldr	r3, [sp, #28]
 1899 003c 1A1D     		adds	r2, r3, #4
 1900 003e 0792     		str	r2, [sp, #28]
 1901 0040 1B68     		ldr	r3, [r3]
 1902 0042 9AB2     		uxth	r2, r3
 1903 0044 019B     		ldr	r3, [sp, #4]
 1904 0046 1A80     		strh	r2, [r3]	@ movhi
 1905              		.loc 2 684 0 discriminator 2
 1906 0048 019B     		ldr	r3, [sp, #4]
 1907 004a 0233     		adds	r3, r3, #2
 1908 004c 0193     		str	r3, [sp, #4]
ARM GAS  /tmp/ccyM3aPD.s 			page 35


 1909              		.loc 2 682 0 discriminator 2
 1910 004e 069B     		ldr	r3, [sp, #24]
 1911 0050 0133     		adds	r3, r3, #1
 1912 0052 0693     		str	r3, [sp, #24]
 1913              	.L115:
 1914              		.loc 2 682 0 is_stmt 0 discriminator 1
 1915 0054 069B     		ldr	r3, [sp, #24]
 1916 0056 032B     		cmp	r3, #3
 1917 0058 EFD9     		bls	.L116
 1918              		.loc 2 686 0 is_stmt 1
 1919 005a 08B0     		add	sp, sp, #32
 1920              		@ sp needed
 1921 005c 7047     		bx	lr
 1922              	.L118:
 1923 005e 00BF     		.align	2
 1924              	.L117:
 1925 0060 005C0040 		.word	1073765376
 1926              		.cfi_endproc
 1927              	.LFE135:
 1928              		.size	usb_lld_read_setup, .-usb_lld_read_setup
 1929 0064 AFF30080 		.section	.text.usb_lld_prepare_receive,"ax",%progbits
 1929      AFF30080 
 1929      AFF30080 
 1930              		.align	2
 1931              		.p2align 4,,15
 1932              		.global	usb_lld_prepare_receive
 1933              		.thumb
 1934              		.thumb_func
 1935              		.type	usb_lld_prepare_receive, %function
 1936              	usb_lld_prepare_receive:
 1937              	.LFB136:
 1938              		.loc 2 696 0
 1939              		.cfi_startproc
 1940              		@ args = 0, pretend = 0, frame = 16
 1941              		@ frame_needed = 0, uses_anonymous_args = 0
 1942              		@ link register save eliminated.
 1943 0000 84B0     		sub	sp, sp, #16
 1944              		.cfi_def_cfa_offset 16
 1945 0002 0190     		str	r0, [sp, #4]
 1946 0004 0B46     		mov	r3, r1
 1947 0006 8DF80330 		strb	r3, [sp, #3]
 1948              		.loc 2 697 0
 1949 000a 9DF80330 		ldrb	r3, [sp, #3]	@ zero_extendqisi2
 1950 000e 019A     		ldr	r2, [sp, #4]
 1951 0010 0233     		adds	r3, r3, #2
 1952 0012 9B00     		lsls	r3, r3, #2
 1953 0014 1344     		add	r3, r3, r2
 1954 0016 5B68     		ldr	r3, [r3, #4]
 1955 0018 9B69     		ldr	r3, [r3, #24]
 1956 001a 0393     		str	r3, [sp, #12]
 1957              		.loc 2 700 0
 1958 001c 039B     		ldr	r3, [sp, #12]
 1959 001e 5B68     		ldr	r3, [r3, #4]
 1960 0020 002B     		cmp	r3, #0
 1961 0022 03D1     		bne	.L120
 1962              		.loc 2 701 0
 1963 0024 039B     		ldr	r3, [sp, #12]
ARM GAS  /tmp/ccyM3aPD.s 			page 36


 1964 0026 0122     		movs	r2, #1
 1965 0028 1A82     		strh	r2, [r3, #16]	@ movhi
 1966 002a 18E0     		b	.L119
 1967              	.L120:
 1968              		.loc 2 703 0
 1969 002c 039B     		ldr	r3, [sp, #12]
 1970 002e 5A68     		ldr	r2, [r3, #4]
 1971 0030 9DF80330 		ldrb	r3, [sp, #3]	@ zero_extendqisi2
 1972 0034 0199     		ldr	r1, [sp, #4]
 1973 0036 0233     		adds	r3, r3, #2
 1974 0038 9B00     		lsls	r3, r3, #2
 1975 003a 0B44     		add	r3, r3, r1
 1976 003c 5B68     		ldr	r3, [r3, #4]
 1977 003e 5B8A     		ldrh	r3, [r3, #18]
 1978 0040 1344     		add	r3, r3, r2
 1979 0042 5A1E     		subs	r2, r3, #1
 1980              		.loc 2 704 0
 1981 0044 9DF80330 		ldrb	r3, [sp, #3]	@ zero_extendqisi2
 1982 0048 0199     		ldr	r1, [sp, #4]
 1983 004a 0233     		adds	r3, r3, #2
 1984 004c 9B00     		lsls	r3, r3, #2
 1985 004e 0B44     		add	r3, r3, r1
 1986 0050 5B68     		ldr	r3, [r3, #4]
 1987 0052 5B8A     		ldrh	r3, [r3, #18]
 1988              		.loc 2 703 0
 1989 0054 B2FBF3F3 		udiv	r3, r2, r3
 1990 0058 9AB2     		uxth	r2, r3
 1991 005a 039B     		ldr	r3, [sp, #12]
 1992 005c 1A82     		strh	r2, [r3, #16]	@ movhi
 1993              	.L119:
 1994              		.loc 2 705 0
 1995 005e 04B0     		add	sp, sp, #16
 1996              		@ sp needed
 1997 0060 7047     		bx	lr
 1998              		.cfi_endproc
 1999              	.LFE136:
 2000              		.size	usb_lld_prepare_receive, .-usb_lld_prepare_receive
 2001 0062 00BFAFF3 		.section	.text.usb_lld_prepare_transmit,"ax",%progbits
 2001      0080AFF3 
 2001      0080AFF3 
 2001      0080
 2002              		.align	2
 2003              		.p2align 4,,15
 2004              		.global	usb_lld_prepare_transmit
 2005              		.thumb
 2006              		.thumb_func
 2007              		.type	usb_lld_prepare_transmit, %function
 2008              	usb_lld_prepare_transmit:
 2009              	.LFB137:
 2010              		.loc 2 715 0
 2011              		.cfi_startproc
 2012              		@ args = 0, pretend = 0, frame = 16
 2013              		@ frame_needed = 0, uses_anonymous_args = 0
 2014 0000 00B5     		push	{lr}
 2015              		.cfi_def_cfa_offset 4
 2016              		.cfi_offset 14, -4
 2017 0002 85B0     		sub	sp, sp, #20
ARM GAS  /tmp/ccyM3aPD.s 			page 37


 2018              		.cfi_def_cfa_offset 24
 2019 0004 0190     		str	r0, [sp, #4]
 2020 0006 0B46     		mov	r3, r1
 2021 0008 8DF80330 		strb	r3, [sp, #3]
 2022              		.loc 2 717 0
 2023 000c 9DF80330 		ldrb	r3, [sp, #3]	@ zero_extendqisi2
 2024 0010 019A     		ldr	r2, [sp, #4]
 2025 0012 0233     		adds	r3, r3, #2
 2026 0014 9B00     		lsls	r3, r3, #2
 2027 0016 1344     		add	r3, r3, r2
 2028 0018 5B68     		ldr	r3, [r3, #4]
 2029 001a 5B69     		ldr	r3, [r3, #20]
 2030 001c 0293     		str	r3, [sp, #8]
 2031              		.loc 2 720 0
 2032 001e 029B     		ldr	r3, [sp, #8]
 2033 0020 5B68     		ldr	r3, [r3, #4]
 2034 0022 0393     		str	r3, [sp, #12]
 2035              		.loc 2 721 0
 2036 0024 9DF80330 		ldrb	r3, [sp, #3]	@ zero_extendqisi2
 2037 0028 019A     		ldr	r2, [sp, #4]
 2038 002a 0233     		adds	r3, r3, #2
 2039 002c 9B00     		lsls	r3, r3, #2
 2040 002e 1344     		add	r3, r3, r2
 2041 0030 5B68     		ldr	r3, [r3, #4]
 2042 0032 1B8A     		ldrh	r3, [r3, #16]
 2043 0034 1A46     		mov	r2, r3
 2044 0036 039B     		ldr	r3, [sp, #12]
 2045 0038 9A42     		cmp	r2, r3
 2046 003a 08D2     		bcs	.L123
 2047              		.loc 2 722 0
 2048 003c 9DF80330 		ldrb	r3, [sp, #3]	@ zero_extendqisi2
 2049 0040 019A     		ldr	r2, [sp, #4]
 2050 0042 0233     		adds	r3, r3, #2
 2051 0044 9B00     		lsls	r3, r3, #2
 2052 0046 1344     		add	r3, r3, r2
 2053 0048 5B68     		ldr	r3, [r3, #4]
 2054 004a 1B8A     		ldrh	r3, [r3, #16]
 2055 004c 0393     		str	r3, [sp, #12]
 2056              	.L123:
 2057              		.loc 2 724 0
 2058 004e 029B     		ldr	r3, [sp, #8]
 2059 0050 1B78     		ldrb	r3, [r3]	@ zero_extendqisi2
 2060 0052 002B     		cmp	r3, #0
 2061 0054 13D0     		beq	.L124
 2062              		.loc 2 725 0
 2063 0056 154B     		ldr	r3, .L126
 2064 0058 1A6D     		ldr	r2, [r3, #80]
 2065 005a 9DF80330 		ldrb	r3, [sp, #3]	@ zero_extendqisi2
 2066 005e DB00     		lsls	r3, r3, #3
 2067 0060 1344     		add	r3, r3, r2
 2068 0062 03F10053 		add	r3, r3, #536870912
 2069 0066 03F54053 		add	r3, r3, #12288
 2070 006a 5B00     		lsls	r3, r3, #1
 2071 006c 1A46     		mov	r2, r3
 2072 006e 029B     		ldr	r3, [sp, #8]
 2073 0070 DB68     		ldr	r3, [r3, #12]
 2074 0072 1046     		mov	r0, r2
ARM GAS  /tmp/ccyM3aPD.s 			page 38


 2075 0074 1946     		mov	r1, r3
 2076 0076 039A     		ldr	r2, [sp, #12]
 2077 0078 FFF7FEFF 		bl	usb_packet_write_from_queue
 2078 007c 12E0     		b	.L122
 2079              	.L124:
 2080              		.loc 2 728 0
 2081 007e 0B4B     		ldr	r3, .L126
 2082 0080 1A6D     		ldr	r2, [r3, #80]
 2083 0082 9DF80330 		ldrb	r3, [sp, #3]	@ zero_extendqisi2
 2084 0086 DB00     		lsls	r3, r3, #3
 2085 0088 1344     		add	r3, r3, r2
 2086 008a 03F10053 		add	r3, r3, #536870912
 2087 008e 03F54053 		add	r3, r3, #12288
 2088 0092 5B00     		lsls	r3, r3, #1
 2089 0094 1A46     		mov	r2, r3
 2090 0096 029B     		ldr	r3, [sp, #8]
 2091 0098 DB68     		ldr	r3, [r3, #12]
 2092 009a 1046     		mov	r0, r2
 2093 009c 1946     		mov	r1, r3
 2094 009e 039A     		ldr	r2, [sp, #12]
 2095 00a0 FFF7FEFF 		bl	usb_packet_write_from_buffer
 2096              	.L122:
 2097              		.loc 2 730 0
 2098 00a4 05B0     		add	sp, sp, #20
 2099              		@ sp needed
 2100 00a6 5DF804FB 		ldr	pc, [sp], #4
 2101              	.L127:
 2102 00aa 00BF     		.align	2
 2103              	.L126:
 2104 00ac 005C0040 		.word	1073765376
 2105              		.cfi_endproc
 2106              	.LFE137:
 2107              		.size	usb_lld_prepare_transmit, .-usb_lld_prepare_transmit
 2108              		.section	.text.usb_lld_start_out,"ax",%progbits
 2109              		.align	2
 2110              		.p2align 4,,15
 2111              		.global	usb_lld_start_out
 2112              		.thumb
 2113              		.thumb_func
 2114              		.type	usb_lld_start_out, %function
 2115              	usb_lld_start_out:
 2116              	.LFB138:
 2117              		.loc 2 740 0
 2118              		.cfi_startproc
 2119              		@ args = 0, pretend = 0, frame = 8
 2120              		@ frame_needed = 0, uses_anonymous_args = 0
 2121              		@ link register save eliminated.
 2122 0000 82B0     		sub	sp, sp, #8
 2123              		.cfi_def_cfa_offset 8
 2124 0002 0190     		str	r0, [sp, #4]
 2125 0004 0B46     		mov	r3, r1
 2126 0006 8DF80330 		strb	r3, [sp, #3]
 2127              		.loc 2 744 0
 2128 000a 094A     		ldr	r2, .L129
 2129 000c 9DF80310 		ldrb	r1, [sp, #3]	@ zero_extendqisi2
 2130 0010 074B     		ldr	r3, .L129
 2131 0012 9DF80300 		ldrb	r0, [sp, #3]	@ zero_extendqisi2
ARM GAS  /tmp/ccyM3aPD.s 			page 39


 2132 0016 53F82030 		ldr	r3, [r3, r0, lsl #2]
 2133 001a 23F49043 		bic	r3, r3, #18432
 2134 001e 23F07003 		bic	r3, r3, #112
 2135 0022 83F44053 		eor	r3, r3, #12288
 2136 0026 42F82130 		str	r3, [r2, r1, lsl #2]
 2137              		.loc 2 745 0
 2138 002a 02B0     		add	sp, sp, #8
 2139              		@ sp needed
 2140 002c 7047     		bx	lr
 2141              	.L130:
 2142 002e 00BF     		.align	2
 2143              	.L129:
 2144 0030 005C0040 		.word	1073765376
 2145              		.cfi_endproc
 2146              	.LFE138:
 2147              		.size	usb_lld_start_out, .-usb_lld_start_out
 2148 0034 AFF30080 		.section	.text.usb_lld_start_in,"ax",%progbits
 2148      AFF30080 
 2148      AFF30080 
 2149              		.align	2
 2150              		.p2align 4,,15
 2151              		.global	usb_lld_start_in
 2152              		.thumb
 2153              		.thumb_func
 2154              		.type	usb_lld_start_in, %function
 2155              	usb_lld_start_in:
 2156              	.LFB139:
 2157              		.loc 2 755 0
 2158              		.cfi_startproc
 2159              		@ args = 0, pretend = 0, frame = 8
 2160              		@ frame_needed = 0, uses_anonymous_args = 0
 2161              		@ link register save eliminated.
 2162 0000 82B0     		sub	sp, sp, #8
 2163              		.cfi_def_cfa_offset 8
 2164 0002 0190     		str	r0, [sp, #4]
 2165 0004 0B46     		mov	r3, r1
 2166 0006 8DF80330 		strb	r3, [sp, #3]
 2167              		.loc 2 759 0
 2168 000a 094A     		ldr	r2, .L132
 2169 000c 9DF80310 		ldrb	r1, [sp, #3]	@ zero_extendqisi2
 2170 0010 074B     		ldr	r3, .L132
 2171 0012 9DF80300 		ldrb	r0, [sp, #3]	@ zero_extendqisi2
 2172 0016 53F82030 		ldr	r3, [r3, r0, lsl #2]
 2173 001a 23F4F043 		bic	r3, r3, #30720
 2174 001e 23F04003 		bic	r3, r3, #64
 2175 0022 83F03003 		eor	r3, r3, #48
 2176 0026 42F82130 		str	r3, [r2, r1, lsl #2]
 2177              		.loc 2 760 0
 2178 002a 02B0     		add	sp, sp, #8
 2179              		@ sp needed
 2180 002c 7047     		bx	lr
 2181              	.L133:
 2182 002e 00BF     		.align	2
 2183              	.L132:
 2184 0030 005C0040 		.word	1073765376
 2185              		.cfi_endproc
 2186              	.LFE139:
ARM GAS  /tmp/ccyM3aPD.s 			page 40


 2187              		.size	usb_lld_start_in, .-usb_lld_start_in
 2188 0034 AFF30080 		.section	.text.usb_lld_stall_out,"ax",%progbits
 2188      AFF30080 
 2188      AFF30080 
 2189              		.align	2
 2190              		.p2align 4,,15
 2191              		.global	usb_lld_stall_out
 2192              		.thumb
 2193              		.thumb_func
 2194              		.type	usb_lld_stall_out, %function
 2195              	usb_lld_stall_out:
 2196              	.LFB140:
 2197              		.loc 2 770 0
 2198              		.cfi_startproc
 2199              		@ args = 0, pretend = 0, frame = 8
 2200              		@ frame_needed = 0, uses_anonymous_args = 0
 2201              		@ link register save eliminated.
 2202 0000 82B0     		sub	sp, sp, #8
 2203              		.cfi_def_cfa_offset 8
 2204 0002 0190     		str	r0, [sp, #4]
 2205 0004 0B46     		mov	r3, r1
 2206 0006 8DF80330 		strb	r3, [sp, #3]
 2207              		.loc 2 774 0
 2208 000a 094A     		ldr	r2, .L135
 2209 000c 9DF80310 		ldrb	r1, [sp, #3]	@ zero_extendqisi2
 2210 0010 074B     		ldr	r3, .L135
 2211 0012 9DF80300 		ldrb	r0, [sp, #3]	@ zero_extendqisi2
 2212 0016 53F82030 		ldr	r3, [r3, r0, lsl #2]
 2213 001a 23F49043 		bic	r3, r3, #18432
 2214 001e 23F07003 		bic	r3, r3, #112
 2215 0022 83F48053 		eor	r3, r3, #4096
 2216 0026 42F82130 		str	r3, [r2, r1, lsl #2]
 2217              		.loc 2 775 0
 2218 002a 02B0     		add	sp, sp, #8
 2219              		@ sp needed
 2220 002c 7047     		bx	lr
 2221              	.L136:
 2222 002e 00BF     		.align	2
 2223              	.L135:
 2224 0030 005C0040 		.word	1073765376
 2225              		.cfi_endproc
 2226              	.LFE140:
 2227              		.size	usb_lld_stall_out, .-usb_lld_stall_out
 2228 0034 AFF30080 		.section	.text.usb_lld_stall_in,"ax",%progbits
 2228      AFF30080 
 2228      AFF30080 
 2229              		.align	2
 2230              		.p2align 4,,15
 2231              		.global	usb_lld_stall_in
 2232              		.thumb
 2233              		.thumb_func
 2234              		.type	usb_lld_stall_in, %function
 2235              	usb_lld_stall_in:
 2236              	.LFB141:
 2237              		.loc 2 785 0
 2238              		.cfi_startproc
 2239              		@ args = 0, pretend = 0, frame = 8
ARM GAS  /tmp/ccyM3aPD.s 			page 41


 2240              		@ frame_needed = 0, uses_anonymous_args = 0
 2241              		@ link register save eliminated.
 2242 0000 82B0     		sub	sp, sp, #8
 2243              		.cfi_def_cfa_offset 8
 2244 0002 0190     		str	r0, [sp, #4]
 2245 0004 0B46     		mov	r3, r1
 2246 0006 8DF80330 		strb	r3, [sp, #3]
 2247              		.loc 2 789 0
 2248 000a 094A     		ldr	r2, .L138
 2249 000c 9DF80310 		ldrb	r1, [sp, #3]	@ zero_extendqisi2
 2250 0010 074B     		ldr	r3, .L138
 2251 0012 9DF80300 		ldrb	r0, [sp, #3]	@ zero_extendqisi2
 2252 0016 53F82030 		ldr	r3, [r3, r0, lsl #2]
 2253 001a 23F4F043 		bic	r3, r3, #30720
 2254 001e 23F04003 		bic	r3, r3, #64
 2255 0022 83F01003 		eor	r3, r3, #16
 2256 0026 42F82130 		str	r3, [r2, r1, lsl #2]
 2257              		.loc 2 790 0
 2258 002a 02B0     		add	sp, sp, #8
 2259              		@ sp needed
 2260 002c 7047     		bx	lr
 2261              	.L139:
 2262 002e 00BF     		.align	2
 2263              	.L138:
 2264 0030 005C0040 		.word	1073765376
 2265              		.cfi_endproc
 2266              	.LFE141:
 2267              		.size	usb_lld_stall_in, .-usb_lld_stall_in
 2268 0034 AFF30080 		.section	.text.usb_lld_clear_out,"ax",%progbits
 2268      AFF30080 
 2268      AFF30080 
 2269              		.align	2
 2270              		.p2align 4,,15
 2271              		.global	usb_lld_clear_out
 2272              		.thumb
 2273              		.thumb_func
 2274              		.type	usb_lld_clear_out, %function
 2275              	usb_lld_clear_out:
 2276              	.LFB142:
 2277              		.loc 2 800 0
 2278              		.cfi_startproc
 2279              		@ args = 0, pretend = 0, frame = 8
 2280              		@ frame_needed = 0, uses_anonymous_args = 0
 2281              		@ link register save eliminated.
 2282 0000 82B0     		sub	sp, sp, #8
 2283              		.cfi_def_cfa_offset 8
 2284 0002 0190     		str	r0, [sp, #4]
 2285 0004 0B46     		mov	r3, r1
 2286 0006 8DF80330 		strb	r3, [sp, #3]
 2287              		.loc 2 806 0
 2288 000a 0E4B     		ldr	r3, .L142
 2289 000c 9DF80320 		ldrb	r2, [sp, #3]	@ zero_extendqisi2
 2290 0010 53F82230 		ldr	r3, [r3, r2, lsl #2]
 2291 0014 03F44053 		and	r3, r3, #12288
 2292 0018 B3F5405F 		cmp	r3, #12288
 2293 001c 0FD0     		beq	.L140
 2294              		.loc 2 807 0
ARM GAS  /tmp/ccyM3aPD.s 			page 42


 2295 001e 094A     		ldr	r2, .L142
 2296 0020 9DF80310 		ldrb	r1, [sp, #3]	@ zero_extendqisi2
 2297 0024 074B     		ldr	r3, .L142
 2298 0026 9DF80300 		ldrb	r0, [sp, #3]	@ zero_extendqisi2
 2299 002a 53F82030 		ldr	r3, [r3, r0, lsl #2]
 2300 002e 23F4F043 		bic	r3, r3, #30720
 2301 0032 23F04003 		bic	r3, r3, #64
 2302 0036 83F40053 		eor	r3, r3, #8192
 2303 003a 42F82130 		str	r3, [r2, r1, lsl #2]
 2304              	.L140:
 2305              		.loc 2 808 0
 2306 003e 02B0     		add	sp, sp, #8
 2307              		@ sp needed
 2308 0040 7047     		bx	lr
 2309              	.L143:
 2310 0042 00BF     		.align	2
 2311              	.L142:
 2312 0044 005C0040 		.word	1073765376
 2313              		.cfi_endproc
 2314              	.LFE142:
 2315              		.size	usb_lld_clear_out, .-usb_lld_clear_out
 2316 0048 AFF30080 		.section	.text.usb_lld_clear_in,"ax",%progbits
 2316      AFF30080 
 2317              		.align	2
 2318              		.p2align 4,,15
 2319              		.global	usb_lld_clear_in
 2320              		.thumb
 2321              		.thumb_func
 2322              		.type	usb_lld_clear_in, %function
 2323              	usb_lld_clear_in:
 2324              	.LFB143:
 2325              		.loc 2 818 0
 2326              		.cfi_startproc
 2327              		@ args = 0, pretend = 0, frame = 8
 2328              		@ frame_needed = 0, uses_anonymous_args = 0
 2329              		@ link register save eliminated.
 2330 0000 82B0     		sub	sp, sp, #8
 2331              		.cfi_def_cfa_offset 8
 2332 0002 0190     		str	r0, [sp, #4]
 2333 0004 0B46     		mov	r3, r1
 2334 0006 8DF80330 		strb	r3, [sp, #3]
 2335              		.loc 2 824 0
 2336 000a 0D4B     		ldr	r3, .L146
 2337 000c 9DF80320 		ldrb	r2, [sp, #3]	@ zero_extendqisi2
 2338 0010 53F82230 		ldr	r3, [r3, r2, lsl #2]
 2339 0014 03F03003 		and	r3, r3, #48
 2340 0018 302B     		cmp	r3, #48
 2341 001a 0FD0     		beq	.L144
 2342              		.loc 2 825 0
 2343 001c 084A     		ldr	r2, .L146
 2344 001e 9DF80310 		ldrb	r1, [sp, #3]	@ zero_extendqisi2
 2345 0022 074B     		ldr	r3, .L146
 2346 0024 9DF80300 		ldrb	r0, [sp, #3]	@ zero_extendqisi2
 2347 0028 53F82030 		ldr	r3, [r3, r0, lsl #2]
 2348 002c 23F4F043 		bic	r3, r3, #30720
 2349 0030 23F04003 		bic	r3, r3, #64
 2350 0034 83F02003 		eor	r3, r3, #32
ARM GAS  /tmp/ccyM3aPD.s 			page 43


 2351 0038 42F82130 		str	r3, [r2, r1, lsl #2]
 2352              	.L144:
 2353              		.loc 2 826 0
 2354 003c 02B0     		add	sp, sp, #8
 2355              		@ sp needed
 2356 003e 7047     		bx	lr
 2357              	.L147:
 2358              		.align	2
 2359              	.L146:
 2360 0040 005C0040 		.word	1073765376
 2361              		.cfi_endproc
 2362              	.LFE143:
 2363              		.size	usb_lld_clear_in, .-usb_lld_clear_in
 2364 0044 AFF30080 		.text
 2364      AFF30080 
 2364      AFF30080 
 2365              	.Letext0:
 2366              		.file 3 "/usr/lib/gcc/arm-none-eabi/4.8/include/stddef.h"
 2367              		.file 4 "/usr/include/newlib/machine/_default_types.h"
 2368              		.file 5 "/usr/include/newlib/stdint.h"
 2369              		.file 6 "/home/dave/r2p-sdk/core/ChibiOS/os/ports/GCC/ARMCMx/chtypes.h"
 2370              		.file 7 "/home/dave/r2p-sdk/core/ChibiOS/os/kernel/include/chlists.h"
 2371              		.file 8 "/home/dave/r2p-sdk/core/ChibiOS/os/kernel/include/chthreads.h"
 2372              		.file 9 "/home/dave/r2p-sdk/core/ChibiOS/os/ports/GCC/ARMCMx/chcore_v7m.h"
 2373              		.file 10 "/home/dave/r2p-sdk/core/ChibiOS/os/kernel/include/chmtx.h"
 2374              		.file 11 "/home/dave/r2p-sdk/core/ChibiOS/os/kernel/include/chqueues.h"
 2375              		.file 12 "/home/dave/r2p-sdk/core/ChibiOS/os/hal/platforms/STM32F30x/stm32f30x.h"
 2376              		.file 13 "/home/dave/r2p-sdk/core/ChibiOS/os/hal/include/usb.h"
 2377              		.file 14 "/home/dave/r2p-sdk/core/ChibiOS/os/hal/platforms/STM32/USBv1/usb_lld.h"
 2378              		.file 15 "/home/dave/r2p-sdk/core/ChibiOS/os/hal/platforms/STM32/USBv1/stm32_usb.h"
 2379              		.file 16 "/home/dave/r2p-sdk/core/ChibiOS/os/kernel/include/chdebug.h"
 2380              		.file 17 "/home/dave/r2p-sdk/core/ChibiOS/os/ports/common/ARMCMx/CMSIS/include/core_cm4.h"