ARM GAS  /tmp/ccyM3aPD.s 			page 1


   1              		.syntax unified
   2              		.cpu cortex-m4
   3              		.eabi_attribute 27, 3
   4              		.eabi_attribute 28, 1
   5              		.fpu fpv4-sp-d16
   6              		.eabi_attribute 20, 1
   7              		.eabi_attribute 21, 1
   8              		.eabi_attribute 23, 3
   9              		.eabi_attribute 24, 1
  10              		.eabi_attribute 25, 1
  11              		.eabi_attribute 26, 1
  12              		.eabi_attribute 30, 6
  13              		.eabi_attribute 34, 1
  14              		.eabi_attribute 18, 4
  15              		.thumb
  16              		.file	"usb_lld.c"
  17              		.text
  18              	.Ltext0:
  19              		.cfi_sections	.debug_frame
  20              		.section	.text.fifo_remove,"ax",%progbits
  21              		.align	2
  22              		.p2align 4,,15
  23              		.thumb
  24              		.thumb_func
  25              		.type	fifo_remove, %function
  26              	fifo_remove:
  27              	.LFB2:
  28              		.file 1 "/home/dave/r2p-sdk/core/ChibiOS/os/kernel/include/chinline.h"
  29              		.loc 1 59 0
  30              		.cfi_startproc
  31              		@ args = 0, pretend = 0, frame = 16
  32              		@ frame_needed = 0, uses_anonymous_args = 0
  33              		@ link register save eliminated.
  34 0000 84B0     		sub	sp, sp, #16
  35              		.cfi_def_cfa_offset 16
  36 0002 0190     		str	r0, [sp, #4]
  37              		.loc 1 60 0
  38 0004 019B     		ldr	r3, [sp, #4]
  39 0006 1B68     		ldr	r3, [r3]
  40 0008 0393     		str	r3, [sp, #12]
  41              		.loc 1 62 0
  42 000a 039B     		ldr	r3, [sp, #12]
  43 000c 1A68     		ldr	r2, [r3]
  44 000e 019B     		ldr	r3, [sp, #4]
  45 0010 1A60     		str	r2, [r3]
  46 0012 019B     		ldr	r3, [sp, #4]
  47 0014 1B68     		ldr	r3, [r3]
  48 0016 019A     		ldr	r2, [sp, #4]
  49 0018 5A60     		str	r2, [r3, #4]
  50              		.loc 1 63 0
  51 001a 039B     		ldr	r3, [sp, #12]
  52              		.loc 1 64 0
  53 001c 1846     		mov	r0, r3
  54 001e 04B0     		add	sp, sp, #16
  55              		@ sp needed
  56 0020 7047     		bx	lr
  57              		.cfi_endproc
ARM GAS  /tmp/ccyM3aPD.s 			page 2


  58              	.LFE2:
  59              		.size	fifo_remove, .-fifo_remove
  60              		.global	USBD1
  61 0022 00BFAFF3 		.section	.bss.USBD1,"aw",%nobits
  61      0080AFF3 
  61      0080AFF3 
  61      0080
  62              		.align	2
  63              		.type	USBD1, %object
  64              		.size	USBD1, 132
  65              	USBD1:
  66 0000 00000000 		.space	132
  66      00000000 
  66      00000000 
  66      00000000 
  66      00000000 
  67              		.section	.bss.ep0_state,"aw",%nobits
  68              		.align	2
  69              		.type	ep0_state, %object
  70              		.size	ep0_state, 20
  71              	ep0_state:
  72 0000 00000000 		.space	20
  72      00000000 
  72      00000000 
  72      00000000 
  72      00000000 
  73              		.section	.bss.ep0setup_buffer,"aw",%nobits
  74              		.align	2
  75              		.type	ep0setup_buffer, %object
  76              		.size	ep0setup_buffer, 8
  77              	ep0setup_buffer:
  78 0000 00000000 		.space	8
  78      00000000 
  79              		.section	.rodata.ep0config,"a",%progbits
  80              		.align	2
  81              		.type	ep0config, %object
  82              		.size	ep0config, 36
  83              	ep0config:
  84 0000 00000000 		.word	0
  85 0004 00000000 		.word	_usb_ep0setup
  86 0008 00000000 		.word	_usb_ep0in
  87 000c 00000000 		.word	_usb_ep0out
  88 0010 4000     		.short	64
  89 0012 4000     		.short	64
  90 0014 00000000 		.word	ep0_state
  91 0018 00000000 		.word	ep0_state
  92 001c 0100     		.short	1
  93 001e 0000     		.space	2
  94 0020 00000000 		.word	ep0setup_buffer
  95              		.section	.text.usb_pm_reset,"ax",%progbits
  96              		.align	2
  97              		.p2align 4,,15
  98              		.thumb
  99              		.thumb_func
 100              		.type	usb_pm_reset, %function
 101              	usb_pm_reset:
 102              	.LFB118:
ARM GAS  /tmp/ccyM3aPD.s 			page 3


 103              		.file 2 "/home/dave/r2p-sdk/core/ChibiOS/os/hal/platforms/STM32/USBv1/usb_lld.c"
 104              		.loc 2 97 0
 105              		.cfi_startproc
 106              		@ args = 0, pretend = 0, frame = 8
 107              		@ frame_needed = 0, uses_anonymous_args = 0
 108              		@ link register save eliminated.
 109 0000 82B0     		sub	sp, sp, #8
 110              		.cfi_def_cfa_offset 8
 111 0002 0190     		str	r0, [sp, #4]
 112              		.loc 2 101 0
 113 0004 019B     		ldr	r3, [sp, #4]
 114 0006 4022     		movs	r2, #64
 115 0008 C3F88020 		str	r2, [r3, #128]
 116              		.loc 2 102 0
 117 000c 02B0     		add	sp, sp, #8
 118              		@ sp needed
 119 000e 7047     		bx	lr
 120              		.cfi_endproc
 121              	.LFE118:
 122              		.size	usb_pm_reset, .-usb_pm_reset
 123              		.section	.rodata
 124              		.align	2
 125              	.LC0:
 126 0000 7573625F 		.ascii	"usb_pm_alloc(), #1\000"
 126      706D5F61 
 126      6C6C6F63 
 126      28292C20 
 126      233100
 127 0013 00       		.section	.text.usb_pm_alloc,"ax",%progbits
 128              		.align	2
 129              		.p2align 4,,15
 130              		.thumb
 131              		.thumb_func
 132              		.type	usb_pm_alloc, %function
 133              	usb_pm_alloc:
 134              	.LFB119:
 135              		.loc 2 110 0
 136              		.cfi_startproc
 137              		@ args = 0, pretend = 0, frame = 16
 138              		@ frame_needed = 0, uses_anonymous_args = 0
 139 0000 00B5     		push	{lr}
 140              		.cfi_def_cfa_offset 4
 141              		.cfi_offset 14, -4
 142 0002 85B0     		sub	sp, sp, #20
 143              		.cfi_def_cfa_offset 24
 144 0004 0190     		str	r0, [sp, #4]
 145 0006 0091     		str	r1, [sp]
 146              		.loc 2 113 0
 147 0008 019B     		ldr	r3, [sp, #4]
 148 000a D3F88030 		ldr	r3, [r3, #128]
 149 000e 0393     		str	r3, [sp, #12]
 150              		.loc 2 114 0
 151 0010 019B     		ldr	r3, [sp, #4]
 152 0012 D3F88020 		ldr	r2, [r3, #128]
 153 0016 009B     		ldr	r3, [sp]
 154 0018 1A44     		add	r2, r2, r3
 155 001a 019B     		ldr	r3, [sp, #4]
ARM GAS  /tmp/ccyM3aPD.s 			page 4


 156 001c C3F88020 		str	r2, [r3, #128]
 157              		.loc 2 115 0
 158 0020 019B     		ldr	r3, [sp, #4]
 159 0022 D3F88030 		ldr	r3, [r3, #128]
 160 0026 B3F5007F 		cmp	r3, #512
 161 002a 02D9     		bls	.L5
 162              		.loc 2 115 0 is_stmt 0 discriminator 1
 163 002c 0348     		ldr	r0, .L7
 164 002e FFF7FEFF 		bl	chDbgPanic
 165              	.L5:
 166              		.loc 2 116 0 is_stmt 1
 167 0032 039B     		ldr	r3, [sp, #12]
 168              		.loc 2 117 0
 169 0034 1846     		mov	r0, r3
 170 0036 05B0     		add	sp, sp, #20
 171              		@ sp needed
 172 0038 5DF804FB 		ldr	pc, [sp], #4
 173              	.L8:
 174              		.align	2
 175              	.L7:
 176 003c 00000000 		.word	.LC0
 177              		.cfi_endproc
 178              	.LFE119:
 179              		.size	usb_pm_alloc, .-usb_pm_alloc
 180              		.section	.text.usb_packet_read_to_buffer,"ax",%progbits
 181              		.align	2
 182              		.p2align 4,,15
 183              		.thumb
 184              		.thumb_func
 185              		.type	usb_packet_read_to_buffer, %function
 186              	usb_packet_read_to_buffer:
 187              	.LFB120:
 188              		.loc 2 130 0
 189              		.cfi_startproc
 190              		@ args = 0, pretend = 0, frame = 24
 191              		@ frame_needed = 0, uses_anonymous_args = 0
 192              		@ link register save eliminated.
 193 0000 86B0     		sub	sp, sp, #24
 194              		.cfi_def_cfa_offset 24
 195 0002 0390     		str	r0, [sp, #12]
 196 0004 0291     		str	r1, [sp, #8]
 197 0006 0192     		str	r2, [sp, #4]
 198              		.loc 2 131 0
 199 0008 039B     		ldr	r3, [sp, #12]
 200 000a 9B68     		ldr	r3, [r3, #8]
 201 000c 03F10053 		add	r3, r3, #536870912
 202 0010 03F54053 		add	r3, r3, #12288
 203 0014 5B00     		lsls	r3, r3, #1
 204 0016 0593     		str	r3, [sp, #20]
 205              		.loc 2 133 0
 206 0018 019B     		ldr	r3, [sp, #4]
 207 001a 0133     		adds	r3, r3, #1
 208 001c 5B08     		lsrs	r3, r3, #1
 209 001e 0193     		str	r3, [sp, #4]
 210              		.loc 2 134 0
 211 0020 0CE0     		b	.L10
 212              	.L11:
ARM GAS  /tmp/ccyM3aPD.s 			page 5


 213              		.loc 2 137 0
 214 0022 059B     		ldr	r3, [sp, #20]
 215 0024 1A1D     		adds	r2, r3, #4
 216 0026 0592     		str	r2, [sp, #20]
 217 0028 1B68     		ldr	r3, [r3]
 218 002a 9AB2     		uxth	r2, r3
 219 002c 029B     		ldr	r3, [sp, #8]
 220 002e 1A80     		strh	r2, [r3]	@ movhi
 221              		.loc 2 138 0
 222 0030 029B     		ldr	r3, [sp, #8]
 223 0032 0233     		adds	r3, r3, #2
 224 0034 0293     		str	r3, [sp, #8]
 225              		.loc 2 139 0
 226 0036 019B     		ldr	r3, [sp, #4]
 227 0038 013B     		subs	r3, r3, #1
 228 003a 0193     		str	r3, [sp, #4]
 229              	.L10:
 230              		.loc 2 134 0 discriminator 1
 231 003c 019B     		ldr	r3, [sp, #4]
 232 003e 002B     		cmp	r3, #0
 233 0040 EFD1     		bne	.L11
 234              		.loc 2 141 0
 235 0042 06B0     		add	sp, sp, #24
 236              		@ sp needed
 237 0044 7047     		bx	lr
 238              		.cfi_endproc
 239              	.LFE120:
 240              		.size	usb_packet_read_to_buffer, .-usb_packet_read_to_buffer
 241 0046 00BFAFF3 		.section	.text.usb_packet_read_to_queue,"ax",%progbits
 241      0080AFF3 
 241      0080
 242              		.align	2
 243              		.p2align 4,,15
 244              		.thumb
 245              		.thumb_func
 246              		.type	usb_packet_read_to_queue, %function
 247              	usb_packet_read_to_queue:
 248              	.LFB121:
 249              		.loc 2 154 0
 250              		.cfi_startproc
 251              		@ args = 0, pretend = 0, frame = 32
 252              		@ frame_needed = 0, uses_anonymous_args = 0
 253 0000 00B5     		push	{lr}
 254              		.cfi_def_cfa_offset 4
 255              		.cfi_offset 14, -4
 256 0002 89B0     		sub	sp, sp, #36
 257              		.cfi_def_cfa_offset 40
 258 0004 0390     		str	r0, [sp, #12]
 259 0006 0291     		str	r1, [sp, #8]
 260 0008 0192     		str	r2, [sp, #4]
 261              		.loc 2 156 0
 262 000a 039B     		ldr	r3, [sp, #12]
 263 000c 9B68     		ldr	r3, [r3, #8]
 264 000e 03F10053 		add	r3, r3, #536870912
 265 0012 03F54053 		add	r3, r3, #12288
 266 0016 5B00     		lsls	r3, r3, #1
 267 0018 0693     		str	r3, [sp, #24]
ARM GAS  /tmp/ccyM3aPD.s 			page 6


 268              		.loc 2 158 0
 269 001a 019B     		ldr	r3, [sp, #4]
 270 001c 5B08     		lsrs	r3, r3, #1
 271 001e 0793     		str	r3, [sp, #28]
 272              		.loc 2 159 0
 273 0020 2CE0     		b	.L13
 274              	.L16:
 275              	.LBB2:
 276              		.loc 2 162 0
 277 0022 069B     		ldr	r3, [sp, #24]
 278 0024 1A1D     		adds	r2, r3, #4
 279 0026 0692     		str	r2, [sp, #24]
 280 0028 1B68     		ldr	r3, [r3]
 281 002a 0593     		str	r3, [sp, #20]
 282              		.loc 2 163 0
 283 002c 029B     		ldr	r3, [sp, #8]
 284 002e 5B69     		ldr	r3, [r3, #20]
 285 0030 591C     		adds	r1, r3, #1
 286 0032 029A     		ldr	r2, [sp, #8]
 287 0034 5161     		str	r1, [r2, #20]
 288 0036 059A     		ldr	r2, [sp, #20]
 289 0038 D2B2     		uxtb	r2, r2
 290 003a 1A70     		strb	r2, [r3]
 291              		.loc 2 164 0
 292 003c 029B     		ldr	r3, [sp, #8]
 293 003e 5A69     		ldr	r2, [r3, #20]
 294 0040 029B     		ldr	r3, [sp, #8]
 295 0042 1B69     		ldr	r3, [r3, #16]
 296 0044 9A42     		cmp	r2, r3
 297 0046 03D3     		bcc	.L14
 298              		.loc 2 165 0
 299 0048 029B     		ldr	r3, [sp, #8]
 300 004a DA68     		ldr	r2, [r3, #12]
 301 004c 029B     		ldr	r3, [sp, #8]
 302 004e 5A61     		str	r2, [r3, #20]
 303              	.L14:
 304              		.loc 2 166 0
 305 0050 029B     		ldr	r3, [sp, #8]
 306 0052 5B69     		ldr	r3, [r3, #20]
 307 0054 591C     		adds	r1, r3, #1
 308 0056 029A     		ldr	r2, [sp, #8]
 309 0058 5161     		str	r1, [r2, #20]
 310 005a 059A     		ldr	r2, [sp, #20]
 311 005c 120A     		lsrs	r2, r2, #8
 312 005e D2B2     		uxtb	r2, r2
 313 0060 1A70     		strb	r2, [r3]
 314              		.loc 2 167 0
 315 0062 029B     		ldr	r3, [sp, #8]
 316 0064 5A69     		ldr	r2, [r3, #20]
 317 0066 029B     		ldr	r3, [sp, #8]
 318 0068 1B69     		ldr	r3, [r3, #16]
 319 006a 9A42     		cmp	r2, r3
 320 006c 03D3     		bcc	.L15
 321              		.loc 2 168 0
 322 006e 029B     		ldr	r3, [sp, #8]
 323 0070 DA68     		ldr	r2, [r3, #12]
 324 0072 029B     		ldr	r3, [sp, #8]
ARM GAS  /tmp/ccyM3aPD.s 			page 7


 325 0074 5A61     		str	r2, [r3, #20]
 326              	.L15:
 327              		.loc 2 169 0
 328 0076 079B     		ldr	r3, [sp, #28]
 329 0078 013B     		subs	r3, r3, #1
 330 007a 0793     		str	r3, [sp, #28]
 331              	.L13:
 332              	.LBE2:
 333              		.loc 2 159 0 discriminator 1
 334 007c 079B     		ldr	r3, [sp, #28]
 335 007e 002B     		cmp	r3, #0
 336 0080 CFD1     		bne	.L16
 337              		.loc 2 172 0
 338 0082 019B     		ldr	r3, [sp, #4]
 339 0084 03F00103 		and	r3, r3, #1
 340 0088 002B     		cmp	r3, #0
 341 008a 12D0     		beq	.L17
 342              		.loc 2 173 0
 343 008c 029B     		ldr	r3, [sp, #8]
 344 008e 5B69     		ldr	r3, [r3, #20]
 345 0090 591C     		adds	r1, r3, #1
 346 0092 029A     		ldr	r2, [sp, #8]
 347 0094 5161     		str	r1, [r2, #20]
 348 0096 069A     		ldr	r2, [sp, #24]
 349 0098 1268     		ldr	r2, [r2]
 350 009a D2B2     		uxtb	r2, r2
 351 009c 1A70     		strb	r2, [r3]
 352              		.loc 2 174 0
 353 009e 029B     		ldr	r3, [sp, #8]
 354 00a0 5A69     		ldr	r2, [r3, #20]
 355 00a2 029B     		ldr	r3, [sp, #8]
 356 00a4 1B69     		ldr	r3, [r3, #16]
 357 00a6 9A42     		cmp	r2, r3
 358 00a8 03D3     		bcc	.L17
 359              		.loc 2 175 0
 360 00aa 029B     		ldr	r3, [sp, #8]
 361 00ac DA68     		ldr	r2, [r3, #12]
 362 00ae 029B     		ldr	r3, [sp, #8]
 363 00b0 5A61     		str	r2, [r3, #20]
 364              	.L17:
 365              	.LBB3:
 366              		.loc 2 179 0
 367 00b2 2023     		movs	r3, #32
 368              	@ 179 "/home/dave/r2p-sdk/core/ChibiOS/os/hal/platforms/STM32/USBv1/usb_lld.c" 1
 369 00b4 83F31188 		msr     BASEPRI, r3
 370              	@ 0 "" 2
 371              		.thumb
 372              	.LBE3:
 373 00b8 FFF7FEFF 		bl	dbg_check_lock_from_isr
 374              		.loc 2 180 0
 375 00bc 029B     		ldr	r3, [sp, #8]
 376 00be 9A68     		ldr	r2, [r3, #8]
 377 00c0 019B     		ldr	r3, [sp, #4]
 378 00c2 1A44     		add	r2, r2, r3
 379 00c4 029B     		ldr	r3, [sp, #8]
 380 00c6 9A60     		str	r2, [r3, #8]
 381              		.loc 2 181 0
ARM GAS  /tmp/ccyM3aPD.s 			page 8


 382 00c8 0AE0     		b	.L18
 383              	.L19:
 384              		.loc 2 182 0
 385 00ca 029B     		ldr	r3, [sp, #8]
 386 00cc 1846     		mov	r0, r3
 387 00ce FFF7FEFF 		bl	fifo_remove
 388 00d2 0346     		mov	r3, r0
 389 00d4 1846     		mov	r0, r3
 390 00d6 FFF7FEFF 		bl	chSchReadyI
 391 00da 0346     		mov	r3, r0
 392 00dc 0022     		movs	r2, #0
 393 00de 9A62     		str	r2, [r3, #40]
 394              	.L18:
 395              		.loc 2 181 0 discriminator 1
 396 00e0 029B     		ldr	r3, [sp, #8]
 397 00e2 1A68     		ldr	r2, [r3]
 398 00e4 029B     		ldr	r3, [sp, #8]
 399 00e6 9A42     		cmp	r2, r3
 400 00e8 EFD1     		bne	.L19
 401              		.loc 2 183 0
 402 00ea FFF7FEFF 		bl	dbg_check_unlock_from_isr
 403              	.LBB4:
 404 00ee 0023     		movs	r3, #0
 405              	@ 183 "/home/dave/r2p-sdk/core/ChibiOS/os/hal/platforms/STM32/USBv1/usb_lld.c" 1
 406 00f0 83F31188 		msr     BASEPRI, r3
 407              	@ 0 "" 2
 408              		.thumb
 409              	.LBE4:
 410              		.loc 2 184 0
 411 00f4 09B0     		add	sp, sp, #36
 412              		@ sp needed
 413 00f6 5DF804FB 		ldr	pc, [sp], #4
 414              		.cfi_endproc
 415              	.LFE121:
 416              		.size	usb_packet_read_to_queue, .-usb_packet_read_to_queue
 417 00fa 00BFAFF3 		.section	.text.usb_packet_write_from_buffer,"ax",%progbits
 417      0080
 418              		.align	2
 419              		.p2align 4,,15
 420              		.thumb
 421              		.thumb_func
 422              		.type	usb_packet_write_from_buffer, %function
 423              	usb_packet_write_from_buffer:
 424              	.LFB122:
 425              		.loc 2 198 0
 426              		.cfi_startproc
 427              		@ args = 0, pretend = 0, frame = 24
 428              		@ frame_needed = 0, uses_anonymous_args = 0
 429              		@ link register save eliminated.
 430 0000 86B0     		sub	sp, sp, #24
 431              		.cfi_def_cfa_offset 24
 432 0002 0390     		str	r0, [sp, #12]
 433 0004 0291     		str	r1, [sp, #8]
 434 0006 0192     		str	r2, [sp, #4]
 435              		.loc 2 199 0
 436 0008 039B     		ldr	r3, [sp, #12]
 437 000a 1B68     		ldr	r3, [r3]
ARM GAS  /tmp/ccyM3aPD.s 			page 9


 438 000c 03F10053 		add	r3, r3, #536870912
 439 0010 03F54053 		add	r3, r3, #12288
 440 0014 5B00     		lsls	r3, r3, #1
 441 0016 0593     		str	r3, [sp, #20]
 442              		.loc 2 201 0
 443 0018 019B     		ldr	r3, [sp, #4]
 444 001a 9AB2     		uxth	r2, r3
 445 001c 039B     		ldr	r3, [sp, #12]
 446 001e 9A80     		strh	r2, [r3, #4]	@ movhi
 447              		.loc 2 202 0
 448 0020 019B     		ldr	r3, [sp, #4]
 449 0022 0133     		adds	r3, r3, #1
 450 0024 5B08     		lsrs	r3, r3, #1
 451 0026 0193     		str	r3, [sp, #4]
 452              		.loc 2 203 0
 453 0028 0BE0     		b	.L21
 454              	.L22:
 455              		.loc 2 206 0
 456 002a 059B     		ldr	r3, [sp, #20]
 457 002c 1A1D     		adds	r2, r3, #4
 458 002e 0592     		str	r2, [sp, #20]
 459 0030 029A     		ldr	r2, [sp, #8]
 460 0032 1288     		ldrh	r2, [r2]
 461 0034 1A60     		str	r2, [r3]
 462              		.loc 2 207 0
 463 0036 029B     		ldr	r3, [sp, #8]
 464 0038 0233     		adds	r3, r3, #2
 465 003a 0293     		str	r3, [sp, #8]
 466              		.loc 2 208 0
 467 003c 019B     		ldr	r3, [sp, #4]
 468 003e 013B     		subs	r3, r3, #1
 469 0040 0193     		str	r3, [sp, #4]
 470              	.L21:
 471              		.loc 2 203 0 discriminator 1
 472 0042 019B     		ldr	r3, [sp, #4]
 473 0044 002B     		cmp	r3, #0
 474 0046 F0D1     		bne	.L22
 475              		.loc 2 210 0
 476 0048 06B0     		add	sp, sp, #24
 477              		@ sp needed
 478 004a 7047     		bx	lr
 479              		.cfi_endproc
 480              	.LFE122:
 481              		.size	usb_packet_write_from_buffer, .-usb_packet_write_from_buffer
 482 004c AFF30080 		.section	.text.usb_packet_write_from_queue,"ax",%progbits
 483              		.align	2
 484              		.p2align 4,,15
 485              		.thumb
 486              		.thumb_func
 487              		.type	usb_packet_write_from_queue, %function
 488              	usb_packet_write_from_queue:
 489              	.LFB123:
 490              		.loc 2 223 0
 491              		.cfi_startproc
 492              		@ args = 0, pretend = 0, frame = 32
 493              		@ frame_needed = 0, uses_anonymous_args = 0
 494 0000 00B5     		push	{lr}
ARM GAS  /tmp/ccyM3aPD.s 			page 10


 495              		.cfi_def_cfa_offset 4
 496              		.cfi_offset 14, -4
 497 0002 89B0     		sub	sp, sp, #36
 498              		.cfi_def_cfa_offset 40
 499 0004 0390     		str	r0, [sp, #12]
 500 0006 0291     		str	r1, [sp, #8]
 501 0008 0192     		str	r2, [sp, #4]
 502              		.loc 2 225 0
 503 000a 039B     		ldr	r3, [sp, #12]
 504 000c 1B68     		ldr	r3, [r3]
 505 000e 03F10053 		add	r3, r3, #536870912
 506 0012 03F54053 		add	r3, r3, #12288
 507 0016 5B00     		lsls	r3, r3, #1
 508 0018 0693     		str	r3, [sp, #24]
 509              		.loc 2 227 0
 510 001a 019B     		ldr	r3, [sp, #4]
 511 001c 9AB2     		uxth	r2, r3
 512 001e 039B     		ldr	r3, [sp, #12]
 513 0020 9A80     		strh	r2, [r3, #4]	@ movhi
 514              		.loc 2 228 0
 515 0022 019B     		ldr	r3, [sp, #4]
 516 0024 5B08     		lsrs	r3, r3, #1
 517 0026 0793     		str	r3, [sp, #28]
 518              		.loc 2 229 0
 519 0028 2CE0     		b	.L24
 520              	.L27:
 521              	.LBB5:
 522              		.loc 2 232 0
 523 002a 029B     		ldr	r3, [sp, #8]
 524 002c 9B69     		ldr	r3, [r3, #24]
 525 002e 591C     		adds	r1, r3, #1
 526 0030 029A     		ldr	r2, [sp, #8]
 527 0032 9161     		str	r1, [r2, #24]
 528 0034 1B78     		ldrb	r3, [r3]	@ zero_extendqisi2
 529 0036 0593     		str	r3, [sp, #20]
 530              		.loc 2 233 0
 531 0038 029B     		ldr	r3, [sp, #8]
 532 003a 9A69     		ldr	r2, [r3, #24]
 533 003c 029B     		ldr	r3, [sp, #8]
 534 003e 1B69     		ldr	r3, [r3, #16]
 535 0040 9A42     		cmp	r2, r3
 536 0042 03D3     		bcc	.L25
 537              		.loc 2 234 0
 538 0044 029B     		ldr	r3, [sp, #8]
 539 0046 DA68     		ldr	r2, [r3, #12]
 540 0048 029B     		ldr	r3, [sp, #8]
 541 004a 9A61     		str	r2, [r3, #24]
 542              	.L25:
 543              		.loc 2 235 0
 544 004c 029B     		ldr	r3, [sp, #8]
 545 004e 9B69     		ldr	r3, [r3, #24]
 546 0050 591C     		adds	r1, r3, #1
 547 0052 029A     		ldr	r2, [sp, #8]
 548 0054 9161     		str	r1, [r2, #24]
 549 0056 1B78     		ldrb	r3, [r3]	@ zero_extendqisi2
 550 0058 1B02     		lsls	r3, r3, #8
 551 005a 059A     		ldr	r2, [sp, #20]
ARM GAS  /tmp/ccyM3aPD.s 			page 11


 552 005c 1343     		orrs	r3, r3, r2
 553 005e 0593     		str	r3, [sp, #20]
 554              		.loc 2 236 0
 555 0060 029B     		ldr	r3, [sp, #8]
 556 0062 9A69     		ldr	r2, [r3, #24]
 557 0064 029B     		ldr	r3, [sp, #8]
 558 0066 1B69     		ldr	r3, [r3, #16]
 559 0068 9A42     		cmp	r2, r3
 560 006a 03D3     		bcc	.L26
 561              		.loc 2 237 0
 562 006c 029B     		ldr	r3, [sp, #8]
 563 006e DA68     		ldr	r2, [r3, #12]
 564 0070 029B     		ldr	r3, [sp, #8]
 565 0072 9A61     		str	r2, [r3, #24]
 566              	.L26:
 567              		.loc 2 238 0
 568 0074 069B     		ldr	r3, [sp, #24]
 569 0076 1A1D     		adds	r2, r3, #4
 570 0078 0692     		str	r2, [sp, #24]
 571 007a 059A     		ldr	r2, [sp, #20]
 572 007c 1A60     		str	r2, [r3]
 573              		.loc 2 239 0
 574 007e 079B     		ldr	r3, [sp, #28]
 575 0080 013B     		subs	r3, r3, #1
 576 0082 0793     		str	r3, [sp, #28]
 577              	.L24:
 578              	.LBE5:
 579              		.loc 2 229 0 discriminator 1
 580 0084 079B     		ldr	r3, [sp, #28]
 581 0086 002B     		cmp	r3, #0
 582 0088 CFD1     		bne	.L27
 583              		.loc 2 243 0
 584 008a 019B     		ldr	r3, [sp, #4]
 585 008c 03F00103 		and	r3, r3, #1
 586 0090 002B     		cmp	r3, #0
 587 0092 12D0     		beq	.L28
 588              		.loc 2 244 0
 589 0094 029B     		ldr	r3, [sp, #8]
 590 0096 9B69     		ldr	r3, [r3, #24]
 591 0098 591C     		adds	r1, r3, #1
 592 009a 029A     		ldr	r2, [sp, #8]
 593 009c 9161     		str	r1, [r2, #24]
 594 009e 1B78     		ldrb	r3, [r3]	@ zero_extendqisi2
 595 00a0 1A46     		mov	r2, r3
 596 00a2 069B     		ldr	r3, [sp, #24]
 597 00a4 1A60     		str	r2, [r3]
 598              		.loc 2 245 0
 599 00a6 029B     		ldr	r3, [sp, #8]
 600 00a8 9A69     		ldr	r2, [r3, #24]
 601 00aa 029B     		ldr	r3, [sp, #8]
 602 00ac 1B69     		ldr	r3, [r3, #16]
 603 00ae 9A42     		cmp	r2, r3
 604 00b0 03D3     		bcc	.L28
 605              		.loc 2 246 0
 606 00b2 029B     		ldr	r3, [sp, #8]
 607 00b4 DA68     		ldr	r2, [r3, #12]
 608 00b6 029B     		ldr	r3, [sp, #8]
ARM GAS  /tmp/ccyM3aPD.s 			page 12


 609 00b8 9A61     		str	r2, [r3, #24]
 610              	.L28:
 611              	.LBB6:
 612              		.loc 2 252 0
 613 00ba 2023     		movs	r3, #32
 614              	@ 252 "/home/dave/r2p-sdk/core/ChibiOS/os/hal/platforms/STM32/USBv1/usb_lld.c" 1
 615 00bc 83F31188 		msr     BASEPRI, r3
 616              	@ 0 "" 2
 617              		.thumb
 618              	.LBE6:
 619              		.loc 2 253 0
 620 00c0 114B     		ldr	r3, .L31
 621 00c2 0122     		movs	r2, #1
 622 00c4 1A60     		str	r2, [r3]
 623              		.loc 2 255 0
 624 00c6 029B     		ldr	r3, [sp, #8]
 625 00c8 9A68     		ldr	r2, [r3, #8]
 626 00ca 019B     		ldr	r3, [sp, #4]
 627 00cc 1A44     		add	r2, r2, r3
 628 00ce 029B     		ldr	r3, [sp, #8]
 629 00d0 9A60     		str	r2, [r3, #8]
 630              		.loc 2 256 0
 631 00d2 0AE0     		b	.L29
 632              	.L30:
 633              		.loc 2 257 0
 634 00d4 029B     		ldr	r3, [sp, #8]
 635 00d6 1846     		mov	r0, r3
 636 00d8 FFF7FEFF 		bl	fifo_remove
 637 00dc 0346     		mov	r3, r0
 638 00de 1846     		mov	r0, r3
 639 00e0 FFF7FEFF 		bl	chSchReadyI
 640 00e4 0346     		mov	r3, r0
 641 00e6 0022     		movs	r2, #0
 642 00e8 9A62     		str	r2, [r3, #40]
 643              	.L29:
 644              		.loc 2 256 0 discriminator 1
 645 00ea 029B     		ldr	r3, [sp, #8]
 646 00ec 1A68     		ldr	r2, [r3]
 647 00ee 029B     		ldr	r3, [sp, #8]
 648 00f0 9A42     		cmp	r2, r3
 649 00f2 EFD1     		bne	.L30
 650              		.loc 2 259 0
 651 00f4 044B     		ldr	r3, .L31
 652 00f6 0022     		movs	r2, #0
 653 00f8 1A60     		str	r2, [r3]
 654              	.LBB7:
 655              		.loc 2 260 0
 656 00fa 0023     		movs	r3, #0
 657              	@ 260 "/home/dave/r2p-sdk/core/ChibiOS/os/hal/platforms/STM32/USBv1/usb_lld.c" 1
 658 00fc 83F31188 		msr     BASEPRI, r3
 659              	@ 0 "" 2
 660              		.thumb
 661              	.LBE7:
 662              		.loc 2 261 0
 663 0100 09B0     		add	sp, sp, #36
 664              		@ sp needed
 665 0102 5DF804FB 		ldr	pc, [sp], #4
ARM GAS  /tmp/ccyM3aPD.s 			page 13


 666              	.L32:
 667 0106 00BF     		.align	2
 668              	.L31:
 669 0108 00000000 		.word	dbg_lock_cnt
 670              		.cfi_endproc
 671              	.LFE123:
 672              		.size	usb_packet_write_from_queue, .-usb_packet_write_from_queue
 673 010c AFF30080 		.section	.text.Vector168,"ax",%progbits
 674              		.align	2
 675              		.p2align 4,,15
 676              		.global	Vector168
 677              		.thumb
 678              		.thumb_func
 679              		.type	Vector168, %function
 680              	Vector168:
 681              	.LFB124:
 682              		.loc 2 276 0
 683              		.cfi_startproc
 684              		@ args = 0, pretend = 0, frame = 0
 685              		@ frame_needed = 0, uses_anonymous_args = 0
 686 0000 08B5     		push	{r3, lr}
 687              		.cfi_def_cfa_offset 8
 688              		.cfi_offset 3, -8
 689              		.cfi_offset 14, -4
 690              		.loc 2 278 0
 691 0002 FFF7FEFF 		bl	dbg_check_enter_isr
 692              		.loc 2 280 0
 693 0006 FFF7FEFF 		bl	dbg_check_leave_isr
 694 000a FFF7FEFF 		bl	_port_irq_epilogue
 695              		.loc 2 281 0
 696 000e 08BD     		pop	{r3, pc}
 697              		.cfi_endproc
 698              	.LFE124:
 699              		.size	Vector168, .-Vector168
 700              		.section	.text.Vector16C,"ax",%progbits
 701              		.align	2
 702              		.p2align 4,,15
 703              		.global	Vector16C
 704              		.thumb
 705              		.thumb_func
 706              		.type	Vector16C, %function
 707              	Vector16C:
 708              	.LFB125:
 709              		.loc 2 291 0
 710              		.cfi_startproc
 711              		@ args = 0, pretend = 0, frame = 40
 712              		@ frame_needed = 0, uses_anonymous_args = 0
 713 0000 00B5     		push	{lr}
 714              		.cfi_def_cfa_offset 4
 715              		.cfi_offset 14, -4
 716 0002 8BB0     		sub	sp, sp, #44
 717              		.cfi_def_cfa_offset 48
 718              		.loc 2 293 0
 719 0004 9E4B     		ldr	r3, .L56
 720 0006 0793     		str	r3, [sp, #28]
 721              		.loc 2 295 0
 722 0008 FFF7FEFF 		bl	dbg_check_enter_isr
ARM GAS  /tmp/ccyM3aPD.s 			page 14


 723              		.loc 2 297 0
 724 000c 9D4B     		ldr	r3, .L56+4
 725 000e 5B6C     		ldr	r3, [r3, #68]
 726 0010 0993     		str	r3, [sp, #36]
 727              		.loc 2 300 0
 728 0012 099B     		ldr	r3, [sp, #36]
 729 0014 03F48063 		and	r3, r3, #1024
 730 0018 002B     		cmp	r3, #0
 731 001a 11D0     		beq	.L35
 732              		.loc 2 301 0
 733 001c 0798     		ldr	r0, [sp, #28]
 734 001e FFF7FEFF 		bl	_usb_reset
 735              		.loc 2 302 0
 736 0022 079B     		ldr	r3, [sp, #28]
 737 0024 5B68     		ldr	r3, [r3, #4]
 738 0026 1B68     		ldr	r3, [r3]
 739 0028 002B     		cmp	r3, #0
 740 002a 05D0     		beq	.L36
 741              		.loc 2 302 0 is_stmt 0 discriminator 1
 742 002c 079B     		ldr	r3, [sp, #28]
 743 002e 5B68     		ldr	r3, [r3, #4]
 744 0030 1B68     		ldr	r3, [r3]
 745 0032 0798     		ldr	r0, [sp, #28]
 746 0034 0021     		movs	r1, #0
 747 0036 9847     		blx	r3
 748              	.L36:
 749              		.loc 2 303 0 is_stmt 1
 750 0038 924B     		ldr	r3, .L56+4
 751 003a 6FF48062 		mvn	r2, #1024
 752 003e 5A64     		str	r2, [r3, #68]
 753              	.L35:
 754              		.loc 2 307 0
 755 0040 099B     		ldr	r3, [sp, #36]
 756 0042 03F40063 		and	r3, r3, #2048
 757 0046 002B     		cmp	r3, #0
 758 0048 14D0     		beq	.L37
 759              		.loc 2 308 0
 760 004a 8E4B     		ldr	r3, .L56+4
 761 004c 8D4A     		ldr	r2, .L56+4
 762 004e 126C     		ldr	r2, [r2, #64]
 763 0050 42F00802 		orr	r2, r2, #8
 764 0054 1A64     		str	r2, [r3, #64]
 765              		.loc 2 309 0
 766 0056 079B     		ldr	r3, [sp, #28]
 767 0058 5B68     		ldr	r3, [r3, #4]
 768 005a 1B68     		ldr	r3, [r3]
 769 005c 002B     		cmp	r3, #0
 770 005e 05D0     		beq	.L38
 771              		.loc 2 309 0 is_stmt 0 discriminator 1
 772 0060 079B     		ldr	r3, [sp, #28]
 773 0062 5B68     		ldr	r3, [r3, #4]
 774 0064 1B68     		ldr	r3, [r3]
 775 0066 0798     		ldr	r0, [sp, #28]
 776 0068 0321     		movs	r1, #3
 777 006a 9847     		blx	r3
 778              	.L38:
 779              		.loc 2 313 0 is_stmt 1
ARM GAS  /tmp/ccyM3aPD.s 			page 15


 780 006c 854B     		ldr	r3, .L56+4
 781 006e 6FF40062 		mvn	r2, #2048
 782 0072 5A64     		str	r2, [r3, #68]
 783              	.L37:
 784              		.loc 2 317 0
 785 0074 099B     		ldr	r3, [sp, #36]
 786 0076 03F48053 		and	r3, r3, #4096
 787 007a 002B     		cmp	r3, #0
 788 007c 1CD0     		beq	.L39
 789              	.LBB8:
 790              		.loc 2 318 0
 791 007e 814B     		ldr	r3, .L56+4
 792 0080 9B6C     		ldr	r3, [r3, #72]
 793 0082 0693     		str	r3, [sp, #24]
 794              		.loc 2 319 0
 795 0084 069B     		ldr	r3, [sp, #24]
 796 0086 03F40043 		and	r3, r3, #32768
 797 008a 002B     		cmp	r3, #0
 798 008c 10D1     		bne	.L40
 799              		.loc 2 320 0
 800 008e 7D4B     		ldr	r3, .L56+4
 801 0090 7C4A     		ldr	r2, .L56+4
 802 0092 126C     		ldr	r2, [r2, #64]
 803 0094 22F00802 		bic	r2, r2, #8
 804 0098 1A64     		str	r2, [r3, #64]
 805              		.loc 2 321 0
 806 009a 079B     		ldr	r3, [sp, #28]
 807 009c 5B68     		ldr	r3, [r3, #4]
 808 009e 1B68     		ldr	r3, [r3]
 809 00a0 002B     		cmp	r3, #0
 810 00a2 05D0     		beq	.L40
 811              		.loc 2 321 0 is_stmt 0 discriminator 1
 812 00a4 079B     		ldr	r3, [sp, #28]
 813 00a6 5B68     		ldr	r3, [r3, #4]
 814 00a8 1B68     		ldr	r3, [r3]
 815 00aa 0798     		ldr	r0, [sp, #28]
 816 00ac 0421     		movs	r1, #4
 817 00ae 9847     		blx	r3
 818              	.L40:
 819              		.loc 2 330 0 is_stmt 1
 820 00b0 744B     		ldr	r3, .L56+4
 821 00b2 6FF48052 		mvn	r2, #4096
 822 00b6 5A64     		str	r2, [r3, #68]
 823              	.L39:
 824              	.LBE8:
 825              		.loc 2 334 0
 826 00b8 099B     		ldr	r3, [sp, #36]
 827 00ba 03F40073 		and	r3, r3, #512
 828 00be 002B     		cmp	r3, #0
 829 00c0 0ED0     		beq	.L41
 830              		.loc 2 335 0
 831 00c2 079B     		ldr	r3, [sp, #28]
 832 00c4 5B68     		ldr	r3, [r3, #4]
 833 00c6 DB68     		ldr	r3, [r3, #12]
 834 00c8 002B     		cmp	r3, #0
 835 00ca 04D0     		beq	.L42
 836              		.loc 2 335 0 is_stmt 0 discriminator 1
ARM GAS  /tmp/ccyM3aPD.s 			page 16


 837 00cc 079B     		ldr	r3, [sp, #28]
 838 00ce 5B68     		ldr	r3, [r3, #4]
 839 00d0 DB68     		ldr	r3, [r3, #12]
 840 00d2 0798     		ldr	r0, [sp, #28]
 841 00d4 9847     		blx	r3
 842              	.L42:
 843              		.loc 2 336 0 is_stmt 1
 844 00d6 6B4B     		ldr	r3, .L56+4
 845 00d8 6FF40072 		mvn	r2, #512
 846 00dc 5A64     		str	r2, [r3, #68]
 847              		.loc 2 340 0
 848 00de 52E1     		b	.L43
 849              	.L41:
 850 00e0 51E1     		b	.L43
 851              	.L55:
 852              	.LBB9:
 853              		.loc 2 343 0
 854 00e2 684B     		ldr	r3, .L56+4
 855 00e4 099A     		ldr	r2, [sp, #36]
 856 00e6 02F00F02 		and	r2, r2, #15
 857 00ea 0592     		str	r2, [sp, #20]
 858 00ec 059A     		ldr	r2, [sp, #20]
 859 00ee 53F82230 		ldr	r3, [r3, r2, lsl #2]
 860 00f2 0493     		str	r3, [sp, #16]
 861              		.loc 2 344 0
 862 00f4 079A     		ldr	r2, [sp, #28]
 863 00f6 059B     		ldr	r3, [sp, #20]
 864 00f8 0233     		adds	r3, r3, #2
 865 00fa 9B00     		lsls	r3, r3, #2
 866 00fc 1344     		add	r3, r3, r2
 867 00fe 5B68     		ldr	r3, [r3, #4]
 868 0100 0393     		str	r3, [sp, #12]
 869              		.loc 2 346 0
 870 0102 049B     		ldr	r3, [sp, #16]
 871 0104 03F08003 		and	r3, r3, #128
 872 0108 002B     		cmp	r3, #0
 873 010a 00F09580 		beq	.L44
 874              	.LBB10:
 875              		.loc 2 349 0
 876 010e 5D4A     		ldr	r2, .L56+4
 877 0110 5C4B     		ldr	r3, .L56+4
 878 0112 0599     		ldr	r1, [sp, #20]
 879 0114 53F82130 		ldr	r3, [r3, r1, lsl #2]
 880 0118 23F4F143 		bic	r3, r3, #30848
 881 011c 23F07003 		bic	r3, r3, #112
 882 0120 0599     		ldr	r1, [sp, #20]
 883 0122 42F82130 		str	r3, [r2, r1, lsl #2]
 884              		.loc 2 351 0
 885 0126 574B     		ldr	r3, .L56+4
 886 0128 1A6D     		ldr	r2, [r3, #80]
 887 012a 059B     		ldr	r3, [sp, #20]
 888 012c DB00     		lsls	r3, r3, #3
 889 012e 1344     		add	r3, r3, r2
 890 0130 03F10053 		add	r3, r3, #536870912
 891 0134 03F54053 		add	r3, r3, #12288
 892 0138 5B00     		lsls	r3, r3, #1
 893 013a 9B88     		ldrh	r3, [r3, #4]	@ movhi
ARM GAS  /tmp/ccyM3aPD.s 			page 17


 894 013c 9BB2     		uxth	r3, r3
 895 013e 0293     		str	r3, [sp, #8]
 896              		.loc 2 352 0
 897 0140 039B     		ldr	r3, [sp, #12]
 898 0142 5B69     		ldr	r3, [r3, #20]
 899 0144 039A     		ldr	r2, [sp, #12]
 900 0146 5269     		ldr	r2, [r2, #20]
 901 0148 9168     		ldr	r1, [r2, #8]
 902 014a 029A     		ldr	r2, [sp, #8]
 903 014c 0A44     		add	r2, r2, r1
 904 014e 9A60     		str	r2, [r3, #8]
 905              		.loc 2 353 0
 906 0150 039B     		ldr	r3, [sp, #12]
 907 0152 5B69     		ldr	r3, [r3, #20]
 908 0154 5A68     		ldr	r2, [r3, #4]
 909 0156 039B     		ldr	r3, [sp, #12]
 910 0158 5B69     		ldr	r3, [r3, #20]
 911 015a 9B68     		ldr	r3, [r3, #8]
 912 015c D31A     		subs	r3, r2, r3
 913 015e 0893     		str	r3, [sp, #32]
 914              		.loc 2 354 0
 915 0160 089B     		ldr	r3, [sp, #32]
 916 0162 002B     		cmp	r3, #0
 917 0164 4DD0     		beq	.L45
 918              		.loc 2 356 0
 919 0166 039B     		ldr	r3, [sp, #12]
 920 0168 1B8A     		ldrh	r3, [r3, #16]
 921 016a 1A46     		mov	r2, r3
 922 016c 089B     		ldr	r3, [sp, #32]
 923 016e 9A42     		cmp	r2, r3
 924 0170 02D2     		bcs	.L46
 925              		.loc 2 357 0
 926 0172 039B     		ldr	r3, [sp, #12]
 927 0174 1B8A     		ldrh	r3, [r3, #16]
 928 0176 0893     		str	r3, [sp, #32]
 929              	.L46:
 930              		.loc 2 359 0
 931 0178 039B     		ldr	r3, [sp, #12]
 932 017a 5B69     		ldr	r3, [r3, #20]
 933 017c 1B78     		ldrb	r3, [r3]	@ zero_extendqisi2
 934 017e 002B     		cmp	r3, #0
 935 0180 13D0     		beq	.L47
 936              		.loc 2 360 0
 937 0182 404B     		ldr	r3, .L56+4
 938 0184 1A6D     		ldr	r2, [r3, #80]
 939 0186 059B     		ldr	r3, [sp, #20]
 940 0188 DB00     		lsls	r3, r3, #3
 941 018a 1344     		add	r3, r3, r2
 942 018c 03F10053 		add	r3, r3, #536870912
 943 0190 03F54053 		add	r3, r3, #12288
 944 0194 5B00     		lsls	r3, r3, #1
 945 0196 1A46     		mov	r2, r3
 946              		.loc 2 361 0
 947 0198 039B     		ldr	r3, [sp, #12]
 948 019a 5B69     		ldr	r3, [r3, #20]
 949              		.loc 2 360 0
 950 019c DB68     		ldr	r3, [r3, #12]
ARM GAS  /tmp/ccyM3aPD.s 			page 18


 951 019e 1046     		mov	r0, r2
 952 01a0 1946     		mov	r1, r3
 953 01a2 089A     		ldr	r2, [sp, #32]
 954 01a4 FFF7FEFF 		bl	usb_packet_write_from_queue
 955 01a8 1AE0     		b	.L48
 956              	.L47:
 957              		.loc 2 364 0
 958 01aa 039B     		ldr	r3, [sp, #12]
 959 01ac 5B69     		ldr	r3, [r3, #20]
 960 01ae 039A     		ldr	r2, [sp, #12]
 961 01b0 5269     		ldr	r2, [r2, #20]
 962 01b2 D168     		ldr	r1, [r2, #12]
 963 01b4 029A     		ldr	r2, [sp, #8]
 964 01b6 0A44     		add	r2, r2, r1
 965 01b8 DA60     		str	r2, [r3, #12]
 966              		.loc 2 365 0
 967 01ba 324B     		ldr	r3, .L56+4
 968 01bc 1A6D     		ldr	r2, [r3, #80]
 969 01be 059B     		ldr	r3, [sp, #20]
 970 01c0 DB00     		lsls	r3, r3, #3
 971 01c2 1344     		add	r3, r3, r2
 972 01c4 03F10053 		add	r3, r3, #536870912
 973 01c8 03F54053 		add	r3, r3, #12288
 974 01cc 5B00     		lsls	r3, r3, #1
 975 01ce 1A46     		mov	r2, r3
 976              		.loc 2 366 0
 977 01d0 039B     		ldr	r3, [sp, #12]
 978 01d2 5B69     		ldr	r3, [r3, #20]
 979              		.loc 2 365 0
 980 01d4 DB68     		ldr	r3, [r3, #12]
 981 01d6 1046     		mov	r0, r2
 982 01d8 1946     		mov	r1, r3
 983 01da 089A     		ldr	r2, [sp, #32]
 984 01dc FFF7FEFF 		bl	usb_packet_write_from_buffer
 985              	.L48:
 986              	.LBB11:
 987              		.loc 2 369 0 discriminator 1
 988 01e0 2023     		movs	r3, #32
 989              	@ 369 "/home/dave/r2p-sdk/core/ChibiOS/os/hal/platforms/STM32/USBv1/usb_lld.c" 1
 990 01e2 83F31188 		msr     BASEPRI, r3
 991              	@ 0 "" 2
 992              		.thumb
 993              	.LBE11:
 994 01e6 FFF7FEFF 		bl	dbg_check_lock_from_isr
 995              		.loc 2 370 0 discriminator 1
 996 01ea 059B     		ldr	r3, [sp, #20]
 997 01ec DBB2     		uxtb	r3, r3
 998 01ee 0798     		ldr	r0, [sp, #28]
 999 01f0 1946     		mov	r1, r3
 1000 01f2 FFF7FEFF 		bl	usb_lld_start_in
 1001              		.loc 2 371 0 discriminator 1
 1002 01f6 FFF7FEFF 		bl	dbg_check_unlock_from_isr
 1003              	.LBB12:
 1004 01fa 0023     		movs	r3, #0
 1005              	@ 371 "/home/dave/r2p-sdk/core/ChibiOS/os/hal/platforms/STM32/USBv1/usb_lld.c" 1
 1006 01fc 83F31188 		msr     BASEPRI, r3
 1007              	@ 0 "" 2
ARM GAS  /tmp/ccyM3aPD.s 			page 19


 1008              		.thumb
 1009              	.LBE12:
 1010 0200 1AE0     		b	.L44
 1011              	.L45:
 1012              		.loc 2 375 0
 1013 0202 079B     		ldr	r3, [sp, #28]
 1014 0204 1B89     		ldrh	r3, [r3, #8]
 1015 0206 9AB2     		uxth	r2, r3
 1016 0208 059B     		ldr	r3, [sp, #20]
 1017 020a 0121     		movs	r1, #1
 1018 020c 01FA03F3 		lsl	r3, r1, r3
 1019 0210 9BB2     		uxth	r3, r3
 1020 0212 DB43     		mvns	r3, r3
 1021 0214 9BB2     		uxth	r3, r3
 1022 0216 1340     		ands	r3, r3, r2
 1023 0218 9BB2     		uxth	r3, r3
 1024 021a 9AB2     		uxth	r2, r3
 1025 021c 079B     		ldr	r3, [sp, #28]
 1026 021e 1A81     		strh	r2, [r3, #8]	@ movhi
 1027 0220 079A     		ldr	r2, [sp, #28]
 1028 0222 059B     		ldr	r3, [sp, #20]
 1029 0224 0233     		adds	r3, r3, #2
 1030 0226 9B00     		lsls	r3, r3, #2
 1031 0228 1344     		add	r3, r3, r2
 1032 022a 5B68     		ldr	r3, [r3, #4]
 1033 022c 9B68     		ldr	r3, [r3, #8]
 1034 022e 059A     		ldr	r2, [sp, #20]
 1035 0230 D2B2     		uxtb	r2, r2
 1036 0232 0798     		ldr	r0, [sp, #28]
 1037 0234 1146     		mov	r1, r2
 1038 0236 9847     		blx	r3
 1039              	.L44:
 1040              	.LBE10:
 1041              		.loc 2 378 0
 1042 0238 049B     		ldr	r3, [sp, #16]
 1043 023a 03F40043 		and	r3, r3, #32768
 1044 023e 002B     		cmp	r3, #0
 1045 0240 00F09E80 		beq	.L49
 1046              		.loc 2 379 0
 1047 0244 0F4A     		ldr	r2, .L56+4
 1048 0246 0F4B     		ldr	r3, .L56+4
 1049 0248 0599     		ldr	r1, [sp, #20]
 1050 024a 53F82130 		ldr	r3, [r3, r1, lsl #2]
 1051 024e 23F47843 		bic	r3, r3, #63488
 1052 0252 23F07003 		bic	r3, r3, #112
 1053 0256 0599     		ldr	r1, [sp, #20]
 1054 0258 42F82130 		str	r3, [r2, r1, lsl #2]
 1055              		.loc 2 381 0
 1056 025c 049B     		ldr	r3, [sp, #16]
 1057 025e 03F40063 		and	r3, r3, #2048
 1058 0262 002B     		cmp	r3, #0
 1059 0264 10D0     		beq	.L50
 1060              		.loc 2 384 0
 1061 0266 079A     		ldr	r2, [sp, #28]
 1062 0268 059B     		ldr	r3, [sp, #20]
 1063 026a 0233     		adds	r3, r3, #2
 1064 026c 9B00     		lsls	r3, r3, #2
ARM GAS  /tmp/ccyM3aPD.s 			page 20


 1065 026e 1344     		add	r3, r3, r2
 1066 0270 5B68     		ldr	r3, [r3, #4]
 1067 0272 5B68     		ldr	r3, [r3, #4]
 1068 0274 059A     		ldr	r2, [sp, #20]
 1069 0276 D2B2     		uxtb	r2, r2
 1070 0278 0798     		ldr	r0, [sp, #28]
 1071 027a 1146     		mov	r1, r2
 1072 027c 9847     		blx	r3
 1073 027e 7FE0     		b	.L49
 1074              	.L57:
 1075              		.align	2
 1076              	.L56:
 1077 0280 00000000 		.word	USBD1
 1078 0284 005C0040 		.word	1073765376
 1079              	.L50:
 1080              	.LBB13:
 1081              		.loc 2 387 0
 1082 0288 454B     		ldr	r3, .L58
 1083 028a 1A6D     		ldr	r2, [r3, #80]
 1084 028c 059B     		ldr	r3, [sp, #20]
 1085 028e DB00     		lsls	r3, r3, #3
 1086 0290 1344     		add	r3, r3, r2
 1087 0292 03F10053 		add	r3, r3, #536870912
 1088 0296 03F54053 		add	r3, r3, #12288
 1089 029a 5B00     		lsls	r3, r3, #1
 1090 029c 0193     		str	r3, [sp, #4]
 1091              		.loc 2 388 0
 1092 029e 019B     		ldr	r3, [sp, #4]
 1093 02a0 9B89     		ldrh	r3, [r3, #12]	@ movhi
 1094 02a2 9BB2     		uxth	r3, r3
 1095 02a4 C3F30903 		ubfx	r3, r3, #0, #10
 1096 02a8 0893     		str	r3, [sp, #32]
 1097              		.loc 2 391 0
 1098 02aa 039B     		ldr	r3, [sp, #12]
 1099 02ac 9B69     		ldr	r3, [r3, #24]
 1100 02ae 1B78     		ldrb	r3, [r3]	@ zero_extendqisi2
 1101 02b0 002B     		cmp	r3, #0
 1102 02b2 08D0     		beq	.L51
 1103              		.loc 2 393 0
 1104 02b4 039B     		ldr	r3, [sp, #12]
 1105 02b6 9B69     		ldr	r3, [r3, #24]
 1106              		.loc 2 392 0
 1107 02b8 DB68     		ldr	r3, [r3, #12]
 1108 02ba 0198     		ldr	r0, [sp, #4]
 1109 02bc 1946     		mov	r1, r3
 1110 02be 089A     		ldr	r2, [sp, #32]
 1111 02c0 FFF7FEFF 		bl	usb_packet_read_to_queue
 1112 02c4 0FE0     		b	.L52
 1113              	.L51:
 1114              		.loc 2 397 0
 1115 02c6 039B     		ldr	r3, [sp, #12]
 1116 02c8 9B69     		ldr	r3, [r3, #24]
 1117              		.loc 2 396 0
 1118 02ca DB68     		ldr	r3, [r3, #12]
 1119 02cc 0198     		ldr	r0, [sp, #4]
 1120 02ce 1946     		mov	r1, r3
 1121 02d0 089A     		ldr	r2, [sp, #32]
ARM GAS  /tmp/ccyM3aPD.s 			page 21


 1122 02d2 FFF7FEFF 		bl	usb_packet_read_to_buffer
 1123              		.loc 2 399 0
 1124 02d6 039B     		ldr	r3, [sp, #12]
 1125 02d8 9B69     		ldr	r3, [r3, #24]
 1126 02da 039A     		ldr	r2, [sp, #12]
 1127 02dc 9269     		ldr	r2, [r2, #24]
 1128 02de D168     		ldr	r1, [r2, #12]
 1129 02e0 089A     		ldr	r2, [sp, #32]
 1130 02e2 0A44     		add	r2, r2, r1
 1131 02e4 DA60     		str	r2, [r3, #12]
 1132              	.L52:
 1133              		.loc 2 402 0
 1134 02e6 039B     		ldr	r3, [sp, #12]
 1135 02e8 9B69     		ldr	r3, [r3, #24]
 1136 02ea 039A     		ldr	r2, [sp, #12]
 1137 02ec 9269     		ldr	r2, [r2, #24]
 1138 02ee 9168     		ldr	r1, [r2, #8]
 1139 02f0 089A     		ldr	r2, [sp, #32]
 1140 02f2 0A44     		add	r2, r2, r1
 1141 02f4 9A60     		str	r2, [r3, #8]
 1142              		.loc 2 403 0
 1143 02f6 039B     		ldr	r3, [sp, #12]
 1144 02f8 9B69     		ldr	r3, [r3, #24]
 1145 02fa 039A     		ldr	r2, [sp, #12]
 1146 02fc 9269     		ldr	r2, [r2, #24]
 1147 02fe 5168     		ldr	r1, [r2, #4]
 1148 0300 089A     		ldr	r2, [sp, #32]
 1149 0302 8A1A     		subs	r2, r1, r2
 1150 0304 5A60     		str	r2, [r3, #4]
 1151              		.loc 2 404 0
 1152 0306 039B     		ldr	r3, [sp, #12]
 1153 0308 9B69     		ldr	r3, [r3, #24]
 1154 030a 039A     		ldr	r2, [sp, #12]
 1155 030c 9269     		ldr	r2, [r2, #24]
 1156 030e 128A     		ldrh	r2, [r2, #16]
 1157 0310 013A     		subs	r2, r2, #1
 1158 0312 92B2     		uxth	r2, r2
 1159 0314 1A82     		strh	r2, [r3, #16]	@ movhi
 1160              		.loc 2 408 0
 1161 0316 039B     		ldr	r3, [sp, #12]
 1162 0318 5B8A     		ldrh	r3, [r3, #18]
 1163 031a 1A46     		mov	r2, r3
 1164 031c 089B     		ldr	r3, [sp, #32]
 1165 031e 9A42     		cmp	r2, r3
 1166 0320 04D8     		bhi	.L53
 1167              		.loc 2 408 0 is_stmt 0 discriminator 1
 1168 0322 039B     		ldr	r3, [sp, #12]
 1169 0324 9B69     		ldr	r3, [r3, #24]
 1170 0326 1B8A     		ldrh	r3, [r3, #16]
 1171 0328 002B     		cmp	r3, #0
 1172 032a 1BD1     		bne	.L54
 1173              	.L53:
 1174              		.loc 2 410 0 is_stmt 1
 1175 032c 079B     		ldr	r3, [sp, #28]
 1176 032e 5B89     		ldrh	r3, [r3, #10]
 1177 0330 9AB2     		uxth	r2, r3
 1178 0332 059B     		ldr	r3, [sp, #20]
ARM GAS  /tmp/ccyM3aPD.s 			page 22


 1179 0334 0121     		movs	r1, #1
 1180 0336 01FA03F3 		lsl	r3, r1, r3
 1181 033a 9BB2     		uxth	r3, r3
 1182 033c DB43     		mvns	r3, r3
 1183 033e 9BB2     		uxth	r3, r3
 1184 0340 1340     		ands	r3, r3, r2
 1185 0342 9BB2     		uxth	r3, r3
 1186 0344 9AB2     		uxth	r2, r3
 1187 0346 079B     		ldr	r3, [sp, #28]
 1188 0348 5A81     		strh	r2, [r3, #10]	@ movhi
 1189 034a 079A     		ldr	r2, [sp, #28]
 1190 034c 059B     		ldr	r3, [sp, #20]
 1191 034e 0233     		adds	r3, r3, #2
 1192 0350 9B00     		lsls	r3, r3, #2
 1193 0352 1344     		add	r3, r3, r2
 1194 0354 5B68     		ldr	r3, [r3, #4]
 1195 0356 DB68     		ldr	r3, [r3, #12]
 1196 0358 059A     		ldr	r2, [sp, #20]
 1197 035a D2B2     		uxtb	r2, r2
 1198 035c 0798     		ldr	r0, [sp, #28]
 1199 035e 1146     		mov	r1, r2
 1200 0360 9847     		blx	r3
 1201 0362 0DE0     		b	.L49
 1202              	.L54:
 1203              		.loc 2 414 0
 1204 0364 0E4A     		ldr	r2, .L58
 1205 0366 0E4B     		ldr	r3, .L58
 1206 0368 0599     		ldr	r1, [sp, #20]
 1207 036a 53F82130 		ldr	r3, [r3, r1, lsl #2]
 1208 036e 23F49043 		bic	r3, r3, #18432
 1209 0372 23F07003 		bic	r3, r3, #112
 1210 0376 83F44051 		eor	r1, r3, #12288
 1211 037a 059B     		ldr	r3, [sp, #20]
 1212 037c 42F82310 		str	r1, [r2, r3, lsl #2]
 1213              	.L49:
 1214              	.LBE13:
 1215              		.loc 2 418 0
 1216 0380 074B     		ldr	r3, .L58
 1217 0382 5B6C     		ldr	r3, [r3, #68]
 1218 0384 0993     		str	r3, [sp, #36]
 1219              	.L43:
 1220              	.LBE9:
 1221              		.loc 2 340 0 discriminator 1
 1222 0386 099B     		ldr	r3, [sp, #36]
 1223 0388 03F40043 		and	r3, r3, #32768
 1224 038c 002B     		cmp	r3, #0
 1225 038e 7FF4A8AE 		bne	.L55
 1226              		.loc 2 421 0
 1227 0392 FFF7FEFF 		bl	dbg_check_leave_isr
 1228 0396 FFF7FEFF 		bl	_port_irq_epilogue
 1229              		.loc 2 422 0
 1230 039a 0BB0     		add	sp, sp, #44
 1231              		@ sp needed
 1232 039c 5DF804FB 		ldr	pc, [sp], #4
 1233              	.L59:
 1234              		.align	2
 1235              	.L58:
ARM GAS  /tmp/ccyM3aPD.s 			page 23


 1236 03a0 005C0040 		.word	1073765376
 1237              		.cfi_endproc
 1238              	.LFE125:
 1239              		.size	Vector16C, .-Vector16C
 1240 03a4 AFF30080 		.section	.text.usb_lld_init,"ax",%progbits
 1240      AFF30080 
 1240      AFF30080 
 1241              		.align	2
 1242              		.p2align 4,,15
 1243              		.global	usb_lld_init
 1244              		.thumb
 1245              		.thumb_func
 1246              		.type	usb_lld_init, %function
 1247              	usb_lld_init:
 1248              	.LFB126:
 1249              		.loc 2 434 0
 1250              		.cfi_startproc
 1251              		@ args = 0, pretend = 0, frame = 0
 1252              		@ frame_needed = 0, uses_anonymous_args = 0
 1253 0000 08B5     		push	{r3, lr}
 1254              		.cfi_def_cfa_offset 8
 1255              		.cfi_offset 3, -8
 1256              		.cfi_offset 14, -4
 1257              		.loc 2 437 0
 1258 0002 0248     		ldr	r0, .L61
 1259 0004 FFF7FEFF 		bl	usbObjectInit
 1260              		.loc 2 438 0
 1261 0008 08BD     		pop	{r3, pc}
 1262              	.L62:
 1263 000a 00BF     		.align	2
 1264              	.L61:
 1265 000c 00000000 		.word	USBD1
 1266              		.cfi_endproc
 1267              	.LFE126:
 1268              		.size	usb_lld_init, .-usb_lld_init
 1269              		.section	.text.usb_lld_start,"ax",%progbits
 1270              		.align	2
 1271              		.p2align 4,,15
 1272              		.global	usb_lld_start
 1273              		.thumb
 1274              		.thumb_func
 1275              		.type	usb_lld_start, %function
 1276              	usb_lld_start:
 1277              	.LFB127:
 1278              		.loc 2 447 0
 1279              		.cfi_startproc
 1280              		@ args = 0, pretend = 0, frame = 8
 1281              		@ frame_needed = 0, uses_anonymous_args = 0
 1282 0000 00B5     		push	{lr}
 1283              		.cfi_def_cfa_offset 4
 1284              		.cfi_offset 14, -4
 1285 0002 83B0     		sub	sp, sp, #12
 1286              		.cfi_def_cfa_offset 16
 1287 0004 0190     		str	r0, [sp, #4]
 1288              		.loc 2 449 0
 1289 0006 019B     		ldr	r3, [sp, #4]
 1290 0008 1B78     		ldrb	r3, [r3]	@ zero_extendqisi2
ARM GAS  /tmp/ccyM3aPD.s 			page 24


 1291 000a 012B     		cmp	r3, #1
 1292 000c 1AD1     		bne	.L63
 1293              		.loc 2 452 0
 1294 000e 019A     		ldr	r2, [sp, #4]
 1295 0010 0E4B     		ldr	r3, .L66
 1296 0012 9A42     		cmp	r2, r3
 1297 0014 13D1     		bne	.L65
 1298              		.loc 2 454 0
 1299 0016 0E4B     		ldr	r3, .L66+4
 1300 0018 0D4A     		ldr	r2, .L66+4
 1301 001a D269     		ldr	r2, [r2, #28]
 1302 001c 42F40002 		orr	r2, r2, #8388608
 1303 0020 DA61     		str	r2, [r3, #28]
 1304              		.loc 2 456 0
 1305 0022 0C4B     		ldr	r3, .L66+8
 1306 0024 0122     		movs	r2, #1
 1307 0026 1A64     		str	r2, [r3, #64]
 1308              		.loc 2 459 0
 1309 0028 4A20     		movs	r0, #74
 1310 002a D021     		movs	r1, #208
 1311 002c FFF7FEFF 		bl	nvicEnableVector
 1312              		.loc 2 461 0
 1313 0030 4B20     		movs	r0, #75
 1314 0032 E021     		movs	r1, #224
 1315 0034 FFF7FEFF 		bl	nvicEnableVector
 1316              		.loc 2 464 0
 1317 0038 064B     		ldr	r3, .L66+8
 1318 003a 0022     		movs	r2, #0
 1319 003c 1A64     		str	r2, [r3, #64]
 1320              	.L65:
 1321              		.loc 2 468 0
 1322 003e 0198     		ldr	r0, [sp, #4]
 1323 0040 FFF7FEFF 		bl	_usb_reset
 1324              	.L63:
 1325              		.loc 2 471 0
 1326 0044 03B0     		add	sp, sp, #12
 1327              		@ sp needed
 1328 0046 5DF804FB 		ldr	pc, [sp], #4
 1329              	.L67:
 1330 004a 00BF     		.align	2
 1331              	.L66:
 1332 004c 00000000 		.word	USBD1
 1333 0050 00100240 		.word	1073876992
 1334 0054 005C0040 		.word	1073765376
 1335              		.cfi_endproc
 1336              	.LFE127:
 1337              		.size	usb_lld_start, .-usb_lld_start
 1338 0058 AFF30080 		.section	.text.usb_lld_stop,"ax",%progbits
 1338      AFF30080 
 1339              		.align	2
 1340              		.p2align 4,,15
 1341              		.global	usb_lld_stop
 1342              		.thumb
 1343              		.thumb_func
 1344              		.type	usb_lld_stop, %function
 1345              	usb_lld_stop:
 1346              	.LFB128:
ARM GAS  /tmp/ccyM3aPD.s 			page 25


 1347              		.loc 2 480 0
 1348              		.cfi_startproc
 1349              		@ args = 0, pretend = 0, frame = 8
 1350              		@ frame_needed = 0, uses_anonymous_args = 0
 1351 0000 00B5     		push	{lr}
 1352              		.cfi_def_cfa_offset 4
 1353              		.cfi_offset 14, -4
 1354 0002 83B0     		sub	sp, sp, #12
 1355              		.cfi_def_cfa_offset 16
 1356 0004 0190     		str	r0, [sp, #4]
 1357              		.loc 2 483 0
 1358 0006 019B     		ldr	r3, [sp, #4]
 1359 0008 1B78     		ldrb	r3, [r3]	@ zero_extendqisi2
 1360 000a 012B     		cmp	r3, #1
 1361 000c 12D1     		bne	.L68
 1362              		.loc 2 485 0
 1363 000e 019A     		ldr	r2, [sp, #4]
 1364 0010 0A4B     		ldr	r3, .L70
 1365 0012 9A42     		cmp	r2, r3
 1366 0014 0ED1     		bne	.L68
 1367              		.loc 2 486 0
 1368 0016 4A20     		movs	r0, #74
 1369 0018 FFF7FEFF 		bl	nvicDisableVector
 1370              		.loc 2 487 0
 1371 001c 4B20     		movs	r0, #75
 1372 001e FFF7FEFF 		bl	nvicDisableVector
 1373              		.loc 2 488 0
 1374 0022 074B     		ldr	r3, .L70+4
 1375 0024 0322     		movs	r2, #3
 1376 0026 1A64     		str	r2, [r3, #64]
 1377              		.loc 2 489 0
 1378 0028 064B     		ldr	r3, .L70+8
 1379 002a 064A     		ldr	r2, .L70+8
 1380 002c D269     		ldr	r2, [r2, #28]
 1381 002e 22F40002 		bic	r2, r2, #8388608
 1382 0032 DA61     		str	r2, [r3, #28]
 1383              	.L68:
 1384              		.loc 2 493 0
 1385 0034 03B0     		add	sp, sp, #12
 1386              		@ sp needed
 1387 0036 5DF804FB 		ldr	pc, [sp], #4
 1388              	.L71:
 1389 003a 00BF     		.align	2
 1390              	.L70:
 1391 003c 00000000 		.word	USBD1
 1392 0040 005C0040 		.word	1073765376
 1393 0044 00100240 		.word	1073876992
 1394              		.cfi_endproc
 1395              	.LFE128:
 1396              		.size	usb_lld_stop, .-usb_lld_stop
 1397 0048 AFF30080 		.section	.text.usb_lld_reset,"ax",%progbits
 1397      AFF30080 
 1398              		.align	2
 1399              		.p2align 4,,15
 1400              		.global	usb_lld_reset
 1401              		.thumb
 1402              		.thumb_func
ARM GAS  /tmp/ccyM3aPD.s 			page 26


 1403              		.type	usb_lld_reset, %function
 1404              	usb_lld_reset:
 1405              	.LFB129:
 1406              		.loc 2 502 0
 1407              		.cfi_startproc
 1408              		@ args = 0, pretend = 0, frame = 16
 1409              		@ frame_needed = 0, uses_anonymous_args = 0
 1410 0000 00B5     		push	{lr}
 1411              		.cfi_def_cfa_offset 4
 1412              		.cfi_offset 14, -4
 1413 0002 85B0     		sub	sp, sp, #20
 1414              		.cfi_def_cfa_offset 24
 1415 0004 0190     		str	r0, [sp, #4]
 1416              		.loc 2 506 0
 1417 0006 124B     		ldr	r3, .L74
 1418 0008 0022     		movs	r2, #0
 1419 000a 1A65     		str	r2, [r3, #80]
 1420              		.loc 2 507 0
 1421 000c 104B     		ldr	r3, .L74
 1422 000e 0022     		movs	r2, #0
 1423 0010 5A64     		str	r2, [r3, #68]
 1424              		.loc 2 508 0
 1425 0012 0F4B     		ldr	r3, .L74
 1426 0014 8022     		movs	r2, #128
 1427 0016 DA64     		str	r2, [r3, #76]
 1428              		.loc 2 509 0
 1429 0018 4FF41C43 		mov	r3, #39936
 1430 001c 0393     		str	r3, [sp, #12]
 1431              		.loc 2 513 0
 1432 001e 019B     		ldr	r3, [sp, #4]
 1433 0020 5B68     		ldr	r3, [r3, #4]
 1434 0022 DB68     		ldr	r3, [r3, #12]
 1435 0024 002B     		cmp	r3, #0
 1436 0026 03D0     		beq	.L73
 1437              		.loc 2 514 0
 1438 0028 039B     		ldr	r3, [sp, #12]
 1439 002a 43F40073 		orr	r3, r3, #512
 1440 002e 0393     		str	r3, [sp, #12]
 1441              	.L73:
 1442              		.loc 2 515 0
 1443 0030 074B     		ldr	r3, .L74
 1444 0032 039A     		ldr	r2, [sp, #12]
 1445 0034 1A64     		str	r2, [r3, #64]
 1446              		.loc 2 518 0
 1447 0036 0198     		ldr	r0, [sp, #4]
 1448 0038 FFF7FEFF 		bl	usb_pm_reset
 1449              		.loc 2 521 0
 1450 003c 019B     		ldr	r3, [sp, #4]
 1451 003e 054A     		ldr	r2, .L74+4
 1452 0040 DA60     		str	r2, [r3, #12]
 1453              		.loc 2 522 0
 1454 0042 0198     		ldr	r0, [sp, #4]
 1455 0044 0021     		movs	r1, #0
 1456 0046 FFF7FEFF 		bl	usb_lld_init_endpoint
 1457              		.loc 2 523 0
 1458 004a 05B0     		add	sp, sp, #20
 1459              		@ sp needed
ARM GAS  /tmp/ccyM3aPD.s 			page 27


 1460 004c 5DF804FB 		ldr	pc, [sp], #4
 1461              	.L75:
 1462              		.align	2
 1463              	.L74:
 1464 0050 005C0040 		.word	1073765376
 1465 0054 00000000 		.word	ep0config
 1466              		.cfi_endproc
 1467              	.LFE129:
 1468              		.size	usb_lld_reset, .-usb_lld_reset
 1469 0058 AFF30080 		.section	.text.usb_lld_set_address,"ax",%progbits
 1469      AFF30080 
 1470              		.align	2
 1471              		.p2align 4,,15
 1472              		.global	usb_lld_set_address
 1473              		.thumb
 1474              		.thumb_func
 1475              		.type	usb_lld_set_address, %function
 1476              	usb_lld_set_address:
 1477              	.LFB130:
 1478              		.loc 2 532 0
 1479              		.cfi_startproc
 1480              		@ args = 0, pretend = 0, frame = 8
 1481              		@ frame_needed = 0, uses_anonymous_args = 0
 1482              		@ link register save eliminated.
 1483 0000 82B0     		sub	sp, sp, #8
 1484              		.cfi_def_cfa_offset 8
 1485 0002 0190     		str	r0, [sp, #4]
 1486              		.loc 2 534 0
 1487 0004 044B     		ldr	r3, .L77
 1488 0006 019A     		ldr	r2, [sp, #4]
 1489 0008 92F87E20 		ldrb	r2, [r2, #126]	@ zero_extendqisi2
 1490 000c 62F07F02 		orn	r2, r2, #127
 1491 0010 D2B2     		uxtb	r2, r2
 1492 0012 DA64     		str	r2, [r3, #76]
 1493              		.loc 2 535 0
 1494 0014 02B0     		add	sp, sp, #8
 1495              		@ sp needed
 1496 0016 7047     		bx	lr
 1497              	.L78:
 1498              		.align	2
 1499              	.L77:
 1500 0018 005C0040 		.word	1073765376
 1501              		.cfi_endproc
 1502              	.LFE130:
 1503              		.size	usb_lld_set_address, .-usb_lld_set_address
 1504 001c AFF30080 		.section	.text.usb_lld_init_endpoint,"ax",%progbits
 1505              		.align	2
 1506              		.p2align 4,,15
 1507              		.global	usb_lld_init_endpoint
 1508              		.thumb
 1509              		.thumb_func
 1510              		.type	usb_lld_init_endpoint, %function
 1511              	usb_lld_init_endpoint:
 1512              	.LFB131:
 1513              		.loc 2 545 0
 1514              		.cfi_startproc
 1515              		@ args = 0, pretend = 0, frame = 24
ARM GAS  /tmp/ccyM3aPD.s 			page 28


 1516              		@ frame_needed = 0, uses_anonymous_args = 0
 1517 0000 10B5     		push	{r4, lr}
 1518              		.cfi_def_cfa_offset 8
 1519              		.cfi_offset 4, -8
 1520              		.cfi_offset 14, -4
 1521 0002 86B0     		sub	sp, sp, #24
 1522              		.cfi_def_cfa_offset 32
 1523 0004 0190     		str	r0, [sp, #4]
 1524 0006 0B46     		mov	r3, r1
 1525 0008 8DF80330 		strb	r3, [sp, #3]
 1526              		.loc 2 548 0
 1527 000c 9DF80330 		ldrb	r3, [sp, #3]	@ zero_extendqisi2
 1528 0010 019A     		ldr	r2, [sp, #4]
 1529 0012 0233     		adds	r3, r3, #2
 1530 0014 9B00     		lsls	r3, r3, #2
 1531 0016 1344     		add	r3, r3, r2
 1532 0018 5B68     		ldr	r3, [r3, #4]
 1533 001a 0493     		str	r3, [sp, #16]
 1534              		.loc 2 551 0
 1535 001c 049B     		ldr	r3, [sp, #16]
 1536 001e 1B68     		ldr	r3, [r3]
 1537 0020 03F00303 		and	r3, r3, #3
 1538 0024 022B     		cmp	r3, #2
 1539 0026 08D0     		beq	.L81
 1540 0028 032B     		cmp	r3, #3
 1541 002a 0AD0     		beq	.L82
 1542 002c 012B     		cmp	r3, #1
 1543 002e 0DD1     		bne	.L90
 1544              		.loc 2 553 0
 1545 0030 4FF48063 		mov	r3, #1024
 1546 0034 ADF81430 		strh	r3, [sp, #20]	@ movhi
 1547              		.loc 2 554 0
 1548 0038 0CE0     		b	.L84
 1549              	.L81:
 1550              		.loc 2 556 0
 1551 003a 0023     		movs	r3, #0
 1552 003c ADF81430 		strh	r3, [sp, #20]	@ movhi
 1553              		.loc 2 557 0
 1554 0040 08E0     		b	.L84
 1555              	.L82:
 1556              		.loc 2 559 0
 1557 0042 4FF4C063 		mov	r3, #1536
 1558 0046 ADF81430 		strh	r3, [sp, #20]	@ movhi
 1559              		.loc 2 560 0
 1560 004a 03E0     		b	.L84
 1561              	.L90:
 1562              		.loc 2 562 0
 1563 004c 4FF40073 		mov	r3, #512
 1564 0050 ADF81430 		strh	r3, [sp, #20]	@ movhi
 1565              	.L84:
 1566              		.loc 2 566 0
 1567 0054 049B     		ldr	r3, [sp, #16]
 1568 0056 9B68     		ldr	r3, [r3, #8]
 1569 0058 002B     		cmp	r3, #0
 1570 005a 05D0     		beq	.L85
 1571              		.loc 2 567 0
 1572 005c BDF81430 		ldrh	r3, [sp, #20]	@ movhi
ARM GAS  /tmp/ccyM3aPD.s 			page 29


 1573 0060 43F02003 		orr	r3, r3, #32
 1574 0064 ADF81430 		strh	r3, [sp, #20]	@ movhi
 1575              	.L85:
 1576              		.loc 2 570 0
 1577 0068 049B     		ldr	r3, [sp, #16]
 1578 006a DB68     		ldr	r3, [r3, #12]
 1579 006c 002B     		cmp	r3, #0
 1580 006e 05D0     		beq	.L86
 1581              		.loc 2 571 0
 1582 0070 BDF81430 		ldrh	r3, [sp, #20]	@ movhi
 1583 0074 43F40053 		orr	r3, r3, #8192
 1584 0078 ADF81430 		strh	r3, [sp, #20]	@ movhi
 1585              	.L86:
 1586              		.loc 2 574 0
 1587 007c 344A     		ldr	r2, .L91
 1588 007e 9DF80310 		ldrb	r1, [sp, #3]	@ zero_extendqisi2
 1589 0082 BDF81400 		ldrh	r0, [sp, #20]
 1590 0086 9DF80330 		ldrb	r3, [sp, #3]	@ zero_extendqisi2
 1591 008a 0343     		orrs	r3, r3, r0
 1592 008c 23F4F043 		bic	r3, r3, #30720
 1593 0090 23F07003 		bic	r3, r3, #112
 1594 0094 42F82130 		str	r3, [r2, r1, lsl #2]
 1595              		.loc 2 575 0
 1596 0098 2D4A     		ldr	r2, .L91
 1597 009a 9DF80310 		ldrb	r1, [sp, #3]	@ zero_extendqisi2
 1598 009e 2C4B     		ldr	r3, .L91
 1599 00a0 9DF80300 		ldrb	r0, [sp, #3]	@ zero_extendqisi2
 1600 00a4 53F82000 		ldr	r0, [r3, r0, lsl #2]
 1601 00a8 BDF81440 		ldrh	r4, [sp, #20]
 1602 00ac 47F67003 		movw	r3, #30832
 1603 00b0 2340     		ands	r3, r3, r4
 1604 00b2 4340     		eors	r3, r3, r0
 1605 00b4 42F82130 		str	r3, [r2, r1, lsl #2]
 1606              		.loc 2 578 0
 1607 00b8 049B     		ldr	r3, [sp, #16]
 1608 00ba 5B8A     		ldrh	r3, [r3, #18]
 1609 00bc 3E2B     		cmp	r3, #62
 1610 00be 13D9     		bls	.L87
 1611              		.loc 2 579 0
 1612 00c0 049B     		ldr	r3, [sp, #16]
 1613 00c2 5B8A     		ldrh	r3, [r3, #18]
 1614 00c4 013B     		subs	r3, r3, #1
 1615 00c6 43F01F03 		orr	r3, r3, #31
 1616 00ca 0133     		adds	r3, r3, #1
 1617 00cc 002B     		cmp	r3, #0
 1618 00ce 00DA     		bge	.L88
 1619 00d0 1F33     		adds	r3, r3, #31
 1620              	.L88:
 1621 00d2 5B11     		asrs	r3, r3, #5
 1622 00d4 9B02     		lsls	r3, r3, #10
 1623 00d6 9BB2     		uxth	r3, r3
 1624 00d8 6FEA4343 		mvn	r3, r3, lsl #17
 1625 00dc 6FEA5343 		mvn	r3, r3, lsr #17
 1626 00e0 9BB2     		uxth	r3, r3
 1627 00e2 ADF81630 		strh	r3, [sp, #22]	@ movhi
 1628 00e6 0CE0     		b	.L89
 1629              	.L87:
ARM GAS  /tmp/ccyM3aPD.s 			page 30


 1630              		.loc 2 582 0
 1631 00e8 049B     		ldr	r3, [sp, #16]
 1632 00ea 5B8A     		ldrh	r3, [r3, #18]
 1633 00ec 013B     		subs	r3, r3, #1
 1634 00ee 43F00103 		orr	r3, r3, #1
 1635 00f2 0133     		adds	r3, r3, #1
 1636 00f4 DA0F     		lsrs	r2, r3, #31
 1637 00f6 1344     		add	r3, r3, r2
 1638 00f8 5B10     		asrs	r3, r3, #1
 1639 00fa 9BB2     		uxth	r3, r3
 1640 00fc 9B02     		lsls	r3, r3, #10
 1641 00fe ADF81630 		strh	r3, [sp, #22]	@ movhi
 1642              	.L89:
 1643              		.loc 2 583 0
 1644 0102 134B     		ldr	r3, .L91
 1645 0104 1A6D     		ldr	r2, [r3, #80]
 1646 0106 9DF80330 		ldrb	r3, [sp, #3]	@ zero_extendqisi2
 1647 010a DB00     		lsls	r3, r3, #3
 1648 010c 1344     		add	r3, r3, r2
 1649 010e 03F10053 		add	r3, r3, #536870912
 1650 0112 03F54053 		add	r3, r3, #12288
 1651 0116 5B00     		lsls	r3, r3, #1
 1652 0118 0393     		str	r3, [sp, #12]
 1653              		.loc 2 584 0
 1654 011a 039B     		ldr	r3, [sp, #12]
 1655 011c 0022     		movs	r2, #0
 1656 011e 9A80     		strh	r2, [r3, #4]	@ movhi
 1657              		.loc 2 585 0
 1658 0120 039B     		ldr	r3, [sp, #12]
 1659 0122 BDF81620 		ldrh	r2, [sp, #22]	@ movhi
 1660 0126 9A81     		strh	r2, [r3, #12]	@ movhi
 1661              		.loc 2 586 0
 1662 0128 049B     		ldr	r3, [sp, #16]
 1663 012a 1B8A     		ldrh	r3, [r3, #16]
 1664 012c 0198     		ldr	r0, [sp, #4]
 1665 012e 1946     		mov	r1, r3
 1666 0130 FFF7FEFF 		bl	usb_pm_alloc
 1667 0134 0246     		mov	r2, r0
 1668 0136 039B     		ldr	r3, [sp, #12]
 1669 0138 1A60     		str	r2, [r3]
 1670              		.loc 2 587 0
 1671 013a 049B     		ldr	r3, [sp, #16]
 1672 013c 5B8A     		ldrh	r3, [r3, #18]
 1673 013e 0198     		ldr	r0, [sp, #4]
 1674 0140 1946     		mov	r1, r3
 1675 0142 FFF7FEFF 		bl	usb_pm_alloc
 1676 0146 0246     		mov	r2, r0
 1677 0148 039B     		ldr	r3, [sp, #12]
 1678 014a 9A60     		str	r2, [r3, #8]
 1679              		.loc 2 588 0
 1680 014c 06B0     		add	sp, sp, #24
 1681              		@ sp needed
 1682 014e 10BD     		pop	{r4, pc}
 1683              	.L92:
 1684              		.align	2
 1685              	.L91:
 1686 0150 005C0040 		.word	1073765376
ARM GAS  /tmp/ccyM3aPD.s 			page 31


 1687              		.cfi_endproc
 1688              	.LFE131:
 1689              		.size	usb_lld_init_endpoint, .-usb_lld_init_endpoint
 1690 0154 AFF30080 		.section	.text.usb_lld_disable_endpoints,"ax",%progbits
 1690      AFF30080 
 1690      AFF30080 
 1691              		.align	2
 1692              		.p2align 4,,15
 1693              		.global	usb_lld_disable_endpoints
 1694              		.thumb
 1695              		.thumb_func
 1696              		.type	usb_lld_disable_endpoints, %function
 1697              	usb_lld_disable_endpoints:
 1698              	.LFB132:
 1699              		.loc 2 597 0
 1700              		.cfi_startproc
 1701              		@ args = 0, pretend = 0, frame = 16
 1702              		@ frame_needed = 0, uses_anonymous_args = 0
 1703 0000 00B5     		push	{lr}
 1704              		.cfi_def_cfa_offset 4
 1705              		.cfi_offset 14, -4
 1706 0002 85B0     		sub	sp, sp, #20
 1707              		.cfi_def_cfa_offset 24
 1708 0004 0190     		str	r0, [sp, #4]
 1709              		.loc 2 601 0
 1710 0006 0198     		ldr	r0, [sp, #4]
 1711 0008 FFF7FEFF 		bl	usb_pm_reset
 1712              		.loc 2 604 0
 1713 000c 0123     		movs	r3, #1
 1714 000e 0393     		str	r3, [sp, #12]
 1715 0010 0FE0     		b	.L94
 1716              	.L95:
 1717              		.loc 2 605 0 discriminator 2
 1718 0012 0B4B     		ldr	r3, .L96
 1719 0014 0A4A     		ldr	r2, .L96
 1720 0016 0399     		ldr	r1, [sp, #12]
 1721 0018 52F82110 		ldr	r1, [r2, r1, lsl #2]
 1722 001c 039A     		ldr	r2, [sp, #12]
 1723 001e 43F82210 		str	r1, [r3, r2, lsl #2]
 1724              		.loc 2 606 0 discriminator 2
 1725 0022 074B     		ldr	r3, .L96
 1726 0024 039A     		ldr	r2, [sp, #12]
 1727 0026 0021     		movs	r1, #0
 1728 0028 43F82210 		str	r1, [r3, r2, lsl #2]
 1729              		.loc 2 604 0 discriminator 2
 1730 002c 039B     		ldr	r3, [sp, #12]
 1731 002e 0133     		adds	r3, r3, #1
 1732 0030 0393     		str	r3, [sp, #12]
 1733              	.L94:
 1734              		.loc 2 604 0 is_stmt 0 discriminator 1
 1735 0032 039B     		ldr	r3, [sp, #12]
 1736 0034 072B     		cmp	r3, #7
 1737 0036 ECD9     		bls	.L95
 1738              		.loc 2 608 0 is_stmt 1
 1739 0038 05B0     		add	sp, sp, #20
 1740              		@ sp needed
 1741 003a 5DF804FB 		ldr	pc, [sp], #4
ARM GAS  /tmp/ccyM3aPD.s 			page 32


 1742              	.L97:
 1743 003e 00BF     		.align	2
 1744              	.L96:
 1745 0040 005C0040 		.word	1073765376
 1746              		.cfi_endproc
 1747              	.LFE132:
 1748              		.size	usb_lld_disable_endpoints, .-usb_lld_disable_endpoints
 1749 0044 AFF30080 		.section	.text.usb_lld_get_status_out,"ax",%progbits
 1749      AFF30080 
 1749      AFF30080 
 1750              		.align	2
 1751              		.p2align 4,,15
 1752              		.global	usb_lld_get_status_out
 1753              		.thumb
 1754              		.thumb_func
 1755              		.type	usb_lld_get_status_out, %function
 1756              	usb_lld_get_status_out:
 1757              	.LFB133:
 1758              		.loc 2 622 0
 1759              		.cfi_startproc
 1760              		@ args = 0, pretend = 0, frame = 8
 1761              		@ frame_needed = 0, uses_anonymous_args = 0
 1762              		@ link register save eliminated.
 1763 0000 82B0     		sub	sp, sp, #8
 1764              		.cfi_def_cfa_offset 8
 1765 0002 0190     		str	r0, [sp, #4]
 1766 0004 0B46     		mov	r3, r1
 1767 0006 8DF80330 		strb	r3, [sp, #3]
 1768              		.loc 2 625 0
 1769 000a 0A4B     		ldr	r3, .L104
 1770 000c 9DF80320 		ldrb	r2, [sp, #3]	@ zero_extendqisi2
 1771 0010 53F82230 		ldr	r3, [r3, r2, lsl #2]
 1772 0014 03F44053 		and	r3, r3, #12288
 1773 0018 002B     		cmp	r3, #0
 1774 001a 03D0     		beq	.L100
 1775 001c B3F5805F 		cmp	r3, #4096
 1776 0020 02D0     		beq	.L101
 1777 0022 03E0     		b	.L103
 1778              	.L100:
 1779              		.loc 2 627 0
 1780 0024 0023     		movs	r3, #0
 1781 0026 02E0     		b	.L102
 1782              	.L101:
 1783              		.loc 2 629 0
 1784 0028 0123     		movs	r3, #1
 1785 002a 00E0     		b	.L102
 1786              	.L103:
 1787              		.loc 2 631 0
 1788 002c 0223     		movs	r3, #2
 1789              	.L102:
 1790              		.loc 2 633 0
 1791 002e 1846     		mov	r0, r3
 1792 0030 02B0     		add	sp, sp, #8
 1793              		@ sp needed
 1794 0032 7047     		bx	lr
 1795              	.L105:
 1796              		.align	2
ARM GAS  /tmp/ccyM3aPD.s 			page 33


 1797              	.L104:
 1798 0034 005C0040 		.word	1073765376
 1799              		.cfi_endproc
 1800              	.LFE133:
 1801              		.size	usb_lld_get_status_out, .-usb_lld_get_status_out
 1802 0038 AFF30080 		.section	.text.usb_lld_get_status_in,"ax",%progbits
 1802      AFF30080 
 1803              		.align	2
 1804              		.p2align 4,,15
 1805              		.global	usb_lld_get_status_in
 1806              		.thumb
 1807              		.thumb_func
 1808              		.type	usb_lld_get_status_in, %function
 1809              	usb_lld_get_status_in:
 1810              	.LFB134:
 1811              		.loc 2 647 0
 1812              		.cfi_startproc
 1813              		@ args = 0, pretend = 0, frame = 8
 1814              		@ frame_needed = 0, uses_anonymous_args = 0
 1815              		@ link register save eliminated.
 1816 0000 82B0     		sub	sp, sp, #8
 1817              		.cfi_def_cfa_offset 8
 1818 0002 0190     		str	r0, [sp, #4]
 1819 0004 0B46     		mov	r3, r1
 1820 0006 8DF80330 		strb	r3, [sp, #3]
 1821              		.loc 2 650 0
 1822 000a 0A4B     		ldr	r3, .L112
 1823 000c 9DF80320 		ldrb	r2, [sp, #3]	@ zero_extendqisi2
 1824 0010 53F82230 		ldr	r3, [r3, r2, lsl #2]
 1825 0014 03F03003 		and	r3, r3, #48
 1826 0018 002B     		cmp	r3, #0
 1827 001a 02D0     		beq	.L108
 1828 001c 102B     		cmp	r3, #16
 1829 001e 02D0     		beq	.L109
 1830 0020 03E0     		b	.L111
 1831              	.L108:
 1832              		.loc 2 652 0
 1833 0022 0023     		movs	r3, #0
 1834 0024 02E0     		b	.L110
 1835              	.L109:
 1836              		.loc 2 654 0
 1837 0026 0123     		movs	r3, #1
 1838 0028 00E0     		b	.L110
 1839              	.L111:
 1840              		.loc 2 656 0
 1841 002a 0223     		movs	r3, #2
 1842              	.L110:
 1843              		.loc 2 658 0
 1844 002c 1846     		mov	r0, r3
 1845 002e 02B0     		add	sp, sp, #8
 1846              		@ sp needed
 1847 0030 7047     		bx	lr
 1848              	.L113:
 1849 0032 00BF     		.align	2
 1850              	.L112:
 1851 0034 005C0040 		.word	1073765376
 1852              		.cfi_endproc
ARM GAS  /tmp/ccyM3aPD.s 			page 34


 1853              	.LFE134:
 1854              		.size	usb_lld_get_status_in, .-usb_lld_get_status_in
 1855 0038 AFF30080 		.section	.text.usb_lld_read_setup,"ax",%progbits
 1855      AFF30080 
 1856              		.align	2
 1857              		.p2align 4,,15
 1858              		.global	usb_lld_read_setup
 1859              		.thumb
 1860              		.thumb_func
 1861              		.type	usb_lld_read_setup, %function
 1862              	usb_lld_read_setup:
 1863              	.LFB135:
 1864              		.loc 2 674 0
 1865              		.cfi_startproc
 1866              		@ args = 0, pretend = 0, frame = 32
 1867              		@ frame_needed = 0, uses_anonymous_args = 0
 1868              		@ link register save eliminated.
 1869 0000 88B0     		sub	sp, sp, #32
 1870              		.cfi_def_cfa_offset 32
 1871 0002 0390     		str	r0, [sp, #12]
 1872 0004 0B46     		mov	r3, r1
 1873 0006 0192     		str	r2, [sp, #4]
 1874 0008 8DF80B30 		strb	r3, [sp, #11]
 1875              		.loc 2 680 0
 1876 000c 144B     		ldr	r3, .L117
 1877 000e 1A6D     		ldr	r2, [r3, #80]
 1878 0010 9DF80B30 		ldrb	r3, [sp, #11]	@ zero_extendqisi2
 1879 0014 DB00     		lsls	r3, r3, #3
 1880 0016 1344     		add	r3, r3, r2
 1881 0018 03F10053 		add	r3, r3, #536870912
 1882 001c 03F54053 		add	r3, r3, #12288
 1883 0020 5B00     		lsls	r3, r3, #1
 1884 0022 0593     		str	r3, [sp, #20]
 1885              		.loc 2 681 0
 1886 0024 059B     		ldr	r3, [sp, #20]
 1887 0026 9B68     		ldr	r3, [r3, #8]
 1888 0028 03F10053 		add	r3, r3, #536870912
 1889 002c 03F54053 		add	r3, r3, #12288
 1890 0030 5B00     		lsls	r3, r3, #1
 1891 0032 0793     		str	r3, [sp, #28]
 1892              		.loc 2 682 0
 1893 0034 0023     		movs	r3, #0
 1894 0036 0693     		str	r3, [sp, #24]
 1895 0038 0CE0     		b	.L115
 1896              	.L116:
 1897              		.loc 2 683 0 discriminator 2
 1898 003a 079B     		ldr	r3, [sp, #28]
 1899 003c 1A1D     		adds	r2, r3, #4
 1900 003e 0792     		str	r2, [sp, #28]
 1901 0040 1B68     		ldr	r3, [r3]
 1902 0042 9AB2     		uxth	r2, r3
 1903 0044 019B     		ldr	r3, [sp, #4]
 1904 0046 1A80     		strh	r2, [r3]	@ movhi
 1905              		.loc 2 684 0 discriminator 2
 1906 0048 019B     		ldr	r3, [sp, #4]
 1907 004a 0233     		adds	r3, r3, #2
 1908 004c 0193     		str	r3, [sp, #4]
ARM GAS  /tmp/ccyM3aPD.s 			page 35


 1909              		.loc 2 682 0 discriminator 2
 1910 004e 069B     		ldr	r3, [sp, #24]
 1911 0050 0133     		adds	r3, r3, #1
 1912 0052 0693     		str	r3, [sp, #24]
 1913              	.L115:
 1914              		.loc 2 682 0 is_stmt 0 discriminator 1
 1915 0054 069B     		ldr	r3, [sp, #24]
 1916 0056 032B     		cmp	r3, #3
 1917 0058 EFD9     		bls	.L116
 1918              		.loc 2 686 0 is_stmt 1
 1919 005a 08B0     		add	sp, sp, #32
 1920              		@ sp needed
 1921 005c 7047     		bx	lr
 1922              	.L118:
 1923 005e 00BF     		.align	2
 1924              	.L117:
 1925 0060 005C0040 		.word	1073765376
 1926              		.cfi_endproc
 1927              	.LFE135:
 1928              		.size	usb_lld_read_setup, .-usb_lld_read_setup
 1929 0064 AFF30080 		.section	.text.usb_lld_prepare_receive,"ax",%progbits
 1929      AFF30080 
 1929      AFF30080 
 1930              		.align	2
 1931              		.p2align 4,,15
 1932              		.global	usb_lld_prepare_receive
 1933              		.thumb
 1934              		.thumb_func
 1935              		.type	usb_lld_prepare_receive, %function
 1936              	usb_lld_prepare_receive:
 1937              	.LFB136:
 1938              		.loc 2 696 0
 1939              		.cfi_startproc
 1940              		@ args = 0, pretend = 0, frame = 16
 1941              		@ frame_needed = 0, uses_anonymous_args = 0
 1942              		@ link register save eliminated.
 1943 0000 84B0     		sub	sp, sp, #16
 1944              		.cfi_def_cfa_offset 16
 1945 0002 0190     		str	r0, [sp, #4]
 1946 0004 0B46     		mov	r3, r1
 1947 0006 8DF80330 		strb	r3, [sp, #3]
 1948              		.loc 2 697 0
 1949 000a 9DF80330 		ldrb	r3, [sp, #3]	@ zero_extendqisi2
 1950 000e 019A     		ldr	r2, [sp, #4]
 1951 0010 0233     		adds	r3, r3, #2
 1952 0012 9B00     		lsls	r3, r3, #2
 1953 0014 1344     		add	r3, r3, r2
 1954 0016 5B68     		ldr	r3, [r3, #4]
 1955 0018 9B69     		ldr	r3, [r3, #24]
 1956 001a 0393     		str	r3, [sp, #12]
 1957              		.loc 2 700 0
 1958 001c 039B     		ldr	r3, [sp, #12]
 1959 001e 5B68     		ldr	r3, [r3, #4]
 1960 0020 002B     		cmp	r3, #0
 1961 0022 03D1     		bne	.L120
 1962              		.loc 2 701 0
 1963 0024 039B     		ldr	r3, [sp, #12]
ARM GAS  /tmp/ccyM3aPD.s 			page 36


 1964 0026 0122     		movs	r2, #1
 1965 0028 1A82     		strh	r2, [r3, #16]	@ movhi
 1966 002a 18E0     		b	.L119
 1967              	.L120:
 1968              		.loc 2 703 0
 1969 002c 039B     		ldr	r3, [sp, #12]
 1970 002e 5A68     		ldr	r2, [r3, #4]
 1971 0030 9DF80330 		ldrb	r3, [sp, #3]	@ zero_extendqisi2
 1972 0034 0199     		ldr	r1, [sp, #4]
 1973 0036 0233     		adds	r3, r3, #2
 1974 0038 9B00     		lsls	r3, r3, #2
 1975 003a 0B44     		add	r3, r3, r1
 1976 003c 5B68     		ldr	r3, [r3, #4]
 1977 003e 5B8A     		ldrh	r3, [r3, #18]
 1978 0040 1344     		add	r3, r3, r2
 1979 0042 5A1E     		subs	r2, r3, #1
 1980              		.loc 2 704 0
 1981 0044 9DF80330 		ldrb	r3, [sp, #3]	@ zero_extendqisi2
 1982 0048 0199     		ldr	r1, [sp, #4]
 1983 004a 0233     		adds	r3, r3, #2
 1984 004c 9B00     		lsls	r3, r3, #2
 1985 004e 0B44     		add	r3, r3, r1
 1986 0050 5B68     		ldr	r3, [r3, #4]
 1987 0052 5B8A     		ldrh	r3, [r3, #18]
 1988              		.loc 2 703 0
 1989 0054 B2FBF3F3 		udiv	r3, r2, r3
 1990 0058 9AB2     		uxth	r2, r3
 1991 005a 039B     		ldr	r3, [sp, #12]
 1992 005c 1A82     		strh	r2, [r3, #16]	@ movhi
 1993              	.L119:
 1994              		.loc 2 705 0
 1995 005e 04B0     		add	sp, sp, #16
 1996              		@ sp needed
 1997 0060 7047     		bx	lr
 1998              		.cfi_endproc
 1999              	.LFE136:
 2000              		.size	usb_lld_prepare_receive, .-usb_lld_prepare_receive
 2001 0062 00BFAFF3 		.section	.text.usb_lld_prepare_transmit,"ax",%progbits
 2001      0080AFF3 
 2001      0080AFF3 
 2001      0080
 2002              		.align	2
 2003              		.p2align 4,,15
 2004              		.global	usb_lld_prepare_transmit
 2005              		.thumb
 2006              		.thumb_func
 2007              		.type	usb_lld_prepare_transmit, %function
 2008              	usb_lld_prepare_transmit:
 2009              	.LFB137:
 2010              		.loc 2 715 0
 2011              		.cfi_startproc
 2012              		@ args = 0, pretend = 0, frame = 16
 2013              		@ frame_needed = 0, uses_anonymous_args = 0
 2014 0000 00B5     		push	{lr}
 2015              		.cfi_def_cfa_offset 4
 2016              		.cfi_offset 14, -4
 2017 0002 85B0     		sub	sp, sp, #20
ARM GAS  /tmp/ccyM3aPD.s 			page 37


 2018              		.cfi_def_cfa_offset 24
 2019 0004 0190     		str	r0, [sp, #4]
 2020 0006 0B46     		mov	r3, r1
 2021 0008 8DF80330 		strb	r3, [sp, #3]
 2022              		.loc 2 717 0
 2023 000c 9DF80330 		ldrb	r3, [sp, #3]	@ zero_extendqisi2
 2024 0010 019A     		ldr	r2, [sp, #4]
 2025 0012 0233     		adds	r3, r3, #2
 2026 0014 9B00     		lsls	r3, r3, #2
 2027 0016 1344     		add	r3, r3, r2
 2028 0018 5B68     		ldr	r3, [r3, #4]
 2029 001a 5B69     		ldr	r3, [r3, #20]
 2030 001c 0293     		str	r3, [sp, #8]
 2031              		.loc 2 720 0
 2032 001e 029B     		ldr	r3, [sp, #8]
 2033 0020 5B68     		ldr	r3, [r3, #4]
 2034 0022 0393     		str	r3, [sp, #12]
 2035              		.loc 2 721 0
 2036 0024 9DF80330 		ldrb	r3, [sp, #3]	@ zero_extendqisi2
 2037 0028 019A     		ldr	r2, [sp, #4]
 2038 002a 0233     		adds	r3, r3, #2
 2039 002c 9B00     		lsls	r3, r3, #2
 2040 002e 1344     		add	r3, r3, r2
 2041 0030 5B68     		ldr	r3, [r3, #4]
 2042 0032 1B8A     		ldrh	r3, [r3, #16]
 2043 0034 1A46     		mov	r2, r3
 2044 0036 039B     		ldr	r3, [sp, #12]
 2045 0038 9A42     		cmp	r2, r3
 2046 003a 08D2     		bcs	.L123
 2047              		.loc 2 722 0
 2048 003c 9DF80330 		ldrb	r3, [sp, #3]	@ zero_extendqisi2
 2049 0040 019A     		ldr	r2, [sp, #4]
 2050 0042 0233     		adds	r3, r3, #2
 2051 0044 9B00     		lsls	r3, r3, #2
 2052 0046 1344     		add	r3, r3, r2
 2053 0048 5B68     		ldr	r3, [r3, #4]
 2054 004a 1B8A     		ldrh	r3, [r3, #16]
 2055 004c 0393     		str	r3, [sp, #12]
 2056              	.L123:
 2057              		.loc 2 724 0
 2058 004e 029B     		ldr	r3, [sp, #8]
 2059 0050 1B78     		ldrb	r3, [r3]	@ zero_extendqisi2
 2060 0052 002B     		cmp	r3, #0
 2061 0054 13D0     		beq	.L124
 2062              		.loc 2 725 0
 2063 0056 154B     		ldr	r3, .L126
 2064 0058 1A6D     		ldr	r2, [r3, #80]
 2065 005a 9DF80330 		ldrb	r3, [sp, #3]	@ zero_extendqisi2
 2066 005e DB00     		lsls	r3, r3, #3
 2067 0060 1344     		add	r3, r3, r2
 2068 0062 03F10053 		add	r3, r3, #536870912
 2069 0066 03F54053 		add	r3, r3, #12288
 2070 006a 5B00     		lsls	r3, r3, #1
 2071 006c 1A46     		mov	r2, r3
 2072 006e 029B     		ldr	r3, [sp, #8]
 2073 0070 DB68     		ldr	r3, [r3, #12]
 2074 0072 1046     		mov	r0, r2
ARM GAS  /tmp/ccyM3aPD.s 			page 38


 2075 0074 1946     		mov	r1, r3
 2076 0076 039A     		ldr	r2, [sp, #12]
 2077 0078 FFF7FEFF 		bl	usb_packet_write_from_queue
 2078 007c 12E0     		b	.L122
 2079              	.L124:
 2080              		.loc 2 728 0
 2081 007e 0B4B     		ldr	r3, .L126
 2082 0080 1A6D     		ldr	r2, [r3, #80]
 2083 0082 9DF80330 		ldrb	r3, [sp, #3]	@ zero_extendqisi2
 2084 0086 DB00     		lsls	r3, r3, #3
 2085 0088 1344     		add	r3, r3, r2
 2086 008a 03F10053 		add	r3, r3, #536870912
 2087 008e 03F54053 		add	r3, r3, #12288
 2088 0092 5B00     		lsls	r3, r3, #1
 2089 0094 1A46     		mov	r2, r3
 2090 0096 029B     		ldr	r3, [sp, #8]
 2091 0098 DB68     		ldr	r3, [r3, #12]
 2092 009a 1046     		mov	r0, r2
 2093 009c 1946     		mov	r1, r3
 2094 009e 039A     		ldr	r2, [sp, #12]
 2095 00a0 FFF7FEFF 		bl	usb_packet_write_from_buffer
 2096              	.L122:
 2097              		.loc 2 730 0
 2098 00a4 05B0     		add	sp, sp, #20
 2099              		@ sp needed
 2100 00a6 5DF804FB 		ldr	pc, [sp], #4
 2101              	.L127:
 2102 00aa 00BF     		.align	2
 2103              	.L126:
 2104 00ac 005C0040 		.word	1073765376
 2105              		.cfi_endproc
 2106              	.LFE137:
 2107              		.size	usb_lld_prepare_transmit, .-usb_lld_prepare_transmit
 2108              		.section	.text.usb_lld_start_out,"ax",%progbits
 2109              		.align	2
 2110              		.p2align 4,,15
 2111              		.global	usb_lld_start_out
 2112              		.thumb
 2113              		.thumb_func
 2114              		.type	usb_lld_start_out, %function
 2115              	usb_lld_start_out:
 2116              	.LFB138:
 2117              		.loc 2 740 0
 2118              		.cfi_startproc
 2119              		@ args = 0, pretend = 0, frame = 8
 2120              		@ frame_needed = 0, uses_anonymous_args = 0
 2121              		@ link register save eliminated.
 2122 0000 82B0     		sub	sp, sp, #8
 2123              		.cfi_def_cfa_offset 8
 2124 0002 0190     		str	r0, [sp, #4]
 2125 0004 0B46     		mov	r3, r1
 2126 0006 8DF80330 		strb	r3, [sp, #3]
 2127              		.loc 2 744 0
 2128 000a 094A     		ldr	r2, .L129
 2129 000c 9DF80310 		ldrb	r1, [sp, #3]	@ zero_extendqisi2
 2130 0010 074B     		ldr	r3, .L129
 2131 0012 9DF80300 		ldrb	r0, [sp, #3]	@ zero_extendqisi2
ARM GAS  /tmp/ccyM3aPD.s 			page 39


 2132 0016 53F82030 		ldr	r3, [r3, r0, lsl #2]
 2133 001a 23F49043 		bic	r3, r3, #18432
 2134 001e 23F07003 		bic	r3, r3, #112
 2135 0022 83F44053 		eor	r3, r3, #12288
 2136 0026 42F82130 		str	r3, [r2, r1, lsl #2]
 2137              		.loc 2 745 0
 2138 002a 02B0     		add	sp, sp, #8
 2139              		@ sp needed
 2140 002c 7047     		bx	lr
 2141              	.L130:
 2142 002e 00BF     		.align	2
 2143              	.L129:
 2144 0030 005C0040 		.word	1073765376
 2145              		.cfi_endproc
 2146              	.LFE138:
 2147              		.size	usb_lld_start_out, .-usb_lld_start_out
 2148 0034 AFF30080 		.section	.text.usb_lld_start_in,"ax",%progbits
 2148      AFF30080 
 2148      AFF30080 
 2149              		.align	2
 2150              		.p2align 4,,15
 2151              		.global	usb_lld_start_in
 2152              		.thumb
 2153              		.thumb_func
 2154              		.type	usb_lld_start_in, %function
 2155              	usb_lld_start_in:
 2156              	.LFB139:
 2157              		.loc 2 755 0
 2158              		.cfi_startproc
 2159              		@ args = 0, pretend = 0, frame = 8
 2160              		@ frame_needed = 0, uses_anonymous_args = 0
 2161              		@ link register save eliminated.
 2162 0000 82B0     		sub	sp, sp, #8
 2163              		.cfi_def_cfa_offset 8
 2164 0002 0190     		str	r0, [sp, #4]
 2165 0004 0B46     		mov	r3, r1
 2166 0006 8DF80330 		strb	r3, [sp, #3]
 2167              		.loc 2 759 0
 2168 000a 094A     		ldr	r2, .L132
 2169 000c 9DF80310 		ldrb	r1, [sp, #3]	@ zero_extendqisi2
 2170 0010 074B     		ldr	r3, .L132
 2171 0012 9DF80300 		ldrb	r0, [sp, #3]	@ zero_extendqisi2
 2172 0016 53F82030 		ldr	r3, [r3, r0, lsl #2]
 2173 001a 23F4F043 		bic	r3, r3, #30720
 2174 001e 23F04003 		bic	r3, r3, #64
 2175 0022 83F03003 		eor	r3, r3, #48
 2176 0026 42F82130 		str	r3, [r2, r1, lsl #2]
 2177              		.loc 2 760 0
 2178 002a 02B0     		add	sp, sp, #8
 2179              		@ sp needed
 2180 002c 7047     		bx	lr
 2181              	.L133:
 2182 002e 00BF     		.align	2
 2183              	.L132:
 2184 0030 005C0040 		.word	1073765376
 2185              		.cfi_endproc
 2186              	.LFE139:
ARM GAS  /tmp/ccyM3aPD.s 			page 40


 2187              		.size	usb_lld_start_in, .-usb_lld_start_in
 2188 0034 AFF30080 		.section	.text.usb_lld_stall_out,"ax",%progbits
 2188      AFF30080 
 2188      AFF30080 
 2189              		.align	2
 2190              		.p2align 4,,15
 2191              		.global	usb_lld_stall_out
 2192              		.thumb
 2193              		.thumb_func
 2194              		.type	usb_lld_stall_out, %function
 2195              	usb_lld_stall_out:
 2196              	.LFB140:
 2197              		.loc 2 770 0
 2198              		.cfi_startproc
 2199              		@ args = 0, pretend = 0, frame = 8
 2200              		@ frame_needed = 0, uses_anonymous_args = 0
 2201              		@ link register save eliminated.
 2202 0000 82B0     		sub	sp, sp, #8
 2203              		.cfi_def_cfa_offset 8
 2204 0002 0190     		str	r0, [sp, #4]
 2205 0004 0B46     		mov	r3, r1
 2206 0006 8DF80330 		strb	r3, [sp, #3]
 2207              		.loc 2 774 0
 2208 000a 094A     		ldr	r2, .L135
 2209 000c 9DF80310 		ldrb	r1, [sp, #3]	@ zero_extendqisi2
 2210 0010 074B     		ldr	r3, .L135
 2211 0012 9DF80300 		ldrb	r0, [sp, #3]	@ zero_extendqisi2
 2212 0016 53F82030 		ldr	r3, [r3, r0, lsl #2]
 2213 001a 23F49043 		bic	r3, r3, #18432
 2214 001e 23F07003 		bic	r3, r3, #112
 2215 0022 83F48053 		eor	r3, r3, #4096
 2216 0026 42F82130 		str	r3, [r2, r1, lsl #2]
 2217              		.loc 2 775 0
 2218 002a 02B0     		add	sp, sp, #8
 2219              		@ sp needed
 2220 002c 7047     		bx	lr
 2221              	.L136:
 2222 002e 00BF     		.align	2
 2223              	.L135:
 2224 0030 005C0040 		.word	1073765376
 2225              		.cfi_endproc
 2226              	.LFE140:
 2227              		.size	usb_lld_stall_out, .-usb_lld_stall_out
 2228 0034 AFF30080 		.section	.text.usb_lld_stall_in,"ax",%progbits
 2228      AFF30080 
 2228      AFF30080 
 2229              		.align	2
 2230              		.p2align 4,,15
 2231              		.global	usb_lld_stall_in
 2232              		.thumb
 2233              		.thumb_func
 2234              		.type	usb_lld_stall_in, %function
 2235              	usb_lld_stall_in:
 2236              	.LFB141:
 2237              		.loc 2 785 0
 2238              		.cfi_startproc
 2239              		@ args = 0, pretend = 0, frame = 8
ARM GAS  /tmp/ccyM3aPD.s 			page 41


 2240              		@ frame_needed = 0, uses_anonymous_args = 0
 2241              		@ link register save eliminated.
 2242 0000 82B0     		sub	sp, sp, #8
 2243              		.cfi_def_cfa_offset 8
 2244 0002 0190     		str	r0, [sp, #4]
 2245 0004 0B46     		mov	r3, r1
 2246 0006 8DF80330 		strb	r3, [sp, #3]
 2247              		.loc 2 789 0
 2248 000a 094A     		ldr	r2, .L138
 2249 000c 9DF80310 		ldrb	r1, [sp, #3]	@ zero_extendqisi2
 2250 0010 074B     		ldr	r3, .L138
 2251 0012 9DF80300 		ldrb	r0, [sp, #3]	@ zero_extendqisi2
 2252 0016 53F82030 		ldr	r3, [r3, r0, lsl #2]
 2253 001a 23F4F043 		bic	r3, r3, #30720
 2254 001e 23F04003 		bic	r3, r3, #64
 2255 0022 83F01003 		eor	r3, r3, #16
 2256 0026 42F82130 		str	r3, [r2, r1, lsl #2]
 2257              		.loc 2 790 0
 2258 002a 02B0     		add	sp, sp, #8
 2259              		@ sp needed
 2260 002c 7047     		bx	lr
 2261              	.L139:
 2262 002e 00BF     		.align	2
 2263              	.L138:
 2264 0030 005C0040 		.word	1073765376
 2265              		.cfi_endproc
 2266              	.LFE141:
 2267              		.size	usb_lld_stall_in, .-usb_lld_stall_in
 2268 0034 AFF30080 		.section	.text.usb_lld_clear_out,"ax",%progbits
 2268      AFF30080 
 2268      AFF30080 
 2269              		.align	2
 2270              		.p2align 4,,15
 2271              		.global	usb_lld_clear_out
 2272              		.thumb
 2273              		.thumb_func
 2274              		.type	usb_lld_clear_out, %function
 2275              	usb_lld_clear_out:
 2276              	.LFB142:
 2277              		.loc 2 800 0
 2278              		.cfi_startproc
 2279              		@ args = 0, pretend = 0, frame = 8
 2280              		@ frame_needed = 0, uses_anonymous_args = 0
 2281              		@ link register save eliminated.
 2282 0000 82B0     		sub	sp, sp, #8
 2283              		.cfi_def_cfa_offset 8
 2284 0002 0190     		str	r0, [sp, #4]
 2285 0004 0B46     		mov	r3, r1
 2286 0006 8DF80330 		strb	r3, [sp, #3]
 2287              		.loc 2 806 0
 2288 000a 0E4B     		ldr	r3, .L142
 2289 000c 9DF80320 		ldrb	r2, [sp, #3]	@ zero_extendqisi2
 2290 0010 53F82230 		ldr	r3, [r3, r2, lsl #2]
 2291 0014 03F44053 		and	r3, r3, #12288
 2292 0018 B3F5405F 		cmp	r3, #12288
 2293 001c 0FD0     		beq	.L140
 2294              		.loc 2 807 0
ARM GAS  /tmp/ccyM3aPD.s 			page 42


 2295 001e 094A     		ldr	r2, .L142
 2296 0020 9DF80310 		ldrb	r1, [sp, #3]	@ zero_extendqisi2
 2297 0024 074B     		ldr	r3, .L142
 2298 0026 9DF80300 		ldrb	r0, [sp, #3]	@ zero_extendqisi2
 2299 002a 53F82030 		ldr	r3, [r3, r0, lsl #2]
 2300 002e 23F4F043 		bic	r3, r3, #30720
 2301 0032 23F04003 		bic	r3, r3, #64
 2302 0036 83F40053 		eor	r3, r3, #8192
 2303 003a 42F82130 		str	r3, [r2, r1, lsl #2]
 2304              	.L140:
 2305              		.loc 2 808 0
 2306 003e 02B0     		add	sp, sp, #8
 2307              		@ sp needed
 2308 0040 7047     		bx	lr
 2309              	.L143:
 2310 0042 00BF     		.align	2
 2311              	.L142:
 2312 0044 005C0040 		.word	1073765376
 2313              		.cfi_endproc
 2314              	.LFE142:
 2315              		.size	usb_lld_clear_out, .-usb_lld_clear_out
 2316 0048 AFF30080 		.section	.text.usb_lld_clear_in,"ax",%progbits
 2316      AFF30080 
 2317              		.align	2
 2318              		.p2align 4,,15
 2319              		.global	usb_lld_clear_in
 2320              		.thumb
 2321              		.thumb_func
 2322              		.type	usb_lld_clear_in, %function
 2323              	usb_lld_clear_in:
 2324              	.LFB143:
 2325              		.loc 2 818 0
 2326              		.cfi_startproc
 2327              		@ args = 0, pretend = 0, frame = 8
 2328              		@ frame_needed = 0, uses_anonymous_args = 0
 2329              		@ link register save eliminated.
 2330 0000 82B0     		sub	sp, sp, #8
 2331              		.cfi_def_cfa_offset 8
 2332 0002 0190     		str	r0, [sp, #4]
 2333 0004 0B46     		mov	r3, r1
 2334 0006 8DF80330 		strb	r3, [sp, #3]
 2335              		.loc 2 824 0
 2336 000a 0D4B     		ldr	r3, .L146
 2337 000c 9DF80320 		ldrb	r2, [sp, #3]	@ zero_extendqisi2
 2338 0010 53F82230 		ldr	r3, [r3, r2, lsl #2]
 2339 0014 03F03003 		and	r3, r3, #48
 2340 0018 302B     		cmp	r3, #48
 2341 001a 0FD0     		beq	.L144
 2342              		.loc 2 825 0
 2343 001c 084A     		ldr	r2, .L146
 2344 001e 9DF80310 		ldrb	r1, [sp, #3]	@ zero_extendqisi2
 2345 0022 074B     		ldr	r3, .L146
 2346 0024 9DF80300 		ldrb	r0, [sp, #3]	@ zero_extendqisi2
 2347 0028 53F82030 		ldr	r3, [r3, r0, lsl #2]
 2348 002c 23F4F043 		bic	r3, r3, #30720
 2349 0030 23F04003 		bic	r3, r3, #64
 2350 0034 83F02003 		eor	r3, r3, #32
ARM GAS  /tmp/ccyM3aPD.s 			page 43


 2351 0038 42F82130 		str	r3, [r2, r1, lsl #2]
 2352              	.L144:
 2353              		.loc 2 826 0
 2354 003c 02B0     		add	sp, sp, #8
 2355              		@ sp needed
 2356 003e 7047     		bx	lr
 2357              	.L147:
 2358              		.align	2
 2359              	.L146:
 2360 0040 005C0040 		.word	1073765376
 2361              		.cfi_endproc
 2362              	.LFE143:
 2363              		.size	usb_lld_clear_in, .-usb_lld_clear_in
 2364 0044 AFF30080 		.text
 2364      AFF30080 
 2364      AFF30080 
 2365              	.Letext0:
 2366              		.file 3 "/usr/lib/gcc/arm-none-eabi/4.8/include/stddef.h"
 2367              		.file 4 "/usr/include/newlib/machine/_default_types.h"
 2368              		.file 5 "/usr/include/newlib/stdint.h"
 2369              		.file 6 "/home/dave/r2p-sdk/core/ChibiOS/os/ports/GCC/ARMCMx/chtypes.h"
 2370              		.file 7 "/home/dave/r2p-sdk/core/ChibiOS/os/kernel/include/chlists.h"
 2371              		.file 8 "/home/dave/r2p-sdk/core/ChibiOS/os/kernel/include/chthreads.h"
 2372              		.file 9 "/home/dave/r2p-sdk/core/ChibiOS/os/ports/GCC/ARMCMx/chcore_v7m.h"
 2373              		.file 10 "/home/dave/r2p-sdk/core/ChibiOS/os/kernel/include/chmtx.h"
 2374              		.file 11 "/home/dave/r2p-sdk/core/ChibiOS/os/kernel/include/chqueues.h"
 2375              		.file 12 "/home/dave/r2p-sdk/core/ChibiOS/os/hal/platforms/STM32F30x/stm32f30x.h"
 2376              		.file 13 "/home/dave/r2p-sdk/core/ChibiOS/os/hal/include/usb.h"
 2377              		.file 14 "/home/dave/r2p-sdk/core/ChibiOS/os/hal/platforms/STM32/USBv1/usb_lld.h"
 2378              		.file 15 "/home/dave/r2p-sdk/core/ChibiOS/os/hal/platforms/STM32/USBv1/stm32_usb.h"
 2379              		.file 16 "/home/dave/r2p-sdk/core/ChibiOS/os/kernel/include/chdebug.h"
 2380              		.file 17 "/home/dave/r2p-sdk/core/ChibiOS/os/ports/common/ARMCMx/CMSIS/include/core_cm4.h"
 2381              		.section	.debug_info,"",%progbits
 2382              	.Ldebug_info0:
 2383 0000 80140000 		.4byte	0x1480
 2384 0004 0400     		.2byte	0x4
 2385 0006 00000000 		.4byte	.Ldebug_abbrev0
 2386 000a 04       		.byte	0x4
 2387 000b 01       		.uleb128 0x1
 2388 000c CA070000 		.4byte	.LASF228
 2389 0010 01       		.byte	0x1
 2390 0011 FA090000 		.4byte	.LASF229
 2391 0015 00000000 		.4byte	.Ldebug_ranges0+0
 2392 0019 00000000 		.4byte	0
 2393 001d 00000000 		.4byte	.Ldebug_line0
 2394 0021 02       		.uleb128 0x2
 2395 0022 04       		.byte	0x4
 2396 0023 05       		.byte	0x5
 2397 0024 696E7400 		.ascii	"int\000"
 2398 0028 03       		.uleb128 0x3
 2399 0029 19000000 		.4byte	.LASF2
 2400 002d 03       		.byte	0x3
 2401 002e D4       		.byte	0xd4
 2402 002f 33000000 		.4byte	0x33
 2403 0033 04       		.uleb128 0x4
 2404 0034 04       		.byte	0x4
 2405 0035 07       		.byte	0x7
ARM GAS  /tmp/ccyM3aPD.s 			page 44


 2406 0036 84050000 		.4byte	.LASF0
 2407 003a 04       		.uleb128 0x4
 2408 003b 01       		.byte	0x1
 2409 003c 06       		.byte	0x6
 2410 003d EC010000 		.4byte	.LASF1
 2411 0041 03       		.uleb128 0x3
 2412 0042 1F010000 		.4byte	.LASF3
 2413 0046 04       		.byte	0x4
 2414 0047 1D       		.byte	0x1d
 2415 0048 4C000000 		.4byte	0x4c
 2416 004c 04       		.uleb128 0x4
 2417 004d 01       		.byte	0x1
 2418 004e 08       		.byte	0x8
 2419 004f 52020000 		.4byte	.LASF4
 2420 0053 04       		.uleb128 0x4
 2421 0054 02       		.byte	0x2
 2422 0055 05       		.byte	0x5
 2423 0056 CF080000 		.4byte	.LASF5
 2424 005a 03       		.uleb128 0x3
 2425 005b F1020000 		.4byte	.LASF6
 2426 005f 04       		.byte	0x4
 2427 0060 2B       		.byte	0x2b
 2428 0061 65000000 		.4byte	0x65
 2429 0065 04       		.uleb128 0x4
 2430 0066 02       		.byte	0x2
 2431 0067 07       		.byte	0x7
 2432 0068 D5090000 		.4byte	.LASF7
 2433 006c 03       		.uleb128 0x3
 2434 006d 750A0000 		.4byte	.LASF8
 2435 0071 04       		.byte	0x4
 2436 0072 3F       		.byte	0x3f
 2437 0073 77000000 		.4byte	0x77
 2438 0077 04       		.uleb128 0x4
 2439 0078 04       		.byte	0x4
 2440 0079 05       		.byte	0x5
 2441 007a 81010000 		.4byte	.LASF9
 2442 007e 03       		.uleb128 0x3
 2443 007f D3040000 		.4byte	.LASF10
 2444 0083 04       		.byte	0x4
 2445 0084 41       		.byte	0x41
 2446 0085 89000000 		.4byte	0x89
 2447 0089 04       		.uleb128 0x4
 2448 008a 04       		.byte	0x4
 2449 008b 07       		.byte	0x7
 2450 008c 36040000 		.4byte	.LASF11
 2451 0090 04       		.uleb128 0x4
 2452 0091 08       		.byte	0x8
 2453 0092 05       		.byte	0x5
 2454 0093 ED040000 		.4byte	.LASF12
 2455 0097 03       		.uleb128 0x3
 2456 0098 23040000 		.4byte	.LASF13
 2457 009c 04       		.byte	0x4
 2458 009d 5B       		.byte	0x5b
 2459 009e A2000000 		.4byte	0xa2
 2460 00a2 04       		.uleb128 0x4
 2461 00a3 08       		.byte	0x8
 2462 00a4 07       		.byte	0x7
ARM GAS  /tmp/ccyM3aPD.s 			page 45


 2463 00a5 E2060000 		.4byte	.LASF14
 2464 00a9 04       		.uleb128 0x4
 2465 00aa 04       		.byte	0x4
 2466 00ab 07       		.byte	0x7
 2467 00ac 20000000 		.4byte	.LASF15
 2468 00b0 05       		.uleb128 0x5
 2469 00b1 04       		.byte	0x4
 2470 00b2 04       		.uleb128 0x4
 2471 00b3 01       		.byte	0x1
 2472 00b4 08       		.byte	0x8
 2473 00b5 D6020000 		.4byte	.LASF16
 2474 00b9 06       		.uleb128 0x6
 2475 00ba 04       		.byte	0x4
 2476 00bb BF000000 		.4byte	0xbf
 2477 00bf 07       		.uleb128 0x7
 2478 00c0 B2000000 		.4byte	0xb2
 2479 00c4 03       		.uleb128 0x3
 2480 00c5 02020000 		.4byte	.LASF17
 2481 00c9 05       		.byte	0x5
 2482 00ca 2A       		.byte	0x2a
 2483 00cb 41000000 		.4byte	0x41
 2484 00cf 03       		.uleb128 0x3
 2485 00d0 1B070000 		.4byte	.LASF18
 2486 00d4 05       		.byte	0x5
 2487 00d5 36       		.byte	0x36
 2488 00d6 5A000000 		.4byte	0x5a
 2489 00da 03       		.uleb128 0x3
 2490 00db 59000000 		.4byte	.LASF19
 2491 00df 05       		.byte	0x5
 2492 00e0 41       		.byte	0x41
 2493 00e1 6C000000 		.4byte	0x6c
 2494 00e5 03       		.uleb128 0x3
 2495 00e6 97090000 		.4byte	.LASF20
 2496 00ea 05       		.byte	0x5
 2497 00eb 42       		.byte	0x42
 2498 00ec 7E000000 		.4byte	0x7e
 2499 00f0 03       		.uleb128 0x3
 2500 00f1 D9080000 		.4byte	.LASF21
 2501 00f5 05       		.byte	0x5
 2502 00f6 4E       		.byte	0x4e
 2503 00f7 97000000 		.4byte	0x97
 2504 00fb 03       		.uleb128 0x3
 2505 00fc 3B090000 		.4byte	.LASF22
 2506 0100 06       		.byte	0x6
 2507 0101 2B       		.byte	0x2b
 2508 0102 06010000 		.4byte	0x106
 2509 0106 04       		.uleb128 0x4
 2510 0107 01       		.byte	0x1
 2511 0108 02       		.byte	0x2
 2512 0109 B0020000 		.4byte	.LASF23
 2513 010d 03       		.uleb128 0x3
 2514 010e AF070000 		.4byte	.LASF24
 2515 0112 06       		.byte	0x6
 2516 0113 2C       		.byte	0x2c
 2517 0114 C4000000 		.4byte	0xc4
 2518 0118 03       		.uleb128 0x3
 2519 0119 A0010000 		.4byte	.LASF25
ARM GAS  /tmp/ccyM3aPD.s 			page 46


 2520 011d 06       		.byte	0x6
 2521 011e 2D       		.byte	0x2d
 2522 011f C4000000 		.4byte	0xc4
 2523 0123 03       		.uleb128 0x3
 2524 0124 88090000 		.4byte	.LASF26
 2525 0128 06       		.byte	0x6
 2526 0129 2E       		.byte	0x2e
 2527 012a C4000000 		.4byte	0xc4
 2528 012e 03       		.uleb128 0x3
 2529 012f 4C070000 		.4byte	.LASF27
 2530 0133 06       		.byte	0x6
 2531 0134 2F       		.byte	0x2f
 2532 0135 C4000000 		.4byte	0xc4
 2533 0139 03       		.uleb128 0x3
 2534 013a 46000000 		.4byte	.LASF28
 2535 013e 06       		.byte	0x6
 2536 013f 30       		.byte	0x30
 2537 0140 E5000000 		.4byte	0xe5
 2538 0144 03       		.uleb128 0x3
 2539 0145 2B070000 		.4byte	.LASF29
 2540 0149 06       		.byte	0x6
 2541 014a 31       		.byte	0x31
 2542 014b DA000000 		.4byte	0xda
 2543 014f 03       		.uleb128 0x3
 2544 0150 2D020000 		.4byte	.LASF30
 2545 0154 06       		.byte	0x6
 2546 0155 33       		.byte	0x33
 2547 0156 E5000000 		.4byte	0xe5
 2548 015a 03       		.uleb128 0x3
 2549 015b 29000000 		.4byte	.LASF31
 2550 015f 06       		.byte	0x6
 2551 0160 35       		.byte	0x35
 2552 0161 E5000000 		.4byte	0xe5
 2553 0165 03       		.uleb128 0x3
 2554 0166 7C030000 		.4byte	.LASF32
 2555 016a 06       		.byte	0x6
 2556 016b 36       		.byte	0x36
 2557 016c DA000000 		.4byte	0xda
 2558 0170 03       		.uleb128 0x3
 2559 0171 6A090000 		.4byte	.LASF33
 2560 0175 07       		.byte	0x7
 2561 0176 2A       		.byte	0x2a
 2562 0177 7B010000 		.4byte	0x17b
 2563 017b 08       		.uleb128 0x8
 2564 017c 6A090000 		.4byte	.LASF33
 2565 0180 4C       		.byte	0x4c
 2566 0181 08       		.byte	0x8
 2567 0182 5E       		.byte	0x5e
 2568 0183 84020000 		.4byte	0x284
 2569 0187 09       		.uleb128 0x9
 2570 0188 8A010000 		.4byte	.LASF34
 2571 018c 08       		.byte	0x8
 2572 018d 5F       		.byte	0x5f
 2573 018e A5020000 		.4byte	0x2a5
 2574 0192 00       		.byte	0
 2575 0193 09       		.uleb128 0x9
 2576 0194 99010000 		.4byte	.LASF35
ARM GAS  /tmp/ccyM3aPD.s 			page 47


 2577 0198 08       		.byte	0x8
 2578 0199 61       		.byte	0x61
 2579 019a A5020000 		.4byte	0x2a5
 2580 019e 04       		.byte	0x4
 2581 019f 09       		.uleb128 0x9
 2582 01a0 E0020000 		.4byte	.LASF36
 2583 01a4 08       		.byte	0x8
 2584 01a5 63       		.byte	0x63
 2585 01a6 39010000 		.4byte	0x139
 2586 01aa 08       		.byte	0x8
 2587 01ab 09       		.uleb128 0x9
 2588 01ac 40000000 		.4byte	.LASF37
 2589 01b0 08       		.byte	0x8
 2590 01b1 64       		.byte	0x64
 2591 01b2 38040000 		.4byte	0x438
 2592 01b6 0C       		.byte	0xc
 2593 01b7 09       		.uleb128 0x9
 2594 01b8 79010000 		.4byte	.LASF38
 2595 01bc 08       		.byte	0x8
 2596 01bd 66       		.byte	0x66
 2597 01be A5020000 		.4byte	0x2a5
 2598 01c2 10       		.byte	0x10
 2599 01c3 09       		.uleb128 0x9
 2600 01c4 13070000 		.4byte	.LASF39
 2601 01c8 08       		.byte	0x8
 2602 01c9 67       		.byte	0x67
 2603 01ca A5020000 		.4byte	0x2a5
 2604 01ce 14       		.byte	0x14
 2605 01cf 09       		.uleb128 0x9
 2606 01d0 C90A0000 		.4byte	.LASF40
 2607 01d4 08       		.byte	0x8
 2608 01d5 6E       		.byte	0x6e
 2609 01d6 B9000000 		.4byte	0xb9
 2610 01da 18       		.byte	0x18
 2611 01db 09       		.uleb128 0x9
 2612 01dc 570A0000 		.4byte	.LASF41
 2613 01e0 08       		.byte	0x8
 2614 01e1 74       		.byte	0x74
 2615 01e2 DA040000 		.4byte	0x4da
 2616 01e6 1C       		.byte	0x1c
 2617 01e7 09       		.uleb128 0x9
 2618 01e8 090B0000 		.4byte	.LASF42
 2619 01ec 08       		.byte	0x8
 2620 01ed 79       		.byte	0x79
 2621 01ee 18010000 		.4byte	0x118
 2622 01f2 20       		.byte	0x20
 2623 01f3 09       		.uleb128 0x9
 2624 01f4 60050000 		.4byte	.LASF43
 2625 01f8 08       		.byte	0x8
 2626 01f9 7D       		.byte	0x7d
 2627 01fa 0D010000 		.4byte	0x10d
 2628 01fe 21       		.byte	0x21
 2629 01ff 09       		.uleb128 0x9
 2630 0200 CD050000 		.4byte	.LASF44
 2631 0204 08       		.byte	0x8
 2632 0205 82       		.byte	0x82
 2633 0206 23010000 		.4byte	0x123
ARM GAS  /tmp/ccyM3aPD.s 			page 48


 2634 020a 22       		.byte	0x22
 2635 020b 09       		.uleb128 0x9
 2636 020c F8010000 		.4byte	.LASF45
 2637 0210 08       		.byte	0x8
 2638 0211 88       		.byte	0x88
 2639 0212 2E010000 		.4byte	0x12e
 2640 0216 23       		.byte	0x23
 2641 0217 09       		.uleb128 0x9
 2642 0218 33060000 		.4byte	.LASF46
 2643 021c 08       		.byte	0x8
 2644 021d 8F       		.byte	0x8f
 2645 021e 5E040000 		.4byte	0x45e
 2646 0222 24       		.byte	0x24
 2647 0223 0A       		.uleb128 0xa
 2648 0224 705F7500 		.ascii	"p_u\000"
 2649 0228 08       		.byte	0x8
 2650 0229 B4       		.byte	0xb4
 2651 022a A5040000 		.4byte	0x4a5
 2652 022e 28       		.byte	0x28
 2653 022f 09       		.uleb128 0x9
 2654 0230 56050000 		.4byte	.LASF47
 2655 0234 08       		.byte	0x8
 2656 0235 B9       		.byte	0xb9
 2657 0236 CB020000 		.4byte	0x2cb
 2658 023a 2C       		.byte	0x2c
 2659 023b 09       		.uleb128 0x9
 2660 023c 4E000000 		.4byte	.LASF48
 2661 0240 08       		.byte	0x8
 2662 0241 BF       		.byte	0xbf
 2663 0242 AB020000 		.4byte	0x2ab
 2664 0246 30       		.byte	0x30
 2665 0247 09       		.uleb128 0x9
 2666 0248 030B0000 		.4byte	.LASF49
 2667 024c 08       		.byte	0x8
 2668 024d C3       		.byte	0xc3
 2669 024e 44010000 		.4byte	0x144
 2670 0252 38       		.byte	0x38
 2671 0253 09       		.uleb128 0x9
 2672 0254 9D030000 		.4byte	.LASF50
 2673 0258 08       		.byte	0x8
 2674 0259 C9       		.byte	0xc9
 2675 025a 4F010000 		.4byte	0x14f
 2676 025e 3C       		.byte	0x3c
 2677 025f 09       		.uleb128 0x9
 2678 0260 B5010000 		.4byte	.LASF51
 2679 0264 08       		.byte	0x8
 2680 0265 D0       		.byte	0xd0
 2681 0266 E0040000 		.4byte	0x4e0
 2682 026a 40       		.byte	0x40
 2683 026b 09       		.uleb128 0x9
 2684 026c 71060000 		.4byte	.LASF52
 2685 0270 08       		.byte	0x8
 2686 0271 D4       		.byte	0xd4
 2687 0272 39010000 		.4byte	0x139
 2688 0276 44       		.byte	0x44
 2689 0277 09       		.uleb128 0x9
 2690 0278 A8050000 		.4byte	.LASF53
ARM GAS  /tmp/ccyM3aPD.s 			page 49


 2691 027c 08       		.byte	0x8
 2692 027d DA       		.byte	0xda
 2693 027e B0000000 		.4byte	0xb0
 2694 0282 48       		.byte	0x48
 2695 0283 00       		.byte	0
 2696 0284 0B       		.uleb128 0xb
 2697 0285 08       		.byte	0x8
 2698 0286 07       		.byte	0x7
 2699 0287 61       		.byte	0x61
 2700 0288 A5020000 		.4byte	0x2a5
 2701 028c 09       		.uleb128 0x9
 2702 028d 8A010000 		.4byte	.LASF34
 2703 0291 07       		.byte	0x7
 2704 0292 62       		.byte	0x62
 2705 0293 A5020000 		.4byte	0x2a5
 2706 0297 00       		.byte	0
 2707 0298 09       		.uleb128 0x9
 2708 0299 99010000 		.4byte	.LASF35
 2709 029d 07       		.byte	0x7
 2710 029e 64       		.byte	0x64
 2711 029f A5020000 		.4byte	0x2a5
 2712 02a3 04       		.byte	0x4
 2713 02a4 00       		.byte	0
 2714 02a5 06       		.uleb128 0x6
 2715 02a6 04       		.byte	0x4
 2716 02a7 70010000 		.4byte	0x170
 2717 02ab 03       		.uleb128 0x3
 2718 02ac A8090000 		.4byte	.LASF54
 2719 02b0 07       		.byte	0x7
 2720 02b1 66       		.byte	0x66
 2721 02b2 84020000 		.4byte	0x284
 2722 02b6 0B       		.uleb128 0xb
 2723 02b7 04       		.byte	0x4
 2724 02b8 07       		.byte	0x7
 2725 02b9 6B       		.byte	0x6b
 2726 02ba CB020000 		.4byte	0x2cb
 2727 02be 09       		.uleb128 0x9
 2728 02bf 8A010000 		.4byte	.LASF34
 2729 02c3 07       		.byte	0x7
 2730 02c4 6D       		.byte	0x6d
 2731 02c5 A5020000 		.4byte	0x2a5
 2732 02c9 00       		.byte	0
 2733 02ca 00       		.byte	0
 2734 02cb 03       		.uleb128 0x3
 2735 02cc 02060000 		.4byte	.LASF55
 2736 02d0 07       		.byte	0x7
 2737 02d1 70       		.byte	0x70
 2738 02d2 B6020000 		.4byte	0x2b6
 2739 02d6 03       		.uleb128 0x3
 2740 02d7 C5010000 		.4byte	.LASF56
 2741 02db 09       		.byte	0x9
 2742 02dc E5       		.byte	0xe5
 2743 02dd B0000000 		.4byte	0xb0
 2744 02e1 03       		.uleb128 0x3
 2745 02e2 16030000 		.4byte	.LASF57
 2746 02e6 09       		.byte	0x9
 2747 02e7 EB       		.byte	0xeb
ARM GAS  /tmp/ccyM3aPD.s 			page 50


 2748 02e8 F0000000 		.4byte	0xf0
 2749 02ec 0C       		.uleb128 0xc
 2750 02ed 96030000 		.4byte	.LASF58
 2751 02f1 64       		.byte	0x64
 2752 02f2 09       		.byte	0x9
 2753 02f3 0C01     		.2byte	0x10c
 2754 02f5 38040000 		.4byte	0x438
 2755 02f9 0D       		.uleb128 0xd
 2756 02fa 73313600 		.ascii	"s16\000"
 2757 02fe 09       		.byte	0x9
 2758 02ff 0E01     		.2byte	0x10e
 2759 0301 D6020000 		.4byte	0x2d6
 2760 0305 00       		.byte	0
 2761 0306 0D       		.uleb128 0xd
 2762 0307 73313700 		.ascii	"s17\000"
 2763 030b 09       		.byte	0x9
 2764 030c 0F01     		.2byte	0x10f
 2765 030e D6020000 		.4byte	0x2d6
 2766 0312 04       		.byte	0x4
 2767 0313 0D       		.uleb128 0xd
 2768 0314 73313800 		.ascii	"s18\000"
 2769 0318 09       		.byte	0x9
 2770 0319 1001     		.2byte	0x110
 2771 031b D6020000 		.4byte	0x2d6
 2772 031f 08       		.byte	0x8
 2773 0320 0D       		.uleb128 0xd
 2774 0321 73313900 		.ascii	"s19\000"
 2775 0325 09       		.byte	0x9
 2776 0326 1101     		.2byte	0x111
 2777 0328 D6020000 		.4byte	0x2d6
 2778 032c 0C       		.byte	0xc
 2779 032d 0D       		.uleb128 0xd
 2780 032e 73323000 		.ascii	"s20\000"
 2781 0332 09       		.byte	0x9
 2782 0333 1201     		.2byte	0x112
 2783 0335 D6020000 		.4byte	0x2d6
 2784 0339 10       		.byte	0x10
 2785 033a 0D       		.uleb128 0xd
 2786 033b 73323100 		.ascii	"s21\000"
 2787 033f 09       		.byte	0x9
 2788 0340 1301     		.2byte	0x113
 2789 0342 D6020000 		.4byte	0x2d6
 2790 0346 14       		.byte	0x14
 2791 0347 0D       		.uleb128 0xd
 2792 0348 73323200 		.ascii	"s22\000"
 2793 034c 09       		.byte	0x9
 2794 034d 1401     		.2byte	0x114
 2795 034f D6020000 		.4byte	0x2d6
 2796 0353 18       		.byte	0x18
 2797 0354 0D       		.uleb128 0xd
 2798 0355 73323300 		.ascii	"s23\000"
 2799 0359 09       		.byte	0x9
 2800 035a 1501     		.2byte	0x115
 2801 035c D6020000 		.4byte	0x2d6
 2802 0360 1C       		.byte	0x1c
 2803 0361 0D       		.uleb128 0xd
 2804 0362 73323400 		.ascii	"s24\000"
ARM GAS  /tmp/ccyM3aPD.s 			page 51


 2805 0366 09       		.byte	0x9
 2806 0367 1601     		.2byte	0x116
 2807 0369 D6020000 		.4byte	0x2d6
 2808 036d 20       		.byte	0x20
 2809 036e 0D       		.uleb128 0xd
 2810 036f 73323500 		.ascii	"s25\000"
 2811 0373 09       		.byte	0x9
 2812 0374 1701     		.2byte	0x117
 2813 0376 D6020000 		.4byte	0x2d6
 2814 037a 24       		.byte	0x24
 2815 037b 0D       		.uleb128 0xd
 2816 037c 73323600 		.ascii	"s26\000"
 2817 0380 09       		.byte	0x9
 2818 0381 1801     		.2byte	0x118
 2819 0383 D6020000 		.4byte	0x2d6
 2820 0387 28       		.byte	0x28
 2821 0388 0D       		.uleb128 0xd
 2822 0389 73323700 		.ascii	"s27\000"
 2823 038d 09       		.byte	0x9
 2824 038e 1901     		.2byte	0x119
 2825 0390 D6020000 		.4byte	0x2d6
 2826 0394 2C       		.byte	0x2c
 2827 0395 0D       		.uleb128 0xd
 2828 0396 73323800 		.ascii	"s28\000"
 2829 039a 09       		.byte	0x9
 2830 039b 1A01     		.2byte	0x11a
 2831 039d D6020000 		.4byte	0x2d6
 2832 03a1 30       		.byte	0x30
 2833 03a2 0D       		.uleb128 0xd
 2834 03a3 73323900 		.ascii	"s29\000"
 2835 03a7 09       		.byte	0x9
 2836 03a8 1B01     		.2byte	0x11b
 2837 03aa D6020000 		.4byte	0x2d6
 2838 03ae 34       		.byte	0x34
 2839 03af 0D       		.uleb128 0xd
 2840 03b0 73333000 		.ascii	"s30\000"
 2841 03b4 09       		.byte	0x9
 2842 03b5 1C01     		.2byte	0x11c
 2843 03b7 D6020000 		.4byte	0x2d6
 2844 03bb 38       		.byte	0x38
 2845 03bc 0D       		.uleb128 0xd
 2846 03bd 73333100 		.ascii	"s31\000"
 2847 03c1 09       		.byte	0x9
 2848 03c2 1D01     		.2byte	0x11d
 2849 03c4 D6020000 		.4byte	0x2d6
 2850 03c8 3C       		.byte	0x3c
 2851 03c9 0D       		.uleb128 0xd
 2852 03ca 723400   		.ascii	"r4\000"
 2853 03cd 09       		.byte	0x9
 2854 03ce 1F01     		.2byte	0x11f
 2855 03d0 D6020000 		.4byte	0x2d6
 2856 03d4 40       		.byte	0x40
 2857 03d5 0D       		.uleb128 0xd
 2858 03d6 723500   		.ascii	"r5\000"
 2859 03d9 09       		.byte	0x9
 2860 03da 2001     		.2byte	0x120
 2861 03dc D6020000 		.4byte	0x2d6
ARM GAS  /tmp/ccyM3aPD.s 			page 52


 2862 03e0 44       		.byte	0x44
 2863 03e1 0D       		.uleb128 0xd
 2864 03e2 723600   		.ascii	"r6\000"
 2865 03e5 09       		.byte	0x9
 2866 03e6 2101     		.2byte	0x121
 2867 03e8 D6020000 		.4byte	0x2d6
 2868 03ec 48       		.byte	0x48
 2869 03ed 0D       		.uleb128 0xd
 2870 03ee 723700   		.ascii	"r7\000"
 2871 03f1 09       		.byte	0x9
 2872 03f2 2201     		.2byte	0x122
 2873 03f4 D6020000 		.4byte	0x2d6
 2874 03f8 4C       		.byte	0x4c
 2875 03f9 0D       		.uleb128 0xd
 2876 03fa 723800   		.ascii	"r8\000"
 2877 03fd 09       		.byte	0x9
 2878 03fe 2301     		.2byte	0x123
 2879 0400 D6020000 		.4byte	0x2d6
 2880 0404 50       		.byte	0x50
 2881 0405 0D       		.uleb128 0xd
 2882 0406 723900   		.ascii	"r9\000"
 2883 0409 09       		.byte	0x9
 2884 040a 2401     		.2byte	0x124
 2885 040c D6020000 		.4byte	0x2d6
 2886 0410 54       		.byte	0x54
 2887 0411 0D       		.uleb128 0xd
 2888 0412 72313000 		.ascii	"r10\000"
 2889 0416 09       		.byte	0x9
 2890 0417 2501     		.2byte	0x125
 2891 0419 D6020000 		.4byte	0x2d6
 2892 041d 58       		.byte	0x58
 2893 041e 0D       		.uleb128 0xd
 2894 041f 72313100 		.ascii	"r11\000"
 2895 0423 09       		.byte	0x9
 2896 0424 2601     		.2byte	0x126
 2897 0426 D6020000 		.4byte	0x2d6
 2898 042a 5C       		.byte	0x5c
 2899 042b 0D       		.uleb128 0xd
 2900 042c 6C7200   		.ascii	"lr\000"
 2901 042f 09       		.byte	0x9
 2902 0430 2701     		.2byte	0x127
 2903 0432 D6020000 		.4byte	0x2d6
 2904 0436 60       		.byte	0x60
 2905 0437 00       		.byte	0
 2906 0438 0C       		.uleb128 0xc
 2907 0439 39020000 		.4byte	.LASF59
 2908 043d 04       		.byte	0x4
 2909 043e 09       		.byte	0x9
 2910 043f 3101     		.2byte	0x131
 2911 0441 53040000 		.4byte	0x453
 2912 0445 0D       		.uleb128 0xd
 2913 0446 72313300 		.ascii	"r13\000"
 2914 044a 09       		.byte	0x9
 2915 044b 3201     		.2byte	0x132
 2916 044d 53040000 		.4byte	0x453
 2917 0451 00       		.byte	0
 2918 0452 00       		.byte	0
ARM GAS  /tmp/ccyM3aPD.s 			page 53


 2919 0453 06       		.uleb128 0x6
 2920 0454 04       		.byte	0x4
 2921 0455 EC020000 		.4byte	0x2ec
 2922 0459 0E       		.uleb128 0xe
 2923 045a E5000000 		.4byte	0xe5
 2924 045e 0E       		.uleb128 0xe
 2925 045f 5A010000 		.4byte	0x15a
 2926 0463 08       		.uleb128 0x8
 2927 0464 E7040000 		.4byte	.LASF60
 2928 0468 10       		.byte	0x10
 2929 0469 0A       		.byte	0xa
 2930 046a 2C       		.byte	0x2c
 2931 046b 94040000 		.4byte	0x494
 2932 046f 09       		.uleb128 0x9
 2933 0470 05050000 		.4byte	.LASF61
 2934 0474 0A       		.byte	0xa
 2935 0475 2D       		.byte	0x2d
 2936 0476 AB020000 		.4byte	0x2ab
 2937 047a 00       		.byte	0
 2938 047b 09       		.uleb128 0x9
 2939 047c 00010000 		.4byte	.LASF62
 2940 0480 0A       		.byte	0xa
 2941 0481 2F       		.byte	0x2f
 2942 0482 A5020000 		.4byte	0x2a5
 2943 0486 08       		.byte	0x8
 2944 0487 09       		.uleb128 0x9
 2945 0488 D50A0000 		.4byte	.LASF63
 2946 048c 0A       		.byte	0xa
 2947 048d 31       		.byte	0x31
 2948 048e 94040000 		.4byte	0x494
 2949 0492 0C       		.byte	0xc
 2950 0493 00       		.byte	0
 2951 0494 06       		.uleb128 0x6
 2952 0495 04       		.byte	0x4
 2953 0496 63040000 		.4byte	0x463
 2954 049a 03       		.uleb128 0x3
 2955 049b E7040000 		.4byte	.LASF60
 2956 049f 0A       		.byte	0xa
 2957 04a0 33       		.byte	0x33
 2958 04a1 63040000 		.4byte	0x463
 2959 04a5 0F       		.uleb128 0xf
 2960 04a6 04       		.byte	0x4
 2961 04a7 08       		.byte	0x8
 2962 04a8 96       		.byte	0x96
 2963 04a9 DA040000 		.4byte	0x4da
 2964 04ad 10       		.uleb128 0x10
 2965 04ae CE090000 		.4byte	.LASF64
 2966 04b2 08       		.byte	0x8
 2967 04b3 9D       		.byte	0x9d
 2968 04b4 44010000 		.4byte	0x144
 2969 04b8 10       		.uleb128 0x10
 2970 04b9 08010000 		.4byte	.LASF65
 2971 04bd 08       		.byte	0x8
 2972 04be A4       		.byte	0xa4
 2973 04bf 44010000 		.4byte	0x144
 2974 04c3 10       		.uleb128 0x10
 2975 04c4 09030000 		.4byte	.LASF66
ARM GAS  /tmp/ccyM3aPD.s 			page 54


 2976 04c8 08       		.byte	0x8
 2977 04c9 AB       		.byte	0xab
 2978 04ca B0000000 		.4byte	0xb0
 2979 04ce 10       		.uleb128 0x10
 2980 04cf 2F010000 		.4byte	.LASF67
 2981 04d3 08       		.byte	0x8
 2982 04d4 B2       		.byte	0xb2
 2983 04d5 4F010000 		.4byte	0x14f
 2984 04d9 00       		.byte	0
 2985 04da 06       		.uleb128 0x6
 2986 04db 04       		.byte	0x4
 2987 04dc E1020000 		.4byte	0x2e1
 2988 04e0 06       		.uleb128 0x6
 2989 04e1 04       		.byte	0x4
 2990 04e2 9A040000 		.4byte	0x49a
 2991 04e6 03       		.uleb128 0x3
 2992 04e7 FC020000 		.4byte	.LASF68
 2993 04eb 0B       		.byte	0xb
 2994 04ec 37       		.byte	0x37
 2995 04ed F1040000 		.4byte	0x4f1
 2996 04f1 08       		.uleb128 0x8
 2997 04f2 FC020000 		.4byte	.LASF68
 2998 04f6 24       		.byte	0x24
 2999 04f7 0B       		.byte	0xb
 3000 04f8 45       		.byte	0x45
 3001 04f9 5E050000 		.4byte	0x55e
 3002 04fd 09       		.uleb128 0x9
 3003 04fe A5070000 		.4byte	.LASF69
 3004 0502 0B       		.byte	0xb
 3005 0503 46       		.byte	0x46
 3006 0504 AB020000 		.4byte	0x2ab
 3007 0508 00       		.byte	0
 3008 0509 09       		.uleb128 0x9
 3009 050a 19040000 		.4byte	.LASF70
 3010 050e 0B       		.byte	0xb
 3011 050f 47       		.byte	0x47
 3012 0510 28000000 		.4byte	0x28
 3013 0514 08       		.byte	0x8
 3014 0515 09       		.uleb128 0x9
 3015 0516 50010000 		.4byte	.LASF71
 3016 051a 0B       		.byte	0xb
 3017 051b 48       		.byte	0x48
 3018 051c 80050000 		.4byte	0x580
 3019 0520 0C       		.byte	0xc
 3020 0521 09       		.uleb128 0x9
 3021 0522 29010000 		.4byte	.LASF72
 3022 0526 0B       		.byte	0xb
 3023 0527 49       		.byte	0x49
 3024 0528 80050000 		.4byte	0x580
 3025 052c 10       		.byte	0x10
 3026 052d 09       		.uleb128 0x9
 3027 052e 6A040000 		.4byte	.LASF73
 3028 0532 0B       		.byte	0xb
 3029 0533 4B       		.byte	0x4b
 3030 0534 80050000 		.4byte	0x580
 3031 0538 14       		.byte	0x14
 3032 0539 09       		.uleb128 0x9
ARM GAS  /tmp/ccyM3aPD.s 			page 55


 3033 053a 91010000 		.4byte	.LASF74
 3034 053e 0B       		.byte	0xb
 3035 053f 4C       		.byte	0x4c
 3036 0540 80050000 		.4byte	0x580
 3037 0544 18       		.byte	0x18
 3038 0545 09       		.uleb128 0x9
 3039 0546 70010000 		.4byte	.LASF75
 3040 054a 0B       		.byte	0xb
 3041 054b 4D       		.byte	0x4d
 3042 054c 5E050000 		.4byte	0x55e
 3043 0550 1C       		.byte	0x1c
 3044 0551 09       		.uleb128 0x9
 3045 0552 6E020000 		.4byte	.LASF76
 3046 0556 0B       		.byte	0xb
 3047 0557 4E       		.byte	0x4e
 3048 0558 B0000000 		.4byte	0xb0
 3049 055c 20       		.byte	0x20
 3050 055d 00       		.byte	0
 3051 055e 03       		.uleb128 0x3
 3052 055f 4C050000 		.4byte	.LASF77
 3053 0563 0B       		.byte	0xb
 3054 0564 3A       		.byte	0x3a
 3055 0565 69050000 		.4byte	0x569
 3056 0569 06       		.uleb128 0x6
 3057 056a 04       		.byte	0x4
 3058 056b 6F050000 		.4byte	0x56f
 3059 056f 11       		.uleb128 0x11
 3060 0570 7A050000 		.4byte	0x57a
 3061 0574 12       		.uleb128 0x12
 3062 0575 7A050000 		.4byte	0x57a
 3063 0579 00       		.byte	0
 3064 057a 06       		.uleb128 0x6
 3065 057b 04       		.byte	0x4
 3066 057c E6040000 		.4byte	0x4e6
 3067 0580 06       		.uleb128 0x6
 3068 0581 04       		.byte	0x4
 3069 0582 C4000000 		.4byte	0xc4
 3070 0586 03       		.uleb128 0x3
 3071 0587 410A0000 		.4byte	.LASF78
 3072 058b 0B       		.byte	0xb
 3073 058c 82       		.byte	0x82
 3074 058d E6040000 		.4byte	0x4e6
 3075 0591 03       		.uleb128 0x3
 3076 0592 21030000 		.4byte	.LASF79
 3077 0596 0B       		.byte	0xb
 3078 0597 F5       		.byte	0xf5
 3079 0598 E6040000 		.4byte	0x4e6
 3080 059c 06       		.uleb128 0x6
 3081 059d 04       		.byte	0x4
 3082 059e A2050000 		.4byte	0x5a2
 3083 05a2 07       		.uleb128 0x7
 3084 05a3 C4000000 		.4byte	0xc4
 3085 05a7 13       		.uleb128 0x13
 3086 05a8 E5000000 		.4byte	0xe5
 3087 05ac B7050000 		.4byte	0x5b7
 3088 05b0 14       		.uleb128 0x14
 3089 05b1 A9000000 		.4byte	0xa9
ARM GAS  /tmp/ccyM3aPD.s 			page 56


 3090 05b5 07       		.byte	0x7
 3091 05b6 00       		.byte	0
 3092 05b7 0E       		.uleb128 0xe
 3093 05b8 CF000000 		.4byte	0xcf
 3094 05bc 0E       		.uleb128 0xe
 3095 05bd DA000000 		.4byte	0xda
 3096 05c1 15       		.uleb128 0x15
 3097 05c2 34       		.byte	0x34
 3098 05c3 0C       		.byte	0xc
 3099 05c4 8502     		.2byte	0x285
 3100 05c6 73060000 		.4byte	0x673
 3101 05ca 0D       		.uleb128 0xd
 3102 05cb 435200   		.ascii	"CR\000"
 3103 05ce 0C       		.byte	0xc
 3104 05cf 8702     		.2byte	0x287
 3105 05d1 59040000 		.4byte	0x459
 3106 05d5 00       		.byte	0
 3107 05d6 16       		.uleb128 0x16
 3108 05d7 C7030000 		.4byte	.LASF80
 3109 05db 0C       		.byte	0xc
 3110 05dc 8802     		.2byte	0x288
 3111 05de 59040000 		.4byte	0x459
 3112 05e2 04       		.byte	0x4
 3113 05e3 0D       		.uleb128 0xd
 3114 05e4 43495200 		.ascii	"CIR\000"
 3115 05e8 0C       		.byte	0xc
 3116 05e9 8902     		.2byte	0x289
 3117 05eb 59040000 		.4byte	0x459
 3118 05ef 08       		.byte	0x8
 3119 05f0 16       		.uleb128 0x16
 3120 05f1 1D050000 		.4byte	.LASF81
 3121 05f5 0C       		.byte	0xc
 3122 05f6 8A02     		.2byte	0x28a
 3123 05f8 59040000 		.4byte	0x459
 3124 05fc 0C       		.byte	0xc
 3125 05fd 16       		.uleb128 0x16
 3126 05fe 9D060000 		.4byte	.LASF82
 3127 0602 0C       		.byte	0xc
 3128 0603 8B02     		.2byte	0x28b
 3129 0605 59040000 		.4byte	0x459
 3130 0609 10       		.byte	0x10
 3131 060a 16       		.uleb128 0x16
 3132 060b 26090000 		.4byte	.LASF83
 3133 060f 0C       		.byte	0xc
 3134 0610 8C02     		.2byte	0x28c
 3135 0612 59040000 		.4byte	0x459
 3136 0616 14       		.byte	0x14
 3137 0617 16       		.uleb128 0x16
 3138 0618 E4010000 		.4byte	.LASF84
 3139 061c 0C       		.byte	0xc
 3140 061d 8D02     		.2byte	0x28d
 3141 061f 59040000 		.4byte	0x459
 3142 0623 18       		.byte	0x18
 3143 0624 16       		.uleb128 0x16
 3144 0625 AB060000 		.4byte	.LASF85
 3145 0629 0C       		.byte	0xc
 3146 062a 8E02     		.2byte	0x28e
ARM GAS  /tmp/ccyM3aPD.s 			page 57


 3147 062c 59040000 		.4byte	0x459
 3148 0630 1C       		.byte	0x1c
 3149 0631 16       		.uleb128 0x16
 3150 0632 6C030000 		.4byte	.LASF86
 3151 0636 0C       		.byte	0xc
 3152 0637 8F02     		.2byte	0x28f
 3153 0639 59040000 		.4byte	0x459
 3154 063d 20       		.byte	0x20
 3155 063e 0D       		.uleb128 0xd
 3156 063f 43535200 		.ascii	"CSR\000"
 3157 0643 0C       		.byte	0xc
 3158 0644 9002     		.2byte	0x290
 3159 0646 59040000 		.4byte	0x459
 3160 064a 24       		.byte	0x24
 3161 064b 16       		.uleb128 0x16
 3162 064c 8F040000 		.4byte	.LASF87
 3163 0650 0C       		.byte	0xc
 3164 0651 9102     		.2byte	0x291
 3165 0653 59040000 		.4byte	0x459
 3166 0657 28       		.byte	0x28
 3167 0658 16       		.uleb128 0x16
 3168 0659 B0050000 		.4byte	.LASF88
 3169 065d 0C       		.byte	0xc
 3170 065e 9202     		.2byte	0x292
 3171 0660 59040000 		.4byte	0x459
 3172 0664 2C       		.byte	0x2c
 3173 0665 16       		.uleb128 0x16
 3174 0666 B6050000 		.4byte	.LASF89
 3175 066a 0C       		.byte	0xc
 3176 066b 9302     		.2byte	0x293
 3177 066d 59040000 		.4byte	0x459
 3178 0671 30       		.byte	0x30
 3179 0672 00       		.byte	0
 3180 0673 17       		.uleb128 0x17
 3181 0674 C3080000 		.4byte	.LASF90
 3182 0678 0C       		.byte	0xc
 3183 0679 9402     		.2byte	0x294
 3184 067b C1050000 		.4byte	0x5c1
 3185 067f 03       		.uleb128 0x3
 3186 0680 15060000 		.4byte	.LASF91
 3187 0684 0D       		.byte	0xd
 3188 0685 E9       		.byte	0xe9
 3189 0686 8A060000 		.4byte	0x68a
 3190 068a 0C       		.uleb128 0xc
 3191 068b 15060000 		.4byte	.LASF91
 3192 068f 84       		.byte	0x84
 3193 0690 0E       		.byte	0xe
 3194 0691 1B01     		.2byte	0x11b
 3195 0693 68070000 		.4byte	0x768
 3196 0697 16       		.uleb128 0x16
 3197 0698 CC000000 		.4byte	.LASF92
 3198 069c 0E       		.byte	0xe
 3199 069d 1F01     		.2byte	0x11f
 3200 069f 9A070000 		.4byte	0x79a
 3201 06a3 00       		.byte	0
 3202 06a4 16       		.uleb128 0x16
 3203 06a5 C5000000 		.4byte	.LASF93
ARM GAS  /tmp/ccyM3aPD.s 			page 58


 3204 06a9 0E       		.byte	0xe
 3205 06aa 2301     		.2byte	0x123
 3206 06ac 1B0C0000 		.4byte	0xc1b
 3207 06b0 04       		.byte	0x4
 3208 06b1 16       		.uleb128 0x16
 3209 06b2 4C030000 		.4byte	.LASF94
 3210 06b6 0E       		.byte	0xe
 3211 06b7 2701     		.2byte	0x127
 3212 06b9 CF000000 		.4byte	0xcf
 3213 06bd 08       		.byte	0x8
 3214 06be 16       		.uleb128 0x16
 3215 06bf E7020000 		.4byte	.LASF95
 3216 06c3 0E       		.byte	0xe
 3217 06c4 2B01     		.2byte	0x12b
 3218 06c6 CF000000 		.4byte	0xcf
 3219 06ca 0A       		.byte	0xa
 3220 06cb 0D       		.uleb128 0xd
 3221 06cc 65706300 		.ascii	"epc\000"
 3222 06d0 0E       		.byte	0xe
 3223 06d1 2F01     		.2byte	0x12f
 3224 06d3 260C0000 		.4byte	0xc26
 3225 06d7 0C       		.byte	0xc
 3226 06d8 16       		.uleb128 0x16
 3227 06d9 B9080000 		.4byte	.LASF96
 3228 06dd 0E       		.byte	0xe
 3229 06de 3601     		.2byte	0x136
 3230 06e0 410C0000 		.4byte	0xc41
 3231 06e4 2C       		.byte	0x2c
 3232 06e5 16       		.uleb128 0x16
 3233 06e6 4C0A0000 		.4byte	.LASF97
 3234 06ea 0E       		.byte	0xe
 3235 06eb 3D01     		.2byte	0x13d
 3236 06ed 410C0000 		.4byte	0xc41
 3237 06f1 48       		.byte	0x48
 3238 06f2 16       		.uleb128 0x16
 3239 06f3 96020000 		.4byte	.LASF98
 3240 06f7 0E       		.byte	0xe
 3241 06f8 4101     		.2byte	0x141
 3242 06fa 00080000 		.4byte	0x800
 3243 06fe 64       		.byte	0x64
 3244 06ff 16       		.uleb128 0x16
 3245 0700 15050000 		.4byte	.LASF99
 3246 0704 0E       		.byte	0xe
 3247 0705 4501     		.2byte	0x145
 3248 0707 80050000 		.4byte	0x580
 3249 070b 68       		.byte	0x68
 3250 070c 16       		.uleb128 0x16
 3251 070d DB020000 		.4byte	.LASF100
 3252 0711 0E       		.byte	0xe
 3253 0712 4901     		.2byte	0x149
 3254 0714 28000000 		.4byte	0x28
 3255 0718 6C       		.byte	0x6c
 3256 0719 16       		.uleb128 0x16
 3257 071a 5C040000 		.4byte	.LASF101
 3258 071e 0E       		.byte	0xe
 3259 071f 4D01     		.2byte	0x14d
 3260 0721 76080000 		.4byte	0x876
ARM GAS  /tmp/ccyM3aPD.s 			page 59


 3261 0725 70       		.byte	0x70
 3262 0726 16       		.uleb128 0x16
 3263 0727 90030000 		.4byte	.LASF102
 3264 072b 0E       		.byte	0xe
 3265 072c 5101     		.2byte	0x151
 3266 072e 510C0000 		.4byte	0xc51
 3267 0732 74       		.byte	0x74
 3268 0733 16       		.uleb128 0x16
 3269 0734 4D040000 		.4byte	.LASF103
 3270 0738 0E       		.byte	0xe
 3271 0739 5501     		.2byte	0x155
 3272 073b CF000000 		.4byte	0xcf
 3273 073f 7C       		.byte	0x7c
 3274 0740 16       		.uleb128 0x16
 3275 0741 54040000 		.4byte	.LASF104
 3276 0745 0E       		.byte	0xe
 3277 0746 5901     		.2byte	0x159
 3278 0748 C4000000 		.4byte	0xc4
 3279 074c 7E       		.byte	0x7e
 3280 074d 16       		.uleb128 0x16
 3281 074e D9030000 		.4byte	.LASF105
 3282 0752 0E       		.byte	0xe
 3283 0753 5D01     		.2byte	0x15d
 3284 0755 C4000000 		.4byte	0xc4
 3285 0759 7F       		.byte	0x7f
 3286 075a 16       		.uleb128 0x16
 3287 075b E80A0000 		.4byte	.LASF106
 3288 075f 0E       		.byte	0xe
 3289 0760 6501     		.2byte	0x165
 3290 0762 E5000000 		.4byte	0xe5
 3291 0766 80       		.byte	0x80
 3292 0767 00       		.byte	0
 3293 0768 03       		.uleb128 0x3
 3294 0769 A0090000 		.4byte	.LASF107
 3295 076d 0D       		.byte	0xd
 3296 076e EE       		.byte	0xee
 3297 076f C4000000 		.4byte	0xc4
 3298 0773 18       		.uleb128 0x18
 3299 0774 01       		.byte	0x1
 3300 0775 0D       		.byte	0xd
 3301 0776 F3       		.byte	0xf3
 3302 0777 9A070000 		.4byte	0x79a
 3303 077b 19       		.uleb128 0x19
 3304 077c 71030000 		.4byte	.LASF108
 3305 0780 00       		.sleb128 0
 3306 0781 19       		.uleb128 0x19
 3307 0782 1F060000 		.4byte	.LASF109
 3308 0786 01       		.sleb128 1
 3309 0787 19       		.uleb128 0x19
 3310 0788 FB040000 		.4byte	.LASF110
 3311 078c 02       		.sleb128 2
 3312 078d 19       		.uleb128 0x19
 3313 078e CC030000 		.4byte	.LASF111
 3314 0792 03       		.sleb128 3
 3315 0793 19       		.uleb128 0x19
 3316 0794 DA000000 		.4byte	.LASF112
 3317 0798 04       		.sleb128 4
ARM GAS  /tmp/ccyM3aPD.s 			page 60


 3318 0799 00       		.byte	0
 3319 079a 03       		.uleb128 0x3
 3320 079b 84040000 		.4byte	.LASF113
 3321 079f 0D       		.byte	0xd
 3322 07a0 F9       		.byte	0xf9
 3323 07a1 73070000 		.4byte	0x773
 3324 07a5 18       		.uleb128 0x18
 3325 07a6 01       		.byte	0x1
 3326 07a7 0D       		.byte	0xd
 3327 07a8 FE       		.byte	0xfe
 3328 07a9 C0070000 		.4byte	0x7c0
 3329 07ad 19       		.uleb128 0x19
 3330 07ae 620A0000 		.4byte	.LASF114
 3331 07b2 00       		.sleb128 0
 3332 07b3 19       		.uleb128 0x19
 3333 07b4 01040000 		.4byte	.LASF115
 3334 07b8 01       		.sleb128 1
 3335 07b9 19       		.uleb128 0x19
 3336 07ba 1C020000 		.4byte	.LASF116
 3337 07be 02       		.sleb128 2
 3338 07bf 00       		.byte	0
 3339 07c0 17       		.uleb128 0x17
 3340 07c1 42010000 		.4byte	.LASF117
 3341 07c5 0D       		.byte	0xd
 3342 07c6 0201     		.2byte	0x102
 3343 07c8 A5070000 		.4byte	0x7a5
 3344 07cc 1A       		.uleb128 0x1a
 3345 07cd 01       		.byte	0x1
 3346 07ce 0D       		.byte	0xd
 3347 07cf 0701     		.2byte	0x107
 3348 07d1 00080000 		.4byte	0x800
 3349 07d5 19       		.uleb128 0x19
 3350 07d6 CE010000 		.4byte	.LASF118
 3351 07da 00       		.sleb128 0
 3352 07db 19       		.uleb128 0x19
 3353 07dc A2000000 		.4byte	.LASF119
 3354 07e0 01       		.sleb128 1
 3355 07e1 19       		.uleb128 0x19
 3356 07e2 7C060000 		.4byte	.LASF120
 3357 07e6 02       		.sleb128 2
 3358 07e7 19       		.uleb128 0x19
 3359 07e8 B50A0000 		.4byte	.LASF121
 3360 07ec 03       		.sleb128 3
 3361 07ed 19       		.uleb128 0x19
 3362 07ee F80A0000 		.4byte	.LASF122
 3363 07f2 04       		.sleb128 4
 3364 07f3 19       		.uleb128 0x19
 3365 07f4 840A0000 		.4byte	.LASF123
 3366 07f8 05       		.sleb128 5
 3367 07f9 19       		.uleb128 0x19
 3368 07fa 60020000 		.4byte	.LASF124
 3369 07fe 06       		.sleb128 6
 3370 07ff 00       		.byte	0
 3371 0800 17       		.uleb128 0x17
 3372 0801 11010000 		.4byte	.LASF125
 3373 0805 0D       		.byte	0xd
 3374 0806 0F01     		.2byte	0x10f
ARM GAS  /tmp/ccyM3aPD.s 			page 61


 3375 0808 CC070000 		.4byte	0x7cc
 3376 080c 1A       		.uleb128 0x1a
 3377 080d 01       		.byte	0x1
 3378 080e 0D       		.byte	0xd
 3379 080f 1401     		.2byte	0x114
 3380 0811 3A080000 		.4byte	0x83a
 3381 0815 19       		.uleb128 0x19
 3382 0816 E7080000 		.4byte	.LASF126
 3383 081a 00       		.sleb128 0
 3384 081b 19       		.uleb128 0x19
 3385 081c 59010000 		.4byte	.LASF127
 3386 0820 01       		.sleb128 1
 3387 0821 19       		.uleb128 0x19
 3388 0822 90070000 		.4byte	.LASF128
 3389 0826 02       		.sleb128 2
 3390 0827 19       		.uleb128 0x19
 3391 0828 BC090000 		.4byte	.LASF129
 3392 082c 03       		.sleb128 3
 3393 082d 19       		.uleb128 0x19
 3394 082e C2040000 		.4byte	.LASF130
 3395 0832 04       		.sleb128 4
 3396 0833 19       		.uleb128 0x19
 3397 0834 0A020000 		.4byte	.LASF131
 3398 0838 05       		.sleb128 5
 3399 0839 00       		.byte	0
 3400 083a 17       		.uleb128 0x17
 3401 083b B4030000 		.4byte	.LASF132
 3402 083f 0D       		.byte	0xd
 3403 0840 1B01     		.2byte	0x11b
 3404 0842 0C080000 		.4byte	0x80c
 3405 0846 15       		.uleb128 0x15
 3406 0847 08       		.byte	0x8
 3407 0848 0D       		.byte	0xd
 3408 0849 2001     		.2byte	0x120
 3409 084b 6A080000 		.4byte	0x86a
 3410 084f 16       		.uleb128 0x16
 3411 0850 BF030000 		.4byte	.LASF133
 3412 0854 0D       		.byte	0xd
 3413 0855 2401     		.2byte	0x124
 3414 0857 28000000 		.4byte	0x28
 3415 085b 00       		.byte	0
 3416 085c 16       		.uleb128 0x16
 3417 085d 97040000 		.4byte	.LASF134
 3418 0861 0D       		.byte	0xd
 3419 0862 2801     		.2byte	0x128
 3420 0864 9C050000 		.4byte	0x59c
 3421 0868 04       		.byte	0x4
 3422 0869 00       		.byte	0
 3423 086a 17       		.uleb128 0x17
 3424 086b 82030000 		.4byte	.LASF135
 3425 086f 0D       		.byte	0xd
 3426 0870 2901     		.2byte	0x129
 3427 0872 46080000 		.4byte	0x846
 3428 0876 17       		.uleb128 0x17
 3429 0877 5C090000 		.4byte	.LASF136
 3430 087b 0D       		.byte	0xd
 3431 087c 3101     		.2byte	0x131
ARM GAS  /tmp/ccyM3aPD.s 			page 62


 3432 087e 82080000 		.4byte	0x882
 3433 0882 06       		.uleb128 0x6
 3434 0883 04       		.byte	0x4
 3435 0884 88080000 		.4byte	0x888
 3436 0888 11       		.uleb128 0x11
 3437 0889 93080000 		.4byte	0x893
 3438 088d 12       		.uleb128 0x12
 3439 088e 93080000 		.4byte	0x893
 3440 0892 00       		.byte	0
 3441 0893 06       		.uleb128 0x6
 3442 0894 04       		.byte	0x4
 3443 0895 7F060000 		.4byte	0x67f
 3444 0899 17       		.uleb128 0x17
 3445 089a 26050000 		.4byte	.LASF137
 3446 089e 0D       		.byte	0xd
 3447 089f 3A01     		.2byte	0x13a
 3448 08a1 A5080000 		.4byte	0x8a5
 3449 08a5 06       		.uleb128 0x6
 3450 08a6 04       		.byte	0x4
 3451 08a7 AB080000 		.4byte	0x8ab
 3452 08ab 11       		.uleb128 0x11
 3453 08ac BB080000 		.4byte	0x8bb
 3454 08b0 12       		.uleb128 0x12
 3455 08b1 93080000 		.4byte	0x893
 3456 08b5 12       		.uleb128 0x12
 3457 08b6 68070000 		.4byte	0x768
 3458 08ba 00       		.byte	0
 3459 08bb 17       		.uleb128 0x17
 3460 08bc 3F030000 		.4byte	.LASF138
 3461 08c0 0D       		.byte	0xd
 3462 08c1 4301     		.2byte	0x143
 3463 08c3 C7080000 		.4byte	0x8c7
 3464 08c7 06       		.uleb128 0x6
 3465 08c8 04       		.byte	0x4
 3466 08c9 CD080000 		.4byte	0x8cd
 3467 08cd 11       		.uleb128 0x11
 3468 08ce DD080000 		.4byte	0x8dd
 3469 08d2 12       		.uleb128 0x12
 3470 08d3 93080000 		.4byte	0x893
 3471 08d7 12       		.uleb128 0x12
 3472 08d8 3A080000 		.4byte	0x83a
 3473 08dc 00       		.byte	0
 3474 08dd 17       		.uleb128 0x17
 3475 08de 4C090000 		.4byte	.LASF139
 3476 08e2 0D       		.byte	0xd
 3477 08e3 4F01     		.2byte	0x14f
 3478 08e5 E9080000 		.4byte	0x8e9
 3479 08e9 06       		.uleb128 0x6
 3480 08ea 04       		.byte	0x4
 3481 08eb EF080000 		.4byte	0x8ef
 3482 08ef 1B       		.uleb128 0x1b
 3483 08f0 FB000000 		.4byte	0xfb
 3484 08f4 FE080000 		.4byte	0x8fe
 3485 08f8 12       		.uleb128 0x12
 3486 08f9 93080000 		.4byte	0x893
 3487 08fd 00       		.byte	0
 3488 08fe 17       		.uleb128 0x17
ARM GAS  /tmp/ccyM3aPD.s 			page 63


 3489 08ff B7070000 		.4byte	.LASF140
 3490 0903 0D       		.byte	0xd
 3491 0904 5401     		.2byte	0x154
 3492 0906 0A090000 		.4byte	0x90a
 3493 090a 06       		.uleb128 0x6
 3494 090b 04       		.byte	0x4
 3495 090c 10090000 		.4byte	0x910
 3496 0910 1B       		.uleb128 0x1b
 3497 0911 2E090000 		.4byte	0x92e
 3498 0915 2E090000 		.4byte	0x92e
 3499 0919 12       		.uleb128 0x12
 3500 091a 93080000 		.4byte	0x893
 3501 091e 12       		.uleb128 0x12
 3502 091f C4000000 		.4byte	0xc4
 3503 0923 12       		.uleb128 0x12
 3504 0924 C4000000 		.4byte	0xc4
 3505 0928 12       		.uleb128 0x12
 3506 0929 CF000000 		.4byte	0xcf
 3507 092d 00       		.byte	0
 3508 092e 06       		.uleb128 0x6
 3509 092f 04       		.byte	0x4
 3510 0930 34090000 		.4byte	0x934
 3511 0934 07       		.uleb128 0x7
 3512 0935 6A080000 		.4byte	0x86a
 3513 0939 0B       		.uleb128 0xb
 3514 093a 54       		.byte	0x54
 3515 093b 0F       		.byte	0xf
 3516 093c 27       		.byte	0x27
 3517 093d 96090000 		.4byte	0x996
 3518 0941 0A       		.uleb128 0xa
 3519 0942 45505200 		.ascii	"EPR\000"
 3520 0946 0F       		.byte	0xf
 3521 0947 2B       		.byte	0x2b
 3522 0948 96090000 		.4byte	0x996
 3523 094c 00       		.byte	0
 3524 094d 09       		.uleb128 0x9
 3525 094e C7060000 		.4byte	.LASF141
 3526 0952 0F       		.byte	0xf
 3527 0953 2F       		.byte	0x2f
 3528 0954 9B090000 		.4byte	0x99b
 3529 0958 20       		.byte	0x20
 3530 0959 09       		.uleb128 0x9
 3531 095a 48040000 		.4byte	.LASF142
 3532 095e 0F       		.byte	0xf
 3533 095f 33       		.byte	0x33
 3534 0960 59040000 		.4byte	0x459
 3535 0964 40       		.byte	0x40
 3536 0965 09       		.uleb128 0x9
 3537 0966 79040000 		.4byte	.LASF143
 3538 096a 0F       		.byte	0xf
 3539 096b 37       		.byte	0x37
 3540 096c 59040000 		.4byte	0x459
 3541 0970 44       		.byte	0x44
 3542 0971 0A       		.uleb128 0xa
 3543 0972 464E5200 		.ascii	"FNR\000"
 3544 0976 0F       		.byte	0xf
 3545 0977 3B       		.byte	0x3b
ARM GAS  /tmp/ccyM3aPD.s 			page 64


 3546 0978 59040000 		.4byte	0x459
 3547 097c 48       		.byte	0x48
 3548 097d 09       		.uleb128 0x9
 3549 097e FF080000 		.4byte	.LASF144
 3550 0982 0F       		.byte	0xf
 3551 0983 3F       		.byte	0x3f
 3552 0984 59040000 		.4byte	0x459
 3553 0988 4C       		.byte	0x4c
 3554 0989 09       		.uleb128 0x9
 3555 098a 7C070000 		.4byte	.LASF145
 3556 098e 0F       		.byte	0xf
 3557 098f 43       		.byte	0x43
 3558 0990 59040000 		.4byte	0x459
 3559 0994 50       		.byte	0x50
 3560 0995 00       		.byte	0
 3561 0996 0E       		.uleb128 0xe
 3562 0997 A7050000 		.4byte	0x5a7
 3563 099b 0E       		.uleb128 0xe
 3564 099c A7050000 		.4byte	0x5a7
 3565 09a0 03       		.uleb128 0x3
 3566 09a1 36010000 		.4byte	.LASF146
 3567 09a5 0F       		.byte	0xf
 3568 09a6 44       		.byte	0x44
 3569 09a7 39090000 		.4byte	0x939
 3570 09ab 0B       		.uleb128 0xb
 3571 09ac 10       		.byte	0x10
 3572 09ad 0F       		.byte	0xf
 3573 09ae 49       		.byte	0x49
 3574 09af FC090000 		.4byte	0x9fc
 3575 09b3 09       		.uleb128 0x9
 3576 09b4 0D050000 		.4byte	.LASF147
 3577 09b8 0F       		.byte	0xf
 3578 09b9 4D       		.byte	0x4d
 3579 09ba 59040000 		.4byte	0x459
 3580 09be 00       		.byte	0
 3581 09bf 09       		.uleb128 0x9
 3582 09c0 F0050000 		.4byte	.LASF148
 3583 09c4 0F       		.byte	0xf
 3584 09c5 51       		.byte	0x51
 3585 09c6 B7050000 		.4byte	0x5b7
 3586 09ca 04       		.byte	0x4
 3587 09cb 09       		.uleb128 0x9
 3588 09cc F9050000 		.4byte	.LASF149
 3589 09d0 0F       		.byte	0xf
 3590 09d1 55       		.byte	0x55
 3591 09d2 B7050000 		.4byte	0x5b7
 3592 09d6 06       		.byte	0x6
 3593 09d7 09       		.uleb128 0x9
 3594 09d8 2E040000 		.4byte	.LASF150
 3595 09dc 0F       		.byte	0xf
 3596 09dd 59       		.byte	0x59
 3597 09de 59040000 		.4byte	0x459
 3598 09e2 08       		.byte	0x8
 3599 09e3 09       		.uleb128 0x9
 3600 09e4 2D030000 		.4byte	.LASF151
 3601 09e8 0F       		.byte	0xf
 3602 09e9 5D       		.byte	0x5d
ARM GAS  /tmp/ccyM3aPD.s 			page 65


 3603 09ea B7050000 		.4byte	0x5b7
 3604 09ee 0C       		.byte	0xc
 3605 09ef 09       		.uleb128 0x9
 3606 09f0 36030000 		.4byte	.LASF152
 3607 09f4 0F       		.byte	0xf
 3608 09f5 61       		.byte	0x61
 3609 09f6 B7050000 		.4byte	0x5b7
 3610 09fa 0E       		.byte	0xe
 3611 09fb 00       		.byte	0
 3612 09fc 03       		.uleb128 0x3
 3613 09fd 75020000 		.4byte	.LASF153
 3614 0a01 0F       		.byte	0xf
 3615 0a02 62       		.byte	0x62
 3616 0a03 AB090000 		.4byte	0x9ab
 3617 0a07 0B       		.uleb128 0xb
 3618 0a08 04       		.byte	0x4
 3619 0a09 0E       		.byte	0xe
 3620 0a0a 84       		.byte	0x84
 3621 0a0b 1C0A0000 		.4byte	0xa1c
 3622 0a0f 09       		.uleb128 0x9
 3623 0a10 BF010000 		.4byte	.LASF154
 3624 0a14 0E       		.byte	0xe
 3625 0a15 88       		.byte	0x88
 3626 0a16 9C050000 		.4byte	0x59c
 3627 0a1a 00       		.byte	0
 3628 0a1b 00       		.byte	0
 3629 0a1c 0B       		.uleb128 0xb
 3630 0a1d 04       		.byte	0x4
 3631 0a1e 0E       		.byte	0xe
 3632 0a1f 8A       		.byte	0x8a
 3633 0a20 310A0000 		.4byte	0xa31
 3634 0a24 09       		.uleb128 0x9
 3635 0a25 F7080000 		.4byte	.LASF155
 3636 0a29 0E       		.byte	0xe
 3637 0a2a 8E       		.byte	0x8e
 3638 0a2b 310A0000 		.4byte	0xa31
 3639 0a2f 00       		.byte	0
 3640 0a30 00       		.byte	0
 3641 0a31 06       		.uleb128 0x6
 3642 0a32 04       		.byte	0x4
 3643 0a33 91050000 		.4byte	0x591
 3644 0a37 0F       		.uleb128 0xf
 3645 0a38 04       		.byte	0x4
 3646 0a39 0E       		.byte	0xe
 3647 0a3a 83       		.byte	0x83
 3648 0a3b 560A0000 		.4byte	0xa56
 3649 0a3f 10       		.uleb128 0x10
 3650 0a40 24070000 		.4byte	.LASF156
 3651 0a44 0E       		.byte	0xe
 3652 0a45 89       		.byte	0x89
 3653 0a46 070A0000 		.4byte	0xa07
 3654 0a4a 10       		.uleb128 0x10
 3655 0a4b 6E070000 		.4byte	.LASF157
 3656 0a4f 0E       		.byte	0xe
 3657 0a50 8F       		.byte	0x8f
 3658 0a51 1C0A0000 		.4byte	0xa1c
 3659 0a55 00       		.byte	0
ARM GAS  /tmp/ccyM3aPD.s 			page 66


 3660 0a56 0B       		.uleb128 0xb
 3661 0a57 10       		.byte	0x10
 3662 0a58 0E       		.byte	0xe
 3663 0a59 76       		.byte	0x76
 3664 0a5a 8F0A0000 		.4byte	0xa8f
 3665 0a5e 09       		.uleb128 0x9
 3666 0a5f EF0A0000 		.4byte	.LASF158
 3667 0a63 0E       		.byte	0xe
 3668 0a64 7A       		.byte	0x7a
 3669 0a65 FB000000 		.4byte	0xfb
 3670 0a69 00       		.byte	0
 3671 0a6a 09       		.uleb128 0x9
 3672 0a6b 72040000 		.4byte	.LASF159
 3673 0a6f 0E       		.byte	0xe
 3674 0a70 7E       		.byte	0x7e
 3675 0a71 28000000 		.4byte	0x28
 3676 0a75 04       		.byte	0x4
 3677 0a76 09       		.uleb128 0x9
 3678 0a77 13040000 		.4byte	.LASF160
 3679 0a7b 0E       		.byte	0xe
 3680 0a7c 82       		.byte	0x82
 3681 0a7d 28000000 		.4byte	0x28
 3682 0a81 08       		.byte	0x8
 3683 0a82 09       		.uleb128 0x9
 3684 0a83 E2080000 		.4byte	.LASF161
 3685 0a87 0E       		.byte	0xe
 3686 0a88 91       		.byte	0x91
 3687 0a89 370A0000 		.4byte	0xa37
 3688 0a8d 0C       		.byte	0xc
 3689 0a8e 00       		.byte	0
 3690 0a8f 03       		.uleb128 0x3
 3691 0a90 59030000 		.4byte	.LASF162
 3692 0a94 0E       		.byte	0xe
 3693 0a95 92       		.byte	0x92
 3694 0a96 560A0000 		.4byte	0xa56
 3695 0a9a 0B       		.uleb128 0xb
 3696 0a9b 04       		.byte	0x4
 3697 0a9c 0E       		.byte	0xe
 3698 0a9d A5       		.byte	0xa5
 3699 0a9e AF0A0000 		.4byte	0xaaf
 3700 0aa2 09       		.uleb128 0x9
 3701 0aa3 B3040000 		.4byte	.LASF163
 3702 0aa7 0E       		.byte	0xe
 3703 0aa8 A9       		.byte	0xa9
 3704 0aa9 80050000 		.4byte	0x580
 3705 0aad 00       		.byte	0
 3706 0aae 00       		.byte	0
 3707 0aaf 0B       		.uleb128 0xb
 3708 0ab0 04       		.byte	0x4
 3709 0ab1 0E       		.byte	0xe
 3710 0ab2 AB       		.byte	0xab
 3711 0ab3 C40A0000 		.4byte	0xac4
 3712 0ab7 09       		.uleb128 0x9
 3713 0ab8 74070000 		.4byte	.LASF164
 3714 0abc 0E       		.byte	0xe
 3715 0abd AF       		.byte	0xaf
 3716 0abe C40A0000 		.4byte	0xac4
ARM GAS  /tmp/ccyM3aPD.s 			page 67


 3717 0ac2 00       		.byte	0
 3718 0ac3 00       		.byte	0
 3719 0ac4 06       		.uleb128 0x6
 3720 0ac5 04       		.byte	0x4
 3721 0ac6 86050000 		.4byte	0x586
 3722 0aca 0F       		.uleb128 0xf
 3723 0acb 04       		.byte	0x4
 3724 0acc 0E       		.byte	0xe
 3725 0acd A4       		.byte	0xa4
 3726 0ace E90A0000 		.4byte	0xae9
 3727 0ad2 10       		.uleb128 0x10
 3728 0ad3 24070000 		.4byte	.LASF156
 3729 0ad7 0E       		.byte	0xe
 3730 0ad8 AA       		.byte	0xaa
 3731 0ad9 9A0A0000 		.4byte	0xa9a
 3732 0add 10       		.uleb128 0x10
 3733 0ade 6E070000 		.4byte	.LASF157
 3734 0ae2 0E       		.byte	0xe
 3735 0ae3 B0       		.byte	0xb0
 3736 0ae4 AF0A0000 		.4byte	0xaaf
 3737 0ae8 00       		.byte	0
 3738 0ae9 0B       		.uleb128 0xb
 3739 0aea 14       		.byte	0x14
 3740 0aeb 0E       		.byte	0xe
 3741 0aec 97       		.byte	0x97
 3742 0aed 2E0B0000 		.4byte	0xb2e
 3743 0af1 09       		.uleb128 0x9
 3744 0af2 43070000 		.4byte	.LASF165
 3745 0af6 0E       		.byte	0xe
 3746 0af7 9B       		.byte	0x9b
 3747 0af8 FB000000 		.4byte	0xfb
 3748 0afc 00       		.byte	0
 3749 0afd 09       		.uleb128 0x9
 3750 0afe 41020000 		.4byte	.LASF166
 3751 0b02 0E       		.byte	0xe
 3752 0b03 9F       		.byte	0x9f
 3753 0b04 28000000 		.4byte	0x28
 3754 0b08 04       		.byte	0x4
 3755 0b09 09       		.uleb128 0x9
 3756 0b0a 7E040000 		.4byte	.LASF167
 3757 0b0e 0E       		.byte	0xe
 3758 0b0f A3       		.byte	0xa3
 3759 0b10 28000000 		.4byte	0x28
 3760 0b14 08       		.byte	0x8
 3761 0b15 09       		.uleb128 0x9
 3762 0b16 E2080000 		.4byte	.LASF161
 3763 0b1a 0E       		.byte	0xe
 3764 0b1b B1       		.byte	0xb1
 3765 0b1c CA0A0000 		.4byte	0xaca
 3766 0b20 0C       		.byte	0xc
 3767 0b21 09       		.uleb128 0x9
 3768 0b22 B5090000 		.4byte	.LASF168
 3769 0b26 0E       		.byte	0xe
 3770 0b27 B6       		.byte	0xb6
 3771 0b28 CF000000 		.4byte	0xcf
 3772 0b2c 10       		.byte	0x10
 3773 0b2d 00       		.byte	0
ARM GAS  /tmp/ccyM3aPD.s 			page 68


 3774 0b2e 03       		.uleb128 0x3
 3775 0b2f B3060000 		.4byte	.LASF169
 3776 0b33 0E       		.byte	0xe
 3777 0b34 B7       		.byte	0xb7
 3778 0b35 E90A0000 		.4byte	0xae9
 3779 0b39 0B       		.uleb128 0xb
 3780 0b3a 24       		.byte	0x24
 3781 0b3b 0E       		.byte	0xe
 3782 0b3c BD       		.byte	0xbd
 3783 0b3d BA0B0000 		.4byte	0xbba
 3784 0b41 09       		.uleb128 0x9
 3785 0b42 D2000000 		.4byte	.LASF170
 3786 0b46 0E       		.byte	0xe
 3787 0b47 C1       		.byte	0xc1
 3788 0b48 E5000000 		.4byte	0xe5
 3789 0b4c 00       		.byte	0
 3790 0b4d 09       		.uleb128 0x9
 3791 0b4e 36050000 		.4byte	.LASF171
 3792 0b52 0E       		.byte	0xe
 3793 0b53 CC       		.byte	0xcc
 3794 0b54 99080000 		.4byte	0x899
 3795 0b58 04       		.byte	0x4
 3796 0b59 09       		.uleb128 0x9
 3797 0b5a 10030000 		.4byte	.LASF172
 3798 0b5e 0E       		.byte	0xe
 3799 0b5f D2       		.byte	0xd2
 3800 0b60 99080000 		.4byte	0x899
 3801 0b64 08       		.byte	0x8
 3802 0b65 09       		.uleb128 0x9
 3803 0b66 0E060000 		.4byte	.LASF173
 3804 0b6a 0E       		.byte	0xe
 3805 0b6b D8       		.byte	0xd8
 3806 0b6c 99080000 		.4byte	0x899
 3807 0b70 0C       		.byte	0xc
 3808 0b71 09       		.uleb128 0x9
 3809 0b72 28060000 		.4byte	.LASF174
 3810 0b76 0E       		.byte	0xe
 3811 0b77 DE       		.byte	0xde
 3812 0b78 CF000000 		.4byte	0xcf
 3813 0b7c 10       		.byte	0x10
 3814 0b7d 09       		.uleb128 0x9
 3815 0b7e A9010000 		.4byte	.LASF175
 3816 0b82 0E       		.byte	0xe
 3817 0b83 E4       		.byte	0xe4
 3818 0b84 CF000000 		.4byte	0xcf
 3819 0b88 12       		.byte	0x12
 3820 0b89 09       		.uleb128 0x9
 3821 0b8a B9040000 		.4byte	.LASF176
 3822 0b8e 0E       		.byte	0xe
 3823 0b8f E9       		.byte	0xe9
 3824 0b90 BA0B0000 		.4byte	0xbba
 3825 0b94 14       		.byte	0x14
 3826 0b95 09       		.uleb128 0x9
 3827 0b96 3A060000 		.4byte	.LASF177
 3828 0b9a 0E       		.byte	0xe
 3829 0b9b EE       		.byte	0xee
 3830 0b9c C00B0000 		.4byte	0xbc0
ARM GAS  /tmp/ccyM3aPD.s 			page 69


 3831 0ba0 18       		.byte	0x18
 3832 0ba1 09       		.uleb128 0x9
 3833 0ba2 66060000 		.4byte	.LASF178
 3834 0ba6 0E       		.byte	0xe
 3835 0ba7 F4       		.byte	0xf4
 3836 0ba8 CF000000 		.4byte	0xcf
 3837 0bac 1C       		.byte	0x1c
 3838 0bad 09       		.uleb128 0x9
 3839 0bae E6050000 		.4byte	.LASF179
 3840 0bb2 0E       		.byte	0xe
 3841 0bb3 FA       		.byte	0xfa
 3842 0bb4 80050000 		.4byte	0x580
 3843 0bb8 20       		.byte	0x20
 3844 0bb9 00       		.byte	0
 3845 0bba 06       		.uleb128 0x6
 3846 0bbb 04       		.byte	0x4
 3847 0bbc 8F0A0000 		.4byte	0xa8f
 3848 0bc0 06       		.uleb128 0x6
 3849 0bc1 04       		.byte	0x4
 3850 0bc2 2E0B0000 		.4byte	0xb2e
 3851 0bc6 03       		.uleb128 0x3
 3852 0bc7 31070000 		.4byte	.LASF180
 3853 0bcb 0E       		.byte	0xe
 3854 0bcc FB       		.byte	0xfb
 3855 0bcd 390B0000 		.4byte	0xb39
 3856 0bd1 15       		.uleb128 0x15
 3857 0bd2 10       		.byte	0x10
 3858 0bd3 0E       		.byte	0xe
 3859 0bd4 0001     		.2byte	0x100
 3860 0bd6 0F0C0000 		.4byte	0xc0f
 3861 0bda 16       		.uleb128 0x16
 3862 0bdb DE040000 		.4byte	.LASF181
 3863 0bdf 0E       		.byte	0xe
 3864 0be0 0501     		.2byte	0x105
 3865 0be2 BB080000 		.4byte	0x8bb
 3866 0be6 00       		.byte	0
 3867 0be7 16       		.uleb128 0x16
 3868 0be8 E8090000 		.4byte	.LASF182
 3869 0bec 0E       		.byte	0xe
 3870 0bed 0A01     		.2byte	0x10a
 3871 0bef FE080000 		.4byte	0x8fe
 3872 0bf3 04       		.byte	0x4
 3873 0bf4 16       		.uleb128 0x16
 3874 0bf5 9F020000 		.4byte	.LASF183
 3875 0bf9 0E       		.byte	0xe
 3876 0bfa 1001     		.2byte	0x110
 3877 0bfc DD080000 		.4byte	0x8dd
 3878 0c00 08       		.byte	0x8
 3879 0c01 16       		.uleb128 0x16
 3880 0c02 90090000 		.4byte	.LASF184
 3881 0c06 0E       		.byte	0xe
 3882 0c07 1401     		.2byte	0x114
 3883 0c09 76080000 		.4byte	0x876
 3884 0c0d 0C       		.byte	0xc
 3885 0c0e 00       		.byte	0
 3886 0c0f 17       		.uleb128 0x17
 3887 0c10 9E050000 		.4byte	.LASF185
ARM GAS  /tmp/ccyM3aPD.s 			page 70


 3888 0c14 0E       		.byte	0xe
 3889 0c15 1601     		.2byte	0x116
 3890 0c17 D10B0000 		.4byte	0xbd1
 3891 0c1b 06       		.uleb128 0x6
 3892 0c1c 04       		.byte	0x4
 3893 0c1d 210C0000 		.4byte	0xc21
 3894 0c21 07       		.uleb128 0x7
 3895 0c22 0F0C0000 		.4byte	0xc0f
 3896 0c26 13       		.uleb128 0x13
 3897 0c27 360C0000 		.4byte	0xc36
 3898 0c2b 360C0000 		.4byte	0xc36
 3899 0c2f 14       		.uleb128 0x14
 3900 0c30 A9000000 		.4byte	0xa9
 3901 0c34 07       		.byte	0x7
 3902 0c35 00       		.byte	0
 3903 0c36 06       		.uleb128 0x6
 3904 0c37 04       		.byte	0x4
 3905 0c38 3C0C0000 		.4byte	0xc3c
 3906 0c3c 07       		.uleb128 0x7
 3907 0c3d C60B0000 		.4byte	0xbc6
 3908 0c41 13       		.uleb128 0x13
 3909 0c42 B0000000 		.4byte	0xb0
 3910 0c46 510C0000 		.4byte	0xc51
 3911 0c4a 14       		.uleb128 0x14
 3912 0c4b A9000000 		.4byte	0xa9
 3913 0c4f 06       		.byte	0x6
 3914 0c50 00       		.byte	0
 3915 0c51 13       		.uleb128 0x13
 3916 0c52 C4000000 		.4byte	0xc4
 3917 0c56 610C0000 		.4byte	0xc61
 3918 0c5a 14       		.uleb128 0x14
 3919 0c5b A9000000 		.4byte	0xa9
 3920 0c5f 07       		.byte	0x7
 3921 0c60 00       		.byte	0
 3922 0c61 0F       		.uleb128 0xf
 3923 0c62 14       		.byte	0x14
 3924 0c63 02       		.byte	0x2
 3925 0c64 38       		.byte	0x38
 3926 0c65 7F0C0000 		.4byte	0xc7f
 3927 0c69 1C       		.uleb128 0x1c
 3928 0c6a 696E00   		.ascii	"in\000"
 3929 0c6d 02       		.byte	0x2
 3930 0c6e 3C       		.byte	0x3c
 3931 0c6f 8F0A0000 		.4byte	0xa8f
 3932 0c73 1C       		.uleb128 0x1c
 3933 0c74 6F757400 		.ascii	"out\000"
 3934 0c78 02       		.byte	0x2
 3935 0c79 40       		.byte	0x40
 3936 0c7a 2E0B0000 		.4byte	0xb2e
 3937 0c7e 00       		.byte	0
 3938 0c7f 1D       		.uleb128 0x1d
 3939 0c80 DC0A0000 		.4byte	.LASF187
 3940 0c84 01       		.byte	0x1
 3941 0c85 3B       		.byte	0x3b
 3942 0c86 A5020000 		.4byte	0x2a5
 3943 0c8a 00000000 		.4byte	.LFB2
 3944 0c8e 22000000 		.4byte	.LFE2-.LFB2
ARM GAS  /tmp/ccyM3aPD.s 			page 71


 3945 0c92 01       		.uleb128 0x1
 3946 0c93 9C       		.byte	0x9c
 3947 0c94 B40C0000 		.4byte	0xcb4
 3948 0c98 1E       		.uleb128 0x1e
 3949 0c99 74717000 		.ascii	"tqp\000"
 3950 0c9d 01       		.byte	0x1
 3951 0c9e 3B       		.byte	0x3b
 3952 0c9f B40C0000 		.4byte	0xcb4
 3953 0ca3 02       		.uleb128 0x2
 3954 0ca4 91       		.byte	0x91
 3955 0ca5 74       		.sleb128 -12
 3956 0ca6 1F       		.uleb128 0x1f
 3957 0ca7 747000   		.ascii	"tp\000"
 3958 0caa 01       		.byte	0x1
 3959 0cab 3C       		.byte	0x3c
 3960 0cac A5020000 		.4byte	0x2a5
 3961 0cb0 02       		.uleb128 0x2
 3962 0cb1 91       		.byte	0x91
 3963 0cb2 7C       		.sleb128 -4
 3964 0cb3 00       		.byte	0
 3965 0cb4 06       		.uleb128 0x6
 3966 0cb5 04       		.byte	0x4
 3967 0cb6 AB020000 		.4byte	0x2ab
 3968 0cba 20       		.uleb128 0x20
 3969 0cbb 90060000 		.4byte	.LASF191
 3970 0cbf 02       		.byte	0x2
 3971 0cc0 61       		.byte	0x61
 3972 0cc1 00000000 		.4byte	.LFB118
 3973 0cc5 10000000 		.4byte	.LFE118-.LFB118
 3974 0cc9 01       		.uleb128 0x1
 3975 0cca 9C       		.byte	0x9c
 3976 0ccb DE0C0000 		.4byte	0xcde
 3977 0ccf 21       		.uleb128 0x21
 3978 0cd0 65040000 		.4byte	.LASF186
 3979 0cd4 02       		.byte	0x2
 3980 0cd5 61       		.byte	0x61
 3981 0cd6 93080000 		.4byte	0x893
 3982 0cda 02       		.uleb128 0x2
 3983 0cdb 91       		.byte	0x91
 3984 0cdc 7C       		.sleb128 -4
 3985 0cdd 00       		.byte	0
 3986 0cde 22       		.uleb128 0x22
 3987 0cdf 83070000 		.4byte	.LASF188
 3988 0ce3 02       		.byte	0x2
 3989 0ce4 6E       		.byte	0x6e
 3990 0ce5 E5000000 		.4byte	0xe5
 3991 0ce9 00000000 		.4byte	.LFB119
 3992 0ced 40000000 		.4byte	.LFE119-.LFB119
 3993 0cf1 01       		.uleb128 0x1
 3994 0cf2 9C       		.byte	0x9c
 3995 0cf3 220D0000 		.4byte	0xd22
 3996 0cf7 21       		.uleb128 0x21
 3997 0cf8 65040000 		.4byte	.LASF186
 3998 0cfc 02       		.byte	0x2
 3999 0cfd 6E       		.byte	0x6e
 4000 0cfe 93080000 		.4byte	0x893
 4001 0d02 02       		.uleb128 0x2
ARM GAS  /tmp/ccyM3aPD.s 			page 72


 4002 0d03 91       		.byte	0x91
 4003 0d04 6C       		.sleb128 -20
 4004 0d05 21       		.uleb128 0x21
 4005 0d06 DD060000 		.4byte	.LASF189
 4006 0d0a 02       		.byte	0x2
 4007 0d0b 6E       		.byte	0x6e
 4008 0d0c 28000000 		.4byte	0x28
 4009 0d10 02       		.uleb128 0x2
 4010 0d11 91       		.byte	0x91
 4011 0d12 68       		.sleb128 -24
 4012 0d13 23       		.uleb128 0x23
 4013 0d14 D00A0000 		.4byte	.LASF190
 4014 0d18 02       		.byte	0x2
 4015 0d19 6F       		.byte	0x6f
 4016 0d1a E5000000 		.4byte	0xe5
 4017 0d1e 02       		.uleb128 0x2
 4018 0d1f 91       		.byte	0x91
 4019 0d20 74       		.sleb128 -12
 4020 0d21 00       		.byte	0
 4021 0d22 20       		.uleb128 0x20
 4022 0d23 E7030000 		.4byte	.LASF192
 4023 0d27 02       		.byte	0x2
 4024 0d28 81       		.byte	0x81
 4025 0d29 00000000 		.4byte	.LFB120
 4026 0d2d 46000000 		.4byte	.LFE120-.LFB120
 4027 0d31 01       		.uleb128 0x1
 4028 0d32 9C       		.byte	0x9c
 4029 0d33 6E0D0000 		.4byte	0xd6e
 4030 0d37 1E       		.uleb128 0x1e
 4031 0d38 75647000 		.ascii	"udp\000"
 4032 0d3c 02       		.byte	0x2
 4033 0d3d 81       		.byte	0x81
 4034 0d3e 6E0D0000 		.4byte	0xd6e
 4035 0d42 02       		.uleb128 0x2
 4036 0d43 91       		.byte	0x91
 4037 0d44 74       		.sleb128 -12
 4038 0d45 1E       		.uleb128 0x1e
 4039 0d46 62756600 		.ascii	"buf\000"
 4040 0d4a 02       		.byte	0x2
 4041 0d4b 82       		.byte	0x82
 4042 0d4c 80050000 		.4byte	0x580
 4043 0d50 02       		.uleb128 0x2
 4044 0d51 91       		.byte	0x91
 4045 0d52 70       		.sleb128 -16
 4046 0d53 1E       		.uleb128 0x1e
 4047 0d54 6E00     		.ascii	"n\000"
 4048 0d56 02       		.byte	0x2
 4049 0d57 82       		.byte	0x82
 4050 0d58 28000000 		.4byte	0x28
 4051 0d5c 02       		.uleb128 0x2
 4052 0d5d 91       		.byte	0x91
 4053 0d5e 6C       		.sleb128 -20
 4054 0d5f 23       		.uleb128 0x23
 4055 0d60 A6060000 		.4byte	.LASF193
 4056 0d64 02       		.byte	0x2
 4057 0d65 83       		.byte	0x83
 4058 0d66 740D0000 		.4byte	0xd74
ARM GAS  /tmp/ccyM3aPD.s 			page 73


 4059 0d6a 02       		.uleb128 0x2
 4060 0d6b 91       		.byte	0x91
 4061 0d6c 7C       		.sleb128 -4
 4062 0d6d 00       		.byte	0
 4063 0d6e 06       		.uleb128 0x6
 4064 0d6f 04       		.byte	0x4
 4065 0d70 FC090000 		.4byte	0x9fc
 4066 0d74 06       		.uleb128 0x6
 4067 0d75 04       		.byte	0x4
 4068 0d76 E5000000 		.4byte	0xe5
 4069 0d7a 24       		.uleb128 0x24
 4070 0d7b 00000000 		.4byte	.LASF194
 4071 0d7f 02       		.byte	0x2
 4072 0d80 99       		.byte	0x99
 4073 0d81 00000000 		.4byte	.LFB121
 4074 0d85 FA000000 		.4byte	.LFE121-.LFB121
 4075 0d89 01       		.uleb128 0x1
 4076 0d8a 9C       		.byte	0x9c
 4077 0d8b 200E0000 		.4byte	0xe20
 4078 0d8f 1E       		.uleb128 0x1e
 4079 0d90 75647000 		.ascii	"udp\000"
 4080 0d94 02       		.byte	0x2
 4081 0d95 99       		.byte	0x99
 4082 0d96 6E0D0000 		.4byte	0xd6e
 4083 0d9a 02       		.uleb128 0x2
 4084 0d9b 91       		.byte	0x91
 4085 0d9c 64       		.sleb128 -28
 4086 0d9d 1E       		.uleb128 0x1e
 4087 0d9e 69717000 		.ascii	"iqp\000"
 4088 0da2 02       		.byte	0x2
 4089 0da3 9A       		.byte	0x9a
 4090 0da4 C40A0000 		.4byte	0xac4
 4091 0da8 02       		.uleb128 0x2
 4092 0da9 91       		.byte	0x91
 4093 0daa 60       		.sleb128 -32
 4094 0dab 1E       		.uleb128 0x1e
 4095 0dac 6E00     		.ascii	"n\000"
 4096 0dae 02       		.byte	0x2
 4097 0daf 9A       		.byte	0x9a
 4098 0db0 28000000 		.4byte	0x28
 4099 0db4 02       		.uleb128 0x2
 4100 0db5 91       		.byte	0x91
 4101 0db6 5C       		.sleb128 -36
 4102 0db7 1F       		.uleb128 0x1f
 4103 0db8 6E687700 		.ascii	"nhw\000"
 4104 0dbc 02       		.byte	0x2
 4105 0dbd 9B       		.byte	0x9b
 4106 0dbe 28000000 		.4byte	0x28
 4107 0dc2 02       		.uleb128 0x2
 4108 0dc3 91       		.byte	0x91
 4109 0dc4 74       		.sleb128 -12
 4110 0dc5 23       		.uleb128 0x23
 4111 0dc6 A6060000 		.4byte	.LASF193
 4112 0dca 02       		.byte	0x2
 4113 0dcb 9C       		.byte	0x9c
 4114 0dcc 740D0000 		.4byte	0xd74
 4115 0dd0 02       		.uleb128 0x2
ARM GAS  /tmp/ccyM3aPD.s 			page 74


 4116 0dd1 91       		.byte	0x91
 4117 0dd2 70       		.sleb128 -16
 4118 0dd3 25       		.uleb128 0x25
 4119 0dd4 22000000 		.4byte	.LBB2
 4120 0dd8 5A000000 		.4byte	.LBE2-.LBB2
 4121 0ddc ED0D0000 		.4byte	0xded
 4122 0de0 1F       		.uleb128 0x1f
 4123 0de1 7700     		.ascii	"w\000"
 4124 0de3 02       		.byte	0x2
 4125 0de4 A0       		.byte	0xa0
 4126 0de5 E5000000 		.4byte	0xe5
 4127 0de9 02       		.uleb128 0x2
 4128 0dea 91       		.byte	0x91
 4129 0deb 6C       		.sleb128 -20
 4130 0dec 00       		.byte	0
 4131 0ded 25       		.uleb128 0x25
 4132 0dee B2000000 		.4byte	.LBB3
 4133 0df2 06000000 		.4byte	.LBE3-.LBB3
 4134 0df6 080E0000 		.4byte	0xe08
 4135 0dfa 1F       		.uleb128 0x1f
 4136 0dfb 746D7000 		.ascii	"tmp\000"
 4137 0dff 02       		.byte	0x2
 4138 0e00 B3       		.byte	0xb3
 4139 0e01 E5000000 		.4byte	0xe5
 4140 0e05 01       		.uleb128 0x1
 4141 0e06 53       		.byte	0x53
 4142 0e07 00       		.byte	0
 4143 0e08 26       		.uleb128 0x26
 4144 0e09 EE000000 		.4byte	.LBB4
 4145 0e0d 06000000 		.4byte	.LBE4-.LBB4
 4146 0e11 1F       		.uleb128 0x1f
 4147 0e12 746D7000 		.ascii	"tmp\000"
 4148 0e16 02       		.byte	0x2
 4149 0e17 B7       		.byte	0xb7
 4150 0e18 E5000000 		.4byte	0xe5
 4151 0e1c 01       		.uleb128 0x1
 4152 0e1d 53       		.byte	0x53
 4153 0e1e 00       		.byte	0
 4154 0e1f 00       		.byte	0
 4155 0e20 20       		.uleb128 0x20
 4156 0e21 980A0000 		.4byte	.LASF195
 4157 0e25 02       		.byte	0x2
 4158 0e26 C4       		.byte	0xc4
 4159 0e27 00000000 		.4byte	.LFB122
 4160 0e2b 4C000000 		.4byte	.LFE122-.LFB122
 4161 0e2f 01       		.uleb128 0x1
 4162 0e30 9C       		.byte	0x9c
 4163 0e31 6C0E0000 		.4byte	0xe6c
 4164 0e35 1E       		.uleb128 0x1e
 4165 0e36 75647000 		.ascii	"udp\000"
 4166 0e3a 02       		.byte	0x2
 4167 0e3b C4       		.byte	0xc4
 4168 0e3c 6E0D0000 		.4byte	0xd6e
 4169 0e40 02       		.uleb128 0x2
 4170 0e41 91       		.byte	0x91
 4171 0e42 74       		.sleb128 -12
 4172 0e43 1E       		.uleb128 0x1e
ARM GAS  /tmp/ccyM3aPD.s 			page 75


 4173 0e44 62756600 		.ascii	"buf\000"
 4174 0e48 02       		.byte	0x2
 4175 0e49 C5       		.byte	0xc5
 4176 0e4a 9C050000 		.4byte	0x59c
 4177 0e4e 02       		.uleb128 0x2
 4178 0e4f 91       		.byte	0x91
 4179 0e50 70       		.sleb128 -16
 4180 0e51 1E       		.uleb128 0x1e
 4181 0e52 6E00     		.ascii	"n\000"
 4182 0e54 02       		.byte	0x2
 4183 0e55 C6       		.byte	0xc6
 4184 0e56 28000000 		.4byte	0x28
 4185 0e5a 02       		.uleb128 0x2
 4186 0e5b 91       		.byte	0x91
 4187 0e5c 6C       		.sleb128 -20
 4188 0e5d 23       		.uleb128 0x23
 4189 0e5e A6060000 		.4byte	.LASF193
 4190 0e62 02       		.byte	0x2
 4191 0e63 C7       		.byte	0xc7
 4192 0e64 740D0000 		.4byte	0xd74
 4193 0e68 02       		.uleb128 0x2
 4194 0e69 91       		.byte	0x91
 4195 0e6a 7C       		.sleb128 -4
 4196 0e6b 00       		.byte	0
 4197 0e6c 24       		.uleb128 0x24
 4198 0e6d 68050000 		.4byte	.LASF196
 4199 0e71 02       		.byte	0x2
 4200 0e72 DE       		.byte	0xde
 4201 0e73 00000000 		.4byte	.LFB123
 4202 0e77 0C010000 		.4byte	.LFE123-.LFB123
 4203 0e7b 01       		.uleb128 0x1
 4204 0e7c 9C       		.byte	0x9c
 4205 0e7d 130F0000 		.4byte	0xf13
 4206 0e81 1E       		.uleb128 0x1e
 4207 0e82 75647000 		.ascii	"udp\000"
 4208 0e86 02       		.byte	0x2
 4209 0e87 DE       		.byte	0xde
 4210 0e88 6E0D0000 		.4byte	0xd6e
 4211 0e8c 02       		.uleb128 0x2
 4212 0e8d 91       		.byte	0x91
 4213 0e8e 64       		.sleb128 -28
 4214 0e8f 1E       		.uleb128 0x1e
 4215 0e90 6F717000 		.ascii	"oqp\000"
 4216 0e94 02       		.byte	0x2
 4217 0e95 DF       		.byte	0xdf
 4218 0e96 310A0000 		.4byte	0xa31
 4219 0e9a 02       		.uleb128 0x2
 4220 0e9b 91       		.byte	0x91
 4221 0e9c 60       		.sleb128 -32
 4222 0e9d 1E       		.uleb128 0x1e
 4223 0e9e 6E00     		.ascii	"n\000"
 4224 0ea0 02       		.byte	0x2
 4225 0ea1 DF       		.byte	0xdf
 4226 0ea2 28000000 		.4byte	0x28
 4227 0ea6 02       		.uleb128 0x2
 4228 0ea7 91       		.byte	0x91
 4229 0ea8 5C       		.sleb128 -36
ARM GAS  /tmp/ccyM3aPD.s 			page 76


 4230 0ea9 1F       		.uleb128 0x1f
 4231 0eaa 6E687700 		.ascii	"nhw\000"
 4232 0eae 02       		.byte	0x2
 4233 0eaf E0       		.byte	0xe0
 4234 0eb0 28000000 		.4byte	0x28
 4235 0eb4 02       		.uleb128 0x2
 4236 0eb5 91       		.byte	0x91
 4237 0eb6 74       		.sleb128 -12
 4238 0eb7 23       		.uleb128 0x23
 4239 0eb8 A6060000 		.4byte	.LASF193
 4240 0ebc 02       		.byte	0x2
 4241 0ebd E1       		.byte	0xe1
 4242 0ebe 740D0000 		.4byte	0xd74
 4243 0ec2 02       		.uleb128 0x2
 4244 0ec3 91       		.byte	0x91
 4245 0ec4 70       		.sleb128 -16
 4246 0ec5 25       		.uleb128 0x25
 4247 0ec6 2A000000 		.4byte	.LBB5
 4248 0eca 5A000000 		.4byte	.LBE5-.LBB5
 4249 0ece DF0E0000 		.4byte	0xedf
 4250 0ed2 1F       		.uleb128 0x1f
 4251 0ed3 7700     		.ascii	"w\000"
 4252 0ed5 02       		.byte	0x2
 4253 0ed6 E6       		.byte	0xe6
 4254 0ed7 E5000000 		.4byte	0xe5
 4255 0edb 02       		.uleb128 0x2
 4256 0edc 91       		.byte	0x91
 4257 0edd 6C       		.sleb128 -20
 4258 0ede 00       		.byte	0
 4259 0edf 25       		.uleb128 0x25
 4260 0ee0 BA000000 		.4byte	.LBB6
 4261 0ee4 06000000 		.4byte	.LBE6-.LBB6
 4262 0ee8 FA0E0000 		.4byte	0xefa
 4263 0eec 1F       		.uleb128 0x1f
 4264 0eed 746D7000 		.ascii	"tmp\000"
 4265 0ef1 02       		.byte	0x2
 4266 0ef2 FC       		.byte	0xfc
 4267 0ef3 E5000000 		.4byte	0xe5
 4268 0ef7 01       		.uleb128 0x1
 4269 0ef8 53       		.byte	0x53
 4270 0ef9 00       		.byte	0
 4271 0efa 26       		.uleb128 0x26
 4272 0efb FA000000 		.4byte	.LBB7
 4273 0eff 06000000 		.4byte	.LBE7-.LBB7
 4274 0f03 27       		.uleb128 0x27
 4275 0f04 746D7000 		.ascii	"tmp\000"
 4276 0f08 02       		.byte	0x2
 4277 0f09 0401     		.2byte	0x104
 4278 0f0b E5000000 		.4byte	0xe5
 4279 0f0f 01       		.uleb128 0x1
 4280 0f10 53       		.byte	0x53
 4281 0f11 00       		.byte	0
 4282 0f12 00       		.byte	0
 4283 0f13 28       		.uleb128 0x28
 4284 0f14 05090000 		.4byte	.LASF200
 4285 0f18 02       		.byte	0x2
 4286 0f19 1401     		.2byte	0x114
ARM GAS  /tmp/ccyM3aPD.s 			page 77


 4287 0f1b 00000000 		.4byte	.LFB124
 4288 0f1f 10000000 		.4byte	.LFE124-.LFB124
 4289 0f23 01       		.uleb128 0x1
 4290 0f24 9C       		.byte	0x9c
 4291 0f25 29       		.uleb128 0x29
 4292 0f26 42090000 		.4byte	.LASF202
 4293 0f2a 02       		.byte	0x2
 4294 0f2b 2301     		.2byte	0x123
 4295 0f2d 00000000 		.4byte	.LFB125
 4296 0f31 A4030000 		.4byte	.LFE125-.LFB125
 4297 0f35 01       		.uleb128 0x1
 4298 0f36 9C       		.byte	0x9c
 4299 0f37 24100000 		.4byte	0x1024
 4300 0f3b 2A       		.uleb128 0x2a
 4301 0f3c 6B010000 		.4byte	.LASF197
 4302 0f40 02       		.byte	0x2
 4303 0f41 2401     		.2byte	0x124
 4304 0f43 E5000000 		.4byte	0xe5
 4305 0f47 02       		.uleb128 0x2
 4306 0f48 91       		.byte	0x91
 4307 0f49 74       		.sleb128 -12
 4308 0f4a 2A       		.uleb128 0x2a
 4309 0f4b 65040000 		.4byte	.LASF186
 4310 0f4f 02       		.byte	0x2
 4311 0f50 2501     		.2byte	0x125
 4312 0f52 93080000 		.4byte	0x893
 4313 0f56 02       		.uleb128 0x2
 4314 0f57 91       		.byte	0x91
 4315 0f58 6C       		.sleb128 -20
 4316 0f59 25       		.uleb128 0x25
 4317 0f5a 7E000000 		.4byte	.LBB8
 4318 0f5e 3A000000 		.4byte	.LBE8-.LBB8
 4319 0f62 760F0000 		.4byte	0xf76
 4320 0f66 27       		.uleb128 0x27
 4321 0f67 666E7200 		.ascii	"fnr\000"
 4322 0f6b 02       		.byte	0x2
 4323 0f6c 3E01     		.2byte	0x13e
 4324 0f6e E5000000 		.4byte	0xe5
 4325 0f72 02       		.uleb128 0x2
 4326 0f73 91       		.byte	0x91
 4327 0f74 68       		.sleb128 -24
 4328 0f75 00       		.byte	0
 4329 0f76 26       		.uleb128 0x26
 4330 0f77 E2000000 		.4byte	.LBB9
 4331 0f7b A4020000 		.4byte	.LBE9-.LBB9
 4332 0f7f 27       		.uleb128 0x27
 4333 0f80 6E00     		.ascii	"n\000"
 4334 0f82 02       		.byte	0x2
 4335 0f83 5501     		.2byte	0x155
 4336 0f85 28000000 		.4byte	0x28
 4337 0f89 02       		.uleb128 0x2
 4338 0f8a 91       		.byte	0x91
 4339 0f8b 70       		.sleb128 -16
 4340 0f8c 27       		.uleb128 0x27
 4341 0f8d 657000   		.ascii	"ep\000"
 4342 0f90 02       		.byte	0x2
 4343 0f91 5601     		.2byte	0x156
ARM GAS  /tmp/ccyM3aPD.s 			page 78


 4344 0f93 E5000000 		.4byte	0xe5
 4345 0f97 02       		.uleb128 0x2
 4346 0f98 91       		.byte	0x91
 4347 0f99 64       		.sleb128 -28
 4348 0f9a 27       		.uleb128 0x27
 4349 0f9b 65707200 		.ascii	"epr\000"
 4350 0f9f 02       		.byte	0x2
 4351 0fa0 5701     		.2byte	0x157
 4352 0fa2 E5000000 		.4byte	0xe5
 4353 0fa6 02       		.uleb128 0x2
 4354 0fa7 91       		.byte	0x91
 4355 0fa8 60       		.sleb128 -32
 4356 0fa9 2A       		.uleb128 0x2a
 4357 0faa 7F0A0000 		.4byte	.LASF198
 4358 0fae 02       		.byte	0x2
 4359 0faf 5801     		.2byte	0x158
 4360 0fb1 360C0000 		.4byte	0xc36
 4361 0fb5 02       		.uleb128 0x2
 4362 0fb6 91       		.byte	0x91
 4363 0fb7 5C       		.sleb128 -36
 4364 0fb8 25       		.uleb128 0x25
 4365 0fb9 0E010000 		.4byte	.LBB10
 4366 0fbd 2A010000 		.4byte	.LBE10-.LBB10
 4367 0fc1 09100000 		.4byte	0x1009
 4368 0fc5 2A       		.uleb128 0x2a
 4369 0fc6 A8030000 		.4byte	.LASF199
 4370 0fca 02       		.byte	0x2
 4371 0fcb 5B01     		.2byte	0x15b
 4372 0fcd 28000000 		.4byte	0x28
 4373 0fd1 02       		.uleb128 0x2
 4374 0fd2 91       		.byte	0x91
 4375 0fd3 58       		.sleb128 -40
 4376 0fd4 25       		.uleb128 0x25
 4377 0fd5 E0010000 		.4byte	.LBB11
 4378 0fd9 06000000 		.4byte	.LBE11-.LBB11
 4379 0fdd F00F0000 		.4byte	0xff0
 4380 0fe1 27       		.uleb128 0x27
 4381 0fe2 746D7000 		.ascii	"tmp\000"
 4382 0fe6 02       		.byte	0x2
 4383 0fe7 7101     		.2byte	0x171
 4384 0fe9 E5000000 		.4byte	0xe5
 4385 0fed 01       		.uleb128 0x1
 4386 0fee 53       		.byte	0x53
 4387 0fef 00       		.byte	0
 4388 0ff0 26       		.uleb128 0x26
 4389 0ff1 FA010000 		.4byte	.LBB12
 4390 0ff5 06000000 		.4byte	.LBE12-.LBB12
 4391 0ff9 27       		.uleb128 0x27
 4392 0ffa 746D7000 		.ascii	"tmp\000"
 4393 0ffe 02       		.byte	0x2
 4394 0fff 7301     		.2byte	0x173
 4395 1001 E5000000 		.4byte	0xe5
 4396 1005 01       		.uleb128 0x1
 4397 1006 53       		.byte	0x53
 4398 1007 00       		.byte	0
 4399 1008 00       		.byte	0
 4400 1009 26       		.uleb128 0x26
ARM GAS  /tmp/ccyM3aPD.s 			page 79


 4401 100a 88020000 		.4byte	.LBB13
 4402 100e F8000000 		.4byte	.LBE13-.LBB13
 4403 1012 27       		.uleb128 0x27
 4404 1013 75647000 		.ascii	"udp\000"
 4405 1017 02       		.byte	0x2
 4406 1018 8301     		.2byte	0x183
 4407 101a 6E0D0000 		.4byte	0xd6e
 4408 101e 02       		.uleb128 0x2
 4409 101f 91       		.byte	0x91
 4410 1020 54       		.sleb128 -44
 4411 1021 00       		.byte	0
 4412 1022 00       		.byte	0
 4413 1023 00       		.byte	0
 4414 1024 28       		.uleb128 0x28
 4415 1025 91050000 		.4byte	.LASF201
 4416 1029 02       		.byte	0x2
 4417 102a B201     		.2byte	0x1b2
 4418 102c 00000000 		.4byte	.LFB126
 4419 1030 10000000 		.4byte	.LFE126-.LFB126
 4420 1034 01       		.uleb128 0x1
 4421 1035 9C       		.byte	0x9c
 4422 1036 29       		.uleb128 0x29
 4423 1037 2D090000 		.4byte	.LASF203
 4424 103b 02       		.byte	0x2
 4425 103c BF01     		.2byte	0x1bf
 4426 103e 00000000 		.4byte	.LFB127
 4427 1042 58000000 		.4byte	.LFE127-.LFB127
 4428 1046 01       		.uleb128 0x1
 4429 1047 9C       		.byte	0x9c
 4430 1048 5C100000 		.4byte	0x105c
 4431 104c 2B       		.uleb128 0x2b
 4432 104d 65040000 		.4byte	.LASF186
 4433 1051 02       		.byte	0x2
 4434 1052 BF01     		.2byte	0x1bf
 4435 1054 93080000 		.4byte	0x893
 4436 1058 02       		.uleb128 0x2
 4437 1059 91       		.byte	0x91
 4438 105a 74       		.sleb128 -12
 4439 105b 00       		.byte	0
 4440 105c 29       		.uleb128 0x29
 4441 105d 33000000 		.4byte	.LASF204
 4442 1061 02       		.byte	0x2
 4443 1062 E001     		.2byte	0x1e0
 4444 1064 00000000 		.4byte	.LFB128
 4445 1068 48000000 		.4byte	.LFE128-.LFB128
 4446 106c 01       		.uleb128 0x1
 4447 106d 9C       		.byte	0x9c
 4448 106e 82100000 		.4byte	0x1082
 4449 1072 2B       		.uleb128 0x2b
 4450 1073 65040000 		.4byte	.LASF186
 4451 1077 02       		.byte	0x2
 4452 1078 E001     		.2byte	0x1e0
 4453 107a 93080000 		.4byte	0x893
 4454 107e 02       		.uleb128 0x2
 4455 107f 91       		.byte	0x91
 4456 1080 74       		.sleb128 -12
 4457 1081 00       		.byte	0
ARM GAS  /tmp/ccyM3aPD.s 			page 80


 4458 1082 29       		.uleb128 0x29
 4459 1083 44060000 		.4byte	.LASF205
 4460 1087 02       		.byte	0x2
 4461 1088 F601     		.2byte	0x1f6
 4462 108a 00000000 		.4byte	.LFB129
 4463 108e 58000000 		.4byte	.LFE129-.LFB129
 4464 1092 01       		.uleb128 0x1
 4465 1093 9C       		.byte	0x9c
 4466 1094 B7100000 		.4byte	0x10b7
 4467 1098 2B       		.uleb128 0x2b
 4468 1099 65040000 		.4byte	.LASF186
 4469 109d 02       		.byte	0x2
 4470 109e F601     		.2byte	0x1f6
 4471 10a0 93080000 		.4byte	0x893
 4472 10a4 02       		.uleb128 0x2
 4473 10a5 91       		.byte	0x91
 4474 10a6 6C       		.sleb128 -20
 4475 10a7 2A       		.uleb128 0x2a
 4476 10a8 FB000000 		.4byte	.LASF206
 4477 10ac 02       		.byte	0x2
 4478 10ad F701     		.2byte	0x1f7
 4479 10af E5000000 		.4byte	0xe5
 4480 10b3 02       		.uleb128 0x2
 4481 10b4 91       		.byte	0x91
 4482 10b5 74       		.sleb128 -12
 4483 10b6 00       		.byte	0
 4484 10b7 2C       		.uleb128 0x2c
 4485 10b8 52060000 		.4byte	.LASF207
 4486 10bc 02       		.byte	0x2
 4487 10bd 1402     		.2byte	0x214
 4488 10bf 00000000 		.4byte	.LFB130
 4489 10c3 1C000000 		.4byte	.LFE130-.LFB130
 4490 10c7 01       		.uleb128 0x1
 4491 10c8 9C       		.byte	0x9c
 4492 10c9 DD100000 		.4byte	0x10dd
 4493 10cd 2B       		.uleb128 0x2b
 4494 10ce 65040000 		.4byte	.LASF186
 4495 10d2 02       		.byte	0x2
 4496 10d3 1402     		.2byte	0x214
 4497 10d5 93080000 		.4byte	0x893
 4498 10d9 02       		.uleb128 0x2
 4499 10da 91       		.byte	0x91
 4500 10db 7C       		.sleb128 -4
 4501 10dc 00       		.byte	0
 4502 10dd 29       		.uleb128 0x29
 4503 10de E5000000 		.4byte	.LASF208
 4504 10e2 02       		.byte	0x2
 4505 10e3 2102     		.2byte	0x221
 4506 10e5 00000000 		.4byte	.LFB131
 4507 10e9 54010000 		.4byte	.LFE131-.LFB131
 4508 10ed 01       		.uleb128 0x1
 4509 10ee 9C       		.byte	0x9c
 4510 10ef 4C110000 		.4byte	0x114c
 4511 10f3 2B       		.uleb128 0x2b
 4512 10f4 65040000 		.4byte	.LASF186
 4513 10f8 02       		.byte	0x2
 4514 10f9 2102     		.2byte	0x221
ARM GAS  /tmp/ccyM3aPD.s 			page 81


 4515 10fb 93080000 		.4byte	0x893
 4516 10ff 02       		.uleb128 0x2
 4517 1100 91       		.byte	0x91
 4518 1101 64       		.sleb128 -28
 4519 1102 2D       		.uleb128 0x2d
 4520 1103 657000   		.ascii	"ep\000"
 4521 1106 02       		.byte	0x2
 4522 1107 2102     		.2byte	0x221
 4523 1109 68070000 		.4byte	0x768
 4524 110d 02       		.uleb128 0x2
 4525 110e 91       		.byte	0x91
 4526 110f 63       		.sleb128 -29
 4527 1110 2A       		.uleb128 0x2a
 4528 1111 BD000000 		.4byte	.LASF209
 4529 1115 02       		.byte	0x2
 4530 1116 2202     		.2byte	0x222
 4531 1118 CF000000 		.4byte	0xcf
 4532 111c 02       		.uleb128 0x2
 4533 111d 91       		.byte	0x91
 4534 111e 76       		.sleb128 -10
 4535 111f 27       		.uleb128 0x27
 4536 1120 65707200 		.ascii	"epr\000"
 4537 1124 02       		.byte	0x2
 4538 1125 2202     		.2byte	0x222
 4539 1127 CF000000 		.4byte	0xcf
 4540 112b 02       		.uleb128 0x2
 4541 112c 91       		.byte	0x91
 4542 112d 74       		.sleb128 -12
 4543 112e 27       		.uleb128 0x27
 4544 112f 647000   		.ascii	"dp\000"
 4545 1132 02       		.byte	0x2
 4546 1133 2302     		.2byte	0x223
 4547 1135 6E0D0000 		.4byte	0xd6e
 4548 1139 02       		.uleb128 0x2
 4549 113a 91       		.byte	0x91
 4550 113b 6C       		.sleb128 -20
 4551 113c 2A       		.uleb128 0x2a
 4552 113d 7F0A0000 		.4byte	.LASF198
 4553 1141 02       		.byte	0x2
 4554 1142 2402     		.2byte	0x224
 4555 1144 360C0000 		.4byte	0xc36
 4556 1148 02       		.uleb128 0x2
 4557 1149 91       		.byte	0x91
 4558 114a 70       		.sleb128 -16
 4559 114b 00       		.byte	0
 4560 114c 29       		.uleb128 0x29
 4561 114d F9060000 		.4byte	.LASF210
 4562 1151 02       		.byte	0x2
 4563 1152 5502     		.2byte	0x255
 4564 1154 00000000 		.4byte	.LFB132
 4565 1158 44000000 		.4byte	.LFE132-.LFB132
 4566 115c 01       		.uleb128 0x1
 4567 115d 9C       		.byte	0x9c
 4568 115e 7F110000 		.4byte	0x117f
 4569 1162 2B       		.uleb128 0x2b
 4570 1163 65040000 		.4byte	.LASF186
 4571 1167 02       		.byte	0x2
ARM GAS  /tmp/ccyM3aPD.s 			page 82


 4572 1168 5502     		.2byte	0x255
 4573 116a 93080000 		.4byte	0x893
 4574 116e 02       		.uleb128 0x2
 4575 116f 91       		.byte	0x91
 4576 1170 6C       		.sleb128 -20
 4577 1171 27       		.uleb128 0x27
 4578 1172 6900     		.ascii	"i\000"
 4579 1174 02       		.byte	0x2
 4580 1175 5602     		.2byte	0x256
 4581 1177 33000000 		.4byte	0x33
 4582 117b 02       		.uleb128 0x2
 4583 117c 91       		.byte	0x91
 4584 117d 74       		.sleb128 -12
 4585 117e 00       		.byte	0
 4586 117f 2E       		.uleb128 0x2e
 4587 1180 0F090000 		.4byte	.LASF211
 4588 1184 02       		.byte	0x2
 4589 1185 6E02     		.2byte	0x26e
 4590 1187 C0070000 		.4byte	0x7c0
 4591 118b 00000000 		.4byte	.LFB133
 4592 118f 38000000 		.4byte	.LFE133-.LFB133
 4593 1193 01       		.uleb128 0x1
 4594 1194 9C       		.byte	0x9c
 4595 1195 B7110000 		.4byte	0x11b7
 4596 1199 2B       		.uleb128 0x2b
 4597 119a 65040000 		.4byte	.LASF186
 4598 119e 02       		.byte	0x2
 4599 119f 6E02     		.2byte	0x26e
 4600 11a1 93080000 		.4byte	0x893
 4601 11a5 02       		.uleb128 0x2
 4602 11a6 91       		.byte	0x91
 4603 11a7 7C       		.sleb128 -4
 4604 11a8 2D       		.uleb128 0x2d
 4605 11a9 657000   		.ascii	"ep\000"
 4606 11ac 02       		.byte	0x2
 4607 11ad 6E02     		.2byte	0x26e
 4608 11af 68070000 		.4byte	0x768
 4609 11b3 02       		.uleb128 0x2
 4610 11b4 91       		.byte	0x91
 4611 11b5 7B       		.sleb128 -5
 4612 11b6 00       		.byte	0
 4613 11b7 2E       		.uleb128 0x2e
 4614 11b8 8C000000 		.4byte	.LASF212
 4615 11bc 02       		.byte	0x2
 4616 11bd 8702     		.2byte	0x287
 4617 11bf C0070000 		.4byte	0x7c0
 4618 11c3 00000000 		.4byte	.LFB134
 4619 11c7 38000000 		.4byte	.LFE134-.LFB134
 4620 11cb 01       		.uleb128 0x1
 4621 11cc 9C       		.byte	0x9c
 4622 11cd EF110000 		.4byte	0x11ef
 4623 11d1 2B       		.uleb128 0x2b
 4624 11d2 65040000 		.4byte	.LASF186
 4625 11d6 02       		.byte	0x2
 4626 11d7 8702     		.2byte	0x287
 4627 11d9 93080000 		.4byte	0x893
 4628 11dd 02       		.uleb128 0x2
ARM GAS  /tmp/ccyM3aPD.s 			page 83


 4629 11de 91       		.byte	0x91
 4630 11df 7C       		.sleb128 -4
 4631 11e0 2D       		.uleb128 0x2d
 4632 11e1 657000   		.ascii	"ep\000"
 4633 11e4 02       		.byte	0x2
 4634 11e5 8702     		.2byte	0x287
 4635 11e7 68070000 		.4byte	0x768
 4636 11eb 02       		.uleb128 0x2
 4637 11ec 91       		.byte	0x91
 4638 11ed 7B       		.sleb128 -5
 4639 11ee 00       		.byte	0
 4640 11ef 2C       		.uleb128 0x2c
 4641 11f0 C3020000 		.4byte	.LASF213
 4642 11f4 02       		.byte	0x2
 4643 11f5 A202     		.2byte	0x2a2
 4644 11f7 00000000 		.4byte	.LFB135
 4645 11fb 64000000 		.4byte	.LFE135-.LFB135
 4646 11ff 01       		.uleb128 0x1
 4647 1200 9C       		.byte	0x9c
 4648 1201 5D120000 		.4byte	0x125d
 4649 1205 2B       		.uleb128 0x2b
 4650 1206 65040000 		.4byte	.LASF186
 4651 120a 02       		.byte	0x2
 4652 120b A202     		.2byte	0x2a2
 4653 120d 93080000 		.4byte	0x893
 4654 1211 02       		.uleb128 0x2
 4655 1212 91       		.byte	0x91
 4656 1213 6C       		.sleb128 -20
 4657 1214 2D       		.uleb128 0x2d
 4658 1215 657000   		.ascii	"ep\000"
 4659 1218 02       		.byte	0x2
 4660 1219 A202     		.2byte	0x2a2
 4661 121b 68070000 		.4byte	0x768
 4662 121f 02       		.uleb128 0x2
 4663 1220 91       		.byte	0x91
 4664 1221 6B       		.sleb128 -21
 4665 1222 2D       		.uleb128 0x2d
 4666 1223 62756600 		.ascii	"buf\000"
 4667 1227 02       		.byte	0x2
 4668 1228 A202     		.2byte	0x2a2
 4669 122a 80050000 		.4byte	0x580
 4670 122e 02       		.uleb128 0x2
 4671 122f 91       		.byte	0x91
 4672 1230 64       		.sleb128 -28
 4673 1231 2A       		.uleb128 0x2a
 4674 1232 A6060000 		.4byte	.LASF193
 4675 1236 02       		.byte	0x2
 4676 1237 A302     		.2byte	0x2a3
 4677 1239 740D0000 		.4byte	0xd74
 4678 123d 02       		.uleb128 0x2
 4679 123e 91       		.byte	0x91
 4680 123f 7C       		.sleb128 -4
 4681 1240 27       		.uleb128 0x27
 4682 1241 75647000 		.ascii	"udp\000"
 4683 1245 02       		.byte	0x2
 4684 1246 A402     		.2byte	0x2a4
 4685 1248 6E0D0000 		.4byte	0xd6e
ARM GAS  /tmp/ccyM3aPD.s 			page 84


 4686 124c 02       		.uleb128 0x2
 4687 124d 91       		.byte	0x91
 4688 124e 74       		.sleb128 -12
 4689 124f 27       		.uleb128 0x27
 4690 1250 6E00     		.ascii	"n\000"
 4691 1252 02       		.byte	0x2
 4692 1253 A502     		.2byte	0x2a5
 4693 1255 E5000000 		.4byte	0xe5
 4694 1259 02       		.uleb128 0x2
 4695 125a 91       		.byte	0x91
 4696 125b 78       		.sleb128 -8
 4697 125c 00       		.byte	0
 4698 125d 2C       		.uleb128 0x2c
 4699 125e 56070000 		.4byte	.LASF214
 4700 1262 02       		.byte	0x2
 4701 1263 B802     		.2byte	0x2b8
 4702 1265 00000000 		.4byte	.LFB136
 4703 1269 62000000 		.4byte	.LFE136-.LFB136
 4704 126d 01       		.uleb128 0x1
 4705 126e 9C       		.byte	0x9c
 4706 126f A0120000 		.4byte	0x12a0
 4707 1273 2B       		.uleb128 0x2b
 4708 1274 65040000 		.4byte	.LASF186
 4709 1278 02       		.byte	0x2
 4710 1279 B802     		.2byte	0x2b8
 4711 127b 93080000 		.4byte	0x893
 4712 127f 02       		.uleb128 0x2
 4713 1280 91       		.byte	0x91
 4714 1281 74       		.sleb128 -12
 4715 1282 2D       		.uleb128 0x2d
 4716 1283 657000   		.ascii	"ep\000"
 4717 1286 02       		.byte	0x2
 4718 1287 B802     		.2byte	0x2b8
 4719 1289 68070000 		.4byte	0x768
 4720 128d 02       		.uleb128 0x2
 4721 128e 91       		.byte	0x91
 4722 128f 73       		.sleb128 -13
 4723 1290 27       		.uleb128 0x27
 4724 1291 6F737000 		.ascii	"osp\000"
 4725 1295 02       		.byte	0x2
 4726 1296 B902     		.2byte	0x2b9
 4727 1298 C00B0000 		.4byte	0xbc0
 4728 129c 02       		.uleb128 0x2
 4729 129d 91       		.byte	0x91
 4730 129e 7C       		.sleb128 -4
 4731 129f 00       		.byte	0
 4732 12a0 29       		.uleb128 0x29
 4733 12a1 61000000 		.4byte	.LASF215
 4734 12a5 02       		.byte	0x2
 4735 12a6 CB02     		.2byte	0x2cb
 4736 12a8 00000000 		.4byte	.LFB137
 4737 12ac B0000000 		.4byte	.LFE137-.LFB137
 4738 12b0 01       		.uleb128 0x1
 4739 12b1 9C       		.byte	0x9c
 4740 12b2 F0120000 		.4byte	0x12f0
 4741 12b6 2B       		.uleb128 0x2b
 4742 12b7 65040000 		.4byte	.LASF186
ARM GAS  /tmp/ccyM3aPD.s 			page 85


 4743 12bb 02       		.byte	0x2
 4744 12bc CB02     		.2byte	0x2cb
 4745 12be 93080000 		.4byte	0x893
 4746 12c2 02       		.uleb128 0x2
 4747 12c3 91       		.byte	0x91
 4748 12c4 6C       		.sleb128 -20
 4749 12c5 2D       		.uleb128 0x2d
 4750 12c6 657000   		.ascii	"ep\000"
 4751 12c9 02       		.byte	0x2
 4752 12ca CB02     		.2byte	0x2cb
 4753 12cc 68070000 		.4byte	0x768
 4754 12d0 02       		.uleb128 0x2
 4755 12d1 91       		.byte	0x91
 4756 12d2 6B       		.sleb128 -21
 4757 12d3 27       		.uleb128 0x27
 4758 12d4 6E00     		.ascii	"n\000"
 4759 12d6 02       		.byte	0x2
 4760 12d7 CC02     		.2byte	0x2cc
 4761 12d9 28000000 		.4byte	0x28
 4762 12dd 02       		.uleb128 0x2
 4763 12de 91       		.byte	0x91
 4764 12df 74       		.sleb128 -12
 4765 12e0 27       		.uleb128 0x27
 4766 12e1 69737000 		.ascii	"isp\000"
 4767 12e5 02       		.byte	0x2
 4768 12e6 CD02     		.2byte	0x2cd
 4769 12e8 BA0B0000 		.4byte	0xbba
 4770 12ec 02       		.uleb128 0x2
 4771 12ed 91       		.byte	0x91
 4772 12ee 70       		.sleb128 -16
 4773 12ef 00       		.byte	0
 4774 12f0 2C       		.uleb128 0x2c
 4775 12f1 D4050000 		.4byte	.LASF216
 4776 12f5 02       		.byte	0x2
 4777 12f6 E402     		.2byte	0x2e4
 4778 12f8 00000000 		.4byte	.LFB138
 4779 12fc 34000000 		.4byte	.LFE138-.LFB138
 4780 1300 01       		.uleb128 0x1
 4781 1301 9C       		.byte	0x9c
 4782 1302 24130000 		.4byte	0x1324
 4783 1306 2B       		.uleb128 0x2b
 4784 1307 65040000 		.4byte	.LASF186
 4785 130b 02       		.byte	0x2
 4786 130c E402     		.2byte	0x2e4
 4787 130e 93080000 		.4byte	0x893
 4788 1312 02       		.uleb128 0x2
 4789 1313 91       		.byte	0x91
 4790 1314 7C       		.sleb128 -4
 4791 1315 2D       		.uleb128 0x2d
 4792 1316 657000   		.ascii	"ep\000"
 4793 1319 02       		.byte	0x2
 4794 131a E402     		.2byte	0x2e4
 4795 131c 68070000 		.4byte	0x768
 4796 1320 02       		.uleb128 0x2
 4797 1321 91       		.byte	0x91
 4798 1322 7B       		.sleb128 -5
 4799 1323 00       		.byte	0
ARM GAS  /tmp/ccyM3aPD.s 			page 86


 4800 1324 2C       		.uleb128 0x2c
 4801 1325 CC060000 		.4byte	.LASF217
 4802 1329 02       		.byte	0x2
 4803 132a F302     		.2byte	0x2f3
 4804 132c 00000000 		.4byte	.LFB139
 4805 1330 34000000 		.4byte	.LFE139-.LFB139
 4806 1334 01       		.uleb128 0x1
 4807 1335 9C       		.byte	0x9c
 4808 1336 58130000 		.4byte	0x1358
 4809 133a 2B       		.uleb128 0x2b
 4810 133b 65040000 		.4byte	.LASF186
 4811 133f 02       		.byte	0x2
 4812 1340 F302     		.2byte	0x2f3
 4813 1342 93080000 		.4byte	0x893
 4814 1346 02       		.uleb128 0x2
 4815 1347 91       		.byte	0x91
 4816 1348 7C       		.sleb128 -4
 4817 1349 2D       		.uleb128 0x2d
 4818 134a 657000   		.ascii	"ep\000"
 4819 134d 02       		.byte	0x2
 4820 134e F302     		.2byte	0x2f3
 4821 1350 68070000 		.4byte	0x768
 4822 1354 02       		.uleb128 0x2
 4823 1355 91       		.byte	0x91
 4824 1356 7B       		.sleb128 -5
 4825 1357 00       		.byte	0
 4826 1358 2C       		.uleb128 0x2c
 4827 1359 A1040000 		.4byte	.LASF218
 4828 135d 02       		.byte	0x2
 4829 135e 0203     		.2byte	0x302
 4830 1360 00000000 		.4byte	.LFB140
 4831 1364 34000000 		.4byte	.LFE140-.LFB140
 4832 1368 01       		.uleb128 0x1
 4833 1369 9C       		.byte	0x9c
 4834 136a 8C130000 		.4byte	0x138c
 4835 136e 2B       		.uleb128 0x2b
 4836 136f 65040000 		.4byte	.LASF186
 4837 1373 02       		.byte	0x2
 4838 1374 0203     		.2byte	0x302
 4839 1376 93080000 		.4byte	0x893
 4840 137a 02       		.uleb128 0x2
 4841 137b 91       		.byte	0x91
 4842 137c 7C       		.sleb128 -4
 4843 137d 2D       		.uleb128 0x2d
 4844 137e 657000   		.ascii	"ep\000"
 4845 1381 02       		.byte	0x2
 4846 1382 0203     		.2byte	0x302
 4847 1384 68070000 		.4byte	0x768
 4848 1388 02       		.uleb128 0x2
 4849 1389 91       		.byte	0x91
 4850 138a 7B       		.sleb128 -5
 4851 138b 00       		.byte	0
 4852 138c 2C       		.uleb128 0x2c
 4853 138d BC050000 		.4byte	.LASF219
 4854 1391 02       		.byte	0x2
 4855 1392 1103     		.2byte	0x311
 4856 1394 00000000 		.4byte	.LFB141
ARM GAS  /tmp/ccyM3aPD.s 			page 87


 4857 1398 34000000 		.4byte	.LFE141-.LFB141
 4858 139c 01       		.uleb128 0x1
 4859 139d 9C       		.byte	0x9c
 4860 139e C0130000 		.4byte	0x13c0
 4861 13a2 2B       		.uleb128 0x2b
 4862 13a3 65040000 		.4byte	.LASF186
 4863 13a7 02       		.byte	0x2
 4864 13a8 1103     		.2byte	0x311
 4865 13aa 93080000 		.4byte	0x893
 4866 13ae 02       		.uleb128 0x2
 4867 13af 91       		.byte	0x91
 4868 13b0 7C       		.sleb128 -4
 4869 13b1 2D       		.uleb128 0x2d
 4870 13b2 657000   		.ascii	"ep\000"
 4871 13b5 02       		.byte	0x2
 4872 13b6 1103     		.2byte	0x311
 4873 13b8 68070000 		.4byte	0x768
 4874 13bc 02       		.uleb128 0x2
 4875 13bd 91       		.byte	0x91
 4876 13be 7B       		.sleb128 -5
 4877 13bf 00       		.byte	0
 4878 13c0 2C       		.uleb128 0x2c
 4879 13c1 7A000000 		.4byte	.LASF220
 4880 13c5 02       		.byte	0x2
 4881 13c6 2003     		.2byte	0x320
 4882 13c8 00000000 		.4byte	.LFB142
 4883 13cc 48000000 		.4byte	.LFE142-.LFB142
 4884 13d0 01       		.uleb128 0x1
 4885 13d1 9C       		.byte	0x9c
 4886 13d2 F4130000 		.4byte	0x13f4
 4887 13d6 2B       		.uleb128 0x2b
 4888 13d7 65040000 		.4byte	.LASF186
 4889 13db 02       		.byte	0x2
 4890 13dc 2003     		.2byte	0x320
 4891 13de 93080000 		.4byte	0x893
 4892 13e2 02       		.uleb128 0x2
 4893 13e3 91       		.byte	0x91
 4894 13e4 7C       		.sleb128 -4
 4895 13e5 2D       		.uleb128 0x2d
 4896 13e6 657000   		.ascii	"ep\000"
 4897 13e9 02       		.byte	0x2
 4898 13ea 2003     		.2byte	0x320
 4899 13ec 68070000 		.4byte	0x768
 4900 13f0 02       		.uleb128 0x2
 4901 13f1 91       		.byte	0x91
 4902 13f2 7B       		.sleb128 -5
 4903 13f3 00       		.byte	0
 4904 13f4 2C       		.uleb128 0x2c
 4905 13f5 71090000 		.4byte	.LASF221
 4906 13f9 02       		.byte	0x2
 4907 13fa 3203     		.2byte	0x332
 4908 13fc 00000000 		.4byte	.LFB143
 4909 1400 44000000 		.4byte	.LFE143-.LFB143
 4910 1404 01       		.uleb128 0x1
 4911 1405 9C       		.byte	0x9c
 4912 1406 28140000 		.4byte	0x1428
 4913 140a 2B       		.uleb128 0x2b
ARM GAS  /tmp/ccyM3aPD.s 			page 88


 4914 140b 65040000 		.4byte	.LASF186
 4915 140f 02       		.byte	0x2
 4916 1410 3203     		.2byte	0x332
 4917 1412 93080000 		.4byte	0x893
 4918 1416 02       		.uleb128 0x2
 4919 1417 91       		.byte	0x91
 4920 1418 7C       		.sleb128 -4
 4921 1419 2D       		.uleb128 0x2d
 4922 141a 657000   		.ascii	"ep\000"
 4923 141d 02       		.byte	0x2
 4924 141e 3203     		.2byte	0x332
 4925 1420 68070000 		.4byte	0x768
 4926 1424 02       		.uleb128 0x2
 4927 1425 91       		.byte	0x91
 4928 1426 7B       		.sleb128 -5
 4929 1427 00       		.byte	0
 4930 1428 23       		.uleb128 0x23
 4931 1429 48020000 		.4byte	.LASF222
 4932 142d 02       		.byte	0x2
 4933 142e 41       		.byte	0x41
 4934 142f 610C0000 		.4byte	0xc61
 4935 1433 05       		.uleb128 0x5
 4936 1434 03       		.byte	0x3
 4937 1435 00000000 		.4byte	ep0_state
 4938 1439 23       		.uleb128 0x23
 4939 143a AD000000 		.4byte	.LASF223
 4940 143e 02       		.byte	0x2
 4941 143f 46       		.byte	0x46
 4942 1440 510C0000 		.4byte	0xc51
 4943 1444 05       		.uleb128 0x5
 4944 1445 03       		.byte	0x3
 4945 1446 00000000 		.4byte	ep0setup_buffer
 4946 144a 23       		.uleb128 0x23
 4947 144b 8C020000 		.4byte	.LASF224
 4948 144f 02       		.byte	0x2
 4949 1450 4B       		.byte	0x4b
 4950 1451 3C0C0000 		.4byte	0xc3c
 4951 1455 05       		.uleb128 0x5
 4952 1456 03       		.byte	0x3
 4953 1457 00000000 		.4byte	ep0config
 4954 145b 2F       		.uleb128 0x2f
 4955 145c B6020000 		.4byte	.LASF225
 4956 1460 10       		.byte	0x10
 4957 1461 E3       		.byte	0xe3
 4958 1462 65010000 		.4byte	0x165
 4959 1466 30       		.uleb128 0x30
 4960 1467 3F050000 		.4byte	.LASF226
 4961 146b 11       		.byte	0x11
 4962 146c 9806     		.2byte	0x698
 4963 146e BC050000 		.4byte	0x5bc
 4964 1472 31       		.uleb128 0x31
 4965 1473 82090000 		.4byte	.LASF227
 4966 1477 02       		.byte	0x2
 4967 1478 2C       		.byte	0x2c
 4968 1479 7F060000 		.4byte	0x67f
 4969 147d 05       		.uleb128 0x5
 4970 147e 03       		.byte	0x3
ARM GAS  /tmp/ccyM3aPD.s 			page 89


 4971 147f 00000000 		.4byte	USBD1
 4972 1483 00       		.byte	0
 4973              		.section	.debug_abbrev,"",%progbits
 4974              	.Ldebug_abbrev0:
 4975 0000 01       		.uleb128 0x1
 4976 0001 11       		.uleb128 0x11
 4977 0002 01       		.byte	0x1
 4978 0003 25       		.uleb128 0x25
 4979 0004 0E       		.uleb128 0xe
 4980 0005 13       		.uleb128 0x13
 4981 0006 0B       		.uleb128 0xb
 4982 0007 03       		.uleb128 0x3
 4983 0008 0E       		.uleb128 0xe
 4984 0009 55       		.uleb128 0x55
 4985 000a 17       		.uleb128 0x17
 4986 000b 11       		.uleb128 0x11
 4987 000c 01       		.uleb128 0x1
 4988 000d 10       		.uleb128 0x10
 4989 000e 17       		.uleb128 0x17
 4990 000f 00       		.byte	0
 4991 0010 00       		.byte	0
 4992 0011 02       		.uleb128 0x2
 4993 0012 24       		.uleb128 0x24
 4994 0013 00       		.byte	0
 4995 0014 0B       		.uleb128 0xb
 4996 0015 0B       		.uleb128 0xb
 4997 0016 3E       		.uleb128 0x3e
 4998 0017 0B       		.uleb128 0xb
 4999 0018 03       		.uleb128 0x3
 5000 0019 08       		.uleb128 0x8
 5001 001a 00       		.byte	0
 5002 001b 00       		.byte	0
 5003 001c 03       		.uleb128 0x3
 5004 001d 16       		.uleb128 0x16
 5005 001e 00       		.byte	0
 5006 001f 03       		.uleb128 0x3
 5007 0020 0E       		.uleb128 0xe
 5008 0021 3A       		.uleb128 0x3a
 5009 0022 0B       		.uleb128 0xb
 5010 0023 3B       		.uleb128 0x3b
 5011 0024 0B       		.uleb128 0xb
 5012 0025 49       		.uleb128 0x49
 5013 0026 13       		.uleb128 0x13
 5014 0027 00       		.byte	0
 5015 0028 00       		.byte	0
 5016 0029 04       		.uleb128 0x4
 5017 002a 24       		.uleb128 0x24
 5018 002b 00       		.byte	0
 5019 002c 0B       		.uleb128 0xb
 5020 002d 0B       		.uleb128 0xb
 5021 002e 3E       		.uleb128 0x3e
 5022 002f 0B       		.uleb128 0xb
 5023 0030 03       		.uleb128 0x3
 5024 0031 0E       		.uleb128 0xe
 5025 0032 00       		.byte	0
 5026 0033 00       		.byte	0
 5027 0034 05       		.uleb128 0x5
ARM GAS  /tmp/ccyM3aPD.s 			page 90


 5028 0035 0F       		.uleb128 0xf
 5029 0036 00       		.byte	0
 5030 0037 0B       		.uleb128 0xb
 5031 0038 0B       		.uleb128 0xb
 5032 0039 00       		.byte	0
 5033 003a 00       		.byte	0
 5034 003b 06       		.uleb128 0x6
 5035 003c 0F       		.uleb128 0xf
 5036 003d 00       		.byte	0
 5037 003e 0B       		.uleb128 0xb
 5038 003f 0B       		.uleb128 0xb
 5039 0040 49       		.uleb128 0x49
 5040 0041 13       		.uleb128 0x13
 5041 0042 00       		.byte	0
 5042 0043 00       		.byte	0
 5043 0044 07       		.uleb128 0x7
 5044 0045 26       		.uleb128 0x26
 5045 0046 00       		.byte	0
 5046 0047 49       		.uleb128 0x49
 5047 0048 13       		.uleb128 0x13
 5048 0049 00       		.byte	0
 5049 004a 00       		.byte	0
 5050 004b 08       		.uleb128 0x8
 5051 004c 13       		.uleb128 0x13
 5052 004d 01       		.byte	0x1
 5053 004e 03       		.uleb128 0x3
 5054 004f 0E       		.uleb128 0xe
 5055 0050 0B       		.uleb128 0xb
 5056 0051 0B       		.uleb128 0xb
 5057 0052 3A       		.uleb128 0x3a
 5058 0053 0B       		.uleb128 0xb
 5059 0054 3B       		.uleb128 0x3b
 5060 0055 0B       		.uleb128 0xb
 5061 0056 01       		.uleb128 0x1
 5062 0057 13       		.uleb128 0x13
 5063 0058 00       		.byte	0
 5064 0059 00       		.byte	0
 5065 005a 09       		.uleb128 0x9
 5066 005b 0D       		.uleb128 0xd
 5067 005c 00       		.byte	0
 5068 005d 03       		.uleb128 0x3
 5069 005e 0E       		.uleb128 0xe
 5070 005f 3A       		.uleb128 0x3a
 5071 0060 0B       		.uleb128 0xb
 5072 0061 3B       		.uleb128 0x3b
 5073 0062 0B       		.uleb128 0xb
 5074 0063 49       		.uleb128 0x49
 5075 0064 13       		.uleb128 0x13
 5076 0065 38       		.uleb128 0x38
 5077 0066 0B       		.uleb128 0xb
 5078 0067 00       		.byte	0
 5079 0068 00       		.byte	0
 5080 0069 0A       		.uleb128 0xa
 5081 006a 0D       		.uleb128 0xd
 5082 006b 00       		.byte	0
 5083 006c 03       		.uleb128 0x3
 5084 006d 08       		.uleb128 0x8
ARM GAS  /tmp/ccyM3aPD.s 			page 91


 5085 006e 3A       		.uleb128 0x3a
 5086 006f 0B       		.uleb128 0xb
 5087 0070 3B       		.uleb128 0x3b
 5088 0071 0B       		.uleb128 0xb
 5089 0072 49       		.uleb128 0x49
 5090 0073 13       		.uleb128 0x13
 5091 0074 38       		.uleb128 0x38
 5092 0075 0B       		.uleb128 0xb
 5093 0076 00       		.byte	0
 5094 0077 00       		.byte	0
 5095 0078 0B       		.uleb128 0xb
 5096 0079 13       		.uleb128 0x13
 5097 007a 01       		.byte	0x1
 5098 007b 0B       		.uleb128 0xb
 5099 007c 0B       		.uleb128 0xb
 5100 007d 3A       		.uleb128 0x3a
 5101 007e 0B       		.uleb128 0xb
 5102 007f 3B       		.uleb128 0x3b
 5103 0080 0B       		.uleb128 0xb
 5104 0081 01       		.uleb128 0x1
 5105 0082 13       		.uleb128 0x13
 5106 0083 00       		.byte	0
 5107 0084 00       		.byte	0
 5108 0085 0C       		.uleb128 0xc
 5109 0086 13       		.uleb128 0x13
 5110 0087 01       		.byte	0x1
 5111 0088 03       		.uleb128 0x3
 5112 0089 0E       		.uleb128 0xe
 5113 008a 0B       		.uleb128 0xb
 5114 008b 0B       		.uleb128 0xb
 5115 008c 3A       		.uleb128 0x3a
 5116 008d 0B       		.uleb128 0xb
 5117 008e 3B       		.uleb128 0x3b
 5118 008f 05       		.uleb128 0x5
 5119 0090 01       		.uleb128 0x1
 5120 0091 13       		.uleb128 0x13
 5121 0092 00       		.byte	0
 5122 0093 00       		.byte	0
 5123 0094 0D       		.uleb128 0xd
 5124 0095 0D       		.uleb128 0xd
 5125 0096 00       		.byte	0
 5126 0097 03       		.uleb128 0x3
 5127 0098 08       		.uleb128 0x8
 5128 0099 3A       		.uleb128 0x3a
 5129 009a 0B       		.uleb128 0xb
 5130 009b 3B       		.uleb128 0x3b
 5131 009c 05       		.uleb128 0x5
 5132 009d 49       		.uleb128 0x49
 5133 009e 13       		.uleb128 0x13
 5134 009f 38       		.uleb128 0x38
 5135 00a0 0B       		.uleb128 0xb
 5136 00a1 00       		.byte	0
 5137 00a2 00       		.byte	0
 5138 00a3 0E       		.uleb128 0xe
 5139 00a4 35       		.uleb128 0x35
 5140 00a5 00       		.byte	0
 5141 00a6 49       		.uleb128 0x49
ARM GAS  /tmp/ccyM3aPD.s 			page 92


 5142 00a7 13       		.uleb128 0x13
 5143 00a8 00       		.byte	0
 5144 00a9 00       		.byte	0
 5145 00aa 0F       		.uleb128 0xf
 5146 00ab 17       		.uleb128 0x17
 5147 00ac 01       		.byte	0x1
 5148 00ad 0B       		.uleb128 0xb
 5149 00ae 0B       		.uleb128 0xb
 5150 00af 3A       		.uleb128 0x3a
 5151 00b0 0B       		.uleb128 0xb
 5152 00b1 3B       		.uleb128 0x3b
 5153 00b2 0B       		.uleb128 0xb
 5154 00b3 01       		.uleb128 0x1
 5155 00b4 13       		.uleb128 0x13
 5156 00b5 00       		.byte	0
 5157 00b6 00       		.byte	0
 5158 00b7 10       		.uleb128 0x10
 5159 00b8 0D       		.uleb128 0xd
 5160 00b9 00       		.byte	0
 5161 00ba 03       		.uleb128 0x3
 5162 00bb 0E       		.uleb128 0xe
 5163 00bc 3A       		.uleb128 0x3a
 5164 00bd 0B       		.uleb128 0xb
 5165 00be 3B       		.uleb128 0x3b
 5166 00bf 0B       		.uleb128 0xb
 5167 00c0 49       		.uleb128 0x49
 5168 00c1 13       		.uleb128 0x13
 5169 00c2 00       		.byte	0
 5170 00c3 00       		.byte	0
 5171 00c4 11       		.uleb128 0x11
 5172 00c5 15       		.uleb128 0x15
 5173 00c6 01       		.byte	0x1
 5174 00c7 27       		.uleb128 0x27
 5175 00c8 19       		.uleb128 0x19
 5176 00c9 01       		.uleb128 0x1
 5177 00ca 13       		.uleb128 0x13
 5178 00cb 00       		.byte	0
 5179 00cc 00       		.byte	0
 5180 00cd 12       		.uleb128 0x12
 5181 00ce 05       		.uleb128 0x5
 5182 00cf 00       		.byte	0
 5183 00d0 49       		.uleb128 0x49
 5184 00d1 13       		.uleb128 0x13
 5185 00d2 00       		.byte	0
 5186 00d3 00       		.byte	0
 5187 00d4 13       		.uleb128 0x13
 5188 00d5 01       		.uleb128 0x1
 5189 00d6 01       		.byte	0x1
 5190 00d7 49       		.uleb128 0x49
 5191 00d8 13       		.uleb128 0x13
 5192 00d9 01       		.uleb128 0x1
 5193 00da 13       		.uleb128 0x13
 5194 00db 00       		.byte	0
 5195 00dc 00       		.byte	0
 5196 00dd 14       		.uleb128 0x14
 5197 00de 21       		.uleb128 0x21
 5198 00df 00       		.byte	0
ARM GAS  /tmp/ccyM3aPD.s 			page 93


 5199 00e0 49       		.uleb128 0x49
 5200 00e1 13       		.uleb128 0x13
 5201 00e2 2F       		.uleb128 0x2f
 5202 00e3 0B       		.uleb128 0xb
 5203 00e4 00       		.byte	0
 5204 00e5 00       		.byte	0
 5205 00e6 15       		.uleb128 0x15
 5206 00e7 13       		.uleb128 0x13
 5207 00e8 01       		.byte	0x1
 5208 00e9 0B       		.uleb128 0xb
 5209 00ea 0B       		.uleb128 0xb
 5210 00eb 3A       		.uleb128 0x3a
 5211 00ec 0B       		.uleb128 0xb
 5212 00ed 3B       		.uleb128 0x3b
 5213 00ee 05       		.uleb128 0x5
 5214 00ef 01       		.uleb128 0x1
 5215 00f0 13       		.uleb128 0x13
 5216 00f1 00       		.byte	0
 5217 00f2 00       		.byte	0
 5218 00f3 16       		.uleb128 0x16
 5219 00f4 0D       		.uleb128 0xd
 5220 00f5 00       		.byte	0
 5221 00f6 03       		.uleb128 0x3
 5222 00f7 0E       		.uleb128 0xe
 5223 00f8 3A       		.uleb128 0x3a
 5224 00f9 0B       		.uleb128 0xb
 5225 00fa 3B       		.uleb128 0x3b
 5226 00fb 05       		.uleb128 0x5
 5227 00fc 49       		.uleb128 0x49
 5228 00fd 13       		.uleb128 0x13
 5229 00fe 38       		.uleb128 0x38
 5230 00ff 0B       		.uleb128 0xb
 5231 0100 00       		.byte	0
 5232 0101 00       		.byte	0
 5233 0102 17       		.uleb128 0x17
 5234 0103 16       		.uleb128 0x16
 5235 0104 00       		.byte	0
 5236 0105 03       		.uleb128 0x3
 5237 0106 0E       		.uleb128 0xe
 5238 0107 3A       		.uleb128 0x3a
 5239 0108 0B       		.uleb128 0xb
 5240 0109 3B       		.uleb128 0x3b
 5241 010a 05       		.uleb128 0x5
 5242 010b 49       		.uleb128 0x49
 5243 010c 13       		.uleb128 0x13
 5244 010d 00       		.byte	0
 5245 010e 00       		.byte	0
 5246 010f 18       		.uleb128 0x18
 5247 0110 04       		.uleb128 0x4
 5248 0111 01       		.byte	0x1
 5249 0112 0B       		.uleb128 0xb
 5250 0113 0B       		.uleb128 0xb
 5251 0114 3A       		.uleb128 0x3a
 5252 0115 0B       		.uleb128 0xb
 5253 0116 3B       		.uleb128 0x3b
 5254 0117 0B       		.uleb128 0xb
 5255 0118 01       		.uleb128 0x1
ARM GAS  /tmp/ccyM3aPD.s 			page 94


 5256 0119 13       		.uleb128 0x13
 5257 011a 00       		.byte	0
 5258 011b 00       		.byte	0
 5259 011c 19       		.uleb128 0x19
 5260 011d 28       		.uleb128 0x28
 5261 011e 00       		.byte	0
 5262 011f 03       		.uleb128 0x3
 5263 0120 0E       		.uleb128 0xe
 5264 0121 1C       		.uleb128 0x1c
 5265 0122 0D       		.uleb128 0xd
 5266 0123 00       		.byte	0
 5267 0124 00       		.byte	0
 5268 0125 1A       		.uleb128 0x1a
 5269 0126 04       		.uleb128 0x4
 5270 0127 01       		.byte	0x1
 5271 0128 0B       		.uleb128 0xb
 5272 0129 0B       		.uleb128 0xb
 5273 012a 3A       		.uleb128 0x3a
 5274 012b 0B       		.uleb128 0xb
 5275 012c 3B       		.uleb128 0x3b
 5276 012d 05       		.uleb128 0x5
 5277 012e 01       		.uleb128 0x1
 5278 012f 13       		.uleb128 0x13
 5279 0130 00       		.byte	0
 5280 0131 00       		.byte	0
 5281 0132 1B       		.uleb128 0x1b
 5282 0133 15       		.uleb128 0x15
 5283 0134 01       		.byte	0x1
 5284 0135 27       		.uleb128 0x27
 5285 0136 19       		.uleb128 0x19
 5286 0137 49       		.uleb128 0x49
 5287 0138 13       		.uleb128 0x13
 5288 0139 01       		.uleb128 0x1
 5289 013a 13       		.uleb128 0x13
 5290 013b 00       		.byte	0
 5291 013c 00       		.byte	0
 5292 013d 1C       		.uleb128 0x1c
 5293 013e 0D       		.uleb128 0xd
 5294 013f 00       		.byte	0
 5295 0140 03       		.uleb128 0x3
 5296 0141 08       		.uleb128 0x8
 5297 0142 3A       		.uleb128 0x3a
 5298 0143 0B       		.uleb128 0xb
 5299 0144 3B       		.uleb128 0x3b
 5300 0145 0B       		.uleb128 0xb
 5301 0146 49       		.uleb128 0x49
 5302 0147 13       		.uleb128 0x13
 5303 0148 00       		.byte	0
 5304 0149 00       		.byte	0
 5305 014a 1D       		.uleb128 0x1d
 5306 014b 2E       		.uleb128 0x2e
 5307 014c 01       		.byte	0x1
 5308 014d 03       		.uleb128 0x3
 5309 014e 0E       		.uleb128 0xe
 5310 014f 3A       		.uleb128 0x3a
 5311 0150 0B       		.uleb128 0xb
 5312 0151 3B       		.uleb128 0x3b
ARM GAS  /tmp/ccyM3aPD.s 			page 95


 5313 0152 0B       		.uleb128 0xb
 5314 0153 27       		.uleb128 0x27
 5315 0154 19       		.uleb128 0x19
 5316 0155 49       		.uleb128 0x49
 5317 0156 13       		.uleb128 0x13
 5318 0157 11       		.uleb128 0x11
 5319 0158 01       		.uleb128 0x1
 5320 0159 12       		.uleb128 0x12
 5321 015a 06       		.uleb128 0x6
 5322 015b 40       		.uleb128 0x40
 5323 015c 18       		.uleb128 0x18
 5324 015d 9742     		.uleb128 0x2117
 5325 015f 19       		.uleb128 0x19
 5326 0160 01       		.uleb128 0x1
 5327 0161 13       		.uleb128 0x13
 5328 0162 00       		.byte	0
 5329 0163 00       		.byte	0
 5330 0164 1E       		.uleb128 0x1e
 5331 0165 05       		.uleb128 0x5
 5332 0166 00       		.byte	0
 5333 0167 03       		.uleb128 0x3
 5334 0168 08       		.uleb128 0x8
 5335 0169 3A       		.uleb128 0x3a
 5336 016a 0B       		.uleb128 0xb
 5337 016b 3B       		.uleb128 0x3b
 5338 016c 0B       		.uleb128 0xb
 5339 016d 49       		.uleb128 0x49
 5340 016e 13       		.uleb128 0x13
 5341 016f 02       		.uleb128 0x2
 5342 0170 18       		.uleb128 0x18
 5343 0171 00       		.byte	0
 5344 0172 00       		.byte	0
 5345 0173 1F       		.uleb128 0x1f
 5346 0174 34       		.uleb128 0x34
 5347 0175 00       		.byte	0
 5348 0176 03       		.uleb128 0x3
 5349 0177 08       		.uleb128 0x8
 5350 0178 3A       		.uleb128 0x3a
 5351 0179 0B       		.uleb128 0xb
 5352 017a 3B       		.uleb128 0x3b
 5353 017b 0B       		.uleb128 0xb
 5354 017c 49       		.uleb128 0x49
 5355 017d 13       		.uleb128 0x13
 5356 017e 02       		.uleb128 0x2
 5357 017f 18       		.uleb128 0x18
 5358 0180 00       		.byte	0
 5359 0181 00       		.byte	0
 5360 0182 20       		.uleb128 0x20
 5361 0183 2E       		.uleb128 0x2e
 5362 0184 01       		.byte	0x1
 5363 0185 03       		.uleb128 0x3
 5364 0186 0E       		.uleb128 0xe
 5365 0187 3A       		.uleb128 0x3a
 5366 0188 0B       		.uleb128 0xb
 5367 0189 3B       		.uleb128 0x3b
 5368 018a 0B       		.uleb128 0xb
 5369 018b 27       		.uleb128 0x27
ARM GAS  /tmp/ccyM3aPD.s 			page 96


 5370 018c 19       		.uleb128 0x19
 5371 018d 11       		.uleb128 0x11
 5372 018e 01       		.uleb128 0x1
 5373 018f 12       		.uleb128 0x12
 5374 0190 06       		.uleb128 0x6
 5375 0191 40       		.uleb128 0x40
 5376 0192 18       		.uleb128 0x18
 5377 0193 9742     		.uleb128 0x2117
 5378 0195 19       		.uleb128 0x19
 5379 0196 01       		.uleb128 0x1
 5380 0197 13       		.uleb128 0x13
 5381 0198 00       		.byte	0
 5382 0199 00       		.byte	0
 5383 019a 21       		.uleb128 0x21
 5384 019b 05       		.uleb128 0x5
 5385 019c 00       		.byte	0
 5386 019d 03       		.uleb128 0x3
 5387 019e 0E       		.uleb128 0xe
 5388 019f 3A       		.uleb128 0x3a
 5389 01a0 0B       		.uleb128 0xb
 5390 01a1 3B       		.uleb128 0x3b
 5391 01a2 0B       		.uleb128 0xb
 5392 01a3 49       		.uleb128 0x49
 5393 01a4 13       		.uleb128 0x13
 5394 01a5 02       		.uleb128 0x2
 5395 01a6 18       		.uleb128 0x18
 5396 01a7 00       		.byte	0
 5397 01a8 00       		.byte	0
 5398 01a9 22       		.uleb128 0x22
 5399 01aa 2E       		.uleb128 0x2e
 5400 01ab 01       		.byte	0x1
 5401 01ac 03       		.uleb128 0x3
 5402 01ad 0E       		.uleb128 0xe
 5403 01ae 3A       		.uleb128 0x3a
 5404 01af 0B       		.uleb128 0xb
 5405 01b0 3B       		.uleb128 0x3b
 5406 01b1 0B       		.uleb128 0xb
 5407 01b2 27       		.uleb128 0x27
 5408 01b3 19       		.uleb128 0x19
 5409 01b4 49       		.uleb128 0x49
 5410 01b5 13       		.uleb128 0x13
 5411 01b6 11       		.uleb128 0x11
 5412 01b7 01       		.uleb128 0x1
 5413 01b8 12       		.uleb128 0x12
 5414 01b9 06       		.uleb128 0x6
 5415 01ba 40       		.uleb128 0x40
 5416 01bb 18       		.uleb128 0x18
 5417 01bc 9642     		.uleb128 0x2116
 5418 01be 19       		.uleb128 0x19
 5419 01bf 01       		.uleb128 0x1
 5420 01c0 13       		.uleb128 0x13
 5421 01c1 00       		.byte	0
 5422 01c2 00       		.byte	0
 5423 01c3 23       		.uleb128 0x23
 5424 01c4 34       		.uleb128 0x34
 5425 01c5 00       		.byte	0
 5426 01c6 03       		.uleb128 0x3
ARM GAS  /tmp/ccyM3aPD.s 			page 97


 5427 01c7 0E       		.uleb128 0xe
 5428 01c8 3A       		.uleb128 0x3a
 5429 01c9 0B       		.uleb128 0xb
 5430 01ca 3B       		.uleb128 0x3b
 5431 01cb 0B       		.uleb128 0xb
 5432 01cc 49       		.uleb128 0x49
 5433 01cd 13       		.uleb128 0x13
 5434 01ce 02       		.uleb128 0x2
 5435 01cf 18       		.uleb128 0x18
 5436 01d0 00       		.byte	0
 5437 01d1 00       		.byte	0
 5438 01d2 24       		.uleb128 0x24
 5439 01d3 2E       		.uleb128 0x2e
 5440 01d4 01       		.byte	0x1
 5441 01d5 03       		.uleb128 0x3
 5442 01d6 0E       		.uleb128 0xe
 5443 01d7 3A       		.uleb128 0x3a
 5444 01d8 0B       		.uleb128 0xb
 5445 01d9 3B       		.uleb128 0x3b
 5446 01da 0B       		.uleb128 0xb
 5447 01db 27       		.uleb128 0x27
 5448 01dc 19       		.uleb128 0x19
 5449 01dd 11       		.uleb128 0x11
 5450 01de 01       		.uleb128 0x1
 5451 01df 12       		.uleb128 0x12
 5452 01e0 06       		.uleb128 0x6
 5453 01e1 40       		.uleb128 0x40
 5454 01e2 18       		.uleb128 0x18
 5455 01e3 9642     		.uleb128 0x2116
 5456 01e5 19       		.uleb128 0x19
 5457 01e6 01       		.uleb128 0x1
 5458 01e7 13       		.uleb128 0x13
 5459 01e8 00       		.byte	0
 5460 01e9 00       		.byte	0
 5461 01ea 25       		.uleb128 0x25
 5462 01eb 0B       		.uleb128 0xb
 5463 01ec 01       		.byte	0x1
 5464 01ed 11       		.uleb128 0x11
 5465 01ee 01       		.uleb128 0x1
 5466 01ef 12       		.uleb128 0x12
 5467 01f0 06       		.uleb128 0x6
 5468 01f1 01       		.uleb128 0x1
 5469 01f2 13       		.uleb128 0x13
 5470 01f3 00       		.byte	0
 5471 01f4 00       		.byte	0
 5472 01f5 26       		.uleb128 0x26
 5473 01f6 0B       		.uleb128 0xb
 5474 01f7 01       		.byte	0x1
 5475 01f8 11       		.uleb128 0x11
 5476 01f9 01       		.uleb128 0x1
 5477 01fa 12       		.uleb128 0x12
 5478 01fb 06       		.uleb128 0x6
 5479 01fc 00       		.byte	0
 5480 01fd 00       		.byte	0
 5481 01fe 27       		.uleb128 0x27
 5482 01ff 34       		.uleb128 0x34
 5483 0200 00       		.byte	0
ARM GAS  /tmp/ccyM3aPD.s 			page 98


 5484 0201 03       		.uleb128 0x3
 5485 0202 08       		.uleb128 0x8
 5486 0203 3A       		.uleb128 0x3a
 5487 0204 0B       		.uleb128 0xb
 5488 0205 3B       		.uleb128 0x3b
 5489 0206 05       		.uleb128 0x5
 5490 0207 49       		.uleb128 0x49
 5491 0208 13       		.uleb128 0x13
 5492 0209 02       		.uleb128 0x2
 5493 020a 18       		.uleb128 0x18
 5494 020b 00       		.byte	0
 5495 020c 00       		.byte	0
 5496 020d 28       		.uleb128 0x28
 5497 020e 2E       		.uleb128 0x2e
 5498 020f 00       		.byte	0
 5499 0210 3F       		.uleb128 0x3f
 5500 0211 19       		.uleb128 0x19
 5501 0212 03       		.uleb128 0x3
 5502 0213 0E       		.uleb128 0xe
 5503 0214 3A       		.uleb128 0x3a
 5504 0215 0B       		.uleb128 0xb
 5505 0216 3B       		.uleb128 0x3b
 5506 0217 05       		.uleb128 0x5
 5507 0218 27       		.uleb128 0x27
 5508 0219 19       		.uleb128 0x19
 5509 021a 11       		.uleb128 0x11
 5510 021b 01       		.uleb128 0x1
 5511 021c 12       		.uleb128 0x12
 5512 021d 06       		.uleb128 0x6
 5513 021e 40       		.uleb128 0x40
 5514 021f 18       		.uleb128 0x18
 5515 0220 9642     		.uleb128 0x2116
 5516 0222 19       		.uleb128 0x19
 5517 0223 00       		.byte	0
 5518 0224 00       		.byte	0
 5519 0225 29       		.uleb128 0x29
 5520 0226 2E       		.uleb128 0x2e
 5521 0227 01       		.byte	0x1
 5522 0228 3F       		.uleb128 0x3f
 5523 0229 19       		.uleb128 0x19
 5524 022a 03       		.uleb128 0x3
 5525 022b 0E       		.uleb128 0xe
 5526 022c 3A       		.uleb128 0x3a
 5527 022d 0B       		.uleb128 0xb
 5528 022e 3B       		.uleb128 0x3b
 5529 022f 05       		.uleb128 0x5
 5530 0230 27       		.uleb128 0x27
 5531 0231 19       		.uleb128 0x19
 5532 0232 11       		.uleb128 0x11
 5533 0233 01       		.uleb128 0x1
 5534 0234 12       		.uleb128 0x12
 5535 0235 06       		.uleb128 0x6
 5536 0236 40       		.uleb128 0x40
 5537 0237 18       		.uleb128 0x18
 5538 0238 9642     		.uleb128 0x2116
 5539 023a 19       		.uleb128 0x19
 5540 023b 01       		.uleb128 0x1
ARM GAS  /tmp/ccyM3aPD.s 			page 99


 5541 023c 13       		.uleb128 0x13
 5542 023d 00       		.byte	0
 5543 023e 00       		.byte	0
 5544 023f 2A       		.uleb128 0x2a
 5545 0240 34       		.uleb128 0x34
 5546 0241 00       		.byte	0
 5547 0242 03       		.uleb128 0x3
 5548 0243 0E       		.uleb128 0xe
 5549 0244 3A       		.uleb128 0x3a
 5550 0245 0B       		.uleb128 0xb
 5551 0246 3B       		.uleb128 0x3b
 5552 0247 05       		.uleb128 0x5
 5553 0248 49       		.uleb128 0x49
 5554 0249 13       		.uleb128 0x13
 5555 024a 02       		.uleb128 0x2
 5556 024b 18       		.uleb128 0x18
 5557 024c 00       		.byte	0
 5558 024d 00       		.byte	0
 5559 024e 2B       		.uleb128 0x2b
 5560 024f 05       		.uleb128 0x5
 5561 0250 00       		.byte	0
 5562 0251 03       		.uleb128 0x3
 5563 0252 0E       		.uleb128 0xe
 5564 0253 3A       		.uleb128 0x3a
 5565 0254 0B       		.uleb128 0xb
 5566 0255 3B       		.uleb128 0x3b
 5567 0256 05       		.uleb128 0x5
 5568 0257 49       		.uleb128 0x49
 5569 0258 13       		.uleb128 0x13
 5570 0259 02       		.uleb128 0x2
 5571 025a 18       		.uleb128 0x18
 5572 025b 00       		.byte	0
 5573 025c 00       		.byte	0
 5574 025d 2C       		.uleb128 0x2c
 5575 025e 2E       		.uleb128 0x2e
 5576 025f 01       		.byte	0x1
 5577 0260 3F       		.uleb128 0x3f
 5578 0261 19       		.uleb128 0x19
 5579 0262 03       		.uleb128 0x3
 5580 0263 0E       		.uleb128 0xe
 5581 0264 3A       		.uleb128 0x3a
 5582 0265 0B       		.uleb128 0xb
 5583 0266 3B       		.uleb128 0x3b
 5584 0267 05       		.uleb128 0x5
 5585 0268 27       		.uleb128 0x27
 5586 0269 19       		.uleb128 0x19
 5587 026a 11       		.uleb128 0x11
 5588 026b 01       		.uleb128 0x1
 5589 026c 12       		.uleb128 0x12
 5590 026d 06       		.uleb128 0x6
 5591 026e 40       		.uleb128 0x40
 5592 026f 18       		.uleb128 0x18
 5593 0270 9742     		.uleb128 0x2117
 5594 0272 19       		.uleb128 0x19
 5595 0273 01       		.uleb128 0x1
 5596 0274 13       		.uleb128 0x13
 5597 0275 00       		.byte	0
ARM GAS  /tmp/ccyM3aPD.s 			page 100


 5598 0276 00       		.byte	0
 5599 0277 2D       		.uleb128 0x2d
 5600 0278 05       		.uleb128 0x5
 5601 0279 00       		.byte	0
 5602 027a 03       		.uleb128 0x3
 5603 027b 08       		.uleb128 0x8
 5604 027c 3A       		.uleb128 0x3a
 5605 027d 0B       		.uleb128 0xb
 5606 027e 3B       		.uleb128 0x3b
 5607 027f 05       		.uleb128 0x5
 5608 0280 49       		.uleb128 0x49
 5609 0281 13       		.uleb128 0x13
 5610 0282 02       		.uleb128 0x2
 5611 0283 18       		.uleb128 0x18
 5612 0284 00       		.byte	0
 5613 0285 00       		.byte	0
 5614 0286 2E       		.uleb128 0x2e
 5615 0287 2E       		.uleb128 0x2e
 5616 0288 01       		.byte	0x1
 5617 0289 3F       		.uleb128 0x3f
 5618 028a 19       		.uleb128 0x19
 5619 028b 03       		.uleb128 0x3
 5620 028c 0E       		.uleb128 0xe
 5621 028d 3A       		.uleb128 0x3a
 5622 028e 0B       		.uleb128 0xb
 5623 028f 3B       		.uleb128 0x3b
 5624 0290 05       		.uleb128 0x5
 5625 0291 27       		.uleb128 0x27
 5626 0292 19       		.uleb128 0x19
 5627 0293 49       		.uleb128 0x49
 5628 0294 13       		.uleb128 0x13
 5629 0295 11       		.uleb128 0x11
 5630 0296 01       		.uleb128 0x1
 5631 0297 12       		.uleb128 0x12
 5632 0298 06       		.uleb128 0x6
 5633 0299 40       		.uleb128 0x40
 5634 029a 18       		.uleb128 0x18
 5635 029b 9742     		.uleb128 0x2117
 5636 029d 19       		.uleb128 0x19
 5637 029e 01       		.uleb128 0x1
 5638 029f 13       		.uleb128 0x13
 5639 02a0 00       		.byte	0
 5640 02a1 00       		.byte	0
 5641 02a2 2F       		.uleb128 0x2f
 5642 02a3 34       		.uleb128 0x34
 5643 02a4 00       		.byte	0
 5644 02a5 03       		.uleb128 0x3
 5645 02a6 0E       		.uleb128 0xe
 5646 02a7 3A       		.uleb128 0x3a
 5647 02a8 0B       		.uleb128 0xb
 5648 02a9 3B       		.uleb128 0x3b
 5649 02aa 0B       		.uleb128 0xb
 5650 02ab 49       		.uleb128 0x49
 5651 02ac 13       		.uleb128 0x13
 5652 02ad 3F       		.uleb128 0x3f
 5653 02ae 19       		.uleb128 0x19
 5654 02af 3C       		.uleb128 0x3c
ARM GAS  /tmp/ccyM3aPD.s 			page 101


 5655 02b0 19       		.uleb128 0x19
 5656 02b1 00       		.byte	0
 5657 02b2 00       		.byte	0
 5658 02b3 30       		.uleb128 0x30
 5659 02b4 34       		.uleb128 0x34
 5660 02b5 00       		.byte	0
 5661 02b6 03       		.uleb128 0x3
 5662 02b7 0E       		.uleb128 0xe
 5663 02b8 3A       		.uleb128 0x3a
 5664 02b9 0B       		.uleb128 0xb
 5665 02ba 3B       		.uleb128 0x3b
 5666 02bb 05       		.uleb128 0x5
 5667 02bc 49       		.uleb128 0x49
 5668 02bd 13       		.uleb128 0x13
 5669 02be 3F       		.uleb128 0x3f
 5670 02bf 19       		.uleb128 0x19
 5671 02c0 3C       		.uleb128 0x3c
 5672 02c1 19       		.uleb128 0x19
 5673 02c2 00       		.byte	0
 5674 02c3 00       		.byte	0
 5675 02c4 31       		.uleb128 0x31
 5676 02c5 34       		.uleb128 0x34
 5677 02c6 00       		.byte	0
 5678 02c7 03       		.uleb128 0x3
 5679 02c8 0E       		.uleb128 0xe
 5680 02c9 3A       		.uleb128 0x3a
 5681 02ca 0B       		.uleb128 0xb
 5682 02cb 3B       		.uleb128 0x3b
 5683 02cc 0B       		.uleb128 0xb
 5684 02cd 49       		.uleb128 0x49
 5685 02ce 13       		.uleb128 0x13
 5686 02cf 3F       		.uleb128 0x3f
 5687 02d0 19       		.uleb128 0x19
 5688 02d1 02       		.uleb128 0x2
 5689 02d2 18       		.uleb128 0x18
 5690 02d3 00       		.byte	0
 5691 02d4 00       		.byte	0
 5692 02d5 00       		.byte	0
 5693              		.section	.debug_aranges,"",%progbits
 5694 0000 EC000000 		.4byte	0xec
 5695 0004 0200     		.2byte	0x2
 5696 0006 00000000 		.4byte	.Ldebug_info0
 5697 000a 04       		.byte	0x4
 5698 000b 00       		.byte	0
 5699 000c 0000     		.2byte	0
 5700 000e 0000     		.2byte	0
 5701 0010 00000000 		.4byte	.LFB2
 5702 0014 22000000 		.4byte	.LFE2-.LFB2
 5703 0018 00000000 		.4byte	.LFB118
 5704 001c 10000000 		.4byte	.LFE118-.LFB118
 5705 0020 00000000 		.4byte	.LFB119
 5706 0024 40000000 		.4byte	.LFE119-.LFB119
 5707 0028 00000000 		.4byte	.LFB120
 5708 002c 46000000 		.4byte	.LFE120-.LFB120
 5709 0030 00000000 		.4byte	.LFB121
 5710 0034 FA000000 		.4byte	.LFE121-.LFB121
 5711 0038 00000000 		.4byte	.LFB122
ARM GAS  /tmp/ccyM3aPD.s 			page 102


 5712 003c 4C000000 		.4byte	.LFE122-.LFB122
 5713 0040 00000000 		.4byte	.LFB123
 5714 0044 0C010000 		.4byte	.LFE123-.LFB123
 5715 0048 00000000 		.4byte	.LFB124
 5716 004c 10000000 		.4byte	.LFE124-.LFB124
 5717 0050 00000000 		.4byte	.LFB125
 5718 0054 A4030000 		.4byte	.LFE125-.LFB125
 5719 0058 00000000 		.4byte	.LFB126
 5720 005c 10000000 		.4byte	.LFE126-.LFB126
 5721 0060 00000000 		.4byte	.LFB127
 5722 0064 58000000 		.4byte	.LFE127-.LFB127
 5723 0068 00000000 		.4byte	.LFB128
 5724 006c 48000000 		.4byte	.LFE128-.LFB128
 5725 0070 00000000 		.4byte	.LFB129
 5726 0074 58000000 		.4byte	.LFE129-.LFB129
 5727 0078 00000000 		.4byte	.LFB130
 5728 007c 1C000000 		.4byte	.LFE130-.LFB130
 5729 0080 00000000 		.4byte	.LFB131
 5730 0084 54010000 		.4byte	.LFE131-.LFB131
 5731 0088 00000000 		.4byte	.LFB132
 5732 008c 44000000 		.4byte	.LFE132-.LFB132
 5733 0090 00000000 		.4byte	.LFB133
 5734 0094 38000000 		.4byte	.LFE133-.LFB133
 5735 0098 00000000 		.4byte	.LFB134
 5736 009c 38000000 		.4byte	.LFE134-.LFB134
 5737 00a0 00000000 		.4byte	.LFB135
 5738 00a4 64000000 		.4byte	.LFE135-.LFB135
 5739 00a8 00000000 		.4byte	.LFB136
 5740 00ac 62000000 		.4byte	.LFE136-.LFB136
 5741 00b0 00000000 		.4byte	.LFB137
 5742 00b4 B0000000 		.4byte	.LFE137-.LFB137
 5743 00b8 00000000 		.4byte	.LFB138
 5744 00bc 34000000 		.4byte	.LFE138-.LFB138
 5745 00c0 00000000 		.4byte	.LFB139
 5746 00c4 34000000 		.4byte	.LFE139-.LFB139
 5747 00c8 00000000 		.4byte	.LFB140
 5748 00cc 34000000 		.4byte	.LFE140-.LFB140
 5749 00d0 00000000 		.4byte	.LFB141
 5750 00d4 34000000 		.4byte	.LFE141-.LFB141
 5751 00d8 00000000 		.4byte	.LFB142
 5752 00dc 48000000 		.4byte	.LFE142-.LFB142
 5753 00e0 00000000 		.4byte	.LFB143
 5754 00e4 44000000 		.4byte	.LFE143-.LFB143
 5755 00e8 00000000 		.4byte	0
 5756 00ec 00000000 		.4byte	0
 5757              		.section	.debug_ranges,"",%progbits
 5758              	.Ldebug_ranges0:
 5759 0000 00000000 		.4byte	.LFB2
 5760 0004 22000000 		.4byte	.LFE2
 5761 0008 00000000 		.4byte	.LFB118
 5762 000c 10000000 		.4byte	.LFE118
 5763 0010 00000000 		.4byte	.LFB119
 5764 0014 40000000 		.4byte	.LFE119
 5765 0018 00000000 		.4byte	.LFB120
 5766 001c 46000000 		.4byte	.LFE120
 5767 0020 00000000 		.4byte	.LFB121
 5768 0024 FA000000 		.4byte	.LFE121
ARM GAS  /tmp/ccyM3aPD.s 			page 103


 5769 0028 00000000 		.4byte	.LFB122
 5770 002c 4C000000 		.4byte	.LFE122
 5771 0030 00000000 		.4byte	.LFB123
 5772 0034 0C010000 		.4byte	.LFE123
 5773 0038 00000000 		.4byte	.LFB124
 5774 003c 10000000 		.4byte	.LFE124
 5775 0040 00000000 		.4byte	.LFB125
 5776 0044 A4030000 		.4byte	.LFE125
 5777 0048 00000000 		.4byte	.LFB126
 5778 004c 10000000 		.4byte	.LFE126
 5779 0050 00000000 		.4byte	.LFB127
 5780 0054 58000000 		.4byte	.LFE127
 5781 0058 00000000 		.4byte	.LFB128
 5782 005c 48000000 		.4byte	.LFE128
 5783 0060 00000000 		.4byte	.LFB129
 5784 0064 58000000 		.4byte	.LFE129
 5785 0068 00000000 		.4byte	.LFB130
 5786 006c 1C000000 		.4byte	.LFE130
 5787 0070 00000000 		.4byte	.LFB131
 5788 0074 54010000 		.4byte	.LFE131
 5789 0078 00000000 		.4byte	.LFB132
 5790 007c 44000000 		.4byte	.LFE132
 5791 0080 00000000 		.4byte	.LFB133
 5792 0084 38000000 		.4byte	.LFE133
 5793 0088 00000000 		.4byte	.LFB134
 5794 008c 38000000 		.4byte	.LFE134
 5795 0090 00000000 		.4byte	.LFB135
 5796 0094 64000000 		.4byte	.LFE135
 5797 0098 00000000 		.4byte	.LFB136
 5798 009c 62000000 		.4byte	.LFE136
 5799 00a0 00000000 		.4byte	.LFB137
 5800 00a4 B0000000 		.4byte	.LFE137
 5801 00a8 00000000 		.4byte	.LFB138
 5802 00ac 34000000 		.4byte	.LFE138
 5803 00b0 00000000 		.4byte	.LFB139
 5804 00b4 34000000 		.4byte	.LFE139
 5805 00b8 00000000 		.4byte	.LFB140
 5806 00bc 34000000 		.4byte	.LFE140
 5807 00c0 00000000 		.4byte	.LFB141
 5808 00c4 34000000 		.4byte	.LFE141
 5809 00c8 00000000 		.4byte	.LFB142
 5810 00cc 48000000 		.4byte	.LFE142
 5811 00d0 00000000 		.4byte	.LFB143
 5812 00d4 44000000 		.4byte	.LFE143
 5813 00d8 00000000 		.4byte	0
 5814 00dc 00000000 		.4byte	0
 5815              		.section	.debug_line,"",%progbits
 5816              	.Ldebug_line0:
 5817 0000 17060000 		.section	.debug_str,"MS",%progbits,1
 5817      0200A402 
 5817      00000201 
 5817      FB0E0D00 
 5817      01010101 
 5818              	.LASF194:
 5819 0000 7573625F 		.ascii	"usb_packet_read_to_queue\000"
 5819      7061636B 
 5819      65745F72 
ARM GAS  /tmp/ccyM3aPD.s 			page 104


 5819      6561645F 
 5819      746F5F71 
 5820              	.LASF2:
 5821 0019 73697A65 		.ascii	"size_t\000"
 5821      5F7400
 5822              	.LASF15:
 5823 0020 73697A65 		.ascii	"sizetype\000"
 5823      74797065 
 5823      00
 5824              	.LASF31:
 5825 0029 73797374 		.ascii	"systime_t\000"
 5825      696D655F 
 5825      7400
 5826              	.LASF204:
 5827 0033 7573625F 		.ascii	"usb_lld_stop\000"
 5827      6C6C645F 
 5827      73746F70 
 5827      00
 5828              	.LASF37:
 5829 0040 705F6374 		.ascii	"p_ctx\000"
 5829      7800
 5830              	.LASF28:
 5831 0046 74707269 		.ascii	"tprio_t\000"
 5831      6F5F7400 
 5832              	.LASF48:
 5833 004e 705F6D73 		.ascii	"p_msgqueue\000"
 5833      67717565 
 5833      756500
 5834              	.LASF19:
 5835 0059 696E7433 		.ascii	"int32_t\000"
 5835      325F7400 
 5836              	.LASF215:
 5837 0061 7573625F 		.ascii	"usb_lld_prepare_transmit\000"
 5837      6C6C645F 
 5837      70726570 
 5837      6172655F 
 5837      7472616E 
 5838              	.LASF220:
 5839 007a 7573625F 		.ascii	"usb_lld_clear_out\000"
 5839      6C6C645F 
 5839      636C6561 
 5839      725F6F75 
 5839      7400
 5840              	.LASF212:
 5841 008c 7573625F 		.ascii	"usb_lld_get_status_in\000"
 5841      6C6C645F 
 5841      6765745F 
 5841      73746174 
 5841      75735F69 
 5842              	.LASF119:
 5843 00a2 5553425F 		.ascii	"USB_EP0_TX\000"
 5843      4550305F 
 5843      545800
 5844              	.LASF223:
 5845 00ad 65703073 		.ascii	"ep0setup_buffer\000"
 5845      65747570 
 5845      5F627566 
ARM GAS  /tmp/ccyM3aPD.s 			page 105


 5845      66657200 
 5846              	.LASF209:
 5847 00bd 6E626C6F 		.ascii	"nblocks\000"
 5847      636B7300 
 5848              	.LASF93:
 5849 00c5 636F6E66 		.ascii	"config\000"
 5849      696700
 5850              	.LASF92:
 5851 00cc 73746174 		.ascii	"state\000"
 5851      6500
 5852              	.LASF170:
 5853 00d2 65705F6D 		.ascii	"ep_mode\000"
 5853      6F646500 
 5854              	.LASF112:
 5855 00da 5553425F 		.ascii	"USB_ACTIVE\000"
 5855      41435449 
 5855      564500
 5856              	.LASF208:
 5857 00e5 7573625F 		.ascii	"usb_lld_init_endpoint\000"
 5857      6C6C645F 
 5857      696E6974 
 5857      5F656E64 
 5857      706F696E 
 5858              	.LASF206:
 5859 00fb 636E7472 		.ascii	"cntr\000"
 5859      00
 5860              	.LASF62:
 5861 0100 6D5F6F77 		.ascii	"m_owner\000"
 5861      6E657200 
 5862              	.LASF65:
 5863 0108 65786974 		.ascii	"exitcode\000"
 5863      636F6465 
 5863      00
 5864              	.LASF125:
 5865 0111 75736265 		.ascii	"usbep0state_t\000"
 5865      70307374 
 5865      6174655F 
 5865      7400
 5866              	.LASF3:
 5867 011f 5F5F7569 		.ascii	"__uint8_t\000"
 5867      6E74385F 
 5867      7400
 5868              	.LASF72:
 5869 0129 715F746F 		.ascii	"q_top\000"
 5869      7000
 5870              	.LASF67:
 5871 012f 65776D61 		.ascii	"ewmask\000"
 5871      736B00
 5872              	.LASF146:
 5873 0136 73746D33 		.ascii	"stm32_usb_t\000"
 5873      325F7573 
 5873      625F7400 
 5874              	.LASF117:
 5875 0142 75736265 		.ascii	"usbepstatus_t\000"
 5875      70737461 
 5875      7475735F 
 5875      7400
ARM GAS  /tmp/ccyM3aPD.s 			page 106


 5876              	.LASF71:
 5877 0150 715F6275 		.ascii	"q_buffer\000"
 5877      66666572 
 5877      00
 5878              	.LASF127:
 5879 0159 5553425F 		.ascii	"USB_EVENT_ADDRESS\000"
 5879      4556454E 
 5879      545F4144 
 5879      44524553 
 5879      5300
 5880              	.LASF197:
 5881 016b 69737472 		.ascii	"istr\000"
 5881      00
 5882              	.LASF75:
 5883 0170 715F6E6F 		.ascii	"q_notify\000"
 5883      74696679 
 5883      00
 5884              	.LASF38:
 5885 0179 705F6E65 		.ascii	"p_newer\000"
 5885      77657200 
 5886              	.LASF9:
 5887 0181 6C6F6E67 		.ascii	"long int\000"
 5887      20696E74 
 5887      00
 5888              	.LASF34:
 5889 018a 705F6E65 		.ascii	"p_next\000"
 5889      787400
 5890              	.LASF74:
 5891 0191 715F7264 		.ascii	"q_rdptr\000"
 5891      70747200 
 5892              	.LASF35:
 5893 0199 705F7072 		.ascii	"p_prev\000"
 5893      657600
 5894              	.LASF25:
 5895 01a0 74737461 		.ascii	"tstate_t\000"
 5895      74655F74 
 5895      00
 5896              	.LASF175:
 5897 01a9 6F75745F 		.ascii	"out_maxsize\000"
 5897      6D617873 
 5897      697A6500 
 5898              	.LASF51:
 5899 01b5 705F6D74 		.ascii	"p_mtxlist\000"
 5899      786C6973 
 5899      7400
 5900              	.LASF154:
 5901 01bf 74786275 		.ascii	"txbuf\000"
 5901      6600
 5902              	.LASF56:
 5903 01c5 72656761 		.ascii	"regarm_t\000"
 5903      726D5F74 
 5903      00
 5904              	.LASF118:
 5905 01ce 5553425F 		.ascii	"USB_EP0_WAITING_SETUP\000"
 5905      4550305F 
 5905      57414954 
 5905      494E475F 
ARM GAS  /tmp/ccyM3aPD.s 			page 107


 5905      53455455 
 5906              	.LASF84:
 5907 01e4 41504232 		.ascii	"APB2ENR\000"
 5907      454E5200 
 5908              	.LASF1:
 5909 01ec 7369676E 		.ascii	"signed char\000"
 5909      65642063 
 5909      68617200 
 5910              	.LASF45:
 5911 01f8 705F7072 		.ascii	"p_preempt\000"
 5911      65656D70 
 5911      7400
 5912              	.LASF17:
 5913 0202 75696E74 		.ascii	"uint8_t\000"
 5913      385F7400 
 5914              	.LASF131:
 5915 020a 5553425F 		.ascii	"USB_EVENT_STALLED\000"
 5915      4556454E 
 5915      545F5354 
 5915      414C4C45 
 5915      4400
 5916              	.LASF116:
 5917 021c 45505F53 		.ascii	"EP_STATUS_ACTIVE\000"
 5917      54415455 
 5917      535F4143 
 5917      54495645 
 5917      00
 5918              	.LASF30:
 5919 022d 6576656E 		.ascii	"eventmask_t\000"
 5919      746D6173 
 5919      6B5F7400 
 5920              	.LASF59:
 5921 0239 636F6E74 		.ascii	"context\000"
 5921      65787400 
 5922              	.LASF166:
 5923 0241 72787369 		.ascii	"rxsize\000"
 5923      7A6500
 5924              	.LASF222:
 5925 0248 6570305F 		.ascii	"ep0_state\000"
 5925      73746174 
 5925      6500
 5926              	.LASF4:
 5927 0252 756E7369 		.ascii	"unsigned char\000"
 5927      676E6564 
 5927      20636861 
 5927      7200
 5928              	.LASF124:
 5929 0260 5553425F 		.ascii	"USB_EP0_ERROR\000"
 5929      4550305F 
 5929      4552524F 
 5929      5200
 5930              	.LASF76:
 5931 026e 715F6C69 		.ascii	"q_link\000"
 5931      6E6B00
 5932              	.LASF153:
 5933 0275 73746D33 		.ascii	"stm32_usb_descriptor_t\000"
 5933      325F7573 
ARM GAS  /tmp/ccyM3aPD.s 			page 108


 5933      625F6465 
 5933      73637269 
 5933      70746F72 
 5934              	.LASF224:
 5935 028c 65703063 		.ascii	"ep0config\000"
 5935      6F6E6669 
 5935      6700
 5936              	.LASF98:
 5937 0296 65703073 		.ascii	"ep0state\000"
 5937      74617465 
 5937      00
 5938              	.LASF183:
 5939 029f 72657175 		.ascii	"requests_hook_cb\000"
 5939      65737473 
 5939      5F686F6F 
 5939      6B5F6362 
 5939      00
 5940              	.LASF23:
 5941 02b0 5F426F6F 		.ascii	"_Bool\000"
 5941      6C00
 5942              	.LASF225:
 5943 02b6 6462675F 		.ascii	"dbg_lock_cnt\000"
 5943      6C6F636B 
 5943      5F636E74 
 5943      00
 5944              	.LASF213:
 5945 02c3 7573625F 		.ascii	"usb_lld_read_setup\000"
 5945      6C6C645F 
 5945      72656164 
 5945      5F736574 
 5945      757000
 5946              	.LASF16:
 5947 02d6 63686172 		.ascii	"char\000"
 5947      00
 5948              	.LASF100:
 5949 02db 6570306E 		.ascii	"ep0n\000"
 5949      00
 5950              	.LASF36:
 5951 02e0 705F7072 		.ascii	"p_prio\000"
 5951      696F00
 5952              	.LASF95:
 5953 02e7 72656365 		.ascii	"receiving\000"
 5953      6976696E 
 5953      6700
 5954              	.LASF6:
 5955 02f1 5F5F7569 		.ascii	"__uint16_t\000"
 5955      6E743136 
 5955      5F7400
 5956              	.LASF68:
 5957 02fc 47656E65 		.ascii	"GenericQueue\000"
 5957      72696351 
 5957      75657565 
 5957      00
 5958              	.LASF66:
 5959 0309 77746F62 		.ascii	"wtobjp\000"
 5959      6A7000
 5960              	.LASF172:
ARM GAS  /tmp/ccyM3aPD.s 			page 109


 5961 0310 696E5F63 		.ascii	"in_cb\000"
 5961      6200
 5962              	.LASF57:
 5963 0316 73746B61 		.ascii	"stkalign_t\000"
 5963      6C69676E 
 5963      5F7400
 5964              	.LASF79:
 5965 0321 4F757470 		.ascii	"OutputQueue\000"
 5965      75745175 
 5965      65756500 
 5966              	.LASF151:
 5967 032d 5258434F 		.ascii	"RXCOUNT0\000"
 5967      554E5430 
 5967      00
 5968              	.LASF152:
 5969 0336 5258434F 		.ascii	"RXCOUNT1\000"
 5969      554E5431 
 5969      00
 5970              	.LASF138:
 5971 033f 75736265 		.ascii	"usbeventcb_t\000"
 5971      76656E74 
 5971      63625F74 
 5971      00
 5972              	.LASF94:
 5973 034c 7472616E 		.ascii	"transmitting\000"
 5973      736D6974 
 5973      74696E67 
 5973      00
 5974              	.LASF162:
 5975 0359 55534249 		.ascii	"USBInEndpointState\000"
 5975      6E456E64 
 5975      706F696E 
 5975      74537461 
 5975      746500
 5976              	.LASF86:
 5977 036c 42444352 		.ascii	"BDCR\000"
 5977      00
 5978              	.LASF108:
 5979 0371 5553425F 		.ascii	"USB_UNINIT\000"
 5979      554E494E 
 5979      495400
 5980              	.LASF32:
 5981 037c 636E745F 		.ascii	"cnt_t\000"
 5981      7400
 5982              	.LASF135:
 5983 0382 55534244 		.ascii	"USBDescriptor\000"
 5983      65736372 
 5983      6970746F 
 5983      7200
 5984              	.LASF102:
 5985 0390 73657475 		.ascii	"setup\000"
 5985      7000
 5986              	.LASF58:
 5987 0396 696E7463 		.ascii	"intctx\000"
 5987      747800
 5988              	.LASF50:
 5989 039d 705F6570 		.ascii	"p_epending\000"
ARM GAS  /tmp/ccyM3aPD.s 			page 110


 5989      656E6469 
 5989      6E6700
 5990              	.LASF199:
 5991 03a8 7472616E 		.ascii	"transmitted\000"
 5991      736D6974 
 5991      74656400 
 5992              	.LASF132:
 5993 03b4 75736265 		.ascii	"usbevent_t\000"
 5993      76656E74 
 5993      5F7400
 5994              	.LASF133:
 5995 03bf 75645F73 		.ascii	"ud_size\000"
 5995      697A6500 
 5996              	.LASF80:
 5997 03c7 43464752 		.ascii	"CFGR\000"
 5997      00
 5998              	.LASF111:
 5999 03cc 5553425F 		.ascii	"USB_SELECTED\000"
 5999      53454C45 
 5999      43544544 
 5999      00
 6000              	.LASF105:
 6001 03d9 636F6E66 		.ascii	"configuration\000"
 6001      69677572 
 6001      6174696F 
 6001      6E00
 6002              	.LASF192:
 6003 03e7 7573625F 		.ascii	"usb_packet_read_to_buffer\000"
 6003      7061636B 
 6003      65745F72 
 6003      6561645F 
 6003      746F5F62 
 6004              	.LASF115:
 6005 0401 45505F53 		.ascii	"EP_STATUS_STALLED\000"
 6005      54415455 
 6005      535F5354 
 6005      414C4C45 
 6005      4400
 6006              	.LASF160:
 6007 0413 7478636E 		.ascii	"txcnt\000"
 6007      7400
 6008              	.LASF70:
 6009 0419 715F636F 		.ascii	"q_counter\000"
 6009      756E7465 
 6009      7200
 6010              	.LASF13:
 6011 0423 5F5F7569 		.ascii	"__uint64_t\000"
 6011      6E743634 
 6011      5F7400
 6012              	.LASF150:
 6013 042e 52584144 		.ascii	"RXADDR0\000"
 6013      44523000 
 6014              	.LASF11:
 6015 0436 6C6F6E67 		.ascii	"long unsigned int\000"
 6015      20756E73 
 6015      69676E65 
 6015      6420696E 
ARM GAS  /tmp/ccyM3aPD.s 			page 111


 6015      7400
 6016              	.LASF142:
 6017 0448 434E5452 		.ascii	"CNTR\000"
 6017      00
 6018              	.LASF103:
 6019 044d 73746174 		.ascii	"status\000"
 6019      757300
 6020              	.LASF104:
 6021 0454 61646472 		.ascii	"address\000"
 6021      65737300 
 6022              	.LASF101:
 6023 045c 65703065 		.ascii	"ep0endcb\000"
 6023      6E646362 
 6023      00
 6024              	.LASF186:
 6025 0465 75736270 		.ascii	"usbp\000"
 6025      00
 6026              	.LASF73:
 6027 046a 715F7772 		.ascii	"q_wrptr\000"
 6027      70747200 
 6028              	.LASF159:
 6029 0472 74787369 		.ascii	"txsize\000"
 6029      7A6500
 6030              	.LASF143:
 6031 0479 49535452 		.ascii	"ISTR\000"
 6031      00
 6032              	.LASF167:
 6033 047e 7278636E 		.ascii	"rxcnt\000"
 6033      7400
 6034              	.LASF113:
 6035 0484 75736273 		.ascii	"usbstate_t\000"
 6035      74617465 
 6035      5F7400
 6036              	.LASF87:
 6037 048f 41484252 		.ascii	"AHBRSTR\000"
 6037      53545200 
 6038              	.LASF134:
 6039 0497 75645F73 		.ascii	"ud_string\000"
 6039      7472696E 
 6039      6700
 6040              	.LASF218:
 6041 04a1 7573625F 		.ascii	"usb_lld_stall_out\000"
 6041      6C6C645F 
 6041      7374616C 
 6041      6C5F6F75 
 6041      7400
 6042              	.LASF163:
 6043 04b3 72786275 		.ascii	"rxbuf\000"
 6043      6600
 6044              	.LASF176:
 6045 04b9 696E5F73 		.ascii	"in_state\000"
 6045      74617465 
 6045      00
 6046              	.LASF130:
 6047 04c2 5553425F 		.ascii	"USB_EVENT_WAKEUP\000"
 6047      4556454E 
 6047      545F5741 
ARM GAS  /tmp/ccyM3aPD.s 			page 112


 6047      4B455550 
 6047      00
 6048              	.LASF10:
 6049 04d3 5F5F7569 		.ascii	"__uint32_t\000"
 6049      6E743332 
 6049      5F7400
 6050              	.LASF181:
 6051 04de 6576656E 		.ascii	"event_cb\000"
 6051      745F6362 
 6051      00
 6052              	.LASF60:
 6053 04e7 4D757465 		.ascii	"Mutex\000"
 6053      7800
 6054              	.LASF12:
 6055 04ed 6C6F6E67 		.ascii	"long long int\000"
 6055      206C6F6E 
 6055      6720696E 
 6055      7400
 6056              	.LASF110:
 6057 04fb 5553425F 		.ascii	"USB_READY\000"
 6057      52454144 
 6057      5900
 6058              	.LASF61:
 6059 0505 6D5F7175 		.ascii	"m_queue\000"
 6059      65756500 
 6060              	.LASF147:
 6061 050d 54584144 		.ascii	"TXADDR0\000"
 6061      44523000 
 6062              	.LASF99:
 6063 0515 6570306E 		.ascii	"ep0next\000"
 6063      65787400 
 6064              	.LASF81:
 6065 051d 41504232 		.ascii	"APB2RSTR\000"
 6065      52535452 
 6065      00
 6066              	.LASF137:
 6067 0526 75736265 		.ascii	"usbepcallback_t\000"
 6067      7063616C 
 6067      6C626163 
 6067      6B5F7400 
 6068              	.LASF171:
 6069 0536 73657475 		.ascii	"setup_cb\000"
 6069      705F6362 
 6069      00
 6070              	.LASF226:
 6071 053f 49544D5F 		.ascii	"ITM_RxBuffer\000"
 6071      52784275 
 6071      66666572 
 6071      00
 6072              	.LASF77:
 6073 054c 716E6F74 		.ascii	"qnotify_t\000"
 6073      6966795F 
 6073      7400
 6074              	.LASF47:
 6075 0556 705F7761 		.ascii	"p_waiting\000"
 6075      6974696E 
 6075      6700
ARM GAS  /tmp/ccyM3aPD.s 			page 113


 6076              	.LASF43:
 6077 0560 705F666C 		.ascii	"p_flags\000"
 6077      61677300 
 6078              	.LASF196:
 6079 0568 7573625F 		.ascii	"usb_packet_write_from_queue\000"
 6079      7061636B 
 6079      65745F77 
 6079      72697465 
 6079      5F66726F 
 6080              	.LASF0:
 6081 0584 756E7369 		.ascii	"unsigned int\000"
 6081      676E6564 
 6081      20696E74 
 6081      00
 6082              	.LASF201:
 6083 0591 7573625F 		.ascii	"usb_lld_init\000"
 6083      6C6C645F 
 6083      696E6974 
 6083      00
 6084              	.LASF185:
 6085 059e 55534243 		.ascii	"USBConfig\000"
 6085      6F6E6669 
 6085      6700
 6086              	.LASF53:
 6087 05a8 705F6D70 		.ascii	"p_mpool\000"
 6087      6F6F6C00 
 6088              	.LASF88:
 6089 05b0 43464752 		.ascii	"CFGR2\000"
 6089      3200
 6090              	.LASF89:
 6091 05b6 43464752 		.ascii	"CFGR3\000"
 6091      3300
 6092              	.LASF219:
 6093 05bc 7573625F 		.ascii	"usb_lld_stall_in\000"
 6093      6C6C645F 
 6093      7374616C 
 6093      6C5F696E 
 6093      00
 6094              	.LASF44:
 6095 05cd 705F7265 		.ascii	"p_refs\000"
 6095      667300
 6096              	.LASF216:
 6097 05d4 7573625F 		.ascii	"usb_lld_start_out\000"
 6097      6C6C645F 
 6097      73746172 
 6097      745F6F75 
 6097      7400
 6098              	.LASF179:
 6099 05e6 73657475 		.ascii	"setup_buf\000"
 6099      705F6275 
 6099      6600
 6100              	.LASF148:
 6101 05f0 5458434F 		.ascii	"TXCOUNT0\000"
 6101      554E5430 
 6101      00
 6102              	.LASF149:
 6103 05f9 5458434F 		.ascii	"TXCOUNT1\000"
ARM GAS  /tmp/ccyM3aPD.s 			page 114


 6103      554E5431 
 6103      00
 6104              	.LASF55:
 6105 0602 54687265 		.ascii	"ThreadsList\000"
 6105      6164734C 
 6105      69737400 
 6106              	.LASF173:
 6107 060e 6F75745F 		.ascii	"out_cb\000"
 6107      636200
 6108              	.LASF91:
 6109 0615 55534244 		.ascii	"USBDriver\000"
 6109      72697665 
 6109      7200
 6110              	.LASF109:
 6111 061f 5553425F 		.ascii	"USB_STOP\000"
 6111      53544F50 
 6111      00
 6112              	.LASF174:
 6113 0628 696E5F6D 		.ascii	"in_maxsize\000"
 6113      61787369 
 6113      7A6500
 6114              	.LASF46:
 6115 0633 705F7469 		.ascii	"p_time\000"
 6115      6D6500
 6116              	.LASF177:
 6117 063a 6F75745F 		.ascii	"out_state\000"
 6117      73746174 
 6117      6500
 6118              	.LASF205:
 6119 0644 7573625F 		.ascii	"usb_lld_reset\000"
 6119      6C6C645F 
 6119      72657365 
 6119      7400
 6120              	.LASF207:
 6121 0652 7573625F 		.ascii	"usb_lld_set_address\000"
 6121      6C6C645F 
 6121      7365745F 
 6121      61646472 
 6121      65737300 
 6122              	.LASF178:
 6123 0666 65705F62 		.ascii	"ep_buffers\000"
 6123      75666665 
 6123      727300
 6124              	.LASF52:
 6125 0671 705F7265 		.ascii	"p_realprio\000"
 6125      616C7072 
 6125      696F00
 6126              	.LASF120:
 6127 067c 5553425F 		.ascii	"USB_EP0_WAITING_TX0\000"
 6127      4550305F 
 6127      57414954 
 6127      494E475F 
 6127      54583000 
 6128              	.LASF191:
 6129 0690 7573625F 		.ascii	"usb_pm_reset\000"
 6129      706D5F72 
 6129      65736574 
ARM GAS  /tmp/ccyM3aPD.s 			page 115


 6129      00
 6130              	.LASF82:
 6131 069d 41504231 		.ascii	"APB1RSTR\000"
 6131      52535452 
 6131      00
 6132              	.LASF193:
 6133 06a6 706D6170 		.ascii	"pmap\000"
 6133      00
 6134              	.LASF85:
 6135 06ab 41504231 		.ascii	"APB1ENR\000"
 6135      454E5200 
 6136              	.LASF169:
 6137 06b3 5553424F 		.ascii	"USBOutEndpointState\000"
 6137      7574456E 
 6137      64706F69 
 6137      6E745374 
 6137      61746500 
 6138              	.LASF141:
 6139 06c7 5F723230 		.ascii	"_r20\000"
 6139      00
 6140              	.LASF217:
 6141 06cc 7573625F 		.ascii	"usb_lld_start_in\000"
 6141      6C6C645F 
 6141      73746172 
 6141      745F696E 
 6141      00
 6142              	.LASF189:
 6143 06dd 73697A65 		.ascii	"size\000"
 6143      00
 6144              	.LASF14:
 6145 06e2 6C6F6E67 		.ascii	"long long unsigned int\000"
 6145      206C6F6E 
 6145      6720756E 
 6145      7369676E 
 6145      65642069 
 6146              	.LASF210:
 6147 06f9 7573625F 		.ascii	"usb_lld_disable_endpoints\000"
 6147      6C6C645F 
 6147      64697361 
 6147      626C655F 
 6147      656E6470 
 6148              	.LASF39:
 6149 0713 705F6F6C 		.ascii	"p_older\000"
 6149      64657200 
 6150              	.LASF18:
 6151 071b 75696E74 		.ascii	"uint16_t\000"
 6151      31365F74 
 6151      00
 6152              	.LASF156:
 6153 0724 6C696E65 		.ascii	"linear\000"
 6153      617200
 6154              	.LASF29:
 6155 072b 6D73675F 		.ascii	"msg_t\000"
 6155      7400
 6156              	.LASF180:
 6157 0731 55534245 		.ascii	"USBEndpointConfig\000"
 6157      6E64706F 
ARM GAS  /tmp/ccyM3aPD.s 			page 116


 6157      696E7443 
 6157      6F6E6669 
 6157      6700
 6158              	.LASF165:
 6159 0743 72787175 		.ascii	"rxqueued\000"
 6159      65756564 
 6159      00
 6160              	.LASF27:
 6161 074c 74736C69 		.ascii	"tslices_t\000"
 6161      6365735F 
 6161      7400
 6162              	.LASF214:
 6163 0756 7573625F 		.ascii	"usb_lld_prepare_receive\000"
 6163      6C6C645F 
 6163      70726570 
 6163      6172655F 
 6163      72656365 
 6164              	.LASF157:
 6165 076e 71756575 		.ascii	"queue\000"
 6165      6500
 6166              	.LASF164:
 6167 0774 72787175 		.ascii	"rxqueue\000"
 6167      65756500 
 6168              	.LASF145:
 6169 077c 42544142 		.ascii	"BTABLE\000"
 6169      4C4500
 6170              	.LASF188:
 6171 0783 7573625F 		.ascii	"usb_pm_alloc\000"
 6171      706D5F61 
 6171      6C6C6F63 
 6171      00
 6172              	.LASF128:
 6173 0790 5553425F 		.ascii	"USB_EVENT_CONFIGURED\000"
 6173      4556454E 
 6173      545F434F 
 6173      4E464947 
 6173      55524544 
 6174              	.LASF69:
 6175 07a5 715F7761 		.ascii	"q_waiting\000"
 6175      6974696E 
 6175      6700
 6176              	.LASF24:
 6177 07af 746D6F64 		.ascii	"tmode_t\000"
 6177      655F7400 
 6178              	.LASF140:
 6179 07b7 75736267 		.ascii	"usbgetdescriptor_t\000"
 6179      65746465 
 6179      73637269 
 6179      70746F72 
 6179      5F7400
 6180              	.LASF228:
 6181 07ca 474E5520 		.ascii	"GNU C 4.8.4 20141219 (release) -mcpu=cortex-m4 -mfl"
 6181      4320342E 
 6181      382E3420 
 6181      32303134 
 6181      31323139 
 6182 07fd 6F61742D 		.ascii	"oat-abi=hard -mfpu=fpv4-sp-d16 -mno-thumb-interwork"
ARM GAS  /tmp/ccyM3aPD.s 			page 117


 6182      6162693D 
 6182      68617264 
 6182      202D6D66 
 6182      70753D66 
 6183 0830 202D6D74 		.ascii	" -mthumb -ggdb -O0 -fomit-frame-pointer -falign-fun"
 6183      68756D62 
 6183      202D6767 
 6183      6462202D 
 6183      4F30202D 
 6184 0863 6374696F 		.ascii	"ctions=16 -ffunction-sections -fdata-sections -fno-"
 6184      6E733D31 
 6184      36202D66 
 6184      66756E63 
 6184      74696F6E 
 6185 0896 636F6D6D 		.ascii	"common -fsingle-precision-constant\000"
 6185      6F6E202D 
 6185      6673696E 
 6185      676C652D 
 6185      70726563 
 6186              	.LASF96:
 6187 08b9 696E5F70 		.ascii	"in_params\000"
 6187      6172616D 
 6187      7300
 6188              	.LASF90:
 6189 08c3 5243435F 		.ascii	"RCC_TypeDef\000"
 6189      54797065 
 6189      44656600 
 6190              	.LASF5:
 6191 08cf 73686F72 		.ascii	"short int\000"
 6191      7420696E 
 6191      7400
 6192              	.LASF21:
 6193 08d9 75696E74 		.ascii	"uint64_t\000"
 6193      36345F74 
 6193      00
 6194              	.LASF161:
 6195 08e2 6D6F6465 		.ascii	"mode\000"
 6195      00
 6196              	.LASF126:
 6197 08e7 5553425F 		.ascii	"USB_EVENT_RESET\000"
 6197      4556454E 
 6197      545F5245 
 6197      53455400 
 6198              	.LASF155:
 6199 08f7 74787175 		.ascii	"txqueue\000"
 6199      65756500 
 6200              	.LASF144:
 6201 08ff 44414444 		.ascii	"DADDR\000"
 6201      5200
 6202              	.LASF200:
 6203 0905 56656374 		.ascii	"Vector168\000"
 6203      6F723136 
 6203      3800
 6204              	.LASF211:
 6205 090f 7573625F 		.ascii	"usb_lld_get_status_out\000"
 6205      6C6C645F 
 6205      6765745F 
ARM GAS  /tmp/ccyM3aPD.s 			page 118


 6205      73746174 
 6205      75735F6F 
 6206              	.LASF83:
 6207 0926 41484245 		.ascii	"AHBENR\000"
 6207      4E5200
 6208              	.LASF203:
 6209 092d 7573625F 		.ascii	"usb_lld_start\000"
 6209      6C6C645F 
 6209      73746172 
 6209      7400
 6210              	.LASF22:
 6211 093b 626F6F6C 		.ascii	"bool_t\000"
 6211      5F7400
 6212              	.LASF202:
 6213 0942 56656374 		.ascii	"Vector16C\000"
 6213      6F723136 
 6213      4300
 6214              	.LASF139:
 6215 094c 75736272 		.ascii	"usbreqhandler_t\000"
 6215      65716861 
 6215      6E646C65 
 6215      725F7400 
 6216              	.LASF136:
 6217 095c 75736263 		.ascii	"usbcallback_t\000"
 6217      616C6C62 
 6217      61636B5F 
 6217      7400
 6218              	.LASF33:
 6219 096a 54687265 		.ascii	"Thread\000"
 6219      616400
 6220              	.LASF221:
 6221 0971 7573625F 		.ascii	"usb_lld_clear_in\000"
 6221      6C6C645F 
 6221      636C6561 
 6221      725F696E 
 6221      00
 6222              	.LASF227:
 6223 0982 55534244 		.ascii	"USBD1\000"
 6223      3100
 6224              	.LASF26:
 6225 0988 74726566 		.ascii	"trefs_t\000"
 6225      735F7400 
 6226              	.LASF184:
 6227 0990 736F665F 		.ascii	"sof_cb\000"
 6227      636200
 6228              	.LASF20:
 6229 0997 75696E74 		.ascii	"uint32_t\000"
 6229      33325F74 
 6229      00
 6230              	.LASF107:
 6231 09a0 75736265 		.ascii	"usbep_t\000"
 6231      705F7400 
 6232              	.LASF54:
 6233 09a8 54687265 		.ascii	"ThreadsQueue\000"
 6233      61647351 
 6233      75657565 
 6233      00
ARM GAS  /tmp/ccyM3aPD.s 			page 119


 6234              	.LASF168:
 6235 09b5 7278706B 		.ascii	"rxpkts\000"
 6235      747300
 6236              	.LASF129:
 6237 09bc 5553425F 		.ascii	"USB_EVENT_SUSPEND\000"
 6237      4556454E 
 6237      545F5355 
 6237      5350454E 
 6237      4400
 6238              	.LASF64:
 6239 09ce 7264796D 		.ascii	"rdymsg\000"
 6239      736700
 6240              	.LASF7:
 6241 09d5 73686F72 		.ascii	"short unsigned int\000"
 6241      7420756E 
 6241      7369676E 
 6241      65642069 
 6241      6E7400
 6242              	.LASF182:
 6243 09e8 6765745F 		.ascii	"get_descriptor_cb\000"
 6243      64657363 
 6243      72697074 
 6243      6F725F63 
 6243      6200
 6244              	.LASF229:
 6245 09fa 2F686F6D 		.ascii	"/home/dave/r2p-sdk/core/ChibiOS/os/hal/platforms/ST"
 6245      652F6461 
 6245      76652F72 
 6245      32702D73 
 6245      646B2F63 
 6246 0a2d 4D33322F 		.ascii	"M32/USBv1/usb_lld.c\000"
 6246      55534276 
 6246      312F7573 
 6246      625F6C6C 
 6246      642E6300 
 6247              	.LASF78:
 6248 0a41 496E7075 		.ascii	"InputQueue\000"
 6248      74517565 
 6248      756500
 6249              	.LASF97:
 6250 0a4c 6F75745F 		.ascii	"out_params\000"
 6250      70617261 
 6250      6D7300
 6251              	.LASF41:
 6252 0a57 705F7374 		.ascii	"p_stklimit\000"
 6252      6B6C696D 
 6252      697400
 6253              	.LASF114:
 6254 0a62 45505F53 		.ascii	"EP_STATUS_DISABLED\000"
 6254      54415455 
 6254      535F4449 
 6254      5341424C 
 6254      454400
 6255              	.LASF8:
 6256 0a75 5F5F696E 		.ascii	"__int32_t\000"
 6256      7433325F 
 6256      7400
ARM GAS  /tmp/ccyM3aPD.s 			page 120


 6257              	.LASF198:
 6258 0a7f 65706370 		.ascii	"epcp\000"
 6258      00
 6259              	.LASF123:
 6260 0a84 5553425F 		.ascii	"USB_EP0_SENDING_STS\000"
 6260      4550305F 
 6260      53454E44 
 6260      494E475F 
 6260      53545300 
 6261              	.LASF195:
 6262 0a98 7573625F 		.ascii	"usb_packet_write_from_buffer\000"
 6262      7061636B 
 6262      65745F77 
 6262      72697465 
 6262      5F66726F 
 6263              	.LASF121:
 6264 0ab5 5553425F 		.ascii	"USB_EP0_WAITING_STS\000"
 6264      4550305F 
 6264      57414954 
 6264      494E475F 
 6264      53545300 
 6265              	.LASF40:
 6266 0ac9 705F6E61 		.ascii	"p_name\000"
 6266      6D6500
 6267              	.LASF190:
 6268 0ad0 6E657874 		.ascii	"next\000"
 6268      00
 6269              	.LASF63:
 6270 0ad5 6D5F6E65 		.ascii	"m_next\000"
 6270      787400
 6271              	.LASF187:
 6272 0adc 6669666F 		.ascii	"fifo_remove\000"
 6272      5F72656D 
 6272      6F766500 
 6273              	.LASF106:
 6274 0ae8 706D6E65 		.ascii	"pmnext\000"
 6274      787400
 6275              	.LASF158:
 6276 0aef 74787175 		.ascii	"txqueued\000"
 6276      65756564 
 6276      00
 6277              	.LASF122:
 6278 0af8 5553425F 		.ascii	"USB_EP0_RX\000"
 6278      4550305F 
 6278      525800
 6279              	.LASF49:
 6280 0b03 705F6D73 		.ascii	"p_msg\000"
 6280      6700
 6281              	.LASF42:
 6282 0b09 705F7374 		.ascii	"p_state\000"
 6282      61746500 
 6283              		.ident	"GCC: (4.8.4-1+11-1) 4.8.4 20141219 (release)"
ARM GAS  /tmp/ccyM3aPD.s 			page 121


DEFINED SYMBOLS
                            *ABS*:0000000000000000 usb_lld.c
     /tmp/ccyM3aPD.s:21     .text.fifo_remove:0000000000000000 $t
     /tmp/ccyM3aPD.s:26     .text.fifo_remove:0000000000000000 fifo_remove
     /tmp/ccyM3aPD.s:65     .bss.USBD1:0000000000000000 USBD1
     /tmp/ccyM3aPD.s:62     .bss.USBD1:0000000000000000 $d
     /tmp/ccyM3aPD.s:68     .bss.ep0_state:0000000000000000 $d
     /tmp/ccyM3aPD.s:71     .bss.ep0_state:0000000000000000 ep0_state
     /tmp/ccyM3aPD.s:74     .bss.ep0setup_buffer:0000000000000000 $d
     /tmp/ccyM3aPD.s:77     .bss.ep0setup_buffer:0000000000000000 ep0setup_buffer
     /tmp/ccyM3aPD.s:80     .rodata.ep0config:0000000000000000 $d
     /tmp/ccyM3aPD.s:83     .rodata.ep0config:0000000000000000 ep0config
     /tmp/ccyM3aPD.s:96     .text.usb_pm_reset:0000000000000000 $t
     /tmp/ccyM3aPD.s:101    .text.usb_pm_reset:0000000000000000 usb_pm_reset
     /tmp/ccyM3aPD.s:124    .rodata:0000000000000000 $d
     /tmp/ccyM3aPD.s:128    .text.usb_pm_alloc:0000000000000000 $t
     /tmp/ccyM3aPD.s:133    .text.usb_pm_alloc:0000000000000000 usb_pm_alloc
     /tmp/ccyM3aPD.s:176    .text.usb_pm_alloc:000000000000003c $d
     /tmp/ccyM3aPD.s:181    .text.usb_packet_read_to_buffer:0000000000000000 $t
     /tmp/ccyM3aPD.s:186    .text.usb_packet_read_to_buffer:0000000000000000 usb_packet_read_to_buffer
     /tmp/ccyM3aPD.s:242    .text.usb_packet_read_to_queue:0000000000000000 $t
     /tmp/ccyM3aPD.s:247    .text.usb_packet_read_to_queue:0000000000000000 usb_packet_read_to_queue
     /tmp/ccyM3aPD.s:418    .text.usb_packet_write_from_buffer:0000000000000000 $t
     /tmp/ccyM3aPD.s:423    .text.usb_packet_write_from_buffer:0000000000000000 usb_packet_write_from_buffer
     /tmp/ccyM3aPD.s:483    .text.usb_packet_write_from_queue:0000000000000000 $t
     /tmp/ccyM3aPD.s:488    .text.usb_packet_write_from_queue:0000000000000000 usb_packet_write_from_queue
     /tmp/ccyM3aPD.s:669    .text.usb_packet_write_from_queue:0000000000000108 $d
     /tmp/ccyM3aPD.s:674    .text.Vector168:0000000000000000 $t
     /tmp/ccyM3aPD.s:680    .text.Vector168:0000000000000000 Vector168
     /tmp/ccyM3aPD.s:701    .text.Vector16C:0000000000000000 $t
     /tmp/ccyM3aPD.s:707    .text.Vector16C:0000000000000000 Vector16C
     /tmp/ccyM3aPD.s:2155   .text.usb_lld_start_in:0000000000000000 usb_lld_start_in
     /tmp/ccyM3aPD.s:1077   .text.Vector16C:0000000000000280 $d
     /tmp/ccyM3aPD.s:1082   .text.Vector16C:0000000000000288 $t
     /tmp/ccyM3aPD.s:1236   .text.Vector16C:00000000000003a0 $d
     /tmp/ccyM3aPD.s:1241   .text.usb_lld_init:0000000000000000 $t
     /tmp/ccyM3aPD.s:1247   .text.usb_lld_init:0000000000000000 usb_lld_init
     /tmp/ccyM3aPD.s:1265   .text.usb_lld_init:000000000000000c $d
     /tmp/ccyM3aPD.s:1270   .text.usb_lld_start:0000000000000000 $t
     /tmp/ccyM3aPD.s:1276   .text.usb_lld_start:0000000000000000 usb_lld_start
     /tmp/ccyM3aPD.s:1332   .text.usb_lld_start:000000000000004c $d
     /tmp/ccyM3aPD.s:1339   .text.usb_lld_stop:0000000000000000 $t
     /tmp/ccyM3aPD.s:1345   .text.usb_lld_stop:0000000000000000 usb_lld_stop
     /tmp/ccyM3aPD.s:1391   .text.usb_lld_stop:000000000000003c $d
     /tmp/ccyM3aPD.s:1398   .text.usb_lld_reset:0000000000000000 $t
     /tmp/ccyM3aPD.s:1404   .text.usb_lld_reset:0000000000000000 usb_lld_reset
     /tmp/ccyM3aPD.s:1511   .text.usb_lld_init_endpoint:0000000000000000 usb_lld_init_endpoint
     /tmp/ccyM3aPD.s:1464   .text.usb_lld_reset:0000000000000050 $d
     /tmp/ccyM3aPD.s:1470   .text.usb_lld_set_address:0000000000000000 $t
     /tmp/ccyM3aPD.s:1476   .text.usb_lld_set_address:0000000000000000 usb_lld_set_address
     /tmp/ccyM3aPD.s:1500   .text.usb_lld_set_address:0000000000000018 $d
     /tmp/ccyM3aPD.s:1505   .text.usb_lld_init_endpoint:0000000000000000 $t
     /tmp/ccyM3aPD.s:1686   .text.usb_lld_init_endpoint:0000000000000150 $d
     /tmp/ccyM3aPD.s:1691   .text.usb_lld_disable_endpoints:0000000000000000 $t
     /tmp/ccyM3aPD.s:1697   .text.usb_lld_disable_endpoints:0000000000000000 usb_lld_disable_endpoints
     /tmp/ccyM3aPD.s:1745   .text.usb_lld_disable_endpoints:0000000000000040 $d
     /tmp/ccyM3aPD.s:1750   .text.usb_lld_get_status_out:0000000000000000 $t
ARM GAS  /tmp/ccyM3aPD.s 			page 122


     /tmp/ccyM3aPD.s:1756   .text.usb_lld_get_status_out:0000000000000000 usb_lld_get_status_out
     /tmp/ccyM3aPD.s:1798   .text.usb_lld_get_status_out:0000000000000034 $d
     /tmp/ccyM3aPD.s:1803   .text.usb_lld_get_status_in:0000000000000000 $t
     /tmp/ccyM3aPD.s:1809   .text.usb_lld_get_status_in:0000000000000000 usb_lld_get_status_in
     /tmp/ccyM3aPD.s:1851   .text.usb_lld_get_status_in:0000000000000034 $d
     /tmp/ccyM3aPD.s:1856   .text.usb_lld_read_setup:0000000000000000 $t
     /tmp/ccyM3aPD.s:1862   .text.usb_lld_read_setup:0000000000000000 usb_lld_read_setup
     /tmp/ccyM3aPD.s:1925   .text.usb_lld_read_setup:0000000000000060 $d
     /tmp/ccyM3aPD.s:1930   .text.usb_lld_prepare_receive:0000000000000000 $t
     /tmp/ccyM3aPD.s:1936   .text.usb_lld_prepare_receive:0000000000000000 usb_lld_prepare_receive
     /tmp/ccyM3aPD.s:2002   .text.usb_lld_prepare_transmit:0000000000000000 $t
     /tmp/ccyM3aPD.s:2008   .text.usb_lld_prepare_transmit:0000000000000000 usb_lld_prepare_transmit
     /tmp/ccyM3aPD.s:2104   .text.usb_lld_prepare_transmit:00000000000000ac $d
     /tmp/ccyM3aPD.s:2109   .text.usb_lld_start_out:0000000000000000 $t
     /tmp/ccyM3aPD.s:2115   .text.usb_lld_start_out:0000000000000000 usb_lld_start_out
     /tmp/ccyM3aPD.s:2144   .text.usb_lld_start_out:0000000000000030 $d
     /tmp/ccyM3aPD.s:2149   .text.usb_lld_start_in:0000000000000000 $t
     /tmp/ccyM3aPD.s:2184   .text.usb_lld_start_in:0000000000000030 $d
     /tmp/ccyM3aPD.s:2189   .text.usb_lld_stall_out:0000000000000000 $t
     /tmp/ccyM3aPD.s:2195   .text.usb_lld_stall_out:0000000000000000 usb_lld_stall_out
     /tmp/ccyM3aPD.s:2224   .text.usb_lld_stall_out:0000000000000030 $d
     /tmp/ccyM3aPD.s:2229   .text.usb_lld_stall_in:0000000000000000 $t
     /tmp/ccyM3aPD.s:2235   .text.usb_lld_stall_in:0000000000000000 usb_lld_stall_in
     /tmp/ccyM3aPD.s:2264   .text.usb_lld_stall_in:0000000000000030 $d
     /tmp/ccyM3aPD.s:2269   .text.usb_lld_clear_out:0000000000000000 $t
     /tmp/ccyM3aPD.s:2275   .text.usb_lld_clear_out:0000000000000000 usb_lld_clear_out
     /tmp/ccyM3aPD.s:2312   .text.usb_lld_clear_out:0000000000000044 $d
     /tmp/ccyM3aPD.s:2317   .text.usb_lld_clear_in:0000000000000000 $t
     /tmp/ccyM3aPD.s:2323   .text.usb_lld_clear_in:0000000000000000 usb_lld_clear_in
     /tmp/ccyM3aPD.s:2360   .text.usb_lld_clear_in:0000000000000040 $d
                     .debug_frame:0000000000000010 $d
     /tmp/ccyM3aPD.s:673    .text.usb_packet_write_from_queue:000000000000010c $t
     /tmp/ccyM3aPD.s:1240   .text.Vector16C:00000000000003a4 $t
     /tmp/ccyM3aPD.s:1338   .text.usb_lld_start:0000000000000058 $t
     /tmp/ccyM3aPD.s:1397   .text.usb_lld_stop:0000000000000048 $t
     /tmp/ccyM3aPD.s:1469   .text.usb_lld_reset:0000000000000058 $t
     /tmp/ccyM3aPD.s:1504   .text.usb_lld_set_address:000000000000001c $t
     /tmp/ccyM3aPD.s:1690   .text.usb_lld_init_endpoint:0000000000000154 $t
     /tmp/ccyM3aPD.s:1749   .text.usb_lld_disable_endpoints:0000000000000044 $t
     /tmp/ccyM3aPD.s:1802   .text.usb_lld_get_status_out:0000000000000038 $t
     /tmp/ccyM3aPD.s:1855   .text.usb_lld_get_status_in:0000000000000038 $t
     /tmp/ccyM3aPD.s:1929   .text.usb_lld_read_setup:0000000000000064 $t
     /tmp/ccyM3aPD.s:2148   .text.usb_lld_start_out:0000000000000034 $t
     /tmp/ccyM3aPD.s:2188   .text.usb_lld_start_in:0000000000000034 $t
     /tmp/ccyM3aPD.s:2228   .text.usb_lld_stall_out:0000000000000034 $t
     /tmp/ccyM3aPD.s:2268   .text.usb_lld_stall_in:0000000000000034 $t
     /tmp/ccyM3aPD.s:2316   .text.usb_lld_clear_out:0000000000000048 $t
     /tmp/ccyM3aPD.s:2364   .text.usb_lld_clear_in:0000000000000044 $t

UNDEFINED SYMBOLS
_usb_ep0setup
_usb_ep0in
_usb_ep0out
chDbgPanic
dbg_check_lock_from_isr
chSchReadyI
dbg_check_unlock_from_isr
ARM GAS  /tmp/ccyM3aPD.s 			page 123


dbg_lock_cnt
dbg_check_enter_isr
dbg_check_leave_isr
_port_irq_epilogue
_usb_reset
usbObjectInit
nvicEnableVector
nvicDisableVector
